
HackKosice2023.elf:     file format elf32-littlearm

Sections:
Idx Name          Size      VMA       LMA       File off  Algn
  0 .isr_vector   000000bc  08000000  08000000  00010000  2**0
                  CONTENTS, ALLOC, LOAD, READONLY, DATA
  1 .text         00004f1c  080000bc  080000bc  000100bc  2**2
                  CONTENTS, ALLOC, LOAD, READONLY, CODE
  2 .rodata       000000b0  08004fd8  08004fd8  00014fd8  2**2
                  CONTENTS, ALLOC, LOAD, READONLY, DATA
  3 .ARM.extab    00000000  08005088  08005088  0002000c  2**0
                  CONTENTS
  4 .ARM          00000008  08005088  08005088  00015088  2**2
                  CONTENTS, ALLOC, LOAD, READONLY, DATA
  5 .preinit_array 00000000  08005090  08005090  0002000c  2**0
                  CONTENTS, ALLOC, LOAD, DATA
  6 .init_array   00000004  08005090  08005090  00015090  2**2
                  CONTENTS, ALLOC, LOAD, DATA
  7 .fini_array   00000004  08005094  08005094  00015094  2**2
                  CONTENTS, ALLOC, LOAD, DATA
  8 .data         0000000c  20000000  08005098  00020000  2**2
                  CONTENTS, ALLOC, LOAD, DATA
  9 .bss          00000260  2000000c  080050a4  0002000c  2**2
                  ALLOC
 10 ._user_heap_stack 00000604  2000026c  080050a4  0002026c  2**0
                  ALLOC
 11 .ARM.attributes 00000028  00000000  00000000  0002000c  2**0
                  CONTENTS, READONLY
 12 .debug_info   0001783e  00000000  00000000  00020034  2**0
                  CONTENTS, READONLY, DEBUGGING, OCTETS
 13 .debug_abbrev 00002b7e  00000000  00000000  00037872  2**0
                  CONTENTS, READONLY, DEBUGGING, OCTETS
 14 .debug_aranges 000012d8  00000000  00000000  0003a3f0  2**3
                  CONTENTS, READONLY, DEBUGGING, OCTETS
 15 .debug_ranges 000011c0  00000000  00000000  0003b6c8  2**3
                  CONTENTS, READONLY, DEBUGGING, OCTETS
 16 .debug_macro  0001d6e1  00000000  00000000  0003c888  2**0
                  CONTENTS, READONLY, DEBUGGING, OCTETS
 17 .debug_line   000175a6  00000000  00000000  00059f69  2**0
                  CONTENTS, READONLY, DEBUGGING, OCTETS
 18 .debug_str    000c08c4  00000000  00000000  0007150f  2**0
                  CONTENTS, READONLY, DEBUGGING, OCTETS
 19 .comment      00000050  00000000  00000000  00131dd3  2**0
                  CONTENTS, READONLY
 20 .debug_frame  000044b4  00000000  00000000  00131e24  2**2
                  CONTENTS, READONLY, DEBUGGING, OCTETS

Disassembly of section .text:

080000bc <__do_global_dtors_aux>:
 80000bc:	b510      	push	{r4, lr}
 80000be:	4c06      	ldr	r4, [pc, #24]	; (80000d8 <__do_global_dtors_aux+0x1c>)
 80000c0:	7823      	ldrb	r3, [r4, #0]
 80000c2:	2b00      	cmp	r3, #0
 80000c4:	d107      	bne.n	80000d6 <__do_global_dtors_aux+0x1a>
 80000c6:	4b05      	ldr	r3, [pc, #20]	; (80000dc <__do_global_dtors_aux+0x20>)
 80000c8:	2b00      	cmp	r3, #0
 80000ca:	d002      	beq.n	80000d2 <__do_global_dtors_aux+0x16>
 80000cc:	4804      	ldr	r0, [pc, #16]	; (80000e0 <__do_global_dtors_aux+0x24>)
 80000ce:	e000      	b.n	80000d2 <__do_global_dtors_aux+0x16>
 80000d0:	bf00      	nop
 80000d2:	2301      	movs	r3, #1
 80000d4:	7023      	strb	r3, [r4, #0]
 80000d6:	bd10      	pop	{r4, pc}
 80000d8:	2000000c 	.word	0x2000000c
 80000dc:	00000000 	.word	0x00000000
 80000e0:	08004fc0 	.word	0x08004fc0

080000e4 <frame_dummy>:
 80000e4:	4b04      	ldr	r3, [pc, #16]	; (80000f8 <frame_dummy+0x14>)
 80000e6:	b510      	push	{r4, lr}
 80000e8:	2b00      	cmp	r3, #0
 80000ea:	d003      	beq.n	80000f4 <frame_dummy+0x10>
 80000ec:	4903      	ldr	r1, [pc, #12]	; (80000fc <frame_dummy+0x18>)
 80000ee:	4804      	ldr	r0, [pc, #16]	; (8000100 <frame_dummy+0x1c>)
 80000f0:	e000      	b.n	80000f4 <frame_dummy+0x10>
 80000f2:	bf00      	nop
 80000f4:	bd10      	pop	{r4, pc}
 80000f6:	46c0      	nop			; (mov r8, r8)
 80000f8:	00000000 	.word	0x00000000
 80000fc:	20000010 	.word	0x20000010
 8000100:	08004fc0 	.word	0x08004fc0

08000104 <__udivsi3>:
 8000104:	2200      	movs	r2, #0
 8000106:	0843      	lsrs	r3, r0, #1
 8000108:	428b      	cmp	r3, r1
 800010a:	d374      	bcc.n	80001f6 <__udivsi3+0xf2>
 800010c:	0903      	lsrs	r3, r0, #4
 800010e:	428b      	cmp	r3, r1
 8000110:	d35f      	bcc.n	80001d2 <__udivsi3+0xce>
 8000112:	0a03      	lsrs	r3, r0, #8
 8000114:	428b      	cmp	r3, r1
 8000116:	d344      	bcc.n	80001a2 <__udivsi3+0x9e>
 8000118:	0b03      	lsrs	r3, r0, #12
 800011a:	428b      	cmp	r3, r1
 800011c:	d328      	bcc.n	8000170 <__udivsi3+0x6c>
 800011e:	0c03      	lsrs	r3, r0, #16
 8000120:	428b      	cmp	r3, r1
 8000122:	d30d      	bcc.n	8000140 <__udivsi3+0x3c>
 8000124:	22ff      	movs	r2, #255	; 0xff
 8000126:	0209      	lsls	r1, r1, #8
 8000128:	ba12      	rev	r2, r2
 800012a:	0c03      	lsrs	r3, r0, #16
 800012c:	428b      	cmp	r3, r1
 800012e:	d302      	bcc.n	8000136 <__udivsi3+0x32>
 8000130:	1212      	asrs	r2, r2, #8
 8000132:	0209      	lsls	r1, r1, #8
 8000134:	d065      	beq.n	8000202 <__udivsi3+0xfe>
 8000136:	0b03      	lsrs	r3, r0, #12
 8000138:	428b      	cmp	r3, r1
 800013a:	d319      	bcc.n	8000170 <__udivsi3+0x6c>
 800013c:	e000      	b.n	8000140 <__udivsi3+0x3c>
 800013e:	0a09      	lsrs	r1, r1, #8
 8000140:	0bc3      	lsrs	r3, r0, #15
 8000142:	428b      	cmp	r3, r1
 8000144:	d301      	bcc.n	800014a <__udivsi3+0x46>
 8000146:	03cb      	lsls	r3, r1, #15
 8000148:	1ac0      	subs	r0, r0, r3
 800014a:	4152      	adcs	r2, r2
 800014c:	0b83      	lsrs	r3, r0, #14
 800014e:	428b      	cmp	r3, r1
 8000150:	d301      	bcc.n	8000156 <__udivsi3+0x52>
 8000152:	038b      	lsls	r3, r1, #14
 8000154:	1ac0      	subs	r0, r0, r3
 8000156:	4152      	adcs	r2, r2
 8000158:	0b43      	lsrs	r3, r0, #13
 800015a:	428b      	cmp	r3, r1
 800015c:	d301      	bcc.n	8000162 <__udivsi3+0x5e>
 800015e:	034b      	lsls	r3, r1, #13
 8000160:	1ac0      	subs	r0, r0, r3
 8000162:	4152      	adcs	r2, r2
 8000164:	0b03      	lsrs	r3, r0, #12
 8000166:	428b      	cmp	r3, r1
 8000168:	d301      	bcc.n	800016e <__udivsi3+0x6a>
 800016a:	030b      	lsls	r3, r1, #12
 800016c:	1ac0      	subs	r0, r0, r3
 800016e:	4152      	adcs	r2, r2
 8000170:	0ac3      	lsrs	r3, r0, #11
 8000172:	428b      	cmp	r3, r1
 8000174:	d301      	bcc.n	800017a <__udivsi3+0x76>
 8000176:	02cb      	lsls	r3, r1, #11
 8000178:	1ac0      	subs	r0, r0, r3
 800017a:	4152      	adcs	r2, r2
 800017c:	0a83      	lsrs	r3, r0, #10
 800017e:	428b      	cmp	r3, r1
 8000180:	d301      	bcc.n	8000186 <__udivsi3+0x82>
 8000182:	028b      	lsls	r3, r1, #10
 8000184:	1ac0      	subs	r0, r0, r3
 8000186:	4152      	adcs	r2, r2
 8000188:	0a43      	lsrs	r3, r0, #9
 800018a:	428b      	cmp	r3, r1
 800018c:	d301      	bcc.n	8000192 <__udivsi3+0x8e>
 800018e:	024b      	lsls	r3, r1, #9
 8000190:	1ac0      	subs	r0, r0, r3
 8000192:	4152      	adcs	r2, r2
 8000194:	0a03      	lsrs	r3, r0, #8
 8000196:	428b      	cmp	r3, r1
 8000198:	d301      	bcc.n	800019e <__udivsi3+0x9a>
 800019a:	020b      	lsls	r3, r1, #8
 800019c:	1ac0      	subs	r0, r0, r3
 800019e:	4152      	adcs	r2, r2
 80001a0:	d2cd      	bcs.n	800013e <__udivsi3+0x3a>
 80001a2:	09c3      	lsrs	r3, r0, #7
 80001a4:	428b      	cmp	r3, r1
 80001a6:	d301      	bcc.n	80001ac <__udivsi3+0xa8>
 80001a8:	01cb      	lsls	r3, r1, #7
 80001aa:	1ac0      	subs	r0, r0, r3
 80001ac:	4152      	adcs	r2, r2
 80001ae:	0983      	lsrs	r3, r0, #6
 80001b0:	428b      	cmp	r3, r1
 80001b2:	d301      	bcc.n	80001b8 <__udivsi3+0xb4>
 80001b4:	018b      	lsls	r3, r1, #6
 80001b6:	1ac0      	subs	r0, r0, r3
 80001b8:	4152      	adcs	r2, r2
 80001ba:	0943      	lsrs	r3, r0, #5
 80001bc:	428b      	cmp	r3, r1
 80001be:	d301      	bcc.n	80001c4 <__udivsi3+0xc0>
 80001c0:	014b      	lsls	r3, r1, #5
 80001c2:	1ac0      	subs	r0, r0, r3
 80001c4:	4152      	adcs	r2, r2
 80001c6:	0903      	lsrs	r3, r0, #4
 80001c8:	428b      	cmp	r3, r1
 80001ca:	d301      	bcc.n	80001d0 <__udivsi3+0xcc>
 80001cc:	010b      	lsls	r3, r1, #4
 80001ce:	1ac0      	subs	r0, r0, r3
 80001d0:	4152      	adcs	r2, r2
 80001d2:	08c3      	lsrs	r3, r0, #3
 80001d4:	428b      	cmp	r3, r1
 80001d6:	d301      	bcc.n	80001dc <__udivsi3+0xd8>
 80001d8:	00cb      	lsls	r3, r1, #3
 80001da:	1ac0      	subs	r0, r0, r3
 80001dc:	4152      	adcs	r2, r2
 80001de:	0883      	lsrs	r3, r0, #2
 80001e0:	428b      	cmp	r3, r1
 80001e2:	d301      	bcc.n	80001e8 <__udivsi3+0xe4>
 80001e4:	008b      	lsls	r3, r1, #2
 80001e6:	1ac0      	subs	r0, r0, r3
 80001e8:	4152      	adcs	r2, r2
 80001ea:	0843      	lsrs	r3, r0, #1
 80001ec:	428b      	cmp	r3, r1
 80001ee:	d301      	bcc.n	80001f4 <__udivsi3+0xf0>
 80001f0:	004b      	lsls	r3, r1, #1
 80001f2:	1ac0      	subs	r0, r0, r3
 80001f4:	4152      	adcs	r2, r2
 80001f6:	1a41      	subs	r1, r0, r1
 80001f8:	d200      	bcs.n	80001fc <__udivsi3+0xf8>
 80001fa:	4601      	mov	r1, r0
 80001fc:	4152      	adcs	r2, r2
 80001fe:	4610      	mov	r0, r2
 8000200:	4770      	bx	lr
 8000202:	e7ff      	b.n	8000204 <__udivsi3+0x100>
 8000204:	b501      	push	{r0, lr}
 8000206:	2000      	movs	r0, #0
 8000208:	f000 f8f0 	bl	80003ec <__aeabi_idiv0>
 800020c:	bd02      	pop	{r1, pc}
 800020e:	46c0      	nop			; (mov r8, r8)

08000210 <__aeabi_uidivmod>:
 8000210:	2900      	cmp	r1, #0
 8000212:	d0f7      	beq.n	8000204 <__udivsi3+0x100>
 8000214:	e776      	b.n	8000104 <__udivsi3>
 8000216:	4770      	bx	lr

08000218 <__divsi3>:
 8000218:	4603      	mov	r3, r0
 800021a:	430b      	orrs	r3, r1
 800021c:	d47f      	bmi.n	800031e <__divsi3+0x106>
 800021e:	2200      	movs	r2, #0
 8000220:	0843      	lsrs	r3, r0, #1
 8000222:	428b      	cmp	r3, r1
 8000224:	d374      	bcc.n	8000310 <__divsi3+0xf8>
 8000226:	0903      	lsrs	r3, r0, #4
 8000228:	428b      	cmp	r3, r1
 800022a:	d35f      	bcc.n	80002ec <__divsi3+0xd4>
 800022c:	0a03      	lsrs	r3, r0, #8
 800022e:	428b      	cmp	r3, r1
 8000230:	d344      	bcc.n	80002bc <__divsi3+0xa4>
 8000232:	0b03      	lsrs	r3, r0, #12
 8000234:	428b      	cmp	r3, r1
 8000236:	d328      	bcc.n	800028a <__divsi3+0x72>
 8000238:	0c03      	lsrs	r3, r0, #16
 800023a:	428b      	cmp	r3, r1
 800023c:	d30d      	bcc.n	800025a <__divsi3+0x42>
 800023e:	22ff      	movs	r2, #255	; 0xff
 8000240:	0209      	lsls	r1, r1, #8
 8000242:	ba12      	rev	r2, r2
 8000244:	0c03      	lsrs	r3, r0, #16
 8000246:	428b      	cmp	r3, r1
 8000248:	d302      	bcc.n	8000250 <__divsi3+0x38>
 800024a:	1212      	asrs	r2, r2, #8
 800024c:	0209      	lsls	r1, r1, #8
 800024e:	d065      	beq.n	800031c <__divsi3+0x104>
 8000250:	0b03      	lsrs	r3, r0, #12
 8000252:	428b      	cmp	r3, r1
 8000254:	d319      	bcc.n	800028a <__divsi3+0x72>
 8000256:	e000      	b.n	800025a <__divsi3+0x42>
 8000258:	0a09      	lsrs	r1, r1, #8
 800025a:	0bc3      	lsrs	r3, r0, #15
 800025c:	428b      	cmp	r3, r1
 800025e:	d301      	bcc.n	8000264 <__divsi3+0x4c>
 8000260:	03cb      	lsls	r3, r1, #15
 8000262:	1ac0      	subs	r0, r0, r3
 8000264:	4152      	adcs	r2, r2
 8000266:	0b83      	lsrs	r3, r0, #14
 8000268:	428b      	cmp	r3, r1
 800026a:	d301      	bcc.n	8000270 <__divsi3+0x58>
 800026c:	038b      	lsls	r3, r1, #14
 800026e:	1ac0      	subs	r0, r0, r3
 8000270:	4152      	adcs	r2, r2
 8000272:	0b43      	lsrs	r3, r0, #13
 8000274:	428b      	cmp	r3, r1
 8000276:	d301      	bcc.n	800027c <__divsi3+0x64>
 8000278:	034b      	lsls	r3, r1, #13
 800027a:	1ac0      	subs	r0, r0, r3
 800027c:	4152      	adcs	r2, r2
 800027e:	0b03      	lsrs	r3, r0, #12
 8000280:	428b      	cmp	r3, r1
 8000282:	d301      	bcc.n	8000288 <__divsi3+0x70>
 8000284:	030b      	lsls	r3, r1, #12
 8000286:	1ac0      	subs	r0, r0, r3
 8000288:	4152      	adcs	r2, r2
 800028a:	0ac3      	lsrs	r3, r0, #11
 800028c:	428b      	cmp	r3, r1
 800028e:	d301      	bcc.n	8000294 <__divsi3+0x7c>
 8000290:	02cb      	lsls	r3, r1, #11
 8000292:	1ac0      	subs	r0, r0, r3
 8000294:	4152      	adcs	r2, r2
 8000296:	0a83      	lsrs	r3, r0, #10
 8000298:	428b      	cmp	r3, r1
 800029a:	d301      	bcc.n	80002a0 <__divsi3+0x88>
 800029c:	028b      	lsls	r3, r1, #10
 800029e:	1ac0      	subs	r0, r0, r3
 80002a0:	4152      	adcs	r2, r2
 80002a2:	0a43      	lsrs	r3, r0, #9
 80002a4:	428b      	cmp	r3, r1
 80002a6:	d301      	bcc.n	80002ac <__divsi3+0x94>
 80002a8:	024b      	lsls	r3, r1, #9
 80002aa:	1ac0      	subs	r0, r0, r3
 80002ac:	4152      	adcs	r2, r2
 80002ae:	0a03      	lsrs	r3, r0, #8
 80002b0:	428b      	cmp	r3, r1
 80002b2:	d301      	bcc.n	80002b8 <__divsi3+0xa0>
 80002b4:	020b      	lsls	r3, r1, #8
 80002b6:	1ac0      	subs	r0, r0, r3
 80002b8:	4152      	adcs	r2, r2
 80002ba:	d2cd      	bcs.n	8000258 <__divsi3+0x40>
 80002bc:	09c3      	lsrs	r3, r0, #7
 80002be:	428b      	cmp	r3, r1
 80002c0:	d301      	bcc.n	80002c6 <__divsi3+0xae>
 80002c2:	01cb      	lsls	r3, r1, #7
 80002c4:	1ac0      	subs	r0, r0, r3
 80002c6:	4152      	adcs	r2, r2
 80002c8:	0983      	lsrs	r3, r0, #6
 80002ca:	428b      	cmp	r3, r1
 80002cc:	d301      	bcc.n	80002d2 <__divsi3+0xba>
 80002ce:	018b      	lsls	r3, r1, #6
 80002d0:	1ac0      	subs	r0, r0, r3
 80002d2:	4152      	adcs	r2, r2
 80002d4:	0943      	lsrs	r3, r0, #5
 80002d6:	428b      	cmp	r3, r1
 80002d8:	d301      	bcc.n	80002de <__divsi3+0xc6>
 80002da:	014b      	lsls	r3, r1, #5
 80002dc:	1ac0      	subs	r0, r0, r3
 80002de:	4152      	adcs	r2, r2
 80002e0:	0903      	lsrs	r3, r0, #4
 80002e2:	428b      	cmp	r3, r1
 80002e4:	d301      	bcc.n	80002ea <__divsi3+0xd2>
 80002e6:	010b      	lsls	r3, r1, #4
 80002e8:	1ac0      	subs	r0, r0, r3
 80002ea:	4152      	adcs	r2, r2
 80002ec:	08c3      	lsrs	r3, r0, #3
 80002ee:	428b      	cmp	r3, r1
 80002f0:	d301      	bcc.n	80002f6 <__divsi3+0xde>
 80002f2:	00cb      	lsls	r3, r1, #3
 80002f4:	1ac0      	subs	r0, r0, r3
 80002f6:	4152      	adcs	r2, r2
 80002f8:	0883      	lsrs	r3, r0, #2
 80002fa:	428b      	cmp	r3, r1
 80002fc:	d301      	bcc.n	8000302 <__divsi3+0xea>
 80002fe:	008b      	lsls	r3, r1, #2
 8000300:	1ac0      	subs	r0, r0, r3
 8000302:	4152      	adcs	r2, r2
 8000304:	0843      	lsrs	r3, r0, #1
 8000306:	428b      	cmp	r3, r1
 8000308:	d301      	bcc.n	800030e <__divsi3+0xf6>
 800030a:	004b      	lsls	r3, r1, #1
 800030c:	1ac0      	subs	r0, r0, r3
 800030e:	4152      	adcs	r2, r2
 8000310:	1a41      	subs	r1, r0, r1
 8000312:	d200      	bcs.n	8000316 <__divsi3+0xfe>
 8000314:	4601      	mov	r1, r0
 8000316:	4152      	adcs	r2, r2
 8000318:	4610      	mov	r0, r2
 800031a:	4770      	bx	lr
 800031c:	e05d      	b.n	80003da <__divsi3+0x1c2>
 800031e:	0fca      	lsrs	r2, r1, #31
 8000320:	d000      	beq.n	8000324 <__divsi3+0x10c>
 8000322:	4249      	negs	r1, r1
 8000324:	1003      	asrs	r3, r0, #32
 8000326:	d300      	bcc.n	800032a <__divsi3+0x112>
 8000328:	4240      	negs	r0, r0
 800032a:	4053      	eors	r3, r2
 800032c:	2200      	movs	r2, #0
 800032e:	469c      	mov	ip, r3
 8000330:	0903      	lsrs	r3, r0, #4
 8000332:	428b      	cmp	r3, r1
 8000334:	d32d      	bcc.n	8000392 <__divsi3+0x17a>
 8000336:	0a03      	lsrs	r3, r0, #8
 8000338:	428b      	cmp	r3, r1
 800033a:	d312      	bcc.n	8000362 <__divsi3+0x14a>
 800033c:	22fc      	movs	r2, #252	; 0xfc
 800033e:	0189      	lsls	r1, r1, #6
 8000340:	ba12      	rev	r2, r2
 8000342:	0a03      	lsrs	r3, r0, #8
 8000344:	428b      	cmp	r3, r1
 8000346:	d30c      	bcc.n	8000362 <__divsi3+0x14a>
 8000348:	0189      	lsls	r1, r1, #6
 800034a:	1192      	asrs	r2, r2, #6
 800034c:	428b      	cmp	r3, r1
 800034e:	d308      	bcc.n	8000362 <__divsi3+0x14a>
 8000350:	0189      	lsls	r1, r1, #6
 8000352:	1192      	asrs	r2, r2, #6
 8000354:	428b      	cmp	r3, r1
 8000356:	d304      	bcc.n	8000362 <__divsi3+0x14a>
 8000358:	0189      	lsls	r1, r1, #6
 800035a:	d03a      	beq.n	80003d2 <__divsi3+0x1ba>
 800035c:	1192      	asrs	r2, r2, #6
 800035e:	e000      	b.n	8000362 <__divsi3+0x14a>
 8000360:	0989      	lsrs	r1, r1, #6
 8000362:	09c3      	lsrs	r3, r0, #7
 8000364:	428b      	cmp	r3, r1
 8000366:	d301      	bcc.n	800036c <__divsi3+0x154>
 8000368:	01cb      	lsls	r3, r1, #7
 800036a:	1ac0      	subs	r0, r0, r3
 800036c:	4152      	adcs	r2, r2
 800036e:	0983      	lsrs	r3, r0, #6
 8000370:	428b      	cmp	r3, r1
 8000372:	d301      	bcc.n	8000378 <__divsi3+0x160>
 8000374:	018b      	lsls	r3, r1, #6
 8000376:	1ac0      	subs	r0, r0, r3
 8000378:	4152      	adcs	r2, r2
 800037a:	0943      	lsrs	r3, r0, #5
 800037c:	428b      	cmp	r3, r1
 800037e:	d301      	bcc.n	8000384 <__divsi3+0x16c>
 8000380:	014b      	lsls	r3, r1, #5
 8000382:	1ac0      	subs	r0, r0, r3
 8000384:	4152      	adcs	r2, r2
 8000386:	0903      	lsrs	r3, r0, #4
 8000388:	428b      	cmp	r3, r1
 800038a:	d301      	bcc.n	8000390 <__divsi3+0x178>
 800038c:	010b      	lsls	r3, r1, #4
 800038e:	1ac0      	subs	r0, r0, r3
 8000390:	4152      	adcs	r2, r2
 8000392:	08c3      	lsrs	r3, r0, #3
 8000394:	428b      	cmp	r3, r1
 8000396:	d301      	bcc.n	800039c <__divsi3+0x184>
 8000398:	00cb      	lsls	r3, r1, #3
 800039a:	1ac0      	subs	r0, r0, r3
 800039c:	4152      	adcs	r2, r2
 800039e:	0883      	lsrs	r3, r0, #2
 80003a0:	428b      	cmp	r3, r1
 80003a2:	d301      	bcc.n	80003a8 <__divsi3+0x190>
 80003a4:	008b      	lsls	r3, r1, #2
 80003a6:	1ac0      	subs	r0, r0, r3
 80003a8:	4152      	adcs	r2, r2
 80003aa:	d2d9      	bcs.n	8000360 <__divsi3+0x148>
 80003ac:	0843      	lsrs	r3, r0, #1
 80003ae:	428b      	cmp	r3, r1
 80003b0:	d301      	bcc.n	80003b6 <__divsi3+0x19e>
 80003b2:	004b      	lsls	r3, r1, #1
 80003b4:	1ac0      	subs	r0, r0, r3
 80003b6:	4152      	adcs	r2, r2
 80003b8:	1a41      	subs	r1, r0, r1
 80003ba:	d200      	bcs.n	80003be <__divsi3+0x1a6>
 80003bc:	4601      	mov	r1, r0
 80003be:	4663      	mov	r3, ip
 80003c0:	4152      	adcs	r2, r2
 80003c2:	105b      	asrs	r3, r3, #1
 80003c4:	4610      	mov	r0, r2
 80003c6:	d301      	bcc.n	80003cc <__divsi3+0x1b4>
 80003c8:	4240      	negs	r0, r0
 80003ca:	2b00      	cmp	r3, #0
 80003cc:	d500      	bpl.n	80003d0 <__divsi3+0x1b8>
 80003ce:	4249      	negs	r1, r1
 80003d0:	4770      	bx	lr
 80003d2:	4663      	mov	r3, ip
 80003d4:	105b      	asrs	r3, r3, #1
 80003d6:	d300      	bcc.n	80003da <__divsi3+0x1c2>
 80003d8:	4240      	negs	r0, r0
 80003da:	b501      	push	{r0, lr}
 80003dc:	2000      	movs	r0, #0
 80003de:	f000 f805 	bl	80003ec <__aeabi_idiv0>
 80003e2:	bd02      	pop	{r1, pc}

080003e4 <__aeabi_idivmod>:
 80003e4:	2900      	cmp	r1, #0
 80003e6:	d0f8      	beq.n	80003da <__divsi3+0x1c2>
 80003e8:	e716      	b.n	8000218 <__divsi3>
 80003ea:	4770      	bx	lr

080003ec <__aeabi_idiv0>:
 80003ec:	4770      	bx	lr
 80003ee:	46c0      	nop			; (mov r8, r8)

080003f0 <__aeabi_uldivmod>:
 80003f0:	2b00      	cmp	r3, #0
 80003f2:	d111      	bne.n	8000418 <__aeabi_uldivmod+0x28>
 80003f4:	2a00      	cmp	r2, #0
 80003f6:	d10f      	bne.n	8000418 <__aeabi_uldivmod+0x28>
 80003f8:	2900      	cmp	r1, #0
 80003fa:	d100      	bne.n	80003fe <__aeabi_uldivmod+0xe>
 80003fc:	2800      	cmp	r0, #0
 80003fe:	d002      	beq.n	8000406 <__aeabi_uldivmod+0x16>
 8000400:	2100      	movs	r1, #0
 8000402:	43c9      	mvns	r1, r1
 8000404:	0008      	movs	r0, r1
 8000406:	b407      	push	{r0, r1, r2}
 8000408:	4802      	ldr	r0, [pc, #8]	; (8000414 <__aeabi_uldivmod+0x24>)
 800040a:	a102      	add	r1, pc, #8	; (adr r1, 8000414 <__aeabi_uldivmod+0x24>)
 800040c:	1840      	adds	r0, r0, r1
 800040e:	9002      	str	r0, [sp, #8]
 8000410:	bd03      	pop	{r0, r1, pc}
 8000412:	46c0      	nop			; (mov r8, r8)
 8000414:	ffffffd9 	.word	0xffffffd9
 8000418:	b403      	push	{r0, r1}
 800041a:	4668      	mov	r0, sp
 800041c:	b501      	push	{r0, lr}
 800041e:	9802      	ldr	r0, [sp, #8]
 8000420:	f000 f806 	bl	8000430 <__udivmoddi4>
 8000424:	9b01      	ldr	r3, [sp, #4]
 8000426:	469e      	mov	lr, r3
 8000428:	b002      	add	sp, #8
 800042a:	bc0c      	pop	{r2, r3}
 800042c:	4770      	bx	lr
 800042e:	46c0      	nop			; (mov r8, r8)

08000430 <__udivmoddi4>:
 8000430:	b5f0      	push	{r4, r5, r6, r7, lr}
 8000432:	4657      	mov	r7, sl
 8000434:	464e      	mov	r6, r9
 8000436:	4645      	mov	r5, r8
 8000438:	46de      	mov	lr, fp
 800043a:	b5e0      	push	{r5, r6, r7, lr}
 800043c:	0004      	movs	r4, r0
 800043e:	000d      	movs	r5, r1
 8000440:	4692      	mov	sl, r2
 8000442:	4699      	mov	r9, r3
 8000444:	b083      	sub	sp, #12
 8000446:	428b      	cmp	r3, r1
 8000448:	d830      	bhi.n	80004ac <__udivmoddi4+0x7c>
 800044a:	d02d      	beq.n	80004a8 <__udivmoddi4+0x78>
 800044c:	4649      	mov	r1, r9
 800044e:	4650      	mov	r0, sl
 8000450:	f000 f8ba 	bl	80005c8 <__clzdi2>
 8000454:	0029      	movs	r1, r5
 8000456:	0006      	movs	r6, r0
 8000458:	0020      	movs	r0, r4
 800045a:	f000 f8b5 	bl	80005c8 <__clzdi2>
 800045e:	1a33      	subs	r3, r6, r0
 8000460:	4698      	mov	r8, r3
 8000462:	3b20      	subs	r3, #32
 8000464:	469b      	mov	fp, r3
 8000466:	d433      	bmi.n	80004d0 <__udivmoddi4+0xa0>
 8000468:	465a      	mov	r2, fp
 800046a:	4653      	mov	r3, sl
 800046c:	4093      	lsls	r3, r2
 800046e:	4642      	mov	r2, r8
 8000470:	001f      	movs	r7, r3
 8000472:	4653      	mov	r3, sl
 8000474:	4093      	lsls	r3, r2
 8000476:	001e      	movs	r6, r3
 8000478:	42af      	cmp	r7, r5
 800047a:	d83a      	bhi.n	80004f2 <__udivmoddi4+0xc2>
 800047c:	42af      	cmp	r7, r5
 800047e:	d100      	bne.n	8000482 <__udivmoddi4+0x52>
 8000480:	e078      	b.n	8000574 <__udivmoddi4+0x144>
 8000482:	465b      	mov	r3, fp
 8000484:	1ba4      	subs	r4, r4, r6
 8000486:	41bd      	sbcs	r5, r7
 8000488:	2b00      	cmp	r3, #0
 800048a:	da00      	bge.n	800048e <__udivmoddi4+0x5e>
 800048c:	e075      	b.n	800057a <__udivmoddi4+0x14a>
 800048e:	2200      	movs	r2, #0
 8000490:	2300      	movs	r3, #0
 8000492:	9200      	str	r2, [sp, #0]
 8000494:	9301      	str	r3, [sp, #4]
 8000496:	2301      	movs	r3, #1
 8000498:	465a      	mov	r2, fp
 800049a:	4093      	lsls	r3, r2
 800049c:	9301      	str	r3, [sp, #4]
 800049e:	2301      	movs	r3, #1
 80004a0:	4642      	mov	r2, r8
 80004a2:	4093      	lsls	r3, r2
 80004a4:	9300      	str	r3, [sp, #0]
 80004a6:	e028      	b.n	80004fa <__udivmoddi4+0xca>
 80004a8:	4282      	cmp	r2, r0
 80004aa:	d9cf      	bls.n	800044c <__udivmoddi4+0x1c>
 80004ac:	2200      	movs	r2, #0
 80004ae:	2300      	movs	r3, #0
 80004b0:	9200      	str	r2, [sp, #0]
 80004b2:	9301      	str	r3, [sp, #4]
 80004b4:	9b0c      	ldr	r3, [sp, #48]	; 0x30
 80004b6:	2b00      	cmp	r3, #0
 80004b8:	d001      	beq.n	80004be <__udivmoddi4+0x8e>
 80004ba:	601c      	str	r4, [r3, #0]
 80004bc:	605d      	str	r5, [r3, #4]
 80004be:	9800      	ldr	r0, [sp, #0]
 80004c0:	9901      	ldr	r1, [sp, #4]
 80004c2:	b003      	add	sp, #12
 80004c4:	bcf0      	pop	{r4, r5, r6, r7}
 80004c6:	46bb      	mov	fp, r7
 80004c8:	46b2      	mov	sl, r6
 80004ca:	46a9      	mov	r9, r5
 80004cc:	46a0      	mov	r8, r4
 80004ce:	bdf0      	pop	{r4, r5, r6, r7, pc}
 80004d0:	4642      	mov	r2, r8
 80004d2:	2320      	movs	r3, #32
 80004d4:	1a9b      	subs	r3, r3, r2
 80004d6:	4652      	mov	r2, sl
 80004d8:	40da      	lsrs	r2, r3
 80004da:	4641      	mov	r1, r8
 80004dc:	0013      	movs	r3, r2
 80004de:	464a      	mov	r2, r9
 80004e0:	408a      	lsls	r2, r1
 80004e2:	0017      	movs	r7, r2
 80004e4:	4642      	mov	r2, r8
 80004e6:	431f      	orrs	r7, r3
 80004e8:	4653      	mov	r3, sl
 80004ea:	4093      	lsls	r3, r2
 80004ec:	001e      	movs	r6, r3
 80004ee:	42af      	cmp	r7, r5
 80004f0:	d9c4      	bls.n	800047c <__udivmoddi4+0x4c>
 80004f2:	2200      	movs	r2, #0
 80004f4:	2300      	movs	r3, #0
 80004f6:	9200      	str	r2, [sp, #0]
 80004f8:	9301      	str	r3, [sp, #4]
 80004fa:	4643      	mov	r3, r8
 80004fc:	2b00      	cmp	r3, #0
 80004fe:	d0d9      	beq.n	80004b4 <__udivmoddi4+0x84>
 8000500:	07fb      	lsls	r3, r7, #31
 8000502:	0872      	lsrs	r2, r6, #1
 8000504:	431a      	orrs	r2, r3
 8000506:	4646      	mov	r6, r8
 8000508:	087b      	lsrs	r3, r7, #1
 800050a:	e00e      	b.n	800052a <__udivmoddi4+0xfa>
 800050c:	42ab      	cmp	r3, r5
 800050e:	d101      	bne.n	8000514 <__udivmoddi4+0xe4>
 8000510:	42a2      	cmp	r2, r4
 8000512:	d80c      	bhi.n	800052e <__udivmoddi4+0xfe>
 8000514:	1aa4      	subs	r4, r4, r2
 8000516:	419d      	sbcs	r5, r3
 8000518:	2001      	movs	r0, #1
 800051a:	1924      	adds	r4, r4, r4
 800051c:	416d      	adcs	r5, r5
 800051e:	2100      	movs	r1, #0
 8000520:	3e01      	subs	r6, #1
 8000522:	1824      	adds	r4, r4, r0
 8000524:	414d      	adcs	r5, r1
 8000526:	2e00      	cmp	r6, #0
 8000528:	d006      	beq.n	8000538 <__udivmoddi4+0x108>
 800052a:	42ab      	cmp	r3, r5
 800052c:	d9ee      	bls.n	800050c <__udivmoddi4+0xdc>
 800052e:	3e01      	subs	r6, #1
 8000530:	1924      	adds	r4, r4, r4
 8000532:	416d      	adcs	r5, r5
 8000534:	2e00      	cmp	r6, #0
 8000536:	d1f8      	bne.n	800052a <__udivmoddi4+0xfa>
 8000538:	9800      	ldr	r0, [sp, #0]
 800053a:	9901      	ldr	r1, [sp, #4]
 800053c:	465b      	mov	r3, fp
 800053e:	1900      	adds	r0, r0, r4
 8000540:	4169      	adcs	r1, r5
 8000542:	2b00      	cmp	r3, #0
 8000544:	db24      	blt.n	8000590 <__udivmoddi4+0x160>
 8000546:	002b      	movs	r3, r5
 8000548:	465a      	mov	r2, fp
 800054a:	4644      	mov	r4, r8
 800054c:	40d3      	lsrs	r3, r2
 800054e:	002a      	movs	r2, r5
 8000550:	40e2      	lsrs	r2, r4
 8000552:	001c      	movs	r4, r3
 8000554:	465b      	mov	r3, fp
 8000556:	0015      	movs	r5, r2
 8000558:	2b00      	cmp	r3, #0
 800055a:	db2a      	blt.n	80005b2 <__udivmoddi4+0x182>
 800055c:	0026      	movs	r6, r4
 800055e:	409e      	lsls	r6, r3
 8000560:	0033      	movs	r3, r6
 8000562:	0026      	movs	r6, r4
 8000564:	4647      	mov	r7, r8
 8000566:	40be      	lsls	r6, r7
 8000568:	0032      	movs	r2, r6
 800056a:	1a80      	subs	r0, r0, r2
 800056c:	4199      	sbcs	r1, r3
 800056e:	9000      	str	r0, [sp, #0]
 8000570:	9101      	str	r1, [sp, #4]
 8000572:	e79f      	b.n	80004b4 <__udivmoddi4+0x84>
 8000574:	42a3      	cmp	r3, r4
 8000576:	d8bc      	bhi.n	80004f2 <__udivmoddi4+0xc2>
 8000578:	e783      	b.n	8000482 <__udivmoddi4+0x52>
 800057a:	4642      	mov	r2, r8
 800057c:	2320      	movs	r3, #32
 800057e:	2100      	movs	r1, #0
 8000580:	1a9b      	subs	r3, r3, r2
 8000582:	2200      	movs	r2, #0
 8000584:	9100      	str	r1, [sp, #0]
 8000586:	9201      	str	r2, [sp, #4]
 8000588:	2201      	movs	r2, #1
 800058a:	40da      	lsrs	r2, r3
 800058c:	9201      	str	r2, [sp, #4]
 800058e:	e786      	b.n	800049e <__udivmoddi4+0x6e>
 8000590:	4642      	mov	r2, r8
 8000592:	2320      	movs	r3, #32
 8000594:	1a9b      	subs	r3, r3, r2
 8000596:	002a      	movs	r2, r5
 8000598:	4646      	mov	r6, r8
 800059a:	409a      	lsls	r2, r3
 800059c:	0023      	movs	r3, r4
 800059e:	40f3      	lsrs	r3, r6
 80005a0:	4644      	mov	r4, r8
 80005a2:	4313      	orrs	r3, r2
 80005a4:	002a      	movs	r2, r5
 80005a6:	40e2      	lsrs	r2, r4
 80005a8:	001c      	movs	r4, r3
 80005aa:	465b      	mov	r3, fp
 80005ac:	0015      	movs	r5, r2
 80005ae:	2b00      	cmp	r3, #0
 80005b0:	dad4      	bge.n	800055c <__udivmoddi4+0x12c>
 80005b2:	4642      	mov	r2, r8
 80005b4:	002f      	movs	r7, r5
 80005b6:	2320      	movs	r3, #32
 80005b8:	0026      	movs	r6, r4
 80005ba:	4097      	lsls	r7, r2
 80005bc:	1a9b      	subs	r3, r3, r2
 80005be:	40de      	lsrs	r6, r3
 80005c0:	003b      	movs	r3, r7
 80005c2:	4333      	orrs	r3, r6
 80005c4:	e7cd      	b.n	8000562 <__udivmoddi4+0x132>
 80005c6:	46c0      	nop			; (mov r8, r8)

080005c8 <__clzdi2>:
 80005c8:	b510      	push	{r4, lr}
 80005ca:	2900      	cmp	r1, #0
 80005cc:	d103      	bne.n	80005d6 <__clzdi2+0xe>
 80005ce:	f000 f807 	bl	80005e0 <__clzsi2>
 80005d2:	3020      	adds	r0, #32
 80005d4:	e002      	b.n	80005dc <__clzdi2+0x14>
 80005d6:	0008      	movs	r0, r1
 80005d8:	f000 f802 	bl	80005e0 <__clzsi2>
 80005dc:	bd10      	pop	{r4, pc}
 80005de:	46c0      	nop			; (mov r8, r8)

080005e0 <__clzsi2>:
 80005e0:	211c      	movs	r1, #28
 80005e2:	2301      	movs	r3, #1
 80005e4:	041b      	lsls	r3, r3, #16
 80005e6:	4298      	cmp	r0, r3
 80005e8:	d301      	bcc.n	80005ee <__clzsi2+0xe>
 80005ea:	0c00      	lsrs	r0, r0, #16
 80005ec:	3910      	subs	r1, #16
 80005ee:	0a1b      	lsrs	r3, r3, #8
 80005f0:	4298      	cmp	r0, r3
 80005f2:	d301      	bcc.n	80005f8 <__clzsi2+0x18>
 80005f4:	0a00      	lsrs	r0, r0, #8
 80005f6:	3908      	subs	r1, #8
 80005f8:	091b      	lsrs	r3, r3, #4
 80005fa:	4298      	cmp	r0, r3
 80005fc:	d301      	bcc.n	8000602 <__clzsi2+0x22>
 80005fe:	0900      	lsrs	r0, r0, #4
 8000600:	3904      	subs	r1, #4
 8000602:	a202      	add	r2, pc, #8	; (adr r2, 800060c <__clzsi2+0x2c>)
 8000604:	5c10      	ldrb	r0, [r2, r0]
 8000606:	1840      	adds	r0, r0, r1
 8000608:	4770      	bx	lr
 800060a:	46c0      	nop			; (mov r8, r8)
 800060c:	02020304 	.word	0x02020304
 8000610:	01010101 	.word	0x01010101
	...

0800061c <ClearBuffers>:
 * @brief  Clear the buffers
 * @param  None
 * @retval None
 */
void ClearBuffers(void)
{
 800061c:	b580      	push	{r7, lr}
 800061e:	b082      	sub	sp, #8
 8000620:	af00      	add	r7, sp, #0
  uint8_t count;
  for(count=0;count<BUFFER_SIZE;count++)
 8000622:	1dfb      	adds	r3, r7, #7
 8000624:	2200      	movs	r2, #0
 8000626:	701a      	strb	r2, [r3, #0]
 8000628:	e00e      	b.n	8000648 <ClearBuffers+0x2c>
  {
    bridge_IN_buffer[count]=0x0;
 800062a:	1dfb      	adds	r3, r7, #7
 800062c:	781b      	ldrb	r3, [r3, #0]
 800062e:	4a0b      	ldr	r2, [pc, #44]	; (800065c <ClearBuffers+0x40>)
 8000630:	2100      	movs	r1, #0
 8000632:	54d1      	strb	r1, [r2, r3]
    bridge_OUT_buffer[count]=0x0;
 8000634:	1dfb      	adds	r3, r7, #7
 8000636:	781b      	ldrb	r3, [r3, #0]
 8000638:	4a09      	ldr	r2, [pc, #36]	; (8000660 <ClearBuffers+0x44>)
 800063a:	2100      	movs	r1, #0
 800063c:	54d1      	strb	r1, [r2, r3]
  for(count=0;count<BUFFER_SIZE;count++)
 800063e:	1dfb      	adds	r3, r7, #7
 8000640:	781a      	ldrb	r2, [r3, #0]
 8000642:	1dfb      	adds	r3, r7, #7
 8000644:	3201      	adds	r2, #1
 8000646:	701a      	strb	r2, [r3, #0]
 8000648:	1dfb      	adds	r3, r7, #7
 800064a:	781b      	ldrb	r3, [r3, #0]
 800064c:	2b3f      	cmp	r3, #63	; 0x3f
 800064e:	d9ec      	bls.n	800062a <ClearBuffers+0xe>
  }
}
 8000650:	46c0      	nop			; (mov r8, r8)
 8000652:	46c0      	nop			; (mov r8, r8)
 8000654:	46bd      	mov	sp, r7
 8000656:	b002      	add	sp, #8
 8000658:	bd80      	pop	{r7, pc}
 800065a:	46c0      	nop			; (mov r8, r8)
 800065c:	20000028 	.word	0x20000028
 8000660:	20000068 	.word	0x20000068

08000664 <main>:
/**
  * @brief  The application entry point.
  * @retval int
  */
int main(void)
{
 8000664:	b5b0      	push	{r4, r5, r7, lr}
 8000666:	b086      	sub	sp, #24
 8000668:	af02      	add	r7, sp, #8
  /* USER CODE BEGIN 1 */
#ifndef GUI_MODE
  uint16_t  digCurrReg = 0;
 800066a:	1dbb      	adds	r3, r7, #6
 800066c:	2200      	movs	r2, #0
 800066e:	801a      	strh	r2, [r3, #0]
  uint8_t dev = 0;
 8000670:	230f      	movs	r3, #15
 8000672:	18fb      	adds	r3, r7, r3
 8000674:	2200      	movs	r2, #0
 8000676:	701a      	strb	r2, [r3, #0]
  /* USER CODE END 1 */

  /* MCU Configuration--------------------------------------------------------*/

  /* Reset of all peripherals, Initializes the Flash interface and the Systick. */
  HAL_Init();
 8000678:	f001 f92e 	bl	80018d8 <HAL_Init>
  /* USER CODE BEGIN Init */

  /* USER CODE END Init */

  /* Configure the system clock */
  SystemClock_Config();
 800067c:	f000 f9b2 	bl	80009e4 <SystemClock_Config>
  /* USER CODE BEGIN SysInit */

  /* USER CODE END SysInit */

  /* Initialize all configured peripherals */
  MX_GPIO_Init();
 8000680:	f000 fb30 	bl	8000ce4 <MX_GPIO_Init>
  MX_USART2_UART_Init();
 8000684:	f000 fae0 	bl	8000c48 <MX_USART2_UART_Init>
  MX_I2C1_Init();
 8000688:	f000 f9f4 	bl	8000a74 <MX_I2C1_Init>
  MX_TIM2_Init();
 800068c:	f000 fa32 	bl	8000af4 <MX_TIM2_Init>
  MX_TIM3_Init();
 8000690:	f000 fa84 	bl	8000b9c <MX_TIM3_Init>
  /* USER CODE BEGIN 2 */
  __HAL_TIM_CLEAR_IT(&htim2,TIM_SR_UIF);
 8000694:	4bcc      	ldr	r3, [pc, #816]	; (80009c8 <main+0x364>)
 8000696:	681b      	ldr	r3, [r3, #0]
 8000698:	2202      	movs	r2, #2
 800069a:	4252      	negs	r2, r2
 800069c:	611a      	str	r2, [r3, #16]
  __HAL_TIM_CLEAR_IT(&htim3,TIM_SR_UIF);
 800069e:	4bcb      	ldr	r3, [pc, #812]	; (80009cc <main+0x368>)
 80006a0:	681b      	ldr	r3, [r3, #0]
 80006a2:	2202      	movs	r2, #2
 80006a4:	4252      	negs	r2, r2
 80006a6:	611a      	str	r2, [r3, #16]

  /*Wait Time assuring a properly steady state condition */
  HAL_Delay(100);
 80006a8:	2064      	movs	r0, #100	; 0x64
 80006aa:	f001 f99b 	bl	80019e4 <HAL_Delay>

  interface_mode = UART_MODE;	/*Set a known condition */
 80006ae:	4bc8      	ldr	r3, [pc, #800]	; (80009d0 <main+0x36c>)
 80006b0:	2200      	movs	r2, #0
 80006b2:	701a      	strb	r2, [r3, #0]

  /*Clear Buffer*/
  ClearBuffers();
 80006b4:	f7ff ffb2 	bl	800061c <ClearBuffers>

  /*LED12A1 Initialization*/
  LED12A1_Init();
 80006b8:	f000 fea6 	bl	8001408 <LED12A1_Init>

  /*Scan for Number of available LED1202 ICs*/
  NumOfDev =  LED12A1_ScanAvailDevice( &LED1202Obj ,DevAddrArray);
 80006bc:	4ac5      	ldr	r2, [pc, #788]	; (80009d4 <main+0x370>)
 80006be:	4bc6      	ldr	r3, [pc, #792]	; (80009d8 <main+0x374>)
 80006c0:	0011      	movs	r1, r2
 80006c2:	0018      	movs	r0, r3
 80006c4:	f001 f81e 	bl	8001704 <LED12A1_ScanAvailDevice>
 80006c8:	0003      	movs	r3, r0
 80006ca:	b2da      	uxtb	r2, r3
 80006cc:	4bc3      	ldr	r3, [pc, #780]	; (80009dc <main+0x378>)
 80006ce:	701a      	strb	r2, [r3, #0]
#ifdef GUI_MODE
  HAL_UART_Receive_IT(&huart2,&bridge_OUT_buffer[0],64);
#else
  /*Enable available LED1202 ICs*/
  for (uint8_t dev = 0;dev<NumOfDev;dev++)
 80006d0:	230d      	movs	r3, #13
 80006d2:	18fb      	adds	r3, r7, r3
 80006d4:	2200      	movs	r2, #0
 80006d6:	701a      	strb	r2, [r3, #0]
 80006d8:	e014      	b.n	8000704 <main+0xa0>
  {
    LED12A1_DeviceEnable(&LED1202Obj , (TypedefEnumDevAddr)(LED_DEVICE1 + dev));
 80006da:	240d      	movs	r4, #13
 80006dc:	193b      	adds	r3, r7, r4
 80006de:	781a      	ldrb	r2, [r3, #0]
 80006e0:	4bbd      	ldr	r3, [pc, #756]	; (80009d8 <main+0x374>)
 80006e2:	0011      	movs	r1, r2
 80006e4:	0018      	movs	r0, r3
 80006e6:	f000 ff83 	bl	80015f0 <LED12A1_DeviceEnable>
    LED12A1_ChannelDisable( &LED1202Obj , LED_CHANNEL_ALL , (TypedefEnumDevAddr)( LED_DEVICE1 + dev));
 80006ea:	193b      	adds	r3, r7, r4
 80006ec:	781a      	ldrb	r2, [r3, #0]
 80006ee:	49bc      	ldr	r1, [pc, #752]	; (80009e0 <main+0x37c>)
 80006f0:	4bb9      	ldr	r3, [pc, #740]	; (80009d8 <main+0x374>)
 80006f2:	0018      	movs	r0, r3
 80006f4:	f001 f8c9 	bl	800188a <LED12A1_ChannelDisable>
  for (uint8_t dev = 0;dev<NumOfDev;dev++)
 80006f8:	0021      	movs	r1, r4
 80006fa:	187b      	adds	r3, r7, r1
 80006fc:	781a      	ldrb	r2, [r3, #0]
 80006fe:	187b      	adds	r3, r7, r1
 8000700:	3201      	adds	r2, #1
 8000702:	701a      	strb	r2, [r3, #0]
 8000704:	4bb5      	ldr	r3, [pc, #724]	; (80009dc <main+0x378>)
 8000706:	781b      	ldrb	r3, [r3, #0]
 8000708:	220d      	movs	r2, #13
 800070a:	18ba      	adds	r2, r7, r2
 800070c:	7812      	ldrb	r2, [r2, #0]
 800070e:	429a      	cmp	r2, r3
 8000710:	d3e3      	bcc.n	80006da <main+0x76>
#ifdef GUI_MODE
    WaitForCommand();
#else

    /*** Turn ON LED one by one ****/
    for (dev = 0;dev<NumOfDev;dev++)
 8000712:	230f      	movs	r3, #15
 8000714:	18fb      	adds	r3, r7, r3
 8000716:	2200      	movs	r2, #0
 8000718:	701a      	strb	r2, [r3, #0]
 800071a:	e00d      	b.n	8000738 <main+0xd4>
    {
      LED12A1_ChannelDisable( &LED1202Obj , LED_CHANNEL_ALL , (TypedefEnumDevAddr)( LED_DEVICE1 + dev));
 800071c:	240f      	movs	r4, #15
 800071e:	193b      	adds	r3, r7, r4
 8000720:	781a      	ldrb	r2, [r3, #0]
 8000722:	49af      	ldr	r1, [pc, #700]	; (80009e0 <main+0x37c>)
 8000724:	4bac      	ldr	r3, [pc, #688]	; (80009d8 <main+0x374>)
 8000726:	0018      	movs	r0, r3
 8000728:	f001 f8af 	bl	800188a <LED12A1_ChannelDisable>
    for (dev = 0;dev<NumOfDev;dev++)
 800072c:	0021      	movs	r1, r4
 800072e:	187b      	adds	r3, r7, r1
 8000730:	781a      	ldrb	r2, [r3, #0]
 8000732:	187b      	adds	r3, r7, r1
 8000734:	3201      	adds	r2, #1
 8000736:	701a      	strb	r2, [r3, #0]
 8000738:	4ba8      	ldr	r3, [pc, #672]	; (80009dc <main+0x378>)
 800073a:	781b      	ldrb	r3, [r3, #0]
 800073c:	210f      	movs	r1, #15
 800073e:	187a      	adds	r2, r7, r1
 8000740:	7812      	ldrb	r2, [r2, #0]
 8000742:	429a      	cmp	r2, r3
 8000744:	d3ea      	bcc.n	800071c <main+0xb8>
    }

    for (dev = 0;dev<NumOfDev;dev++)
 8000746:	187b      	adds	r3, r7, r1
 8000748:	2200      	movs	r2, #0
 800074a:	701a      	strb	r2, [r3, #0]
 800074c:	e04a      	b.n	80007e4 <main+0x180>
    {
      for (uint8_t channel = 0;channel<=11;channel++)
 800074e:	230c      	movs	r3, #12
 8000750:	18fb      	adds	r3, r7, r3
 8000752:	2200      	movs	r2, #0
 8000754:	701a      	strb	r2, [r3, #0]
 8000756:	e037      	b.n	80007c8 <main+0x164>
      {
        digCurrReg =  4095;
 8000758:	1dbb      	adds	r3, r7, #6
 800075a:	4aa1      	ldr	r2, [pc, #644]	; (80009e0 <main+0x37c>)
 800075c:	801a      	strh	r2, [r3, #0]
        LED12A1_ChannelEnable( &LED1202Obj , (TypeDefChannel)(LED_CHANNEL_0<<channel),  (TypedefEnumDevAddr)(LED_DEVICE1+dev));
 800075e:	240c      	movs	r4, #12
 8000760:	193b      	adds	r3, r7, r4
 8000762:	781b      	ldrb	r3, [r3, #0]
 8000764:	2201      	movs	r2, #1
 8000766:	409a      	lsls	r2, r3
 8000768:	0013      	movs	r3, r2
 800076a:	b299      	uxth	r1, r3
 800076c:	250f      	movs	r5, #15
 800076e:	197b      	adds	r3, r7, r5
 8000770:	781a      	ldrb	r2, [r3, #0]
 8000772:	4b99      	ldr	r3, [pc, #612]	; (80009d8 <main+0x374>)
 8000774:	0018      	movs	r0, r3
 8000776:	f001 f861 	bl	800183c <LED12A1_ChannelEnable>
        LED12A1_AnalogDimming( &LED1202Obj , MAX_CH_CURRENT, channel,  (TypedefEnumDevAddr)(LED_DEVICE1+dev));
 800077a:	197b      	adds	r3, r7, r5
 800077c:	7819      	ldrb	r1, [r3, #0]
 800077e:	193b      	adds	r3, r7, r4
 8000780:	781a      	ldrb	r2, [r3, #0]
 8000782:	4895      	ldr	r0, [pc, #596]	; (80009d8 <main+0x374>)
 8000784:	000b      	movs	r3, r1
 8000786:	2114      	movs	r1, #20
 8000788:	f001 f801 	bl	800178e <LED12A1_AnalogDimming>
        LED12A1_DigitalDimming( &LED1202Obj ,&digCurrReg,channel,0,  (TypedefEnumDevAddr)(LED_DEVICE1+dev));
 800078c:	193b      	adds	r3, r7, r4
 800078e:	781a      	ldrb	r2, [r3, #0]
 8000790:	1db9      	adds	r1, r7, #6
 8000792:	4891      	ldr	r0, [pc, #580]	; (80009d8 <main+0x374>)
 8000794:	197b      	adds	r3, r7, r5
 8000796:	781b      	ldrb	r3, [r3, #0]
 8000798:	9300      	str	r3, [sp, #0]
 800079a:	2300      	movs	r3, #0
 800079c:	f001 f824 	bl	80017e8 <LED12A1_DigitalDimming>
        HAL_Delay(200);
 80007a0:	20c8      	movs	r0, #200	; 0xc8
 80007a2:	f001 f91f 	bl	80019e4 <HAL_Delay>
        LED12A1_ChannelDisable( &LED1202Obj , (TypeDefChannel)(LED_CHANNEL_0<<channel),  (TypedefEnumDevAddr)(LED_DEVICE1+dev));
 80007a6:	193b      	adds	r3, r7, r4
 80007a8:	781b      	ldrb	r3, [r3, #0]
 80007aa:	2201      	movs	r2, #1
 80007ac:	409a      	lsls	r2, r3
 80007ae:	0013      	movs	r3, r2
 80007b0:	b299      	uxth	r1, r3
 80007b2:	197b      	adds	r3, r7, r5
 80007b4:	781a      	ldrb	r2, [r3, #0]
 80007b6:	4b88      	ldr	r3, [pc, #544]	; (80009d8 <main+0x374>)
 80007b8:	0018      	movs	r0, r3
 80007ba:	f001 f866 	bl	800188a <LED12A1_ChannelDisable>
      for (uint8_t channel = 0;channel<=11;channel++)
 80007be:	193b      	adds	r3, r7, r4
 80007c0:	781a      	ldrb	r2, [r3, #0]
 80007c2:	193b      	adds	r3, r7, r4
 80007c4:	3201      	adds	r2, #1
 80007c6:	701a      	strb	r2, [r3, #0]
 80007c8:	230c      	movs	r3, #12
 80007ca:	18fb      	adds	r3, r7, r3
 80007cc:	781b      	ldrb	r3, [r3, #0]
 80007ce:	2b0b      	cmp	r3, #11
 80007d0:	d9c2      	bls.n	8000758 <main+0xf4>
      }

      HAL_Delay(200);
 80007d2:	20c8      	movs	r0, #200	; 0xc8
 80007d4:	f001 f906 	bl	80019e4 <HAL_Delay>
    for (dev = 0;dev<NumOfDev;dev++)
 80007d8:	210f      	movs	r1, #15
 80007da:	187b      	adds	r3, r7, r1
 80007dc:	781a      	ldrb	r2, [r3, #0]
 80007de:	187b      	adds	r3, r7, r1
 80007e0:	3201      	adds	r2, #1
 80007e2:	701a      	strb	r2, [r3, #0]
 80007e4:	4b7d      	ldr	r3, [pc, #500]	; (80009dc <main+0x378>)
 80007e6:	781b      	ldrb	r3, [r3, #0]
 80007e8:	220f      	movs	r2, #15
 80007ea:	18ba      	adds	r2, r7, r2
 80007ec:	7812      	ldrb	r2, [r2, #0]
 80007ee:	429a      	cmp	r2, r3
 80007f0:	d3ad      	bcc.n	800074e <main+0xea>
    }

    for(cnt = 0;cnt<4;cnt++)
 80007f2:	230e      	movs	r3, #14
 80007f4:	18fb      	adds	r3, r7, r3
 80007f6:	2200      	movs	r2, #0
 80007f8:	701a      	strb	r2, [r3, #0]
 80007fa:	e060      	b.n	80008be <main+0x25a>
    {

    /*** Turn ON/OFF All LED at once in Toggling Mode ****/
    for (dev = 0;dev<NumOfDev;dev++)
 80007fc:	230f      	movs	r3, #15
 80007fe:	18fb      	adds	r3, r7, r3
 8000800:	2200      	movs	r2, #0
 8000802:	701a      	strb	r2, [r3, #0]
 8000804:	e00d      	b.n	8000822 <main+0x1be>
    {
      LED12A1_ChannelDisable( &LED1202Obj , LED_CHANNEL_ALL , (TypedefEnumDevAddr)( LED_DEVICE1 + dev));
 8000806:	240f      	movs	r4, #15
 8000808:	193b      	adds	r3, r7, r4
 800080a:	781a      	ldrb	r2, [r3, #0]
 800080c:	4974      	ldr	r1, [pc, #464]	; (80009e0 <main+0x37c>)
 800080e:	4b72      	ldr	r3, [pc, #456]	; (80009d8 <main+0x374>)
 8000810:	0018      	movs	r0, r3
 8000812:	f001 f83a 	bl	800188a <LED12A1_ChannelDisable>
    for (dev = 0;dev<NumOfDev;dev++)
 8000816:	0021      	movs	r1, r4
 8000818:	187b      	adds	r3, r7, r1
 800081a:	781a      	ldrb	r2, [r3, #0]
 800081c:	187b      	adds	r3, r7, r1
 800081e:	3201      	adds	r2, #1
 8000820:	701a      	strb	r2, [r3, #0]
 8000822:	4b6e      	ldr	r3, [pc, #440]	; (80009dc <main+0x378>)
 8000824:	781b      	ldrb	r3, [r3, #0]
 8000826:	240f      	movs	r4, #15
 8000828:	193a      	adds	r2, r7, r4
 800082a:	7812      	ldrb	r2, [r2, #0]
 800082c:	429a      	cmp	r2, r3
 800082e:	d3ea      	bcc.n	8000806 <main+0x1a2>
    }
    HAL_Delay(300);
 8000830:	2396      	movs	r3, #150	; 0x96
 8000832:	005b      	lsls	r3, r3, #1
 8000834:	0018      	movs	r0, r3
 8000836:	f001 f8d5 	bl	80019e4 <HAL_Delay>
    for (dev = 0;dev<NumOfDev;dev++)
 800083a:	193b      	adds	r3, r7, r4
 800083c:	2200      	movs	r2, #0
 800083e:	701a      	strb	r2, [r3, #0]
 8000840:	e02b      	b.n	800089a <main+0x236>
    {
      for (uint8_t channel = 0;channel<=11;channel++)
 8000842:	230b      	movs	r3, #11
 8000844:	18fb      	adds	r3, r7, r3
 8000846:	2200      	movs	r2, #0
 8000848:	701a      	strb	r2, [r3, #0]
 800084a:	e01b      	b.n	8000884 <main+0x220>
      {
        LED12A1_ChannelEnable( &LED1202Obj , (TypeDefChannel)(LED_CHANNEL_0<<channel),  (TypedefEnumDevAddr)(LED_DEVICE1+dev));
 800084c:	240b      	movs	r4, #11
 800084e:	193b      	adds	r3, r7, r4
 8000850:	781b      	ldrb	r3, [r3, #0]
 8000852:	2201      	movs	r2, #1
 8000854:	409a      	lsls	r2, r3
 8000856:	0013      	movs	r3, r2
 8000858:	b299      	uxth	r1, r3
 800085a:	250f      	movs	r5, #15
 800085c:	197b      	adds	r3, r7, r5
 800085e:	781a      	ldrb	r2, [r3, #0]
 8000860:	4b5d      	ldr	r3, [pc, #372]	; (80009d8 <main+0x374>)
 8000862:	0018      	movs	r0, r3
 8000864:	f000 ffea 	bl	800183c <LED12A1_ChannelEnable>
        LED12A1_AnalogDimming( &LED1202Obj , MAX_CH_CURRENT, channel,  (TypedefEnumDevAddr)(LED_DEVICE1+dev));
 8000868:	197b      	adds	r3, r7, r5
 800086a:	7819      	ldrb	r1, [r3, #0]
 800086c:	193b      	adds	r3, r7, r4
 800086e:	781a      	ldrb	r2, [r3, #0]
 8000870:	4859      	ldr	r0, [pc, #356]	; (80009d8 <main+0x374>)
 8000872:	000b      	movs	r3, r1
 8000874:	2114      	movs	r1, #20
 8000876:	f000 ff8a 	bl	800178e <LED12A1_AnalogDimming>
      for (uint8_t channel = 0;channel<=11;channel++)
 800087a:	193b      	adds	r3, r7, r4
 800087c:	781a      	ldrb	r2, [r3, #0]
 800087e:	193b      	adds	r3, r7, r4
 8000880:	3201      	adds	r2, #1
 8000882:	701a      	strb	r2, [r3, #0]
 8000884:	230b      	movs	r3, #11
 8000886:	18fb      	adds	r3, r7, r3
 8000888:	781b      	ldrb	r3, [r3, #0]
 800088a:	2b0b      	cmp	r3, #11
 800088c:	d9de      	bls.n	800084c <main+0x1e8>
    for (dev = 0;dev<NumOfDev;dev++)
 800088e:	210f      	movs	r1, #15
 8000890:	187b      	adds	r3, r7, r1
 8000892:	781a      	ldrb	r2, [r3, #0]
 8000894:	187b      	adds	r3, r7, r1
 8000896:	3201      	adds	r2, #1
 8000898:	701a      	strb	r2, [r3, #0]
 800089a:	4b50      	ldr	r3, [pc, #320]	; (80009dc <main+0x378>)
 800089c:	781b      	ldrb	r3, [r3, #0]
 800089e:	220f      	movs	r2, #15
 80008a0:	18ba      	adds	r2, r7, r2
 80008a2:	7812      	ldrb	r2, [r2, #0]
 80008a4:	429a      	cmp	r2, r3
 80008a6:	d3cc      	bcc.n	8000842 <main+0x1de>
      }
    }
    HAL_Delay(300);
 80008a8:	2396      	movs	r3, #150	; 0x96
 80008aa:	005b      	lsls	r3, r3, #1
 80008ac:	0018      	movs	r0, r3
 80008ae:	f001 f899 	bl	80019e4 <HAL_Delay>
    for(cnt = 0;cnt<4;cnt++)
 80008b2:	210e      	movs	r1, #14
 80008b4:	187b      	adds	r3, r7, r1
 80008b6:	781a      	ldrb	r2, [r3, #0]
 80008b8:	187b      	adds	r3, r7, r1
 80008ba:	3201      	adds	r2, #1
 80008bc:	701a      	strb	r2, [r3, #0]
 80008be:	230e      	movs	r3, #14
 80008c0:	18fb      	adds	r3, r7, r3
 80008c2:	781b      	ldrb	r3, [r3, #0]
 80008c4:	2b03      	cmp	r3, #3
 80008c6:	d999      	bls.n	80007fc <main+0x198>
    }

    /*** Start LED from minimum intensity to maximum intensity one by one ****/
    for (dev = 0;dev<NumOfDev;dev++)
 80008c8:	230f      	movs	r3, #15
 80008ca:	18fb      	adds	r3, r7, r3
 80008cc:	2200      	movs	r2, #0
 80008ce:	701a      	strb	r2, [r3, #0]
 80008d0:	e00d      	b.n	80008ee <main+0x28a>
    {
      LED12A1_ChannelDisable( &LED1202Obj , LED_CHANNEL_ALL , (TypedefEnumDevAddr)( LED_DEVICE1 + dev));
 80008d2:	240f      	movs	r4, #15
 80008d4:	193b      	adds	r3, r7, r4
 80008d6:	781a      	ldrb	r2, [r3, #0]
 80008d8:	4941      	ldr	r1, [pc, #260]	; (80009e0 <main+0x37c>)
 80008da:	4b3f      	ldr	r3, [pc, #252]	; (80009d8 <main+0x374>)
 80008dc:	0018      	movs	r0, r3
 80008de:	f000 ffd4 	bl	800188a <LED12A1_ChannelDisable>
    for (dev = 0;dev<NumOfDev;dev++)
 80008e2:	0021      	movs	r1, r4
 80008e4:	187b      	adds	r3, r7, r1
 80008e6:	781a      	ldrb	r2, [r3, #0]
 80008e8:	187b      	adds	r3, r7, r1
 80008ea:	3201      	adds	r2, #1
 80008ec:	701a      	strb	r2, [r3, #0]
 80008ee:	4b3b      	ldr	r3, [pc, #236]	; (80009dc <main+0x378>)
 80008f0:	781b      	ldrb	r3, [r3, #0]
 80008f2:	210f      	movs	r1, #15
 80008f4:	187a      	adds	r2, r7, r1
 80008f6:	7812      	ldrb	r2, [r2, #0]
 80008f8:	429a      	cmp	r2, r3
 80008fa:	d3ea      	bcc.n	80008d2 <main+0x26e>
    }

    for (dev = 0;dev<NumOfDev;dev++)
 80008fc:	187b      	adds	r3, r7, r1
 80008fe:	2200      	movs	r2, #0
 8000900:	701a      	strb	r2, [r3, #0]
 8000902:	e059      	b.n	80009b8 <main+0x354>
    {
      for (uint8_t channel = 0;channel<=11;channel++)
 8000904:	230a      	movs	r3, #10
 8000906:	18fb      	adds	r3, r7, r3
 8000908:	2200      	movs	r2, #0
 800090a:	701a      	strb	r2, [r3, #0]
 800090c:	e044      	b.n	8000998 <main+0x334>
      {
        LED12A1_ChannelEnable( &LED1202Obj , (TypeDefChannel)(LED_CHANNEL_0<<channel),  (TypedefEnumDevAddr)(LED_DEVICE1+dev));
 800090e:	240a      	movs	r4, #10
 8000910:	193b      	adds	r3, r7, r4
 8000912:	781b      	ldrb	r3, [r3, #0]
 8000914:	2201      	movs	r2, #1
 8000916:	409a      	lsls	r2, r3
 8000918:	0013      	movs	r3, r2
 800091a:	b299      	uxth	r1, r3
 800091c:	250f      	movs	r5, #15
 800091e:	197b      	adds	r3, r7, r5
 8000920:	781a      	ldrb	r2, [r3, #0]
 8000922:	4b2d      	ldr	r3, [pc, #180]	; (80009d8 <main+0x374>)
 8000924:	0018      	movs	r0, r3
 8000926:	f000 ff89 	bl	800183c <LED12A1_ChannelEnable>
        LED12A1_AnalogDimming( &LED1202Obj , MAX_CH_CURRENT, channel,  (TypedefEnumDevAddr)(LED_DEVICE1+dev));
 800092a:	197b      	adds	r3, r7, r5
 800092c:	7819      	ldrb	r1, [r3, #0]
 800092e:	193b      	adds	r3, r7, r4
 8000930:	781a      	ldrb	r2, [r3, #0]
 8000932:	4829      	ldr	r0, [pc, #164]	; (80009d8 <main+0x374>)
 8000934:	000b      	movs	r3, r1
 8000936:	2114      	movs	r1, #20
 8000938:	f000 ff29 	bl	800178e <LED12A1_AnalogDimming>
        for(uint8_t cnt = 0;cnt<10;cnt++)
 800093c:	2309      	movs	r3, #9
 800093e:	18fb      	adds	r3, r7, r3
 8000940:	2200      	movs	r2, #0
 8000942:	701a      	strb	r2, [r3, #0]
 8000944:	e01d      	b.n	8000982 <main+0x31e>
        {
          digCurrReg =  400*cnt;
 8000946:	2409      	movs	r4, #9
 8000948:	193b      	adds	r3, r7, r4
 800094a:	781b      	ldrb	r3, [r3, #0]
 800094c:	b29b      	uxth	r3, r3
 800094e:	22c8      	movs	r2, #200	; 0xc8
 8000950:	0052      	lsls	r2, r2, #1
 8000952:	4353      	muls	r3, r2
 8000954:	b29a      	uxth	r2, r3
 8000956:	1dbb      	adds	r3, r7, #6
 8000958:	801a      	strh	r2, [r3, #0]
          LED12A1_DigitalDimming( &LED1202Obj ,&digCurrReg,channel,0,  (TypedefEnumDevAddr)(LED_DEVICE1+dev));
 800095a:	230a      	movs	r3, #10
 800095c:	18fb      	adds	r3, r7, r3
 800095e:	781a      	ldrb	r2, [r3, #0]
 8000960:	1db9      	adds	r1, r7, #6
 8000962:	481d      	ldr	r0, [pc, #116]	; (80009d8 <main+0x374>)
 8000964:	230f      	movs	r3, #15
 8000966:	18fb      	adds	r3, r7, r3
 8000968:	781b      	ldrb	r3, [r3, #0]
 800096a:	9300      	str	r3, [sp, #0]
 800096c:	2300      	movs	r3, #0
 800096e:	f000 ff3b 	bl	80017e8 <LED12A1_DigitalDimming>
          HAL_Delay(100);
 8000972:	2064      	movs	r0, #100	; 0x64
 8000974:	f001 f836 	bl	80019e4 <HAL_Delay>
        for(uint8_t cnt = 0;cnt<10;cnt++)
 8000978:	193b      	adds	r3, r7, r4
 800097a:	781a      	ldrb	r2, [r3, #0]
 800097c:	193b      	adds	r3, r7, r4
 800097e:	3201      	adds	r2, #1
 8000980:	701a      	strb	r2, [r3, #0]
 8000982:	2309      	movs	r3, #9
 8000984:	18fb      	adds	r3, r7, r3
 8000986:	781b      	ldrb	r3, [r3, #0]
 8000988:	2b09      	cmp	r3, #9
 800098a:	d9dc      	bls.n	8000946 <main+0x2e2>
      for (uint8_t channel = 0;channel<=11;channel++)
 800098c:	210a      	movs	r1, #10
 800098e:	187b      	adds	r3, r7, r1
 8000990:	781a      	ldrb	r2, [r3, #0]
 8000992:	187b      	adds	r3, r7, r1
 8000994:	3201      	adds	r2, #1
 8000996:	701a      	strb	r2, [r3, #0]
 8000998:	230a      	movs	r3, #10
 800099a:	18fb      	adds	r3, r7, r3
 800099c:	781b      	ldrb	r3, [r3, #0]
 800099e:	2b0b      	cmp	r3, #11
 80009a0:	d9b5      	bls.n	800090e <main+0x2aa>
        }
      }

      HAL_Delay(300);
 80009a2:	2396      	movs	r3, #150	; 0x96
 80009a4:	005b      	lsls	r3, r3, #1
 80009a6:	0018      	movs	r0, r3
 80009a8:	f001 f81c 	bl	80019e4 <HAL_Delay>
    for (dev = 0;dev<NumOfDev;dev++)
 80009ac:	210f      	movs	r1, #15
 80009ae:	187b      	adds	r3, r7, r1
 80009b0:	781a      	ldrb	r2, [r3, #0]
 80009b2:	187b      	adds	r3, r7, r1
 80009b4:	3201      	adds	r2, #1
 80009b6:	701a      	strb	r2, [r3, #0]
 80009b8:	4b08      	ldr	r3, [pc, #32]	; (80009dc <main+0x378>)
 80009ba:	781b      	ldrb	r3, [r3, #0]
 80009bc:	220f      	movs	r2, #15
 80009be:	18ba      	adds	r2, r7, r2
 80009c0:	7812      	ldrb	r2, [r2, #0]
 80009c2:	429a      	cmp	r2, r3
 80009c4:	d39e      	bcc.n	8000904 <main+0x2a0>
    for (dev = 0;dev<NumOfDev;dev++)
 80009c6:	e6a4      	b.n	8000712 <main+0xae>
 80009c8:	20000100 	.word	0x20000100
 80009cc:	2000014c 	.word	0x2000014c
 80009d0:	200000a8 	.word	0x200000a8
 80009d4:	2000022c 	.word	0x2000022c
 80009d8:	2000023c 	.word	0x2000023c
 80009dc:	20000236 	.word	0x20000236
 80009e0:	00000fff 	.word	0x00000fff

080009e4 <SystemClock_Config>:
/**
  * @brief System Clock Configuration
  * @retval None
  */
void SystemClock_Config(void)
{
 80009e4:	b590      	push	{r4, r7, lr}
 80009e6:	b095      	sub	sp, #84	; 0x54
 80009e8:	af00      	add	r7, sp, #0
  RCC_OscInitTypeDef RCC_OscInitStruct = {0};
 80009ea:	2414      	movs	r4, #20
 80009ec:	193b      	adds	r3, r7, r4
 80009ee:	0018      	movs	r0, r3
 80009f0:	233c      	movs	r3, #60	; 0x3c
 80009f2:	001a      	movs	r2, r3
 80009f4:	2100      	movs	r1, #0
 80009f6:	f004 fadb 	bl	8004fb0 <memset>
  RCC_ClkInitTypeDef RCC_ClkInitStruct = {0};
 80009fa:	1d3b      	adds	r3, r7, #4
 80009fc:	0018      	movs	r0, r3
 80009fe:	2310      	movs	r3, #16
 8000a00:	001a      	movs	r2, r3
 8000a02:	2100      	movs	r1, #0
 8000a04:	f004 fad4 	bl	8004fb0 <memset>

  /** Configure the main internal regulator output voltage
  */
  HAL_PWREx_ControlVoltageScaling(PWR_REGULATOR_VOLTAGE_SCALE1);
 8000a08:	2380      	movs	r3, #128	; 0x80
 8000a0a:	009b      	lsls	r3, r3, #2
 8000a0c:	0018      	movs	r0, r3
 8000a0e:	f002 f9bf 	bl	8002d90 <HAL_PWREx_ControlVoltageScaling>

  /** Initializes the RCC Oscillators according to the specified parameters
  * in the RCC_OscInitTypeDef structure.
  */
  RCC_OscInitStruct.OscillatorType = RCC_OSCILLATORTYPE_HSI;
 8000a12:	193b      	adds	r3, r7, r4
 8000a14:	2202      	movs	r2, #2
 8000a16:	601a      	str	r2, [r3, #0]
  RCC_OscInitStruct.HSIState = RCC_HSI_ON;
 8000a18:	193b      	adds	r3, r7, r4
 8000a1a:	2280      	movs	r2, #128	; 0x80
 8000a1c:	0052      	lsls	r2, r2, #1
 8000a1e:	60da      	str	r2, [r3, #12]
  RCC_OscInitStruct.HSIDiv = RCC_HSI_DIV1;
 8000a20:	193b      	adds	r3, r7, r4
 8000a22:	2200      	movs	r2, #0
 8000a24:	611a      	str	r2, [r3, #16]
  RCC_OscInitStruct.HSICalibrationValue = RCC_HSICALIBRATION_DEFAULT;
 8000a26:	193b      	adds	r3, r7, r4
 8000a28:	2240      	movs	r2, #64	; 0x40
 8000a2a:	615a      	str	r2, [r3, #20]
  RCC_OscInitStruct.PLL.PLLState = RCC_PLL_NONE;
 8000a2c:	193b      	adds	r3, r7, r4
 8000a2e:	2200      	movs	r2, #0
 8000a30:	621a      	str	r2, [r3, #32]
  if (HAL_RCC_OscConfig(&RCC_OscInitStruct) != HAL_OK)
 8000a32:	193b      	adds	r3, r7, r4
 8000a34:	0018      	movs	r0, r3
 8000a36:	f002 f9f7 	bl	8002e28 <HAL_RCC_OscConfig>
 8000a3a:	1e03      	subs	r3, r0, #0
 8000a3c:	d001      	beq.n	8000a42 <SystemClock_Config+0x5e>
  {
    Error_Handler();
 8000a3e:	f000 f9ad 	bl	8000d9c <Error_Handler>
  }

  /** Initializes the CPU, AHB and APB buses clocks
  */
  RCC_ClkInitStruct.ClockType = RCC_CLOCKTYPE_HCLK|RCC_CLOCKTYPE_SYSCLK
 8000a42:	1d3b      	adds	r3, r7, #4
 8000a44:	2207      	movs	r2, #7
 8000a46:	601a      	str	r2, [r3, #0]
                              |RCC_CLOCKTYPE_PCLK1;
  RCC_ClkInitStruct.SYSCLKSource = RCC_SYSCLKSOURCE_HSI;
 8000a48:	1d3b      	adds	r3, r7, #4
 8000a4a:	2200      	movs	r2, #0
 8000a4c:	605a      	str	r2, [r3, #4]
  RCC_ClkInitStruct.AHBCLKDivider = RCC_SYSCLK_DIV1;
 8000a4e:	1d3b      	adds	r3, r7, #4
 8000a50:	2200      	movs	r2, #0
 8000a52:	609a      	str	r2, [r3, #8]
  RCC_ClkInitStruct.APB1CLKDivider = RCC_HCLK_DIV1;
 8000a54:	1d3b      	adds	r3, r7, #4
 8000a56:	2200      	movs	r2, #0
 8000a58:	60da      	str	r2, [r3, #12]

  if (HAL_RCC_ClockConfig(&RCC_ClkInitStruct, FLASH_LATENCY_0) != HAL_OK)
 8000a5a:	1d3b      	adds	r3, r7, #4
 8000a5c:	2100      	movs	r1, #0
 8000a5e:	0018      	movs	r0, r3
 8000a60:	f002 fd42 	bl	80034e8 <HAL_RCC_ClockConfig>
 8000a64:	1e03      	subs	r3, r0, #0
 8000a66:	d001      	beq.n	8000a6c <SystemClock_Config+0x88>
  {
    Error_Handler();
 8000a68:	f000 f998 	bl	8000d9c <Error_Handler>
  }
}
 8000a6c:	46c0      	nop			; (mov r8, r8)
 8000a6e:	46bd      	mov	sp, r7
 8000a70:	b015      	add	sp, #84	; 0x54
 8000a72:	bd90      	pop	{r4, r7, pc}

08000a74 <MX_I2C1_Init>:
  * @brief I2C1 Initialization Function
  * @param None
  * @retval None
  */
void MX_I2C1_Init(void)
{
 8000a74:	b580      	push	{r7, lr}
 8000a76:	af00      	add	r7, sp, #0
  /* USER CODE END I2C1_Init 0 */

  /* USER CODE BEGIN I2C1_Init 1 */

  /* USER CODE END I2C1_Init 1 */
  hi2c1.Instance = I2C1;
 8000a78:	4b1b      	ldr	r3, [pc, #108]	; (8000ae8 <MX_I2C1_Init+0x74>)
 8000a7a:	4a1c      	ldr	r2, [pc, #112]	; (8000aec <MX_I2C1_Init+0x78>)
 8000a7c:	601a      	str	r2, [r3, #0]
  hi2c1.Init.Timing = 0x00303D5B;
 8000a7e:	4b1a      	ldr	r3, [pc, #104]	; (8000ae8 <MX_I2C1_Init+0x74>)
 8000a80:	4a1b      	ldr	r2, [pc, #108]	; (8000af0 <MX_I2C1_Init+0x7c>)
 8000a82:	605a      	str	r2, [r3, #4]
  hi2c1.Init.OwnAddress1 = 0;
 8000a84:	4b18      	ldr	r3, [pc, #96]	; (8000ae8 <MX_I2C1_Init+0x74>)
 8000a86:	2200      	movs	r2, #0
 8000a88:	609a      	str	r2, [r3, #8]
  hi2c1.Init.AddressingMode = I2C_ADDRESSINGMODE_7BIT;
 8000a8a:	4b17      	ldr	r3, [pc, #92]	; (8000ae8 <MX_I2C1_Init+0x74>)
 8000a8c:	2201      	movs	r2, #1
 8000a8e:	60da      	str	r2, [r3, #12]
  hi2c1.Init.DualAddressMode = I2C_DUALADDRESS_DISABLE;
 8000a90:	4b15      	ldr	r3, [pc, #84]	; (8000ae8 <MX_I2C1_Init+0x74>)
 8000a92:	2200      	movs	r2, #0
 8000a94:	611a      	str	r2, [r3, #16]
  hi2c1.Init.OwnAddress2 = 0;
 8000a96:	4b14      	ldr	r3, [pc, #80]	; (8000ae8 <MX_I2C1_Init+0x74>)
 8000a98:	2200      	movs	r2, #0
 8000a9a:	615a      	str	r2, [r3, #20]
  hi2c1.Init.OwnAddress2Masks = I2C_OA2_NOMASK;
 8000a9c:	4b12      	ldr	r3, [pc, #72]	; (8000ae8 <MX_I2C1_Init+0x74>)
 8000a9e:	2200      	movs	r2, #0
 8000aa0:	619a      	str	r2, [r3, #24]
  hi2c1.Init.GeneralCallMode = I2C_GENERALCALL_DISABLE;
 8000aa2:	4b11      	ldr	r3, [pc, #68]	; (8000ae8 <MX_I2C1_Init+0x74>)
 8000aa4:	2200      	movs	r2, #0
 8000aa6:	61da      	str	r2, [r3, #28]
  hi2c1.Init.NoStretchMode = I2C_NOSTRETCH_DISABLE;
 8000aa8:	4b0f      	ldr	r3, [pc, #60]	; (8000ae8 <MX_I2C1_Init+0x74>)
 8000aaa:	2200      	movs	r2, #0
 8000aac:	621a      	str	r2, [r3, #32]
  if (HAL_I2C_Init(&hi2c1) != HAL_OK)
 8000aae:	4b0e      	ldr	r3, [pc, #56]	; (8000ae8 <MX_I2C1_Init+0x74>)
 8000ab0:	0018      	movs	r0, r3
 8000ab2:	f001 fad1 	bl	8002058 <HAL_I2C_Init>
 8000ab6:	1e03      	subs	r3, r0, #0
 8000ab8:	d001      	beq.n	8000abe <MX_I2C1_Init+0x4a>
  {
    Error_Handler();
 8000aba:	f000 f96f 	bl	8000d9c <Error_Handler>
  }

  /** Configure Analogue filter
  */
  if (HAL_I2CEx_ConfigAnalogFilter(&hi2c1, I2C_ANALOGFILTER_ENABLE) != HAL_OK)
 8000abe:	4b0a      	ldr	r3, [pc, #40]	; (8000ae8 <MX_I2C1_Init+0x74>)
 8000ac0:	2100      	movs	r1, #0
 8000ac2:	0018      	movs	r0, r3
 8000ac4:	f002 f8cc 	bl	8002c60 <HAL_I2CEx_ConfigAnalogFilter>
 8000ac8:	1e03      	subs	r3, r0, #0
 8000aca:	d001      	beq.n	8000ad0 <MX_I2C1_Init+0x5c>
  {
    Error_Handler();
 8000acc:	f000 f966 	bl	8000d9c <Error_Handler>
  }

  /** Configure Digital filter
  */
  if (HAL_I2CEx_ConfigDigitalFilter(&hi2c1, 0) != HAL_OK)
 8000ad0:	4b05      	ldr	r3, [pc, #20]	; (8000ae8 <MX_I2C1_Init+0x74>)
 8000ad2:	2100      	movs	r1, #0
 8000ad4:	0018      	movs	r0, r3
 8000ad6:	f002 f90f 	bl	8002cf8 <HAL_I2CEx_ConfigDigitalFilter>
 8000ada:	1e03      	subs	r3, r0, #0
 8000adc:	d001      	beq.n	8000ae2 <MX_I2C1_Init+0x6e>
  {
    Error_Handler();
 8000ade:	f000 f95d 	bl	8000d9c <Error_Handler>
  }
  /* USER CODE BEGIN I2C1_Init 2 */

  /* USER CODE END I2C1_Init 2 */

}
 8000ae2:	46c0      	nop			; (mov r8, r8)
 8000ae4:	46bd      	mov	sp, r7
 8000ae6:	bd80      	pop	{r7, pc}
 8000ae8:	200000ac 	.word	0x200000ac
 8000aec:	40005400 	.word	0x40005400
 8000af0:	00303d5b 	.word	0x00303d5b

08000af4 <MX_TIM2_Init>:
  * @brief TIM2 Initialization Function
  * @param None
  * @retval None
  */
static void MX_TIM2_Init(void)
{
 8000af4:	b580      	push	{r7, lr}
 8000af6:	b088      	sub	sp, #32
 8000af8:	af00      	add	r7, sp, #0

  /* USER CODE BEGIN TIM2_Init 0 */

  /* USER CODE END TIM2_Init 0 */

  TIM_ClockConfigTypeDef sClockSourceConfig = {0};
 8000afa:	2310      	movs	r3, #16
 8000afc:	18fb      	adds	r3, r7, r3
 8000afe:	0018      	movs	r0, r3
 8000b00:	2310      	movs	r3, #16
 8000b02:	001a      	movs	r2, r3
 8000b04:	2100      	movs	r1, #0
 8000b06:	f004 fa53 	bl	8004fb0 <memset>
  TIM_MasterConfigTypeDef sMasterConfig = {0};
 8000b0a:	1d3b      	adds	r3, r7, #4
 8000b0c:	0018      	movs	r0, r3
 8000b0e:	230c      	movs	r3, #12
 8000b10:	001a      	movs	r2, r3
 8000b12:	2100      	movs	r1, #0
 8000b14:	f004 fa4c 	bl	8004fb0 <memset>

  /* USER CODE BEGIN TIM2_Init 1 */

  /* USER CODE END TIM2_Init 1 */
  htim2.Instance = TIM2;
 8000b18:	4b1f      	ldr	r3, [pc, #124]	; (8000b98 <MX_TIM2_Init+0xa4>)
 8000b1a:	2280      	movs	r2, #128	; 0x80
 8000b1c:	05d2      	lsls	r2, r2, #23
 8000b1e:	601a      	str	r2, [r3, #0]
  htim2.Init.Prescaler = 0;
 8000b20:	4b1d      	ldr	r3, [pc, #116]	; (8000b98 <MX_TIM2_Init+0xa4>)
 8000b22:	2200      	movs	r2, #0
 8000b24:	605a      	str	r2, [r3, #4]
  htim2.Init.CounterMode = TIM_COUNTERMODE_UP;
 8000b26:	4b1c      	ldr	r3, [pc, #112]	; (8000b98 <MX_TIM2_Init+0xa4>)
 8000b28:	2200      	movs	r2, #0
 8000b2a:	609a      	str	r2, [r3, #8]
  htim2.Init.Period = 4294967295;
 8000b2c:	4b1a      	ldr	r3, [pc, #104]	; (8000b98 <MX_TIM2_Init+0xa4>)
 8000b2e:	2201      	movs	r2, #1
 8000b30:	4252      	negs	r2, r2
 8000b32:	60da      	str	r2, [r3, #12]
  htim2.Init.ClockDivision = TIM_CLOCKDIVISION_DIV1;
 8000b34:	4b18      	ldr	r3, [pc, #96]	; (8000b98 <MX_TIM2_Init+0xa4>)
 8000b36:	2200      	movs	r2, #0
 8000b38:	611a      	str	r2, [r3, #16]
  htim2.Init.AutoReloadPreload = TIM_AUTORELOAD_PRELOAD_DISABLE;
 8000b3a:	4b17      	ldr	r3, [pc, #92]	; (8000b98 <MX_TIM2_Init+0xa4>)
 8000b3c:	2200      	movs	r2, #0
 8000b3e:	619a      	str	r2, [r3, #24]
  if (HAL_TIM_Base_Init(&htim2) != HAL_OK)
 8000b40:	4b15      	ldr	r3, [pc, #84]	; (8000b98 <MX_TIM2_Init+0xa4>)
 8000b42:	0018      	movs	r0, r3
 8000b44:	f003 f8b6 	bl	8003cb4 <HAL_TIM_Base_Init>
 8000b48:	1e03      	subs	r3, r0, #0
 8000b4a:	d001      	beq.n	8000b50 <MX_TIM2_Init+0x5c>
  {
    Error_Handler();
 8000b4c:	f000 f926 	bl	8000d9c <Error_Handler>
  }
  sClockSourceConfig.ClockSource = TIM_CLOCKSOURCE_INTERNAL;
 8000b50:	2110      	movs	r1, #16
 8000b52:	187b      	adds	r3, r7, r1
 8000b54:	2280      	movs	r2, #128	; 0x80
 8000b56:	0152      	lsls	r2, r2, #5
 8000b58:	601a      	str	r2, [r3, #0]
  if (HAL_TIM_ConfigClockSource(&htim2, &sClockSourceConfig) != HAL_OK)
 8000b5a:	187a      	adds	r2, r7, r1
 8000b5c:	4b0e      	ldr	r3, [pc, #56]	; (8000b98 <MX_TIM2_Init+0xa4>)
 8000b5e:	0011      	movs	r1, r2
 8000b60:	0018      	movs	r0, r3
 8000b62:	f003 f8ff 	bl	8003d64 <HAL_TIM_ConfigClockSource>
 8000b66:	1e03      	subs	r3, r0, #0
 8000b68:	d001      	beq.n	8000b6e <MX_TIM2_Init+0x7a>
  {
    Error_Handler();
 8000b6a:	f000 f917 	bl	8000d9c <Error_Handler>
  }
  sMasterConfig.MasterOutputTrigger = TIM_TRGO_RESET;
 8000b6e:	1d3b      	adds	r3, r7, #4
 8000b70:	2200      	movs	r2, #0
 8000b72:	601a      	str	r2, [r3, #0]
  sMasterConfig.MasterSlaveMode = TIM_MASTERSLAVEMODE_DISABLE;
 8000b74:	1d3b      	adds	r3, r7, #4
 8000b76:	2200      	movs	r2, #0
 8000b78:	609a      	str	r2, [r3, #8]
  if (HAL_TIMEx_MasterConfigSynchronization(&htim2, &sMasterConfig) != HAL_OK)
 8000b7a:	1d3a      	adds	r2, r7, #4
 8000b7c:	4b06      	ldr	r3, [pc, #24]	; (8000b98 <MX_TIM2_Init+0xa4>)
 8000b7e:	0011      	movs	r1, r2
 8000b80:	0018      	movs	r0, r3
 8000b82:	f003 faeb 	bl	800415c <HAL_TIMEx_MasterConfigSynchronization>
 8000b86:	1e03      	subs	r3, r0, #0
 8000b88:	d001      	beq.n	8000b8e <MX_TIM2_Init+0x9a>
  {
    Error_Handler();
 8000b8a:	f000 f907 	bl	8000d9c <Error_Handler>
  }
  /* USER CODE BEGIN TIM2_Init 2 */

  /* USER CODE END TIM2_Init 2 */

}
 8000b8e:	46c0      	nop			; (mov r8, r8)
 8000b90:	46bd      	mov	sp, r7
 8000b92:	b008      	add	sp, #32
 8000b94:	bd80      	pop	{r7, pc}
 8000b96:	46c0      	nop			; (mov r8, r8)
 8000b98:	20000100 	.word	0x20000100

08000b9c <MX_TIM3_Init>:
  * @brief TIM3 Initialization Function
  * @param None
  * @retval None
  */
static void MX_TIM3_Init(void)
{
 8000b9c:	b580      	push	{r7, lr}
 8000b9e:	b088      	sub	sp, #32
 8000ba0:	af00      	add	r7, sp, #0

  /* USER CODE BEGIN TIM3_Init 0 */

  /* USER CODE END TIM3_Init 0 */

  TIM_ClockConfigTypeDef sClockSourceConfig = {0};
 8000ba2:	2310      	movs	r3, #16
 8000ba4:	18fb      	adds	r3, r7, r3
 8000ba6:	0018      	movs	r0, r3
 8000ba8:	2310      	movs	r3, #16
 8000baa:	001a      	movs	r2, r3
 8000bac:	2100      	movs	r1, #0
 8000bae:	f004 f9ff 	bl	8004fb0 <memset>
  TIM_MasterConfigTypeDef sMasterConfig = {0};
 8000bb2:	1d3b      	adds	r3, r7, #4
 8000bb4:	0018      	movs	r0, r3
 8000bb6:	230c      	movs	r3, #12
 8000bb8:	001a      	movs	r2, r3
 8000bba:	2100      	movs	r1, #0
 8000bbc:	f004 f9f8 	bl	8004fb0 <memset>

  /* USER CODE BEGIN TIM3_Init 1 */

  /* USER CODE END TIM3_Init 1 */
  htim3.Instance = TIM3;
 8000bc0:	4b1e      	ldr	r3, [pc, #120]	; (8000c3c <MX_TIM3_Init+0xa0>)
 8000bc2:	4a1f      	ldr	r2, [pc, #124]	; (8000c40 <MX_TIM3_Init+0xa4>)
 8000bc4:	601a      	str	r2, [r3, #0]
  htim3.Init.Prescaler = 0;
 8000bc6:	4b1d      	ldr	r3, [pc, #116]	; (8000c3c <MX_TIM3_Init+0xa0>)
 8000bc8:	2200      	movs	r2, #0
 8000bca:	605a      	str	r2, [r3, #4]
  htim3.Init.CounterMode = TIM_COUNTERMODE_UP;
 8000bcc:	4b1b      	ldr	r3, [pc, #108]	; (8000c3c <MX_TIM3_Init+0xa0>)
 8000bce:	2200      	movs	r2, #0
 8000bd0:	609a      	str	r2, [r3, #8]
  htim3.Init.Period = 65535;
 8000bd2:	4b1a      	ldr	r3, [pc, #104]	; (8000c3c <MX_TIM3_Init+0xa0>)
 8000bd4:	4a1b      	ldr	r2, [pc, #108]	; (8000c44 <MX_TIM3_Init+0xa8>)
 8000bd6:	60da      	str	r2, [r3, #12]
  htim3.Init.ClockDivision = TIM_CLOCKDIVISION_DIV1;
 8000bd8:	4b18      	ldr	r3, [pc, #96]	; (8000c3c <MX_TIM3_Init+0xa0>)
 8000bda:	2200      	movs	r2, #0
 8000bdc:	611a      	str	r2, [r3, #16]
  htim3.Init.AutoReloadPreload = TIM_AUTORELOAD_PRELOAD_DISABLE;
 8000bde:	4b17      	ldr	r3, [pc, #92]	; (8000c3c <MX_TIM3_Init+0xa0>)
 8000be0:	2200      	movs	r2, #0
 8000be2:	619a      	str	r2, [r3, #24]
  if (HAL_TIM_Base_Init(&htim3) != HAL_OK)
 8000be4:	4b15      	ldr	r3, [pc, #84]	; (8000c3c <MX_TIM3_Init+0xa0>)
 8000be6:	0018      	movs	r0, r3
 8000be8:	f003 f864 	bl	8003cb4 <HAL_TIM_Base_Init>
 8000bec:	1e03      	subs	r3, r0, #0
 8000bee:	d001      	beq.n	8000bf4 <MX_TIM3_Init+0x58>
  {
    Error_Handler();
 8000bf0:	f000 f8d4 	bl	8000d9c <Error_Handler>
  }
  sClockSourceConfig.ClockSource = TIM_CLOCKSOURCE_INTERNAL;
 8000bf4:	2110      	movs	r1, #16
 8000bf6:	187b      	adds	r3, r7, r1
 8000bf8:	2280      	movs	r2, #128	; 0x80
 8000bfa:	0152      	lsls	r2, r2, #5
 8000bfc:	601a      	str	r2, [r3, #0]
  if (HAL_TIM_ConfigClockSource(&htim3, &sClockSourceConfig) != HAL_OK)
 8000bfe:	187a      	adds	r2, r7, r1
 8000c00:	4b0e      	ldr	r3, [pc, #56]	; (8000c3c <MX_TIM3_Init+0xa0>)
 8000c02:	0011      	movs	r1, r2
 8000c04:	0018      	movs	r0, r3
 8000c06:	f003 f8ad 	bl	8003d64 <HAL_TIM_ConfigClockSource>
 8000c0a:	1e03      	subs	r3, r0, #0
 8000c0c:	d001      	beq.n	8000c12 <MX_TIM3_Init+0x76>
  {
    Error_Handler();
 8000c0e:	f000 f8c5 	bl	8000d9c <Error_Handler>
  }
  sMasterConfig.MasterOutputTrigger = TIM_TRGO_RESET;
 8000c12:	1d3b      	adds	r3, r7, #4
 8000c14:	2200      	movs	r2, #0
 8000c16:	601a      	str	r2, [r3, #0]
  sMasterConfig.MasterSlaveMode = TIM_MASTERSLAVEMODE_DISABLE;
 8000c18:	1d3b      	adds	r3, r7, #4
 8000c1a:	2200      	movs	r2, #0
 8000c1c:	609a      	str	r2, [r3, #8]
  if (HAL_TIMEx_MasterConfigSynchronization(&htim3, &sMasterConfig) != HAL_OK)
 8000c1e:	1d3a      	adds	r2, r7, #4
 8000c20:	4b06      	ldr	r3, [pc, #24]	; (8000c3c <MX_TIM3_Init+0xa0>)
 8000c22:	0011      	movs	r1, r2
 8000c24:	0018      	movs	r0, r3
 8000c26:	f003 fa99 	bl	800415c <HAL_TIMEx_MasterConfigSynchronization>
 8000c2a:	1e03      	subs	r3, r0, #0
 8000c2c:	d001      	beq.n	8000c32 <MX_TIM3_Init+0x96>
  {
    Error_Handler();
 8000c2e:	f000 f8b5 	bl	8000d9c <Error_Handler>
  }
  /* USER CODE BEGIN TIM3_Init 2 */

  /* USER CODE END TIM3_Init 2 */

}
 8000c32:	46c0      	nop			; (mov r8, r8)
 8000c34:	46bd      	mov	sp, r7
 8000c36:	b008      	add	sp, #32
 8000c38:	bd80      	pop	{r7, pc}
 8000c3a:	46c0      	nop			; (mov r8, r8)
 8000c3c:	2000014c 	.word	0x2000014c
 8000c40:	40000400 	.word	0x40000400
 8000c44:	0000ffff 	.word	0x0000ffff

08000c48 <MX_USART2_UART_Init>:
  * @brief USART2 Initialization Function
  * @param None
  * @retval None
  */
static void MX_USART2_UART_Init(void)
{
 8000c48:	b580      	push	{r7, lr}
 8000c4a:	af00      	add	r7, sp, #0
  /* USER CODE END USART2_Init 0 */

  /* USER CODE BEGIN USART2_Init 1 */

  /* USER CODE END USART2_Init 1 */
  huart2.Instance = USART2;
 8000c4c:	4b23      	ldr	r3, [pc, #140]	; (8000cdc <MX_USART2_UART_Init+0x94>)
 8000c4e:	4a24      	ldr	r2, [pc, #144]	; (8000ce0 <MX_USART2_UART_Init+0x98>)
 8000c50:	601a      	str	r2, [r3, #0]
  huart2.Init.BaudRate = 115200;
 8000c52:	4b22      	ldr	r3, [pc, #136]	; (8000cdc <MX_USART2_UART_Init+0x94>)
 8000c54:	22e1      	movs	r2, #225	; 0xe1
 8000c56:	0252      	lsls	r2, r2, #9
 8000c58:	605a      	str	r2, [r3, #4]
  huart2.Init.WordLength = UART_WORDLENGTH_8B;
 8000c5a:	4b20      	ldr	r3, [pc, #128]	; (8000cdc <MX_USART2_UART_Init+0x94>)
 8000c5c:	2200      	movs	r2, #0
 8000c5e:	609a      	str	r2, [r3, #8]
  huart2.Init.StopBits = UART_STOPBITS_1;
 8000c60:	4b1e      	ldr	r3, [pc, #120]	; (8000cdc <MX_USART2_UART_Init+0x94>)
 8000c62:	2200      	movs	r2, #0
 8000c64:	60da      	str	r2, [r3, #12]
  huart2.Init.Parity = UART_PARITY_NONE;
 8000c66:	4b1d      	ldr	r3, [pc, #116]	; (8000cdc <MX_USART2_UART_Init+0x94>)
 8000c68:	2200      	movs	r2, #0
 8000c6a:	611a      	str	r2, [r3, #16]
  huart2.Init.Mode = UART_MODE_TX_RX;
 8000c6c:	4b1b      	ldr	r3, [pc, #108]	; (8000cdc <MX_USART2_UART_Init+0x94>)
 8000c6e:	220c      	movs	r2, #12
 8000c70:	615a      	str	r2, [r3, #20]
  huart2.Init.HwFlowCtl = UART_HWCONTROL_NONE;
 8000c72:	4b1a      	ldr	r3, [pc, #104]	; (8000cdc <MX_USART2_UART_Init+0x94>)
 8000c74:	2200      	movs	r2, #0
 8000c76:	619a      	str	r2, [r3, #24]
  huart2.Init.OverSampling = UART_OVERSAMPLING_16;
 8000c78:	4b18      	ldr	r3, [pc, #96]	; (8000cdc <MX_USART2_UART_Init+0x94>)
 8000c7a:	2200      	movs	r2, #0
 8000c7c:	61da      	str	r2, [r3, #28]
  huart2.Init.OneBitSampling = UART_ONE_BIT_SAMPLE_DISABLE;
 8000c7e:	4b17      	ldr	r3, [pc, #92]	; (8000cdc <MX_USART2_UART_Init+0x94>)
 8000c80:	2200      	movs	r2, #0
 8000c82:	621a      	str	r2, [r3, #32]
  huart2.Init.ClockPrescaler = UART_PRESCALER_DIV1;
 8000c84:	4b15      	ldr	r3, [pc, #84]	; (8000cdc <MX_USART2_UART_Init+0x94>)
 8000c86:	2200      	movs	r2, #0
 8000c88:	625a      	str	r2, [r3, #36]	; 0x24
  huart2.AdvancedInit.AdvFeatureInit = UART_ADVFEATURE_NO_INIT;
 8000c8a:	4b14      	ldr	r3, [pc, #80]	; (8000cdc <MX_USART2_UART_Init+0x94>)
 8000c8c:	2200      	movs	r2, #0
 8000c8e:	629a      	str	r2, [r3, #40]	; 0x28
  if (HAL_UART_Init(&huart2) != HAL_OK)
 8000c90:	4b12      	ldr	r3, [pc, #72]	; (8000cdc <MX_USART2_UART_Init+0x94>)
 8000c92:	0018      	movs	r0, r3
 8000c94:	f003 fad8 	bl	8004248 <HAL_UART_Init>
 8000c98:	1e03      	subs	r3, r0, #0
 8000c9a:	d001      	beq.n	8000ca0 <MX_USART2_UART_Init+0x58>
  {
    Error_Handler();
 8000c9c:	f000 f87e 	bl	8000d9c <Error_Handler>
  }
  if (HAL_UARTEx_SetTxFifoThreshold(&huart2, UART_TXFIFO_THRESHOLD_1_8) != HAL_OK)
 8000ca0:	4b0e      	ldr	r3, [pc, #56]	; (8000cdc <MX_USART2_UART_Init+0x94>)
 8000ca2:	2100      	movs	r1, #0
 8000ca4:	0018      	movs	r0, r3
 8000ca6:	f004 f87f 	bl	8004da8 <HAL_UARTEx_SetTxFifoThreshold>
 8000caa:	1e03      	subs	r3, r0, #0
 8000cac:	d001      	beq.n	8000cb2 <MX_USART2_UART_Init+0x6a>
  {
    Error_Handler();
 8000cae:	f000 f875 	bl	8000d9c <Error_Handler>
  }
  if (HAL_UARTEx_SetRxFifoThreshold(&huart2, UART_RXFIFO_THRESHOLD_1_8) != HAL_OK)
 8000cb2:	4b0a      	ldr	r3, [pc, #40]	; (8000cdc <MX_USART2_UART_Init+0x94>)
 8000cb4:	2100      	movs	r1, #0
 8000cb6:	0018      	movs	r0, r3
 8000cb8:	f004 f8b6 	bl	8004e28 <HAL_UARTEx_SetRxFifoThreshold>
 8000cbc:	1e03      	subs	r3, r0, #0
 8000cbe:	d001      	beq.n	8000cc4 <MX_USART2_UART_Init+0x7c>
  {
    Error_Handler();
 8000cc0:	f000 f86c 	bl	8000d9c <Error_Handler>
  }
  if (HAL_UARTEx_DisableFifoMode(&huart2) != HAL_OK)
 8000cc4:	4b05      	ldr	r3, [pc, #20]	; (8000cdc <MX_USART2_UART_Init+0x94>)
 8000cc6:	0018      	movs	r0, r3
 8000cc8:	f004 f834 	bl	8004d34 <HAL_UARTEx_DisableFifoMode>
 8000ccc:	1e03      	subs	r3, r0, #0
 8000cce:	d001      	beq.n	8000cd4 <MX_USART2_UART_Init+0x8c>
  {
    Error_Handler();
 8000cd0:	f000 f864 	bl	8000d9c <Error_Handler>
  }
  /* USER CODE BEGIN USART2_Init 2 */

  /* USER CODE END USART2_Init 2 */

}
 8000cd4:	46c0      	nop			; (mov r8, r8)
 8000cd6:	46bd      	mov	sp, r7
 8000cd8:	bd80      	pop	{r7, pc}
 8000cda:	46c0      	nop			; (mov r8, r8)
 8000cdc:	20000198 	.word	0x20000198
 8000ce0:	40004400 	.word	0x40004400

08000ce4 <MX_GPIO_Init>:
  * @brief GPIO Initialization Function
  * @param None
  * @retval None
  */
static void MX_GPIO_Init(void)
{
 8000ce4:	b590      	push	{r4, r7, lr}
 8000ce6:	b08b      	sub	sp, #44	; 0x2c
 8000ce8:	af00      	add	r7, sp, #0
  GPIO_InitTypeDef GPIO_InitStruct = {0};
 8000cea:	2414      	movs	r4, #20
 8000cec:	193b      	adds	r3, r7, r4
 8000cee:	0018      	movs	r0, r3
 8000cf0:	2314      	movs	r3, #20
 8000cf2:	001a      	movs	r2, r3
 8000cf4:	2100      	movs	r1, #0
 8000cf6:	f004 f95b 	bl	8004fb0 <memset>
/* USER CODE BEGIN MX_GPIO_Init_1 */
/* USER CODE END MX_GPIO_Init_1 */

  /* GPIO Ports Clock Enable */
  __HAL_RCC_GPIOC_CLK_ENABLE();
 8000cfa:	4b27      	ldr	r3, [pc, #156]	; (8000d98 <MX_GPIO_Init+0xb4>)
 8000cfc:	6b5a      	ldr	r2, [r3, #52]	; 0x34
 8000cfe:	4b26      	ldr	r3, [pc, #152]	; (8000d98 <MX_GPIO_Init+0xb4>)
 8000d00:	2104      	movs	r1, #4
 8000d02:	430a      	orrs	r2, r1
 8000d04:	635a      	str	r2, [r3, #52]	; 0x34
 8000d06:	4b24      	ldr	r3, [pc, #144]	; (8000d98 <MX_GPIO_Init+0xb4>)
 8000d08:	6b5b      	ldr	r3, [r3, #52]	; 0x34
 8000d0a:	2204      	movs	r2, #4
 8000d0c:	4013      	ands	r3, r2
 8000d0e:	613b      	str	r3, [r7, #16]
 8000d10:	693b      	ldr	r3, [r7, #16]
  __HAL_RCC_GPIOF_CLK_ENABLE();
 8000d12:	4b21      	ldr	r3, [pc, #132]	; (8000d98 <MX_GPIO_Init+0xb4>)
 8000d14:	6b5a      	ldr	r2, [r3, #52]	; 0x34
 8000d16:	4b20      	ldr	r3, [pc, #128]	; (8000d98 <MX_GPIO_Init+0xb4>)
 8000d18:	2120      	movs	r1, #32
 8000d1a:	430a      	orrs	r2, r1
 8000d1c:	635a      	str	r2, [r3, #52]	; 0x34
 8000d1e:	4b1e      	ldr	r3, [pc, #120]	; (8000d98 <MX_GPIO_Init+0xb4>)
 8000d20:	6b5b      	ldr	r3, [r3, #52]	; 0x34
 8000d22:	2220      	movs	r2, #32
 8000d24:	4013      	ands	r3, r2
 8000d26:	60fb      	str	r3, [r7, #12]
 8000d28:	68fb      	ldr	r3, [r7, #12]
  __HAL_RCC_GPIOA_CLK_ENABLE();
 8000d2a:	4b1b      	ldr	r3, [pc, #108]	; (8000d98 <MX_GPIO_Init+0xb4>)
 8000d2c:	6b5a      	ldr	r2, [r3, #52]	; 0x34
 8000d2e:	4b1a      	ldr	r3, [pc, #104]	; (8000d98 <MX_GPIO_Init+0xb4>)
 8000d30:	2101      	movs	r1, #1
 8000d32:	430a      	orrs	r2, r1
 8000d34:	635a      	str	r2, [r3, #52]	; 0x34
 8000d36:	4b18      	ldr	r3, [pc, #96]	; (8000d98 <MX_GPIO_Init+0xb4>)
 8000d38:	6b5b      	ldr	r3, [r3, #52]	; 0x34
 8000d3a:	2201      	movs	r2, #1
 8000d3c:	4013      	ands	r3, r2
 8000d3e:	60bb      	str	r3, [r7, #8]
 8000d40:	68bb      	ldr	r3, [r7, #8]
  __HAL_RCC_GPIOB_CLK_ENABLE();
 8000d42:	4b15      	ldr	r3, [pc, #84]	; (8000d98 <MX_GPIO_Init+0xb4>)
 8000d44:	6b5a      	ldr	r2, [r3, #52]	; 0x34
 8000d46:	4b14      	ldr	r3, [pc, #80]	; (8000d98 <MX_GPIO_Init+0xb4>)
 8000d48:	2102      	movs	r1, #2
 8000d4a:	430a      	orrs	r2, r1
 8000d4c:	635a      	str	r2, [r3, #52]	; 0x34
 8000d4e:	4b12      	ldr	r3, [pc, #72]	; (8000d98 <MX_GPIO_Init+0xb4>)
 8000d50:	6b5b      	ldr	r3, [r3, #52]	; 0x34
 8000d52:	2202      	movs	r2, #2
 8000d54:	4013      	ands	r3, r2
 8000d56:	607b      	str	r3, [r7, #4]
 8000d58:	687b      	ldr	r3, [r7, #4]

  /*Configure GPIO pin Output Level */
  HAL_GPIO_WritePin(LED_GREEN_GPIO_Port, LED_GREEN_Pin, GPIO_PIN_RESET);
 8000d5a:	23a0      	movs	r3, #160	; 0xa0
 8000d5c:	05db      	lsls	r3, r3, #23
 8000d5e:	2200      	movs	r2, #0
 8000d60:	2120      	movs	r1, #32
 8000d62:	0018      	movs	r0, r3
 8000d64:	f001 f95a 	bl	800201c <HAL_GPIO_WritePin>

  /*Configure GPIO pin : LED_GREEN_Pin */
  GPIO_InitStruct.Pin = LED_GREEN_Pin;
 8000d68:	0021      	movs	r1, r4
 8000d6a:	187b      	adds	r3, r7, r1
 8000d6c:	2220      	movs	r2, #32
 8000d6e:	601a      	str	r2, [r3, #0]
  GPIO_InitStruct.Mode = GPIO_MODE_OUTPUT_PP;
 8000d70:	187b      	adds	r3, r7, r1
 8000d72:	2201      	movs	r2, #1
 8000d74:	605a      	str	r2, [r3, #4]
  GPIO_InitStruct.Pull = GPIO_NOPULL;
 8000d76:	187b      	adds	r3, r7, r1
 8000d78:	2200      	movs	r2, #0
 8000d7a:	609a      	str	r2, [r3, #8]
  GPIO_InitStruct.Speed = GPIO_SPEED_FREQ_HIGH;
 8000d7c:	187b      	adds	r3, r7, r1
 8000d7e:	2202      	movs	r2, #2
 8000d80:	60da      	str	r2, [r3, #12]
  HAL_GPIO_Init(LED_GREEN_GPIO_Port, &GPIO_InitStruct);
 8000d82:	187a      	adds	r2, r7, r1
 8000d84:	23a0      	movs	r3, #160	; 0xa0
 8000d86:	05db      	lsls	r3, r3, #23
 8000d88:	0011      	movs	r1, r2
 8000d8a:	0018      	movs	r0, r3
 8000d8c:	f000 ff02 	bl	8001b94 <HAL_GPIO_Init>

/* USER CODE BEGIN MX_GPIO_Init_2 */
/* USER CODE END MX_GPIO_Init_2 */
}
 8000d90:	46c0      	nop			; (mov r8, r8)
 8000d92:	46bd      	mov	sp, r7
 8000d94:	b00b      	add	sp, #44	; 0x2c
 8000d96:	bd90      	pop	{r4, r7, pc}
 8000d98:	40021000 	.word	0x40021000

08000d9c <Error_Handler>:
/**
  * @brief  This function is executed in case of error occurrence.
  * @retval None
  */
void Error_Handler(void)
{
 8000d9c:	b580      	push	{r7, lr}
 8000d9e:	af00      	add	r7, sp, #0
  \details Disables IRQ interrupts by setting the I-bit in the CPSR.
           Can only be executed in Privileged modes.
 */
__STATIC_FORCEINLINE void __disable_irq(void)
{
  __ASM volatile ("cpsid i" : : : "memory");
 8000da0:	b672      	cpsid	i
}
 8000da2:	46c0      	nop			; (mov r8, r8)
  /* USER CODE BEGIN Error_Handler_Debug */
  /* User can add his own implementation to report the HAL error return state */
  __disable_irq();
  while (1)
 8000da4:	e7fe      	b.n	8000da4 <Error_Handler+0x8>
	...

08000da8 <HAL_MspInit>:
/* USER CODE END 0 */
/**
  * Initializes the Global MSP.
  */
void HAL_MspInit(void)
{
 8000da8:	b580      	push	{r7, lr}
 8000daa:	b082      	sub	sp, #8
 8000dac:	af00      	add	r7, sp, #0
  /* USER CODE BEGIN MspInit 0 */

  /* USER CODE END MspInit 0 */

  __HAL_RCC_SYSCFG_CLK_ENABLE();
 8000dae:	4b0f      	ldr	r3, [pc, #60]	; (8000dec <HAL_MspInit+0x44>)
 8000db0:	6c1a      	ldr	r2, [r3, #64]	; 0x40
 8000db2:	4b0e      	ldr	r3, [pc, #56]	; (8000dec <HAL_MspInit+0x44>)
 8000db4:	2101      	movs	r1, #1
 8000db6:	430a      	orrs	r2, r1
 8000db8:	641a      	str	r2, [r3, #64]	; 0x40
 8000dba:	4b0c      	ldr	r3, [pc, #48]	; (8000dec <HAL_MspInit+0x44>)
 8000dbc:	6c1b      	ldr	r3, [r3, #64]	; 0x40
 8000dbe:	2201      	movs	r2, #1
 8000dc0:	4013      	ands	r3, r2
 8000dc2:	607b      	str	r3, [r7, #4]
 8000dc4:	687b      	ldr	r3, [r7, #4]
  __HAL_RCC_PWR_CLK_ENABLE();
 8000dc6:	4b09      	ldr	r3, [pc, #36]	; (8000dec <HAL_MspInit+0x44>)
 8000dc8:	6bda      	ldr	r2, [r3, #60]	; 0x3c
 8000dca:	4b08      	ldr	r3, [pc, #32]	; (8000dec <HAL_MspInit+0x44>)
 8000dcc:	2180      	movs	r1, #128	; 0x80
 8000dce:	0549      	lsls	r1, r1, #21
 8000dd0:	430a      	orrs	r2, r1
 8000dd2:	63da      	str	r2, [r3, #60]	; 0x3c
 8000dd4:	4b05      	ldr	r3, [pc, #20]	; (8000dec <HAL_MspInit+0x44>)
 8000dd6:	6bda      	ldr	r2, [r3, #60]	; 0x3c
 8000dd8:	2380      	movs	r3, #128	; 0x80
 8000dda:	055b      	lsls	r3, r3, #21
 8000ddc:	4013      	ands	r3, r2
 8000dde:	603b      	str	r3, [r7, #0]
 8000de0:	683b      	ldr	r3, [r7, #0]
  /* System interrupt init*/

  /* USER CODE BEGIN MspInit 1 */

  /* USER CODE END MspInit 1 */
}
 8000de2:	46c0      	nop			; (mov r8, r8)
 8000de4:	46bd      	mov	sp, r7
 8000de6:	b002      	add	sp, #8
 8000de8:	bd80      	pop	{r7, pc}
 8000dea:	46c0      	nop			; (mov r8, r8)
 8000dec:	40021000 	.word	0x40021000

08000df0 <HAL_I2C_MspInit>:
* This function configures the hardware resources used in this example
* @param hi2c: I2C handle pointer
* @retval None
*/
void HAL_I2C_MspInit(I2C_HandleTypeDef* hi2c)
{
 8000df0:	b590      	push	{r4, r7, lr}
 8000df2:	b09d      	sub	sp, #116	; 0x74
 8000df4:	af00      	add	r7, sp, #0
 8000df6:	6078      	str	r0, [r7, #4]
  GPIO_InitTypeDef GPIO_InitStruct = {0};
 8000df8:	235c      	movs	r3, #92	; 0x5c
 8000dfa:	18fb      	adds	r3, r7, r3
 8000dfc:	0018      	movs	r0, r3
 8000dfe:	2314      	movs	r3, #20
 8000e00:	001a      	movs	r2, r3
 8000e02:	2100      	movs	r1, #0
 8000e04:	f004 f8d4 	bl	8004fb0 <memset>
  RCC_PeriphCLKInitTypeDef PeriphClkInit = {0};
 8000e08:	2410      	movs	r4, #16
 8000e0a:	193b      	adds	r3, r7, r4
 8000e0c:	0018      	movs	r0, r3
 8000e0e:	234c      	movs	r3, #76	; 0x4c
 8000e10:	001a      	movs	r2, r3
 8000e12:	2100      	movs	r1, #0
 8000e14:	f004 f8cc 	bl	8004fb0 <memset>
  if(hi2c->Instance==I2C1)
 8000e18:	687b      	ldr	r3, [r7, #4]
 8000e1a:	681b      	ldr	r3, [r3, #0]
 8000e1c:	4a22      	ldr	r2, [pc, #136]	; (8000ea8 <HAL_I2C_MspInit+0xb8>)
 8000e1e:	4293      	cmp	r3, r2
 8000e20:	d13e      	bne.n	8000ea0 <HAL_I2C_MspInit+0xb0>

  /* USER CODE END I2C1_MspInit 0 */

  /** Initializes the peripherals clocks
  */
    PeriphClkInit.PeriphClockSelection = RCC_PERIPHCLK_I2C1;
 8000e22:	193b      	adds	r3, r7, r4
 8000e24:	2220      	movs	r2, #32
 8000e26:	601a      	str	r2, [r3, #0]
    PeriphClkInit.I2c1ClockSelection = RCC_I2C1CLKSOURCE_PCLK1;
 8000e28:	193b      	adds	r3, r7, r4
 8000e2a:	2200      	movs	r2, #0
 8000e2c:	619a      	str	r2, [r3, #24]
    if (HAL_RCCEx_PeriphCLKConfig(&PeriphClkInit) != HAL_OK)
 8000e2e:	193b      	adds	r3, r7, r4
 8000e30:	0018      	movs	r0, r3
 8000e32:	f002 fd03 	bl	800383c <HAL_RCCEx_PeriphCLKConfig>
 8000e36:	1e03      	subs	r3, r0, #0
 8000e38:	d001      	beq.n	8000e3e <HAL_I2C_MspInit+0x4e>
    {
      Error_Handler();
 8000e3a:	f7ff ffaf 	bl	8000d9c <Error_Handler>
    }

    __HAL_RCC_GPIOB_CLK_ENABLE();
 8000e3e:	4b1b      	ldr	r3, [pc, #108]	; (8000eac <HAL_I2C_MspInit+0xbc>)
 8000e40:	6b5a      	ldr	r2, [r3, #52]	; 0x34
 8000e42:	4b1a      	ldr	r3, [pc, #104]	; (8000eac <HAL_I2C_MspInit+0xbc>)
 8000e44:	2102      	movs	r1, #2
 8000e46:	430a      	orrs	r2, r1
 8000e48:	635a      	str	r2, [r3, #52]	; 0x34
 8000e4a:	4b18      	ldr	r3, [pc, #96]	; (8000eac <HAL_I2C_MspInit+0xbc>)
 8000e4c:	6b5b      	ldr	r3, [r3, #52]	; 0x34
 8000e4e:	2202      	movs	r2, #2
 8000e50:	4013      	ands	r3, r2
 8000e52:	60fb      	str	r3, [r7, #12]
 8000e54:	68fb      	ldr	r3, [r7, #12]
    /**I2C1 GPIO Configuration
    PB8     ------> I2C1_SCL
    PB9     ------> I2C1_SDA
    */
    GPIO_InitStruct.Pin = GPIO_PIN_8|GPIO_PIN_9;
 8000e56:	215c      	movs	r1, #92	; 0x5c
 8000e58:	187b      	adds	r3, r7, r1
 8000e5a:	22c0      	movs	r2, #192	; 0xc0
 8000e5c:	0092      	lsls	r2, r2, #2
 8000e5e:	601a      	str	r2, [r3, #0]
    GPIO_InitStruct.Mode = GPIO_MODE_AF_OD;
 8000e60:	187b      	adds	r3, r7, r1
 8000e62:	2212      	movs	r2, #18
 8000e64:	605a      	str	r2, [r3, #4]
    GPIO_InitStruct.Pull = GPIO_NOPULL;
 8000e66:	187b      	adds	r3, r7, r1
 8000e68:	2200      	movs	r2, #0
 8000e6a:	609a      	str	r2, [r3, #8]
    GPIO_InitStruct.Speed = GPIO_SPEED_FREQ_LOW;
 8000e6c:	187b      	adds	r3, r7, r1
 8000e6e:	2200      	movs	r2, #0
 8000e70:	60da      	str	r2, [r3, #12]
    GPIO_InitStruct.Alternate = GPIO_AF6_I2C1;
 8000e72:	187b      	adds	r3, r7, r1
 8000e74:	2206      	movs	r2, #6
 8000e76:	611a      	str	r2, [r3, #16]
    HAL_GPIO_Init(GPIOB, &GPIO_InitStruct);
 8000e78:	187b      	adds	r3, r7, r1
 8000e7a:	4a0d      	ldr	r2, [pc, #52]	; (8000eb0 <HAL_I2C_MspInit+0xc0>)
 8000e7c:	0019      	movs	r1, r3
 8000e7e:	0010      	movs	r0, r2
 8000e80:	f000 fe88 	bl	8001b94 <HAL_GPIO_Init>

    /* Peripheral clock enable */
    __HAL_RCC_I2C1_CLK_ENABLE();
 8000e84:	4b09      	ldr	r3, [pc, #36]	; (8000eac <HAL_I2C_MspInit+0xbc>)
 8000e86:	6bda      	ldr	r2, [r3, #60]	; 0x3c
 8000e88:	4b08      	ldr	r3, [pc, #32]	; (8000eac <HAL_I2C_MspInit+0xbc>)
 8000e8a:	2180      	movs	r1, #128	; 0x80
 8000e8c:	0389      	lsls	r1, r1, #14
 8000e8e:	430a      	orrs	r2, r1
 8000e90:	63da      	str	r2, [r3, #60]	; 0x3c
 8000e92:	4b06      	ldr	r3, [pc, #24]	; (8000eac <HAL_I2C_MspInit+0xbc>)
 8000e94:	6bda      	ldr	r2, [r3, #60]	; 0x3c
 8000e96:	2380      	movs	r3, #128	; 0x80
 8000e98:	039b      	lsls	r3, r3, #14
 8000e9a:	4013      	ands	r3, r2
 8000e9c:	60bb      	str	r3, [r7, #8]
 8000e9e:	68bb      	ldr	r3, [r7, #8]
  /* USER CODE BEGIN I2C1_MspInit 1 */

  /* USER CODE END I2C1_MspInit 1 */
  }

}
 8000ea0:	46c0      	nop			; (mov r8, r8)
 8000ea2:	46bd      	mov	sp, r7
 8000ea4:	b01d      	add	sp, #116	; 0x74
 8000ea6:	bd90      	pop	{r4, r7, pc}
 8000ea8:	40005400 	.word	0x40005400
 8000eac:	40021000 	.word	0x40021000
 8000eb0:	50000400 	.word	0x50000400

08000eb4 <HAL_I2C_MspDeInit>:
* This function freeze the hardware resources used in this example
* @param hi2c: I2C handle pointer
* @retval None
*/
void HAL_I2C_MspDeInit(I2C_HandleTypeDef* hi2c)
{
 8000eb4:	b580      	push	{r7, lr}
 8000eb6:	b082      	sub	sp, #8
 8000eb8:	af00      	add	r7, sp, #0
 8000eba:	6078      	str	r0, [r7, #4]
  if(hi2c->Instance==I2C1)
 8000ebc:	687b      	ldr	r3, [r7, #4]
 8000ebe:	681b      	ldr	r3, [r3, #0]
 8000ec0:	4a0d      	ldr	r2, [pc, #52]	; (8000ef8 <HAL_I2C_MspDeInit+0x44>)
 8000ec2:	4293      	cmp	r3, r2
 8000ec4:	d113      	bne.n	8000eee <HAL_I2C_MspDeInit+0x3a>
  {
  /* USER CODE BEGIN I2C1_MspDeInit 0 */

  /* USER CODE END I2C1_MspDeInit 0 */
    /* Peripheral clock disable */
    __HAL_RCC_I2C1_CLK_DISABLE();
 8000ec6:	4b0d      	ldr	r3, [pc, #52]	; (8000efc <HAL_I2C_MspDeInit+0x48>)
 8000ec8:	6bda      	ldr	r2, [r3, #60]	; 0x3c
 8000eca:	4b0c      	ldr	r3, [pc, #48]	; (8000efc <HAL_I2C_MspDeInit+0x48>)
 8000ecc:	490c      	ldr	r1, [pc, #48]	; (8000f00 <HAL_I2C_MspDeInit+0x4c>)
 8000ece:	400a      	ands	r2, r1
 8000ed0:	63da      	str	r2, [r3, #60]	; 0x3c

    /**I2C1 GPIO Configuration
    PB8     ------> I2C1_SCL
    PB9     ------> I2C1_SDA
    */
    HAL_GPIO_DeInit(GPIOB, GPIO_PIN_8);
 8000ed2:	2380      	movs	r3, #128	; 0x80
 8000ed4:	005b      	lsls	r3, r3, #1
 8000ed6:	4a0b      	ldr	r2, [pc, #44]	; (8000f04 <HAL_I2C_MspDeInit+0x50>)
 8000ed8:	0019      	movs	r1, r3
 8000eda:	0010      	movs	r0, r2
 8000edc:	f000 ffc6 	bl	8001e6c <HAL_GPIO_DeInit>

    HAL_GPIO_DeInit(GPIOB, GPIO_PIN_9);
 8000ee0:	2380      	movs	r3, #128	; 0x80
 8000ee2:	009b      	lsls	r3, r3, #2
 8000ee4:	4a07      	ldr	r2, [pc, #28]	; (8000f04 <HAL_I2C_MspDeInit+0x50>)
 8000ee6:	0019      	movs	r1, r3
 8000ee8:	0010      	movs	r0, r2
 8000eea:	f000 ffbf 	bl	8001e6c <HAL_GPIO_DeInit>
  /* USER CODE BEGIN I2C1_MspDeInit 1 */

  /* USER CODE END I2C1_MspDeInit 1 */
  }

}
 8000eee:	46c0      	nop			; (mov r8, r8)
 8000ef0:	46bd      	mov	sp, r7
 8000ef2:	b002      	add	sp, #8
 8000ef4:	bd80      	pop	{r7, pc}
 8000ef6:	46c0      	nop			; (mov r8, r8)
 8000ef8:	40005400 	.word	0x40005400
 8000efc:	40021000 	.word	0x40021000
 8000f00:	ffdfffff 	.word	0xffdfffff
 8000f04:	50000400 	.word	0x50000400

08000f08 <HAL_TIM_Base_MspInit>:
* This function configures the hardware resources used in this example
* @param htim_base: TIM_Base handle pointer
* @retval None
*/
void HAL_TIM_Base_MspInit(TIM_HandleTypeDef* htim_base)
{
 8000f08:	b580      	push	{r7, lr}
 8000f0a:	b084      	sub	sp, #16
 8000f0c:	af00      	add	r7, sp, #0
 8000f0e:	6078      	str	r0, [r7, #4]
  if(htim_base->Instance==TIM2)
 8000f10:	687b      	ldr	r3, [r7, #4]
 8000f12:	681a      	ldr	r2, [r3, #0]
 8000f14:	2380      	movs	r3, #128	; 0x80
 8000f16:	05db      	lsls	r3, r3, #23
 8000f18:	429a      	cmp	r2, r3
 8000f1a:	d10c      	bne.n	8000f36 <HAL_TIM_Base_MspInit+0x2e>
  {
  /* USER CODE BEGIN TIM2_MspInit 0 */

  /* USER CODE END TIM2_MspInit 0 */
    /* Peripheral clock enable */
    __HAL_RCC_TIM2_CLK_ENABLE();
 8000f1c:	4b10      	ldr	r3, [pc, #64]	; (8000f60 <HAL_TIM_Base_MspInit+0x58>)
 8000f1e:	6bda      	ldr	r2, [r3, #60]	; 0x3c
 8000f20:	4b0f      	ldr	r3, [pc, #60]	; (8000f60 <HAL_TIM_Base_MspInit+0x58>)
 8000f22:	2101      	movs	r1, #1
 8000f24:	430a      	orrs	r2, r1
 8000f26:	63da      	str	r2, [r3, #60]	; 0x3c
 8000f28:	4b0d      	ldr	r3, [pc, #52]	; (8000f60 <HAL_TIM_Base_MspInit+0x58>)
 8000f2a:	6bdb      	ldr	r3, [r3, #60]	; 0x3c
 8000f2c:	2201      	movs	r2, #1
 8000f2e:	4013      	ands	r3, r2
 8000f30:	60fb      	str	r3, [r7, #12]
 8000f32:	68fb      	ldr	r3, [r7, #12]
  /* USER CODE BEGIN TIM3_MspInit 1 */

  /* USER CODE END TIM3_MspInit 1 */
  }

}
 8000f34:	e010      	b.n	8000f58 <HAL_TIM_Base_MspInit+0x50>
  else if(htim_base->Instance==TIM3)
 8000f36:	687b      	ldr	r3, [r7, #4]
 8000f38:	681b      	ldr	r3, [r3, #0]
 8000f3a:	4a0a      	ldr	r2, [pc, #40]	; (8000f64 <HAL_TIM_Base_MspInit+0x5c>)
 8000f3c:	4293      	cmp	r3, r2
 8000f3e:	d10b      	bne.n	8000f58 <HAL_TIM_Base_MspInit+0x50>
    __HAL_RCC_TIM3_CLK_ENABLE();
 8000f40:	4b07      	ldr	r3, [pc, #28]	; (8000f60 <HAL_TIM_Base_MspInit+0x58>)
 8000f42:	6bda      	ldr	r2, [r3, #60]	; 0x3c
 8000f44:	4b06      	ldr	r3, [pc, #24]	; (8000f60 <HAL_TIM_Base_MspInit+0x58>)
 8000f46:	2102      	movs	r1, #2
 8000f48:	430a      	orrs	r2, r1
 8000f4a:	63da      	str	r2, [r3, #60]	; 0x3c
 8000f4c:	4b04      	ldr	r3, [pc, #16]	; (8000f60 <HAL_TIM_Base_MspInit+0x58>)
 8000f4e:	6bdb      	ldr	r3, [r3, #60]	; 0x3c
 8000f50:	2202      	movs	r2, #2
 8000f52:	4013      	ands	r3, r2
 8000f54:	60bb      	str	r3, [r7, #8]
 8000f56:	68bb      	ldr	r3, [r7, #8]
}
 8000f58:	46c0      	nop			; (mov r8, r8)
 8000f5a:	46bd      	mov	sp, r7
 8000f5c:	b004      	add	sp, #16
 8000f5e:	bd80      	pop	{r7, pc}
 8000f60:	40021000 	.word	0x40021000
 8000f64:	40000400 	.word	0x40000400

08000f68 <HAL_UART_MspInit>:
* This function configures the hardware resources used in this example
* @param huart: UART handle pointer
* @retval None
*/
void HAL_UART_MspInit(UART_HandleTypeDef* huart)
{
 8000f68:	b590      	push	{r4, r7, lr}
 8000f6a:	b09d      	sub	sp, #116	; 0x74
 8000f6c:	af00      	add	r7, sp, #0
 8000f6e:	6078      	str	r0, [r7, #4]
  GPIO_InitTypeDef GPIO_InitStruct = {0};
 8000f70:	235c      	movs	r3, #92	; 0x5c
 8000f72:	18fb      	adds	r3, r7, r3
 8000f74:	0018      	movs	r0, r3
 8000f76:	2314      	movs	r3, #20
 8000f78:	001a      	movs	r2, r3
 8000f7a:	2100      	movs	r1, #0
 8000f7c:	f004 f818 	bl	8004fb0 <memset>
  RCC_PeriphCLKInitTypeDef PeriphClkInit = {0};
 8000f80:	2410      	movs	r4, #16
 8000f82:	193b      	adds	r3, r7, r4
 8000f84:	0018      	movs	r0, r3
 8000f86:	234c      	movs	r3, #76	; 0x4c
 8000f88:	001a      	movs	r2, r3
 8000f8a:	2100      	movs	r1, #0
 8000f8c:	f004 f810 	bl	8004fb0 <memset>
  if(huart->Instance==USART2)
 8000f90:	687b      	ldr	r3, [r7, #4]
 8000f92:	681b      	ldr	r3, [r3, #0]
 8000f94:	4a22      	ldr	r2, [pc, #136]	; (8001020 <HAL_UART_MspInit+0xb8>)
 8000f96:	4293      	cmp	r3, r2
 8000f98:	d13e      	bne.n	8001018 <HAL_UART_MspInit+0xb0>

  /* USER CODE END USART2_MspInit 0 */

  /** Initializes the peripherals clocks
  */
    PeriphClkInit.PeriphClockSelection = RCC_PERIPHCLK_USART2;
 8000f9a:	193b      	adds	r3, r7, r4
 8000f9c:	2202      	movs	r2, #2
 8000f9e:	601a      	str	r2, [r3, #0]
    PeriphClkInit.Usart2ClockSelection = RCC_USART2CLKSOURCE_PCLK1;
 8000fa0:	193b      	adds	r3, r7, r4
 8000fa2:	2200      	movs	r2, #0
 8000fa4:	609a      	str	r2, [r3, #8]
    if (HAL_RCCEx_PeriphCLKConfig(&PeriphClkInit) != HAL_OK)
 8000fa6:	193b      	adds	r3, r7, r4
 8000fa8:	0018      	movs	r0, r3
 8000faa:	f002 fc47 	bl	800383c <HAL_RCCEx_PeriphCLKConfig>
 8000fae:	1e03      	subs	r3, r0, #0
 8000fb0:	d001      	beq.n	8000fb6 <HAL_UART_MspInit+0x4e>
    {
      Error_Handler();
 8000fb2:	f7ff fef3 	bl	8000d9c <Error_Handler>
    }

    /* Peripheral clock enable */
    __HAL_RCC_USART2_CLK_ENABLE();
 8000fb6:	4b1b      	ldr	r3, [pc, #108]	; (8001024 <HAL_UART_MspInit+0xbc>)
 8000fb8:	6bda      	ldr	r2, [r3, #60]	; 0x3c
 8000fba:	4b1a      	ldr	r3, [pc, #104]	; (8001024 <HAL_UART_MspInit+0xbc>)
 8000fbc:	2180      	movs	r1, #128	; 0x80
 8000fbe:	0289      	lsls	r1, r1, #10
 8000fc0:	430a      	orrs	r2, r1
 8000fc2:	63da      	str	r2, [r3, #60]	; 0x3c
 8000fc4:	4b17      	ldr	r3, [pc, #92]	; (8001024 <HAL_UART_MspInit+0xbc>)
 8000fc6:	6bda      	ldr	r2, [r3, #60]	; 0x3c
 8000fc8:	2380      	movs	r3, #128	; 0x80
 8000fca:	029b      	lsls	r3, r3, #10
 8000fcc:	4013      	ands	r3, r2
 8000fce:	60fb      	str	r3, [r7, #12]
 8000fd0:	68fb      	ldr	r3, [r7, #12]

    __HAL_RCC_GPIOA_CLK_ENABLE();
 8000fd2:	4b14      	ldr	r3, [pc, #80]	; (8001024 <HAL_UART_MspInit+0xbc>)
 8000fd4:	6b5a      	ldr	r2, [r3, #52]	; 0x34
 8000fd6:	4b13      	ldr	r3, [pc, #76]	; (8001024 <HAL_UART_MspInit+0xbc>)
 8000fd8:	2101      	movs	r1, #1
 8000fda:	430a      	orrs	r2, r1
 8000fdc:	635a      	str	r2, [r3, #52]	; 0x34
 8000fde:	4b11      	ldr	r3, [pc, #68]	; (8001024 <HAL_UART_MspInit+0xbc>)
 8000fe0:	6b5b      	ldr	r3, [r3, #52]	; 0x34
 8000fe2:	2201      	movs	r2, #1
 8000fe4:	4013      	ands	r3, r2
 8000fe6:	60bb      	str	r3, [r7, #8]
 8000fe8:	68bb      	ldr	r3, [r7, #8]
    /**USART2 GPIO Configuration
    PA2     ------> USART2_TX
    PA3     ------> USART2_RX
    */
    GPIO_InitStruct.Pin = USART2_TX_Pin|USART2_RX_Pin;
 8000fea:	215c      	movs	r1, #92	; 0x5c
 8000fec:	187b      	adds	r3, r7, r1
 8000fee:	220c      	movs	r2, #12
 8000ff0:	601a      	str	r2, [r3, #0]
    GPIO_InitStruct.Mode = GPIO_MODE_AF_PP;
 8000ff2:	187b      	adds	r3, r7, r1
 8000ff4:	2202      	movs	r2, #2
 8000ff6:	605a      	str	r2, [r3, #4]
    GPIO_InitStruct.Pull = GPIO_NOPULL;
 8000ff8:	187b      	adds	r3, r7, r1
 8000ffa:	2200      	movs	r2, #0
 8000ffc:	609a      	str	r2, [r3, #8]
    GPIO_InitStruct.Speed = GPIO_SPEED_FREQ_LOW;
 8000ffe:	187b      	adds	r3, r7, r1
 8001000:	2200      	movs	r2, #0
 8001002:	60da      	str	r2, [r3, #12]
    GPIO_InitStruct.Alternate = GPIO_AF1_USART2;
 8001004:	187b      	adds	r3, r7, r1
 8001006:	2201      	movs	r2, #1
 8001008:	611a      	str	r2, [r3, #16]
    HAL_GPIO_Init(GPIOA, &GPIO_InitStruct);
 800100a:	187a      	adds	r2, r7, r1
 800100c:	23a0      	movs	r3, #160	; 0xa0
 800100e:	05db      	lsls	r3, r3, #23
 8001010:	0011      	movs	r1, r2
 8001012:	0018      	movs	r0, r3
 8001014:	f000 fdbe 	bl	8001b94 <HAL_GPIO_Init>
  /* USER CODE BEGIN USART2_MspInit 1 */

  /* USER CODE END USART2_MspInit 1 */
  }

}
 8001018:	46c0      	nop			; (mov r8, r8)
 800101a:	46bd      	mov	sp, r7
 800101c:	b01d      	add	sp, #116	; 0x74
 800101e:	bd90      	pop	{r4, r7, pc}
 8001020:	40004400 	.word	0x40004400
 8001024:	40021000 	.word	0x40021000

08001028 <NMI_Handler>:
/******************************************************************************/
/**
  * @brief This function handles Non maskable interrupt.
  */
void NMI_Handler(void)
{
 8001028:	b580      	push	{r7, lr}
 800102a:	af00      	add	r7, sp, #0
  /* USER CODE BEGIN NonMaskableInt_IRQn 0 */

  /* USER CODE END NonMaskableInt_IRQn 0 */
  /* USER CODE BEGIN NonMaskableInt_IRQn 1 */
  while (1)
 800102c:	e7fe      	b.n	800102c <NMI_Handler+0x4>

0800102e <HardFault_Handler>:

/**
  * @brief This function handles Hard fault interrupt.
  */
void HardFault_Handler(void)
{
 800102e:	b580      	push	{r7, lr}
 8001030:	af00      	add	r7, sp, #0
  /* USER CODE BEGIN HardFault_IRQn 0 */

  /* USER CODE END HardFault_IRQn 0 */
  while (1)
 8001032:	e7fe      	b.n	8001032 <HardFault_Handler+0x4>

08001034 <SVC_Handler>:

/**
  * @brief This function handles System service call via SWI instruction.
  */
void SVC_Handler(void)
{
 8001034:	b580      	push	{r7, lr}
 8001036:	af00      	add	r7, sp, #0

  /* USER CODE END SVC_IRQn 0 */
  /* USER CODE BEGIN SVC_IRQn 1 */

  /* USER CODE END SVC_IRQn 1 */
}
 8001038:	46c0      	nop			; (mov r8, r8)
 800103a:	46bd      	mov	sp, r7
 800103c:	bd80      	pop	{r7, pc}

0800103e <PendSV_Handler>:

/**
  * @brief This function handles Pendable request for system service.
  */
void PendSV_Handler(void)
{
 800103e:	b580      	push	{r7, lr}
 8001040:	af00      	add	r7, sp, #0

  /* USER CODE END PendSV_IRQn 0 */
  /* USER CODE BEGIN PendSV_IRQn 1 */

  /* USER CODE END PendSV_IRQn 1 */
}
 8001042:	46c0      	nop			; (mov r8, r8)
 8001044:	46bd      	mov	sp, r7
 8001046:	bd80      	pop	{r7, pc}

08001048 <SysTick_Handler>:

/**
  * @brief This function handles System tick timer.
  */
void SysTick_Handler(void)
{
 8001048:	b580      	push	{r7, lr}
 800104a:	af00      	add	r7, sp, #0
  /* USER CODE BEGIN SysTick_IRQn 0 */

  /* USER CODE END SysTick_IRQn 0 */
  HAL_IncTick();
 800104c:	f000 fcae 	bl	80019ac <HAL_IncTick>
  /* USER CODE BEGIN SysTick_IRQn 1 */

  /* USER CODE END SysTick_IRQn 1 */
}
 8001050:	46c0      	nop			; (mov r8, r8)
 8001052:	46bd      	mov	sp, r7
 8001054:	bd80      	pop	{r7, pc}

08001056 <SystemInit>:
  * @brief  Setup the microcontroller system.
  * @param  None
  * @retval None
  */
void SystemInit(void)
{
 8001056:	b580      	push	{r7, lr}
 8001058:	af00      	add	r7, sp, #0
  /* Configure the Vector Table location -------------------------------------*/
#if defined(USER_VECT_TAB_ADDRESS)
  SCB->VTOR = VECT_TAB_BASE_ADDRESS | VECT_TAB_OFFSET; /* Vector Table Relocation */
#endif /* USER_VECT_TAB_ADDRESS */
}
 800105a:	46c0      	nop			; (mov r8, r8)
 800105c:	46bd      	mov	sp, r7
 800105e:	bd80      	pop	{r7, pc}

08001060 <Reset_Handler>:

  .section .text.Reset_Handler
  .weak Reset_Handler
  .type Reset_Handler, %function
Reset_Handler:
  ldr   r0, =_estack
 8001060:	480d      	ldr	r0, [pc, #52]	; (8001098 <LoopForever+0x2>)
  mov   sp, r0          /* set stack pointer */
 8001062:	4685      	mov	sp, r0

/* Call the clock system initialization function.*/
  bl  SystemInit
 8001064:	f7ff fff7 	bl	8001056 <SystemInit>

/* Copy the data segment initializers from flash to SRAM */
  ldr r0, =_sdata
 8001068:	480c      	ldr	r0, [pc, #48]	; (800109c <LoopForever+0x6>)
  ldr r1, =_edata
 800106a:	490d      	ldr	r1, [pc, #52]	; (80010a0 <LoopForever+0xa>)
  ldr r2, =_sidata
 800106c:	4a0d      	ldr	r2, [pc, #52]	; (80010a4 <LoopForever+0xe>)
  movs r3, #0
 800106e:	2300      	movs	r3, #0
  b LoopCopyDataInit
 8001070:	e002      	b.n	8001078 <LoopCopyDataInit>

08001072 <CopyDataInit>:

CopyDataInit:
  ldr r4, [r2, r3]
 8001072:	58d4      	ldr	r4, [r2, r3]
  str r4, [r0, r3]
 8001074:	50c4      	str	r4, [r0, r3]
  adds r3, r3, #4
 8001076:	3304      	adds	r3, #4

08001078 <LoopCopyDataInit>:

LoopCopyDataInit:
  adds r4, r0, r3
 8001078:	18c4      	adds	r4, r0, r3
  cmp r4, r1
 800107a:	428c      	cmp	r4, r1
  bcc CopyDataInit
 800107c:	d3f9      	bcc.n	8001072 <CopyDataInit>

/* Zero fill the bss segment. */
  ldr r2, =_sbss
 800107e:	4a0a      	ldr	r2, [pc, #40]	; (80010a8 <LoopForever+0x12>)
  ldr r4, =_ebss
 8001080:	4c0a      	ldr	r4, [pc, #40]	; (80010ac <LoopForever+0x16>)
  movs r3, #0
 8001082:	2300      	movs	r3, #0
  b LoopFillZerobss
 8001084:	e001      	b.n	800108a <LoopFillZerobss>

08001086 <FillZerobss>:

FillZerobss:
  str  r3, [r2]
 8001086:	6013      	str	r3, [r2, #0]
  adds r2, r2, #4
 8001088:	3204      	adds	r2, #4

0800108a <LoopFillZerobss>:

LoopFillZerobss:
  cmp r2, r4
 800108a:	42a2      	cmp	r2, r4
  bcc FillZerobss
 800108c:	d3fb      	bcc.n	8001086 <FillZerobss>

/* Call static constructors */
  bl __libc_init_array
 800108e:	f003 ff6b 	bl	8004f68 <__libc_init_array>
/* Call the application s entry point.*/
  bl main
 8001092:	f7ff fae7 	bl	8000664 <main>

08001096 <LoopForever>:

LoopForever:
  b LoopForever
 8001096:	e7fe      	b.n	8001096 <LoopForever>
  ldr   r0, =_estack
 8001098:	20024000 	.word	0x20024000
  ldr r0, =_sdata
 800109c:	20000000 	.word	0x20000000
  ldr r1, =_edata
 80010a0:	2000000c 	.word	0x2000000c
  ldr r2, =_sidata
 80010a4:	08005098 	.word	0x08005098
  ldr r2, =_sbss
 80010a8:	2000000c 	.word	0x2000000c
  ldr r4, =_ebss
 80010ac:	2000026c 	.word	0x2000026c

080010b0 <ADC1_COMP_IRQHandler>:
 * @retval None
*/
  .section .text.Default_Handler,"ax",%progbits
Default_Handler:
Infinite_Loop:
  b Infinite_Loop
 80010b0:	e7fe      	b.n	80010b0 <ADC1_COMP_IRQHandler>
	...

080010b4 <LED1202_RegisterBusIO>:
 * @param  pObj the device pObj
 * @param  pIO the IO pObj
 * @retval 0 in case of success, an error code otherwise
 */
int32_t LED1202_RegisterBusIO (LED1202_Object_TypeDef* pObj, LED1202_IO_TypeDef *pIO)
{
 80010b4:	b580      	push	{r7, lr}
 80010b6:	b084      	sub	sp, #16
 80010b8:	af00      	add	r7, sp, #0
 80010ba:	6078      	str	r0, [r7, #4]
 80010bc:	6039      	str	r1, [r7, #0]
  int32_t ret = (int32_t)LED1202_OK;
 80010be:	2300      	movs	r3, #0
 80010c0:	60fb      	str	r3, [r7, #12]

  if (pObj == NULL)
 80010c2:	687b      	ldr	r3, [r7, #4]
 80010c4:	2b00      	cmp	r3, #0
 80010c6:	d102      	bne.n	80010ce <LED1202_RegisterBusIO+0x1a>
  {
    ret = (int32_t)LED1202_ERROR;
 80010c8:	2303      	movs	r3, #3
 80010ca:	60fb      	str	r3, [r7, #12]
 80010cc:	e032      	b.n	8001134 <LED1202_RegisterBusIO+0x80>
  }
  else
  {
    pObj->IO.BusType     = pIO->BusType;
 80010ce:	683b      	ldr	r3, [r7, #0]
 80010d0:	681a      	ldr	r2, [r3, #0]
 80010d2:	687b      	ldr	r3, [r7, #4]
 80010d4:	601a      	str	r2, [r3, #0]
    pObj->IO.Address     = pIO->Address;
 80010d6:	683b      	ldr	r3, [r7, #0]
 80010d8:	791a      	ldrb	r2, [r3, #4]
 80010da:	687b      	ldr	r3, [r7, #4]
 80010dc:	711a      	strb	r2, [r3, #4]
    pObj->IO.Init        = pIO->Init;
 80010de:	683b      	ldr	r3, [r7, #0]
 80010e0:	689a      	ldr	r2, [r3, #8]
 80010e2:	687b      	ldr	r3, [r7, #4]
 80010e4:	609a      	str	r2, [r3, #8]
    pObj->IO.DeInit      = pIO->DeInit;
 80010e6:	683b      	ldr	r3, [r7, #0]
 80010e8:	68da      	ldr	r2, [r3, #12]
 80010ea:	687b      	ldr	r3, [r7, #4]
 80010ec:	60da      	str	r2, [r3, #12]
    pObj->IO.Write       = pIO->Write;
 80010ee:	683b      	ldr	r3, [r7, #0]
 80010f0:	691a      	ldr	r2, [r3, #16]
 80010f2:	687b      	ldr	r3, [r7, #4]
 80010f4:	611a      	str	r2, [r3, #16]
    pObj->IO.Read        = pIO->Read;
 80010f6:	683b      	ldr	r3, [r7, #0]
 80010f8:	695a      	ldr	r2, [r3, #20]
 80010fa:	687b      	ldr	r3, [r7, #4]
 80010fc:	615a      	str	r2, [r3, #20]
    pObj->IO.Delay     =   pIO->Delay;
 80010fe:	683b      	ldr	r3, [r7, #0]
 8001100:	699a      	ldr	r2, [r3, #24]
 8001102:	687b      	ldr	r3, [r7, #4]
 8001104:	619a      	str	r2, [r3, #24]

    pObj->Ctx.ReadReg  = ReadRegWrap;
 8001106:	687b      	ldr	r3, [r7, #4]
 8001108:	4a0d      	ldr	r2, [pc, #52]	; (8001140 <LED1202_RegisterBusIO+0x8c>)
 800110a:	621a      	str	r2, [r3, #32]
    pObj->Ctx.WriteReg = WriteRegWrap;
 800110c:	687b      	ldr	r3, [r7, #4]
 800110e:	4a0d      	ldr	r2, [pc, #52]	; (8001144 <LED1202_RegisterBusIO+0x90>)
 8001110:	61da      	str	r2, [r3, #28]
    pObj->Ctx.handle   = pObj;
 8001112:	687b      	ldr	r3, [r7, #4]
 8001114:	687a      	ldr	r2, [r7, #4]
 8001116:	625a      	str	r2, [r3, #36]	; 0x24

    if (pObj->IO.Init == NULL)
 8001118:	687b      	ldr	r3, [r7, #4]
 800111a:	689b      	ldr	r3, [r3, #8]
 800111c:	2b00      	cmp	r3, #0
 800111e:	d102      	bne.n	8001126 <LED1202_RegisterBusIO+0x72>
    {
      ret = (int32_t)LED1202_ERROR;
 8001120:	2303      	movs	r3, #3
 8001122:	60fb      	str	r3, [r7, #12]
 8001124:	e006      	b.n	8001134 <LED1202_RegisterBusIO+0x80>
    } else if (pObj->IO.Init() != 0) {
 8001126:	687b      	ldr	r3, [r7, #4]
 8001128:	689b      	ldr	r3, [r3, #8]
 800112a:	4798      	blx	r3
 800112c:	1e03      	subs	r3, r0, #0
 800112e:	d001      	beq.n	8001134 <LED1202_RegisterBusIO+0x80>
      ret = (int32_t)LED1202_ERROR;
 8001130:	2303      	movs	r3, #3
 8001132:	60fb      	str	r3, [r7, #12]
    {
      /*DO nothing*/
    }
  }

  return ret;
 8001134:	68fb      	ldr	r3, [r7, #12]
}
 8001136:	0018      	movs	r0, r3
 8001138:	46bd      	mov	sp, r7
 800113a:	b004      	add	sp, #16
 800113c:	bd80      	pop	{r7, pc}
 800113e:	46c0      	nop			; (mov r8, r8)
 8001140:	08001569 	.word	0x08001569
 8001144:	080015ad 	.word	0x080015ad

08001148 <LED1202_ReadID>:
 * @param  pID pointer to the buffer
 * @param  DevAddr 7-Bit Device Address
 * @retval 0 in case of success, an error code otherwise
 */
int32_t LED1202_ReadID(LED1202_Object_TypeDef* pObj, uint8_t *pID, uint8_t DevAddr)
{
 8001148:	b580      	push	{r7, lr}
 800114a:	b086      	sub	sp, #24
 800114c:	af00      	add	r7, sp, #0
 800114e:	60f8      	str	r0, [r7, #12]
 8001150:	60b9      	str	r1, [r7, #8]
 8001152:	1dfb      	adds	r3, r7, #7
 8001154:	701a      	strb	r2, [r3, #0]
  int32_t ret;
  pObj->IO.Address = DevAddr<<1;
 8001156:	1dfb      	adds	r3, r7, #7
 8001158:	781b      	ldrb	r3, [r3, #0]
 800115a:	18db      	adds	r3, r3, r3
 800115c:	b2da      	uxtb	r2, r3
 800115e:	68fb      	ldr	r3, [r7, #12]
 8001160:	711a      	strb	r2, [r3, #4]
  TmpStatus = LED1202_ReadReg(&(pObj->Ctx), LED1202_DEVICE_ID, pID, 1);
 8001162:	68fb      	ldr	r3, [r7, #12]
 8001164:	331c      	adds	r3, #28
 8001166:	0018      	movs	r0, r3
 8001168:	68ba      	ldr	r2, [r7, #8]
 800116a:	2301      	movs	r3, #1
 800116c:	2100      	movs	r1, #0
 800116e:	f000 f908 	bl	8001382 <LED1202_ReadReg>
 8001172:	0002      	movs	r2, r0
 8001174:	4b07      	ldr	r3, [pc, #28]	; (8001194 <LED1202_ReadID+0x4c>)
 8001176:	601a      	str	r2, [r3, #0]
  
  if((*pID) == I_AM_LED1202)
 8001178:	68bb      	ldr	r3, [r7, #8]
 800117a:	781b      	ldrb	r3, [r3, #0]
 800117c:	2b12      	cmp	r3, #18
 800117e:	d102      	bne.n	8001186 <LED1202_ReadID+0x3e>
  {
    ret = (int32_t)LED1202_OK;
 8001180:	2300      	movs	r3, #0
 8001182:	617b      	str	r3, [r7, #20]
 8001184:	e001      	b.n	800118a <LED1202_ReadID+0x42>
  }
  else
  {
    ret = (int32_t)LED1202_ERROR;
 8001186:	2303      	movs	r3, #3
 8001188:	617b      	str	r3, [r7, #20]
  }
  return (ret);
 800118a:	697b      	ldr	r3, [r7, #20]
}
 800118c:	0018      	movs	r0, r3
 800118e:	46bd      	mov	sp, r7
 8001190:	b006      	add	sp, #24
 8001192:	bd80      	pop	{r7, pc}
 8001194:	20000238 	.word	0x20000238

08001198 <LED1202_SetChannelState>:
 * @param  Channel LED_CHANNEL_0,LED_CHANNEL_1,LED_CHANNEL_2..LED_CHANNEL_11 can be passed
 * @param  DevAddr 7-Bit Device Address
 * @retval 0 in case of success, an error code otherwise
 */
int32_t LED1202_SetChannelState( LED1202_Object_TypeDef* pObj , uint16_t Channel ,StateEnum_TypeDef State, uint8_t DevAddr)
{
 8001198:	b590      	push	{r4, r7, lr}
 800119a:	b085      	sub	sp, #20
 800119c:	af00      	add	r7, sp, #0
 800119e:	6078      	str	r0, [r7, #4]
 80011a0:	000c      	movs	r4, r1
 80011a2:	0010      	movs	r0, r2
 80011a4:	0019      	movs	r1, r3
 80011a6:	1cbb      	adds	r3, r7, #2
 80011a8:	1c22      	adds	r2, r4, #0
 80011aa:	801a      	strh	r2, [r3, #0]
 80011ac:	1c7b      	adds	r3, r7, #1
 80011ae:	1c02      	adds	r2, r0, #0
 80011b0:	701a      	strb	r2, [r3, #0]
 80011b2:	003b      	movs	r3, r7
 80011b4:	1c0a      	adds	r2, r1, #0
 80011b6:	701a      	strb	r2, [r3, #0]
  volatile int32_t ret;
  uint16_t readReg;
  uint16_t chRegVal;
  pObj->IO.Address = DevAddr<<1;
 80011b8:	003b      	movs	r3, r7
 80011ba:	781b      	ldrb	r3, [r3, #0]
 80011bc:	18db      	adds	r3, r3, r3
 80011be:	b2da      	uxtb	r2, r3
 80011c0:	687b      	ldr	r3, [r7, #4]
 80011c2:	711a      	strb	r2, [r3, #4]
  
  ret = LED1202_ReadReg(&(pObj->Ctx), LED1202_LED_CH_ENABLE, (uint8_t *)&readReg, 2);
 80011c4:	687b      	ldr	r3, [r7, #4]
 80011c6:	331c      	adds	r3, #28
 80011c8:	0018      	movs	r0, r3
 80011ca:	240a      	movs	r4, #10
 80011cc:	193a      	adds	r2, r7, r4
 80011ce:	2302      	movs	r3, #2
 80011d0:	2102      	movs	r1, #2
 80011d2:	f000 f8d6 	bl	8001382 <LED1202_ReadReg>
 80011d6:	0003      	movs	r3, r0
 80011d8:	60fb      	str	r3, [r7, #12]
    
  if(State == CH_STATE_ENABLE)
 80011da:	1c7b      	adds	r3, r7, #1
 80011dc:	781b      	ldrb	r3, [r3, #0]
 80011de:	2b00      	cmp	r3, #0
 80011e0:	d113      	bne.n	800120a <LED1202_SetChannelState+0x72>
  {
    chRegVal = readReg | Channel;
 80011e2:	193b      	adds	r3, r7, r4
 80011e4:	881a      	ldrh	r2, [r3, #0]
 80011e6:	1cbb      	adds	r3, r7, #2
 80011e8:	881b      	ldrh	r3, [r3, #0]
 80011ea:	4313      	orrs	r3, r2
 80011ec:	b29a      	uxth	r2, r3
 80011ee:	2108      	movs	r1, #8
 80011f0:	187b      	adds	r3, r7, r1
 80011f2:	801a      	strh	r2, [r3, #0]
    ret = LED1202_WriteReg(&(pObj->Ctx), LED1202_LED_CH_ENABLE, (uint8_t *)&chRegVal, 2);
 80011f4:	687b      	ldr	r3, [r7, #4]
 80011f6:	331c      	adds	r3, #28
 80011f8:	0018      	movs	r0, r3
 80011fa:	187a      	adds	r2, r7, r1
 80011fc:	2302      	movs	r3, #2
 80011fe:	2102      	movs	r1, #2
 8001200:	f000 f8e0 	bl	80013c4 <LED1202_WriteReg>
 8001204:	0003      	movs	r3, r0
 8001206:	60fb      	str	r3, [r7, #12]
 8001208:	e036      	b.n	8001278 <LED1202_SetChannelState+0xe0>
  }
  else if(State == CH_STATE_DISABLE)
 800120a:	1c7b      	adds	r3, r7, #1
 800120c:	781b      	ldrb	r3, [r3, #0]
 800120e:	2b01      	cmp	r3, #1
 8001210:	d119      	bne.n	8001246 <LED1202_SetChannelState+0xae>
  {
    chRegVal = readReg & (~Channel);  
 8001212:	1cbb      	adds	r3, r7, #2
 8001214:	2200      	movs	r2, #0
 8001216:	5e9b      	ldrsh	r3, [r3, r2]
 8001218:	43db      	mvns	r3, r3
 800121a:	b21b      	sxth	r3, r3
 800121c:	220a      	movs	r2, #10
 800121e:	18ba      	adds	r2, r7, r2
 8001220:	8812      	ldrh	r2, [r2, #0]
 8001222:	b212      	sxth	r2, r2
 8001224:	4013      	ands	r3, r2
 8001226:	b21b      	sxth	r3, r3
 8001228:	b29a      	uxth	r2, r3
 800122a:	2108      	movs	r1, #8
 800122c:	187b      	adds	r3, r7, r1
 800122e:	801a      	strh	r2, [r3, #0]
    ret = LED1202_WriteReg(&(pObj->Ctx), LED1202_LED_CH_ENABLE, (uint8_t *)&chRegVal, 2);
 8001230:	687b      	ldr	r3, [r7, #4]
 8001232:	331c      	adds	r3, #28
 8001234:	0018      	movs	r0, r3
 8001236:	187a      	adds	r2, r7, r1
 8001238:	2302      	movs	r3, #2
 800123a:	2102      	movs	r1, #2
 800123c:	f000 f8c2 	bl	80013c4 <LED1202_WriteReg>
 8001240:	0003      	movs	r3, r0
 8001242:	60fb      	str	r3, [r7, #12]
 8001244:	e018      	b.n	8001278 <LED1202_SetChannelState+0xe0>
  }
  else
  {
    chRegVal = readReg & (~Channel);
 8001246:	1cbb      	adds	r3, r7, #2
 8001248:	2200      	movs	r2, #0
 800124a:	5e9b      	ldrsh	r3, [r3, r2]
 800124c:	43db      	mvns	r3, r3
 800124e:	b21b      	sxth	r3, r3
 8001250:	220a      	movs	r2, #10
 8001252:	18ba      	adds	r2, r7, r2
 8001254:	8812      	ldrh	r2, [r2, #0]
 8001256:	b212      	sxth	r2, r2
 8001258:	4013      	ands	r3, r2
 800125a:	b21b      	sxth	r3, r3
 800125c:	b29a      	uxth	r2, r3
 800125e:	2108      	movs	r1, #8
 8001260:	187b      	adds	r3, r7, r1
 8001262:	801a      	strh	r2, [r3, #0]
    ret = LED1202_WriteReg(&(pObj->Ctx), LED1202_LED_CH_ENABLE, (uint8_t *)&chRegVal, 2);
 8001264:	687b      	ldr	r3, [r7, #4]
 8001266:	331c      	adds	r3, #28
 8001268:	0018      	movs	r0, r3
 800126a:	187a      	adds	r2, r7, r1
 800126c:	2302      	movs	r3, #2
 800126e:	2102      	movs	r1, #2
 8001270:	f000 f8a8 	bl	80013c4 <LED1202_WriteReg>
 8001274:	0003      	movs	r3, r0
 8001276:	60fb      	str	r3, [r7, #12]
  }
  return(ret);
 8001278:	68fb      	ldr	r3, [r7, #12]
}
 800127a:	0018      	movs	r0, r3
 800127c:	46bd      	mov	sp, r7
 800127e:	b005      	add	sp, #20
 8001280:	bd90      	pop	{r4, r7, pc}

08001282 <LED1202_WriteLEDCurrentReg>:
 * @param  Channel Channel number (0 to 11)
 * @param  DevAddr 7-Bit Device Address
 * @retval 0 in case of success, an error code otherwise
 */
int32_t LED1202_WriteLEDCurrentReg( LED1202_Object_TypeDef* pObj , uint8_t Current, uint16_t Channel, uint8_t DevAddr)
{
 8001282:	b590      	push	{r4, r7, lr}
 8001284:	b085      	sub	sp, #20
 8001286:	af00      	add	r7, sp, #0
 8001288:	6078      	str	r0, [r7, #4]
 800128a:	000c      	movs	r4, r1
 800128c:	0010      	movs	r0, r2
 800128e:	0019      	movs	r1, r3
 8001290:	1cfb      	adds	r3, r7, #3
 8001292:	1c22      	adds	r2, r4, #0
 8001294:	701a      	strb	r2, [r3, #0]
 8001296:	003b      	movs	r3, r7
 8001298:	1c02      	adds	r2, r0, #0
 800129a:	801a      	strh	r2, [r3, #0]
 800129c:	1cbb      	adds	r3, r7, #2
 800129e:	1c0a      	adds	r2, r1, #0
 80012a0:	701a      	strb	r2, [r3, #0]
  int32_t ret;
  uint8_t currentRegValue;
  
  pObj->IO.Address = DevAddr<<1;
 80012a2:	1cbb      	adds	r3, r7, #2
 80012a4:	781b      	ldrb	r3, [r3, #0]
 80012a6:	18db      	adds	r3, r3, r3
 80012a8:	b2da      	uxtb	r2, r3
 80012aa:	687b      	ldr	r3, [r7, #4]
 80012ac:	711a      	strb	r2, [r3, #4]
  
  if(Current < MAX_CH_CURRENT)
 80012ae:	1cfb      	adds	r3, r7, #3
 80012b0:	781b      	ldrb	r3, [r3, #0]
 80012b2:	2b13      	cmp	r3, #19
 80012b4:	d80e      	bhi.n	80012d4 <LED1202_WriteLEDCurrentReg+0x52>
  {
    currentRegValue = (uint8_t ) (((uint16_t)Current *(uint16_t) MAX_VARIABLE)/(uint16_t)MAX_CH_CURRENT);
 80012b6:	1cfb      	adds	r3, r7, #3
 80012b8:	781a      	ldrb	r2, [r3, #0]
 80012ba:	0013      	movs	r3, r2
 80012bc:	021b      	lsls	r3, r3, #8
 80012be:	1a9b      	subs	r3, r3, r2
 80012c0:	2114      	movs	r1, #20
 80012c2:	0018      	movs	r0, r3
 80012c4:	f7fe ffa8 	bl	8000218 <__divsi3>
 80012c8:	0003      	movs	r3, r0
 80012ca:	b2da      	uxtb	r2, r3
 80012cc:	230b      	movs	r3, #11
 80012ce:	18fb      	adds	r3, r7, r3
 80012d0:	701a      	strb	r2, [r3, #0]
 80012d2:	e003      	b.n	80012dc <LED1202_WriteLEDCurrentReg+0x5a>
  }
  else
  {
    currentRegValue = MAX_VARIABLE;
 80012d4:	230b      	movs	r3, #11
 80012d6:	18fb      	adds	r3, r7, r3
 80012d8:	22ff      	movs	r2, #255	; 0xff
 80012da:	701a      	strb	r2, [r3, #0]
  }
  
  ret = LED1202_WriteReg(&(pObj->Ctx), (LED1202_CS0_LED_CURRENT + Channel), &currentRegValue, 1); 
 80012dc:	687b      	ldr	r3, [r7, #4]
 80012de:	331c      	adds	r3, #28
 80012e0:	0018      	movs	r0, r3
 80012e2:	003b      	movs	r3, r7
 80012e4:	881b      	ldrh	r3, [r3, #0]
 80012e6:	3309      	adds	r3, #9
 80012e8:	b299      	uxth	r1, r3
 80012ea:	230b      	movs	r3, #11
 80012ec:	18fa      	adds	r2, r7, r3
 80012ee:	2301      	movs	r3, #1
 80012f0:	f000 f868 	bl	80013c4 <LED1202_WriteReg>
 80012f4:	0003      	movs	r3, r0
 80012f6:	60fb      	str	r3, [r7, #12]
  
  return(ret);
 80012f8:	68fb      	ldr	r3, [r7, #12]
}
 80012fa:	0018      	movs	r0, r3
 80012fc:	46bd      	mov	sp, r7
 80012fe:	b005      	add	sp, #20
 8001300:	bd90      	pop	{r4, r7, pc}

08001302 <LED1202_WritePatternPWMConfig>:
 * @param  PatternNum Pattern Number
 * @param  DevAddr 7-Bit Device Address
 * @retval 0 in case of success, an error code otherwise
 */
int32_t LED1202_WritePatternPWMConfig( LED1202_Object_TypeDef* pObj , uint8_t *pData ,uint8_t Channel, uint8_t PatternNum, uint8_t DevAddr)
{
 8001302:	b580      	push	{r7, lr}
 8001304:	b086      	sub	sp, #24
 8001306:	af00      	add	r7, sp, #0
 8001308:	60f8      	str	r0, [r7, #12]
 800130a:	60b9      	str	r1, [r7, #8]
 800130c:	0019      	movs	r1, r3
 800130e:	1dfb      	adds	r3, r7, #7
 8001310:	701a      	strb	r2, [r3, #0]
 8001312:	1dbb      	adds	r3, r7, #6
 8001314:	1c0a      	adds	r2, r1, #0
 8001316:	701a      	strb	r2, [r3, #0]
  uint16_t digData;
  uint8_t chOffset;
  int32_t ret = 0;
 8001318:	2300      	movs	r3, #0
 800131a:	617b      	str	r3, [r7, #20]
  pObj->IO.Address = DevAddr<<1;
 800131c:	2320      	movs	r3, #32
 800131e:	18fb      	adds	r3, r7, r3
 8001320:	781b      	ldrb	r3, [r3, #0]
 8001322:	18db      	adds	r3, r3, r3
 8001324:	b2da      	uxtb	r2, r3
 8001326:	68fb      	ldr	r3, [r7, #12]
 8001328:	711a      	strb	r2, [r3, #4]
  digData = (*((uint16_t *)pData));
 800132a:	2012      	movs	r0, #18
 800132c:	183b      	adds	r3, r7, r0
 800132e:	68ba      	ldr	r2, [r7, #8]
 8001330:	8812      	ldrh	r2, [r2, #0]
 8001332:	801a      	strh	r2, [r3, #0]
  
  chOffset = (((uint8_t)2)*Channel) + (((uint8_t)24)*PatternNum);
 8001334:	1dfb      	adds	r3, r7, #7
 8001336:	7819      	ldrb	r1, [r3, #0]
 8001338:	1dbb      	adds	r3, r7, #6
 800133a:	781a      	ldrb	r2, [r3, #0]
 800133c:	0013      	movs	r3, r2
 800133e:	005b      	lsls	r3, r3, #1
 8001340:	189b      	adds	r3, r3, r2
 8001342:	009b      	lsls	r3, r3, #2
 8001344:	18cb      	adds	r3, r1, r3
 8001346:	b2db      	uxtb	r3, r3
 8001348:	2111      	movs	r1, #17
 800134a:	187a      	adds	r2, r7, r1
 800134c:	18db      	adds	r3, r3, r3
 800134e:	7013      	strb	r3, [r2, #0]
  
  if(digData<=((uint16_t)4095))
 8001350:	183b      	adds	r3, r7, r0
 8001352:	881a      	ldrh	r2, [r3, #0]
 8001354:	2380      	movs	r3, #128	; 0x80
 8001356:	015b      	lsls	r3, r3, #5
 8001358:	429a      	cmp	r2, r3
 800135a:	d20d      	bcs.n	8001378 <LED1202_WritePatternPWMConfig+0x76>
  {
   ret =  LED1202_WriteReg(&(pObj->Ctx),(uint8_t)( LED1202_PATTERN0_CS0_PWM + chOffset), pData, 2); 
 800135c:	68fb      	ldr	r3, [r7, #12]
 800135e:	331c      	adds	r3, #28
 8001360:	0018      	movs	r0, r3
 8001362:	187b      	adds	r3, r7, r1
 8001364:	781b      	ldrb	r3, [r3, #0]
 8001366:	331e      	adds	r3, #30
 8001368:	b2db      	uxtb	r3, r3
 800136a:	b299      	uxth	r1, r3
 800136c:	68ba      	ldr	r2, [r7, #8]
 800136e:	2302      	movs	r3, #2
 8001370:	f000 f828 	bl	80013c4 <LED1202_WriteReg>
 8001374:	0003      	movs	r3, r0
 8001376:	617b      	str	r3, [r7, #20]
  }
  return (ret);
 8001378:	697b      	ldr	r3, [r7, #20]
}
 800137a:	0018      	movs	r0, r3
 800137c:	46bd      	mov	sp, r7
 800137e:	b006      	add	sp, #24
 8001380:	bd80      	pop	{r7, pc}

08001382 <LED1202_ReadReg>:
* @param  len   number of consecutive register to read
* @retval          interface status (MANDATORY: return 0 -> no Error)
*
*/
int32_t LED1202_ReadReg (const LED1202_Ctx_TypeDef *pLed, uint16_t Reg, const uint8_t *Data, uint16_t len)
{
 8001382:	b5f0      	push	{r4, r5, r6, r7, lr}
 8001384:	b087      	sub	sp, #28
 8001386:	af00      	add	r7, sp, #0
 8001388:	60f8      	str	r0, [r7, #12]
 800138a:	0008      	movs	r0, r1
 800138c:	607a      	str	r2, [r7, #4]
 800138e:	0019      	movs	r1, r3
 8001390:	250a      	movs	r5, #10
 8001392:	197b      	adds	r3, r7, r5
 8001394:	1c02      	adds	r2, r0, #0
 8001396:	801a      	strh	r2, [r3, #0]
 8001398:	2608      	movs	r6, #8
 800139a:	19bb      	adds	r3, r7, r6
 800139c:	1c0a      	adds	r2, r1, #0
 800139e:	801a      	strh	r2, [r3, #0]
  int32_t tmp;
  tmp =(int32_t)( pLed->ReadReg(pLed->handle, Reg,  Data, len));
 80013a0:	68fb      	ldr	r3, [r7, #12]
 80013a2:	685c      	ldr	r4, [r3, #4]
 80013a4:	68fb      	ldr	r3, [r7, #12]
 80013a6:	6898      	ldr	r0, [r3, #8]
 80013a8:	197b      	adds	r3, r7, r5
 80013aa:	881b      	ldrh	r3, [r3, #0]
 80013ac:	b2d9      	uxtb	r1, r3
 80013ae:	19bb      	adds	r3, r7, r6
 80013b0:	881b      	ldrh	r3, [r3, #0]
 80013b2:	687a      	ldr	r2, [r7, #4]
 80013b4:	47a0      	blx	r4
 80013b6:	0003      	movs	r3, r0
 80013b8:	617b      	str	r3, [r7, #20]
  return (tmp);
 80013ba:	697b      	ldr	r3, [r7, #20]
}
 80013bc:	0018      	movs	r0, r3
 80013be:	46bd      	mov	sp, r7
 80013c0:	b007      	add	sp, #28
 80013c2:	bdf0      	pop	{r4, r5, r6, r7, pc}

080013c4 <LED1202_WriteReg>:
* @param  len   number of consecutive register to read
* @retval          interface status (MANDATORY: return 0 -> no Error)
*
*/
int32_t LED1202_WriteReg (const LED1202_Ctx_TypeDef *pLed, uint16_t Reg, const uint8_t* Data, uint16_t len)
{
 80013c4:	b5f0      	push	{r4, r5, r6, r7, lr}
 80013c6:	b087      	sub	sp, #28
 80013c8:	af00      	add	r7, sp, #0
 80013ca:	60f8      	str	r0, [r7, #12]
 80013cc:	0008      	movs	r0, r1
 80013ce:	607a      	str	r2, [r7, #4]
 80013d0:	0019      	movs	r1, r3
 80013d2:	250a      	movs	r5, #10
 80013d4:	197b      	adds	r3, r7, r5
 80013d6:	1c02      	adds	r2, r0, #0
 80013d8:	801a      	strh	r2, [r3, #0]
 80013da:	2608      	movs	r6, #8
 80013dc:	19bb      	adds	r3, r7, r6
 80013de:	1c0a      	adds	r2, r1, #0
 80013e0:	801a      	strh	r2, [r3, #0]
  int32_t tmp;
  tmp = (int32_t)(pLed->WriteReg(pLed->handle, Reg, Data, len));
 80013e2:	68fb      	ldr	r3, [r7, #12]
 80013e4:	681c      	ldr	r4, [r3, #0]
 80013e6:	68fb      	ldr	r3, [r7, #12]
 80013e8:	6898      	ldr	r0, [r3, #8]
 80013ea:	197b      	adds	r3, r7, r5
 80013ec:	881b      	ldrh	r3, [r3, #0]
 80013ee:	b2d9      	uxtb	r1, r3
 80013f0:	19bb      	adds	r3, r7, r6
 80013f2:	881b      	ldrh	r3, [r3, #0]
 80013f4:	687a      	ldr	r2, [r7, #4]
 80013f6:	47a0      	blx	r4
 80013f8:	0003      	movs	r3, r0
 80013fa:	617b      	str	r3, [r7, #20]
  return (tmp);
 80013fc:	697b      	ldr	r3, [r7, #20]
}
 80013fe:	0018      	movs	r0, r3
 8001400:	46bd      	mov	sp, r7
 8001402:	b007      	add	sp, #28
 8001404:	bdf0      	pop	{r4, r5, r6, r7, pc}
	...

08001408 <LED12A1_Init>:
/**
* @brief  LED12A1 Board Initialization 
* @retval 0 in case of success, an error code otherwise
*/
int32_t LED12A1_Init( void )
{
 8001408:	b580      	push	{r7, lr}
 800140a:	b088      	sub	sp, #32
 800140c:	af00      	add	r7, sp, #0
  volatile int32_t ret =  (int32_t)LED1202_OK;
 800140e:	2300      	movs	r3, #0
 8001410:	61fb      	str	r3, [r7, #28]
  LED1202_IO_TypeDef ledIO;
  
  /*register SPI bus function to the component */
  ledIO.BusType = LED1202_I2C_BUS;
 8001412:	003b      	movs	r3, r7
 8001414:	2200      	movs	r2, #0
 8001416:	601a      	str	r2, [r3, #0]
  ledIO.Address = LED1202_I2C_ADDR;
 8001418:	003b      	movs	r3, r7
 800141a:	225c      	movs	r2, #92	; 0x5c
 800141c:	711a      	strb	r2, [r3, #4]
  ledIO.Init = LED12A1_I2C_Init;
 800141e:	003b      	movs	r3, r7
 8001420:	4a0d      	ldr	r2, [pc, #52]	; (8001458 <LED12A1_Init+0x50>)
 8001422:	609a      	str	r2, [r3, #8]
  ledIO.DeInit = LED12A1_I2C_DeInit;
 8001424:	003b      	movs	r3, r7
 8001426:	4a0d      	ldr	r2, [pc, #52]	; (800145c <LED12A1_Init+0x54>)
 8001428:	60da      	str	r2, [r3, #12]
  ledIO.Write = LED12A1_I2C_Write;
 800142a:	003b      	movs	r3, r7
 800142c:	4a0c      	ldr	r2, [pc, #48]	; (8001460 <LED12A1_Init+0x58>)
 800142e:	611a      	str	r2, [r3, #16]
  ledIO.Read = LED12A1_I2C_Read;
 8001430:	003b      	movs	r3, r7
 8001432:	4a0c      	ldr	r2, [pc, #48]	; (8001464 <LED12A1_Init+0x5c>)
 8001434:	615a      	str	r2, [r3, #20]
  ledIO.Delay = LED12A1_Delay;
 8001436:	003b      	movs	r3, r7
 8001438:	4a0b      	ldr	r2, [pc, #44]	; (8001468 <LED12A1_Init+0x60>)
 800143a:	619a      	str	r2, [r3, #24]
  
  ret = LED1202_RegisterBusIO (&LED1202Obj, &ledIO);
 800143c:	003a      	movs	r2, r7
 800143e:	4b0b      	ldr	r3, [pc, #44]	; (800146c <LED12A1_Init+0x64>)
 8001440:	0011      	movs	r1, r2
 8001442:	0018      	movs	r0, r3
 8001444:	f7ff fe36 	bl	80010b4 <LED1202_RegisterBusIO>
 8001448:	0003      	movs	r3, r0
 800144a:	61fb      	str	r3, [r7, #28]
  
  return (ret);
 800144c:	69fb      	ldr	r3, [r7, #28]
}
 800144e:	0018      	movs	r0, r3
 8001450:	46bd      	mov	sp, r7
 8001452:	b008      	add	sp, #32
 8001454:	bd80      	pop	{r7, pc}
 8001456:	46c0      	nop			; (mov r8, r8)
 8001458:	08001471 	.word	0x08001471
 800145c:	08001481 	.word	0x08001481
 8001460:	080014a5 	.word	0x080014a5
 8001464:	08001509 	.word	0x08001509
 8001468:	080019e5 	.word	0x080019e5
 800146c:	2000023c 	.word	0x2000023c

08001470 <BSP_I2C_Init>:
/**
* @brief  LED12A1 I2C Initialization 
* @retval 0 in case of success, an error code otherwise
*/
int32_t  BSP_I2C_Init(void)
{
 8001470:	b580      	push	{r7, lr}
 8001472:	af00      	add	r7, sp, #0
  MX_I2C1_Init();
 8001474:	f7ff fafe 	bl	8000a74 <MX_I2C1_Init>
  return (0);
 8001478:	2300      	movs	r3, #0
}
 800147a:	0018      	movs	r0, r3
 800147c:	46bd      	mov	sp, r7
 800147e:	bd80      	pop	{r7, pc}

08001480 <BSP_I2C_DeInit>:
/**
* @brief  LED12A1 I2C DeInitialization 
* @retval 0 in case of success, an error code otherwise
*/
int32_t BSP_I2C_DeInit(void)
{
 8001480:	b590      	push	{r4, r7, lr}
 8001482:	b083      	sub	sp, #12
 8001484:	af00      	add	r7, sp, #0
  HAL_StatusTypeDef ret;
  ret  = HAL_I2C_DeInit(&hi2c1);
 8001486:	1dfc      	adds	r4, r7, #7
 8001488:	4b05      	ldr	r3, [pc, #20]	; (80014a0 <BSP_I2C_DeInit+0x20>)
 800148a:	0018      	movs	r0, r3
 800148c:	f000 fe7a 	bl	8002184 <HAL_I2C_DeInit>
 8001490:	0003      	movs	r3, r0
 8001492:	7023      	strb	r3, [r4, #0]
  return((int32_t)ret);
 8001494:	1dfb      	adds	r3, r7, #7
 8001496:	781b      	ldrb	r3, [r3, #0]
}
 8001498:	0018      	movs	r0, r3
 800149a:	46bd      	mov	sp, r7
 800149c:	b003      	add	sp, #12
 800149e:	bd90      	pop	{r4, r7, pc}
 80014a0:	200000ac 	.word	0x200000ac

080014a4 <BSP_I2C_Write>:
* @param  Reg: The target register address to write
* @param  Value: The target register value to be written
* @retval BSP status
*/
int32_t BSP_I2C_Write(uint16_t DevAddr, uint16_t Reg, const uint8_t* pData, uint16_t Len)
{
 80014a4:	b5b0      	push	{r4, r5, r7, lr}
 80014a6:	b08a      	sub	sp, #40	; 0x28
 80014a8:	af04      	add	r7, sp, #16
 80014aa:	0004      	movs	r4, r0
 80014ac:	0008      	movs	r0, r1
 80014ae:	60ba      	str	r2, [r7, #8]
 80014b0:	0019      	movs	r1, r3
 80014b2:	250e      	movs	r5, #14
 80014b4:	197b      	adds	r3, r7, r5
 80014b6:	1c22      	adds	r2, r4, #0
 80014b8:	801a      	strh	r2, [r3, #0]
 80014ba:	240c      	movs	r4, #12
 80014bc:	193b      	adds	r3, r7, r4
 80014be:	1c02      	adds	r2, r0, #0
 80014c0:	801a      	strh	r2, [r3, #0]
 80014c2:	1dbb      	adds	r3, r7, #6
 80014c4:	1c0a      	adds	r2, r1, #0
 80014c6:	801a      	strh	r2, [r3, #0]
  int32_t ret = (int32_t)BSP_ERROR_BUS_FAILURE;
 80014c8:	2308      	movs	r3, #8
 80014ca:	425b      	negs	r3, r3
 80014cc:	617b      	str	r3, [r7, #20]
  
  if (HAL_I2C_Mem_Write(&hi2c1, (uint8_t)DevAddr,
 80014ce:	197b      	adds	r3, r7, r5
 80014d0:	881b      	ldrh	r3, [r3, #0]
 80014d2:	b2db      	uxtb	r3, r3
 80014d4:	b299      	uxth	r1, r3
 80014d6:	193b      	adds	r3, r7, r4
 80014d8:	881a      	ldrh	r2, [r3, #0]
 80014da:	480a      	ldr	r0, [pc, #40]	; (8001504 <BSP_I2C_Write+0x60>)
 80014dc:	23fa      	movs	r3, #250	; 0xfa
 80014de:	009b      	lsls	r3, r3, #2
 80014e0:	9302      	str	r3, [sp, #8]
 80014e2:	1dbb      	adds	r3, r7, #6
 80014e4:	881b      	ldrh	r3, [r3, #0]
 80014e6:	9301      	str	r3, [sp, #4]
 80014e8:	68bb      	ldr	r3, [r7, #8]
 80014ea:	9300      	str	r3, [sp, #0]
 80014ec:	2301      	movs	r3, #1
 80014ee:	f000 fe79 	bl	80021e4 <HAL_I2C_Mem_Write>
 80014f2:	1e03      	subs	r3, r0, #0
 80014f4:	d101      	bne.n	80014fa <BSP_I2C_Write+0x56>
                        (uint16_t)Reg, I2C_MEMADD_SIZE_8BIT,
                        (uint8_t *)pData, Len, TIMEOUT_DURATION) == HAL_OK)
  {
    ret = BSP_ERROR_NONE;
 80014f6:	2300      	movs	r3, #0
 80014f8:	617b      	str	r3, [r7, #20]
  }
  
  return ret;
 80014fa:	697b      	ldr	r3, [r7, #20]
}
 80014fc:	0018      	movs	r0, r3
 80014fe:	46bd      	mov	sp, r7
 8001500:	b006      	add	sp, #24
 8001502:	bdb0      	pop	{r4, r5, r7, pc}
 8001504:	200000ac 	.word	0x200000ac

08001508 <BSP_I2C_Read>:
* @param  DevAddr: Device address on BUS
* @param  Reg: The target register address to read
* @retval BSP status
*/
int32_t BSP_I2C_Read(uint16_t DevAddr, uint16_t Reg, const uint8_t* pData, uint16_t Len)
{
 8001508:	b5b0      	push	{r4, r5, r7, lr}
 800150a:	b08a      	sub	sp, #40	; 0x28
 800150c:	af04      	add	r7, sp, #16
 800150e:	0004      	movs	r4, r0
 8001510:	0008      	movs	r0, r1
 8001512:	60ba      	str	r2, [r7, #8]
 8001514:	0019      	movs	r1, r3
 8001516:	250e      	movs	r5, #14
 8001518:	197b      	adds	r3, r7, r5
 800151a:	1c22      	adds	r2, r4, #0
 800151c:	801a      	strh	r2, [r3, #0]
 800151e:	240c      	movs	r4, #12
 8001520:	193b      	adds	r3, r7, r4
 8001522:	1c02      	adds	r2, r0, #0
 8001524:	801a      	strh	r2, [r3, #0]
 8001526:	1dbb      	adds	r3, r7, #6
 8001528:	1c0a      	adds	r2, r1, #0
 800152a:	801a      	strh	r2, [r3, #0]
  int32_t ret = BSP_ERROR_BUS_FAILURE;
 800152c:	2308      	movs	r3, #8
 800152e:	425b      	negs	r3, r3
 8001530:	617b      	str	r3, [r7, #20]
  
  if (HAL_I2C_Mem_Read(&hi2c1, DevAddr, (uint16_t)Reg,
 8001532:	193b      	adds	r3, r7, r4
 8001534:	881a      	ldrh	r2, [r3, #0]
 8001536:	197b      	adds	r3, r7, r5
 8001538:	8819      	ldrh	r1, [r3, #0]
 800153a:	480a      	ldr	r0, [pc, #40]	; (8001564 <BSP_I2C_Read+0x5c>)
 800153c:	23fa      	movs	r3, #250	; 0xfa
 800153e:	009b      	lsls	r3, r3, #2
 8001540:	9302      	str	r3, [sp, #8]
 8001542:	1dbb      	adds	r3, r7, #6
 8001544:	881b      	ldrh	r3, [r3, #0]
 8001546:	9301      	str	r3, [sp, #4]
 8001548:	68bb      	ldr	r3, [r7, #8]
 800154a:	9300      	str	r3, [sp, #0]
 800154c:	2301      	movs	r3, #1
 800154e:	f000 ff77 	bl	8002440 <HAL_I2C_Mem_Read>
 8001552:	1e03      	subs	r3, r0, #0
 8001554:	d101      	bne.n	800155a <BSP_I2C_Read+0x52>
                       I2C_MEMADD_SIZE_8BIT, (uint8_t *)pData,
                       Len, TIMEOUT_DURATION) == HAL_OK)
  {
    ret = BSP_ERROR_NONE;
 8001556:	2300      	movs	r3, #0
 8001558:	617b      	str	r3, [r7, #20]
  }
  
  return ret;
 800155a:	697b      	ldr	r3, [r7, #20]
}
 800155c:	0018      	movs	r0, r3
 800155e:	46bd      	mov	sp, r7
 8001560:	b006      	add	sp, #24
 8001562:	bdb0      	pop	{r4, r5, r7, pc}
 8001564:	200000ac 	.word	0x200000ac

08001568 <ReadRegWrap>:
* @param  pData the stored data pointer
* @param  Length the length
* @retval 0 in case of success, an error code otherwise
*/
int32_t ReadRegWrap(void *Handle, uint8_t Reg, const uint8_t *pData, uint16_t Length)
{
 8001568:	b5f0      	push	{r4, r5, r6, r7, lr}
 800156a:	b087      	sub	sp, #28
 800156c:	af00      	add	r7, sp, #0
 800156e:	60f8      	str	r0, [r7, #12]
 8001570:	0008      	movs	r0, r1
 8001572:	607a      	str	r2, [r7, #4]
 8001574:	0019      	movs	r1, r3
 8001576:	250b      	movs	r5, #11
 8001578:	197b      	adds	r3, r7, r5
 800157a:	1c02      	adds	r2, r0, #0
 800157c:	701a      	strb	r2, [r3, #0]
 800157e:	2608      	movs	r6, #8
 8001580:	19bb      	adds	r3, r7, r6
 8001582:	1c0a      	adds	r2, r1, #0
 8001584:	801a      	strh	r2, [r3, #0]
  LED1202_Object_TypeDef *led1202Obj = (LED1202_Object_TypeDef *)Handle;
 8001586:	68fb      	ldr	r3, [r7, #12]
 8001588:	617b      	str	r3, [r7, #20]
  
  return led1202Obj->IO.Read(led1202Obj->IO.Address, Reg, pData, Length);
 800158a:	697b      	ldr	r3, [r7, #20]
 800158c:	695c      	ldr	r4, [r3, #20]
 800158e:	697b      	ldr	r3, [r7, #20]
 8001590:	791b      	ldrb	r3, [r3, #4]
 8001592:	b298      	uxth	r0, r3
 8001594:	197b      	adds	r3, r7, r5
 8001596:	781b      	ldrb	r3, [r3, #0]
 8001598:	b299      	uxth	r1, r3
 800159a:	19bb      	adds	r3, r7, r6
 800159c:	881b      	ldrh	r3, [r3, #0]
 800159e:	687a      	ldr	r2, [r7, #4]
 80015a0:	47a0      	blx	r4
 80015a2:	0003      	movs	r3, r0
}
 80015a4:	0018      	movs	r0, r3
 80015a6:	46bd      	mov	sp, r7
 80015a8:	b007      	add	sp, #28
 80015aa:	bdf0      	pop	{r4, r5, r6, r7, pc}

080015ac <WriteRegWrap>:
* @param  pData the stored data pointer
* @param  Length the length
* @retval 0 in case of success, an error code otherwise
*/
int32_t WriteRegWrap(void *Handle, uint8_t Reg, const uint8_t *pData, uint16_t Length)
{
 80015ac:	b5f0      	push	{r4, r5, r6, r7, lr}
 80015ae:	b087      	sub	sp, #28
 80015b0:	af00      	add	r7, sp, #0
 80015b2:	60f8      	str	r0, [r7, #12]
 80015b4:	0008      	movs	r0, r1
 80015b6:	607a      	str	r2, [r7, #4]
 80015b8:	0019      	movs	r1, r3
 80015ba:	250b      	movs	r5, #11
 80015bc:	197b      	adds	r3, r7, r5
 80015be:	1c02      	adds	r2, r0, #0
 80015c0:	701a      	strb	r2, [r3, #0]
 80015c2:	2608      	movs	r6, #8
 80015c4:	19bb      	adds	r3, r7, r6
 80015c6:	1c0a      	adds	r2, r1, #0
 80015c8:	801a      	strh	r2, [r3, #0]
  LED1202_Object_TypeDef *led1202Obj  = (LED1202_Object_TypeDef *)Handle;
 80015ca:	68fb      	ldr	r3, [r7, #12]
 80015cc:	617b      	str	r3, [r7, #20]
  
  return led1202Obj->IO.Write(led1202Obj->IO.Address, Reg, pData, Length);
 80015ce:	697b      	ldr	r3, [r7, #20]
 80015d0:	691c      	ldr	r4, [r3, #16]
 80015d2:	697b      	ldr	r3, [r7, #20]
 80015d4:	791b      	ldrb	r3, [r3, #4]
 80015d6:	b298      	uxth	r0, r3
 80015d8:	197b      	adds	r3, r7, r5
 80015da:	781b      	ldrb	r3, [r3, #0]
 80015dc:	b299      	uxth	r1, r3
 80015de:	19bb      	adds	r3, r7, r6
 80015e0:	881b      	ldrh	r3, [r3, #0]
 80015e2:	687a      	ldr	r2, [r7, #4]
 80015e4:	47a0      	blx	r4
 80015e6:	0003      	movs	r3, r0
}
 80015e8:	0018      	movs	r0, r3
 80015ea:	46bd      	mov	sp, r7
 80015ec:	b007      	add	sp, #28
 80015ee:	bdf0      	pop	{r4, r5, r6, r7, pc}

080015f0 <LED12A1_DeviceEnable>:
* @param  pObj pointer to Object
* @param  DevSelect Device selected (LED_DEVICE1, LED_DEVICE2 ,LED_DEVICE3 or LED_DEVICE_ALL)
* @retval 0 in case of success, an error code otherwise
*/
int32_t LED12A1_DeviceEnable( LED1202_Object_TypeDef* pObj , TypedefEnumDevAddr DevSelect)
{
 80015f0:	b580      	push	{r7, lr}
 80015f2:	b086      	sub	sp, #24
 80015f4:	af00      	add	r7, sp, #0
 80015f6:	6078      	str	r0, [r7, #4]
 80015f8:	000a      	movs	r2, r1
 80015fa:	1cfb      	adds	r3, r7, #3
 80015fc:	701a      	strb	r2, [r3, #0]
  volatile int32_t ret = (int32_t) LED1202_OK;
 80015fe:	2300      	movs	r3, #0
 8001600:	613b      	str	r3, [r7, #16]
  uint8_t tmp = 0x01;
 8001602:	230f      	movs	r3, #15
 8001604:	18fb      	adds	r3, r7, r3
 8001606:	2201      	movs	r2, #1
 8001608:	701a      	strb	r2, [r3, #0]
  uint8_t devAddr;
  
  switch(DevSelect)
 800160a:	1cfb      	adds	r3, r7, #3
 800160c:	781b      	ldrb	r3, [r3, #0]
 800160e:	2b04      	cmp	r3, #4
 8001610:	d81d      	bhi.n	800164e <LED12A1_DeviceEnable+0x5e>
 8001612:	009a      	lsls	r2, r3, #2
 8001614:	4b1c      	ldr	r3, [pc, #112]	; (8001688 <LED12A1_DeviceEnable+0x98>)
 8001616:	18d3      	adds	r3, r2, r3
 8001618:	681b      	ldr	r3, [r3, #0]
 800161a:	469f      	mov	pc, r3
  {
  case LED_DEVICE1:
    devAddr = LED1202_DEV1_7BIT_ADDR;
 800161c:	2317      	movs	r3, #23
 800161e:	18fb      	adds	r3, r7, r3
 8001620:	2258      	movs	r2, #88	; 0x58
 8001622:	701a      	strb	r2, [r3, #0]
    
    break;
 8001624:	e018      	b.n	8001658 <LED12A1_DeviceEnable+0x68>
    
  case LED_DEVICE2:
    devAddr = LED1202_DEV2_7BIT_ADDR;
 8001626:	2317      	movs	r3, #23
 8001628:	18fb      	adds	r3, r7, r3
 800162a:	2259      	movs	r2, #89	; 0x59
 800162c:	701a      	strb	r2, [r3, #0]
    break;
 800162e:	e013      	b.n	8001658 <LED12A1_DeviceEnable+0x68>
    
  case LED_DEVICE3:
    devAddr = LED1202_DEV3_7BIT_ADDR;
 8001630:	2317      	movs	r3, #23
 8001632:	18fb      	adds	r3, r7, r3
 8001634:	225a      	movs	r2, #90	; 0x5a
 8001636:	701a      	strb	r2, [r3, #0]
    break;
 8001638:	e00e      	b.n	8001658 <LED12A1_DeviceEnable+0x68>
    
  case LED_DEVICE4:
    devAddr = LED1202_DEV4_7BIT_ADDR;
 800163a:	2317      	movs	r3, #23
 800163c:	18fb      	adds	r3, r7, r3
 800163e:	225b      	movs	r2, #91	; 0x5b
 8001640:	701a      	strb	r2, [r3, #0]
    break;  
 8001642:	e009      	b.n	8001658 <LED12A1_DeviceEnable+0x68>
    
  case LED_DEVICE_ALL:
    devAddr = LED1202_GLOBAL_7BIT_ADDR; /*GLOBAL ADDRESS*/
 8001644:	2317      	movs	r3, #23
 8001646:	18fb      	adds	r3, r7, r3
 8001648:	225c      	movs	r2, #92	; 0x5c
 800164a:	701a      	strb	r2, [r3, #0]
    break;
 800164c:	e004      	b.n	8001658 <LED12A1_DeviceEnable+0x68>
    
  default:
    devAddr = LED1202_GLOBAL_7BIT_ADDR;
 800164e:	2317      	movs	r3, #23
 8001650:	18fb      	adds	r3, r7, r3
 8001652:	225c      	movs	r2, #92	; 0x5c
 8001654:	701a      	strb	r2, [r3, #0]
    break;
 8001656:	46c0      	nop			; (mov r8, r8)
    
  }
  
  pObj->IO.Address = (uint8_t)(devAddr<<1);
 8001658:	2317      	movs	r3, #23
 800165a:	18fb      	adds	r3, r7, r3
 800165c:	781b      	ldrb	r3, [r3, #0]
 800165e:	18db      	adds	r3, r3, r3
 8001660:	b2da      	uxtb	r2, r3
 8001662:	687b      	ldr	r3, [r7, #4]
 8001664:	711a      	strb	r2, [r3, #4]
  
  ret = LED1202_WriteReg(&(pObj->Ctx), LED1202_DEVICE_ENABLE, &tmp, 1);
 8001666:	687b      	ldr	r3, [r7, #4]
 8001668:	331c      	adds	r3, #28
 800166a:	0018      	movs	r0, r3
 800166c:	230f      	movs	r3, #15
 800166e:	18fa      	adds	r2, r7, r3
 8001670:	2301      	movs	r3, #1
 8001672:	2101      	movs	r1, #1
 8001674:	f7ff fea6 	bl	80013c4 <LED1202_WriteReg>
 8001678:	0003      	movs	r3, r0
 800167a:	613b      	str	r3, [r7, #16]
  return(ret);
 800167c:	693b      	ldr	r3, [r7, #16]
}
 800167e:	0018      	movs	r0, r3
 8001680:	46bd      	mov	sp, r7
 8001682:	b006      	add	sp, #24
 8001684:	bd80      	pop	{r7, pc}
 8001686:	46c0      	nop			; (mov r8, r8)
 8001688:	08005038 	.word	0x08005038

0800168c <LED12A1_SetDeviceAddr>:
* @param  pObj pointer to Object
* @param  DevSelect Device selected (LED_DEVICE1, LED_DEVICE2 ,LED_DEVICE3 or LED_DEVICE_ALL)
* @retval 0 in case of success, an error code otherwise
*/
int32_t LED12A1_SetDeviceAddr( LED1202_Object_TypeDef* pObj , TypedefEnumDevAddr DevSelect)
{
 800168c:	b580      	push	{r7, lr}
 800168e:	b084      	sub	sp, #16
 8001690:	af00      	add	r7, sp, #0
 8001692:	6078      	str	r0, [r7, #4]
 8001694:	000a      	movs	r2, r1
 8001696:	1cfb      	adds	r3, r7, #3
 8001698:	701a      	strb	r2, [r3, #0]
  volatile int32_t ret = (int32_t) LED1202_OK;
 800169a:	2300      	movs	r3, #0
 800169c:	60bb      	str	r3, [r7, #8]
  uint8_t devAddr;
  
  switch(DevSelect)
 800169e:	1cfb      	adds	r3, r7, #3
 80016a0:	781b      	ldrb	r3, [r3, #0]
 80016a2:	2b04      	cmp	r3, #4
 80016a4:	d81d      	bhi.n	80016e2 <LED12A1_SetDeviceAddr+0x56>
 80016a6:	009a      	lsls	r2, r3, #2
 80016a8:	4b15      	ldr	r3, [pc, #84]	; (8001700 <LED12A1_SetDeviceAddr+0x74>)
 80016aa:	18d3      	adds	r3, r2, r3
 80016ac:	681b      	ldr	r3, [r3, #0]
 80016ae:	469f      	mov	pc, r3
  {
  case LED_DEVICE1:
    devAddr = LED1202_DEV1_7BIT_ADDR;
 80016b0:	230f      	movs	r3, #15
 80016b2:	18fb      	adds	r3, r7, r3
 80016b4:	2258      	movs	r2, #88	; 0x58
 80016b6:	701a      	strb	r2, [r3, #0]
    
    break;
 80016b8:	e018      	b.n	80016ec <LED12A1_SetDeviceAddr+0x60>
    
  case LED_DEVICE2:
    devAddr = LED1202_DEV2_7BIT_ADDR;
 80016ba:	230f      	movs	r3, #15
 80016bc:	18fb      	adds	r3, r7, r3
 80016be:	2259      	movs	r2, #89	; 0x59
 80016c0:	701a      	strb	r2, [r3, #0]
    break;
 80016c2:	e013      	b.n	80016ec <LED12A1_SetDeviceAddr+0x60>
    
  case LED_DEVICE3:
    devAddr = LED1202_DEV3_7BIT_ADDR;
 80016c4:	230f      	movs	r3, #15
 80016c6:	18fb      	adds	r3, r7, r3
 80016c8:	225a      	movs	r2, #90	; 0x5a
 80016ca:	701a      	strb	r2, [r3, #0]
    break;
 80016cc:	e00e      	b.n	80016ec <LED12A1_SetDeviceAddr+0x60>
    
  case LED_DEVICE4:
    devAddr = LED1202_DEV4_7BIT_ADDR;
 80016ce:	230f      	movs	r3, #15
 80016d0:	18fb      	adds	r3, r7, r3
 80016d2:	225b      	movs	r2, #91	; 0x5b
 80016d4:	701a      	strb	r2, [r3, #0]
    break;
 80016d6:	e009      	b.n	80016ec <LED12A1_SetDeviceAddr+0x60>
    
  case LED_DEVICE_ALL:
    devAddr = LED1202_GLOBAL_7BIT_ADDR; /*GLOBAL ADDRESS*/
 80016d8:	230f      	movs	r3, #15
 80016da:	18fb      	adds	r3, r7, r3
 80016dc:	225c      	movs	r2, #92	; 0x5c
 80016de:	701a      	strb	r2, [r3, #0]
    break;
 80016e0:	e004      	b.n	80016ec <LED12A1_SetDeviceAddr+0x60>
    
  default:
    devAddr = LED1202_GLOBAL_7BIT_ADDR;
 80016e2:	230f      	movs	r3, #15
 80016e4:	18fb      	adds	r3, r7, r3
 80016e6:	225c      	movs	r2, #92	; 0x5c
 80016e8:	701a      	strb	r2, [r3, #0]
    break;
 80016ea:	46c0      	nop			; (mov r8, r8)
    
  }
  
  pObj->IO.Address = devAddr;
 80016ec:	687b      	ldr	r3, [r7, #4]
 80016ee:	220f      	movs	r2, #15
 80016f0:	18ba      	adds	r2, r7, r2
 80016f2:	7812      	ldrb	r2, [r2, #0]
 80016f4:	711a      	strb	r2, [r3, #4]
  
  return(ret);
 80016f6:	68bb      	ldr	r3, [r7, #8]
}
 80016f8:	0018      	movs	r0, r3
 80016fa:	46bd      	mov	sp, r7
 80016fc:	b004      	add	sp, #16
 80016fe:	bd80      	pop	{r7, pc}
 8001700:	0800504c 	.word	0x0800504c

08001704 <LED12A1_ScanAvailDevice>:
* @param  pObj pointer to Object
* @param  pBuff Pointer to buffer to store the Available devices 7 bit addresses
* @retval Number of LED1202 devices available on board
*/
int32_t LED12A1_ScanAvailDevice( LED1202_Object_TypeDef* pObj ,uint8_t *pBuff)
{
 8001704:	b590      	push	{r4, r7, lr}
 8001706:	b089      	sub	sp, #36	; 0x24
 8001708:	af00      	add	r7, sp, #0
 800170a:	6078      	str	r0, [r7, #4]
 800170c:	6039      	str	r1, [r7, #0]
  uint8_t i2cStartAddr = 0x58;
 800170e:	2113      	movs	r1, #19
 8001710:	187b      	adds	r3, r7, r1
 8001712:	2258      	movs	r2, #88	; 0x58
 8001714:	701a      	strb	r2, [r3, #0]
  uint8_t i2cEndAddr = 0x60;
 8001716:	2312      	movs	r3, #18
 8001718:	18fb      	adds	r3, r7, r3
 800171a:	2260      	movs	r2, #96	; 0x60
 800171c:	701a      	strb	r2, [r3, #0]
  uint8_t addr;
  uint8_t *buffPtr = pBuff;
 800171e:	683b      	ldr	r3, [r7, #0]
 8001720:	61bb      	str	r3, [r7, #24]
  uint8_t devId;
  int32_t status;
  int32_t numDev = 0;
 8001722:	2300      	movs	r3, #0
 8001724:	617b      	str	r3, [r7, #20]
  
  for (addr = i2cStartAddr; addr<=i2cEndAddr; addr++)
 8001726:	231f      	movs	r3, #31
 8001728:	18fb      	adds	r3, r7, r3
 800172a:	187a      	adds	r2, r7, r1
 800172c:	7812      	ldrb	r2, [r2, #0]
 800172e:	701a      	strb	r2, [r3, #0]
 8001730:	e020      	b.n	8001774 <LED12A1_ScanAvailDevice+0x70>
  {
    devId = 0;
 8001732:	210b      	movs	r1, #11
 8001734:	187b      	adds	r3, r7, r1
 8001736:	2200      	movs	r2, #0
 8001738:	701a      	strb	r2, [r3, #0]
    status =  LED1202_ReadID(pObj, &devId, addr);
 800173a:	241f      	movs	r4, #31
 800173c:	193b      	adds	r3, r7, r4
 800173e:	781a      	ldrb	r2, [r3, #0]
 8001740:	1879      	adds	r1, r7, r1
 8001742:	687b      	ldr	r3, [r7, #4]
 8001744:	0018      	movs	r0, r3
 8001746:	f7ff fcff 	bl	8001148 <LED1202_ReadID>
 800174a:	0003      	movs	r3, r0
 800174c:	60fb      	str	r3, [r7, #12]
    
    if(status == ((int32_t)LED1202_OK))
 800174e:	68fb      	ldr	r3, [r7, #12]
 8001750:	2b00      	cmp	r3, #0
 8001752:	d109      	bne.n	8001768 <LED12A1_ScanAvailDevice+0x64>
    {
      numDev++;
 8001754:	697b      	ldr	r3, [r7, #20]
 8001756:	3301      	adds	r3, #1
 8001758:	617b      	str	r3, [r7, #20]
      *buffPtr = addr;
 800175a:	69bb      	ldr	r3, [r7, #24]
 800175c:	193a      	adds	r2, r7, r4
 800175e:	7812      	ldrb	r2, [r2, #0]
 8001760:	701a      	strb	r2, [r3, #0]
      buffPtr++;
 8001762:	69bb      	ldr	r3, [r7, #24]
 8001764:	3301      	adds	r3, #1
 8001766:	61bb      	str	r3, [r7, #24]
  for (addr = i2cStartAddr; addr<=i2cEndAddr; addr++)
 8001768:	211f      	movs	r1, #31
 800176a:	187b      	adds	r3, r7, r1
 800176c:	781a      	ldrb	r2, [r3, #0]
 800176e:	187b      	adds	r3, r7, r1
 8001770:	3201      	adds	r2, #1
 8001772:	701a      	strb	r2, [r3, #0]
 8001774:	231f      	movs	r3, #31
 8001776:	18fa      	adds	r2, r7, r3
 8001778:	2312      	movs	r3, #18
 800177a:	18fb      	adds	r3, r7, r3
 800177c:	7812      	ldrb	r2, [r2, #0]
 800177e:	781b      	ldrb	r3, [r3, #0]
 8001780:	429a      	cmp	r2, r3
 8001782:	d9d6      	bls.n	8001732 <LED12A1_ScanAvailDevice+0x2e>
    }
  }
  
  return(numDev);
 8001784:	697b      	ldr	r3, [r7, #20]
}
 8001786:	0018      	movs	r0, r3
 8001788:	46bd      	mov	sp, r7
 800178a:	b009      	add	sp, #36	; 0x24
 800178c:	bd90      	pop	{r4, r7, pc}

0800178e <LED12A1_AnalogDimming>:
* @param  Channel The channel to be written (0 to 11)
* @param  DevSelect Device selected (LED_DEVICE1, LED_DEVICE2 ,LED_DEVICE3 or LED_DEVICE_ALL)
* @retval Number of LED1202 devices available on board
*/
int32_t LED12A1_AnalogDimming( LED1202_Object_TypeDef* pObj , uint8_t Current, uint8_t Channel, TypedefEnumDevAddr DevSelect)
{
 800178e:	b590      	push	{r4, r7, lr}
 8001790:	b085      	sub	sp, #20
 8001792:	af00      	add	r7, sp, #0
 8001794:	6078      	str	r0, [r7, #4]
 8001796:	000c      	movs	r4, r1
 8001798:	0010      	movs	r0, r2
 800179a:	0019      	movs	r1, r3
 800179c:	1cfb      	adds	r3, r7, #3
 800179e:	1c22      	adds	r2, r4, #0
 80017a0:	701a      	strb	r2, [r3, #0]
 80017a2:	1cbb      	adds	r3, r7, #2
 80017a4:	1c02      	adds	r2, r0, #0
 80017a6:	701a      	strb	r2, [r3, #0]
 80017a8:	1c7b      	adds	r3, r7, #1
 80017aa:	1c0a      	adds	r2, r1, #0
 80017ac:	701a      	strb	r2, [r3, #0]
  volatile int32_t ret = (int32_t) LED1202_OK;
 80017ae:	2300      	movs	r3, #0
 80017b0:	60fb      	str	r3, [r7, #12]
  ret = LED12A1_SetDeviceAddr(pObj ,DevSelect);
 80017b2:	1c7b      	adds	r3, r7, #1
 80017b4:	781a      	ldrb	r2, [r3, #0]
 80017b6:	687b      	ldr	r3, [r7, #4]
 80017b8:	0011      	movs	r1, r2
 80017ba:	0018      	movs	r0, r3
 80017bc:	f7ff ff66 	bl	800168c <LED12A1_SetDeviceAddr>
 80017c0:	0003      	movs	r3, r0
 80017c2:	60fb      	str	r3, [r7, #12]
  ret = LED1202_WriteLEDCurrentReg(pObj ,Current, Channel, pObj->IO.Address); 
 80017c4:	1cbb      	adds	r3, r7, #2
 80017c6:	781b      	ldrb	r3, [r3, #0]
 80017c8:	b29a      	uxth	r2, r3
 80017ca:	687b      	ldr	r3, [r7, #4]
 80017cc:	791c      	ldrb	r4, [r3, #4]
 80017ce:	1cfb      	adds	r3, r7, #3
 80017d0:	7819      	ldrb	r1, [r3, #0]
 80017d2:	6878      	ldr	r0, [r7, #4]
 80017d4:	0023      	movs	r3, r4
 80017d6:	f7ff fd54 	bl	8001282 <LED1202_WriteLEDCurrentReg>
 80017da:	0003      	movs	r3, r0
 80017dc:	60fb      	str	r3, [r7, #12]
  return(ret);
 80017de:	68fb      	ldr	r3, [r7, #12]
}
 80017e0:	0018      	movs	r0, r3
 80017e2:	46bd      	mov	sp, r7
 80017e4:	b005      	add	sp, #20
 80017e6:	bd90      	pop	{r4, r7, pc}

080017e8 <LED12A1_DigitalDimming>:
* @param  PatternNum Pattern Number
* @param  DevSelect Selected Device(  LED_DEVICE1 ,LED_DEVICE2,LED_DEVICE3 or LED_DEVICE_ALL)
* @retval ret the status of the operartion
*/
int32_t LED12A1_DigitalDimming( LED1202_Object_TypeDef* pObj ,uint16_t *pBuff,uint8_t Channel, uint8_t PatternNum, TypedefEnumDevAddr DevSelect)
{
 80017e8:	b590      	push	{r4, r7, lr}
 80017ea:	b089      	sub	sp, #36	; 0x24
 80017ec:	af02      	add	r7, sp, #8
 80017ee:	60f8      	str	r0, [r7, #12]
 80017f0:	60b9      	str	r1, [r7, #8]
 80017f2:	0019      	movs	r1, r3
 80017f4:	1dfb      	adds	r3, r7, #7
 80017f6:	701a      	strb	r2, [r3, #0]
 80017f8:	1dbb      	adds	r3, r7, #6
 80017fa:	1c0a      	adds	r2, r1, #0
 80017fc:	701a      	strb	r2, [r3, #0]
  volatile int32_t ret = (int32_t) LED1202_OK;
 80017fe:	2300      	movs	r3, #0
 8001800:	617b      	str	r3, [r7, #20]
  ret = LED12A1_SetDeviceAddr(pObj ,DevSelect);
 8001802:	2328      	movs	r3, #40	; 0x28
 8001804:	18fb      	adds	r3, r7, r3
 8001806:	781a      	ldrb	r2, [r3, #0]
 8001808:	68fb      	ldr	r3, [r7, #12]
 800180a:	0011      	movs	r1, r2
 800180c:	0018      	movs	r0, r3
 800180e:	f7ff ff3d 	bl	800168c <LED12A1_SetDeviceAddr>
 8001812:	0003      	movs	r3, r0
 8001814:	617b      	str	r3, [r7, #20]
  ret = LED1202_WritePatternPWMConfig(pObj ,(uint8_t *)pBuff,Channel, PatternNum, pObj->IO.Address);
 8001816:	68fb      	ldr	r3, [r7, #12]
 8001818:	791b      	ldrb	r3, [r3, #4]
 800181a:	1dba      	adds	r2, r7, #6
 800181c:	7814      	ldrb	r4, [r2, #0]
 800181e:	1dfa      	adds	r2, r7, #7
 8001820:	7812      	ldrb	r2, [r2, #0]
 8001822:	68b9      	ldr	r1, [r7, #8]
 8001824:	68f8      	ldr	r0, [r7, #12]
 8001826:	9300      	str	r3, [sp, #0]
 8001828:	0023      	movs	r3, r4
 800182a:	f7ff fd6a 	bl	8001302 <LED1202_WritePatternPWMConfig>
 800182e:	0003      	movs	r3, r0
 8001830:	617b      	str	r3, [r7, #20]
  return(ret);
 8001832:	697b      	ldr	r3, [r7, #20]
}
 8001834:	0018      	movs	r0, r3
 8001836:	46bd      	mov	sp, r7
 8001838:	b007      	add	sp, #28
 800183a:	bd90      	pop	{r4, r7, pc}

0800183c <LED12A1_ChannelEnable>:
* @param  Channel any combination of LED_CHANNEL_0,LED_CHANNEL_1,LED_CHANNEL_2..LED_CHANNEL_11 can be passed
* @param  DevSelect Selected Device(  LED_DEVICE1 ,LED_DEVICE2,LED_DEVICE3 or LED_DEVICE_ALL)
* @retval 0 in case of success, an error code otherwise
*/
int32_t LED12A1_ChannelEnable( LED1202_Object_TypeDef* pObj , TypeDefChannel Channel, TypedefEnumDevAddr DevSelect)
{
 800183c:	b580      	push	{r7, lr}
 800183e:	b084      	sub	sp, #16
 8001840:	af00      	add	r7, sp, #0
 8001842:	6078      	str	r0, [r7, #4]
 8001844:	0008      	movs	r0, r1
 8001846:	0011      	movs	r1, r2
 8001848:	1cbb      	adds	r3, r7, #2
 800184a:	1c02      	adds	r2, r0, #0
 800184c:	801a      	strh	r2, [r3, #0]
 800184e:	1c7b      	adds	r3, r7, #1
 8001850:	1c0a      	adds	r2, r1, #0
 8001852:	701a      	strb	r2, [r3, #0]
  volatile int32_t ret = (int32_t) LED1202_OK;
 8001854:	2300      	movs	r3, #0
 8001856:	60fb      	str	r3, [r7, #12]
  ret = LED12A1_SetDeviceAddr(pObj ,DevSelect);
 8001858:	1c7b      	adds	r3, r7, #1
 800185a:	781a      	ldrb	r2, [r3, #0]
 800185c:	687b      	ldr	r3, [r7, #4]
 800185e:	0011      	movs	r1, r2
 8001860:	0018      	movs	r0, r3
 8001862:	f7ff ff13 	bl	800168c <LED12A1_SetDeviceAddr>
 8001866:	0003      	movs	r3, r0
 8001868:	60fb      	str	r3, [r7, #12]
  ret = LED1202_SetChannelState(pObj ,(uint16_t) Channel ,CH_STATE_ENABLE, pObj->IO.Address);
 800186a:	687b      	ldr	r3, [r7, #4]
 800186c:	791a      	ldrb	r2, [r3, #4]
 800186e:	1cbb      	adds	r3, r7, #2
 8001870:	8819      	ldrh	r1, [r3, #0]
 8001872:	6878      	ldr	r0, [r7, #4]
 8001874:	0013      	movs	r3, r2
 8001876:	2200      	movs	r2, #0
 8001878:	f7ff fc8e 	bl	8001198 <LED1202_SetChannelState>
 800187c:	0003      	movs	r3, r0
 800187e:	60fb      	str	r3, [r7, #12]
  
  return(ret);
 8001880:	68fb      	ldr	r3, [r7, #12]
}
 8001882:	0018      	movs	r0, r3
 8001884:	46bd      	mov	sp, r7
 8001886:	b004      	add	sp, #16
 8001888:	bd80      	pop	{r7, pc}

0800188a <LED12A1_ChannelDisable>:
* @param  Channel any combination of LED_CHANNEL_0,LED_CHANNEL_1,LED_CHANNEL_2..LED_CHANNEL_11 can be passed
* @param  DevSelect Selected Device(  LED_DEVICE1 ,LED_DEVICE2,LED_DEVICE3 or LED_DEVICE_ALL)
* @retval 0 in case of success, an error code otherwise
*/
int32_t LED12A1_ChannelDisable( LED1202_Object_TypeDef* pObj , TypeDefChannel Channel,TypedefEnumDevAddr DevSelect)
{
 800188a:	b580      	push	{r7, lr}
 800188c:	b084      	sub	sp, #16
 800188e:	af00      	add	r7, sp, #0
 8001890:	6078      	str	r0, [r7, #4]
 8001892:	0008      	movs	r0, r1
 8001894:	0011      	movs	r1, r2
 8001896:	1cbb      	adds	r3, r7, #2
 8001898:	1c02      	adds	r2, r0, #0
 800189a:	801a      	strh	r2, [r3, #0]
 800189c:	1c7b      	adds	r3, r7, #1
 800189e:	1c0a      	adds	r2, r1, #0
 80018a0:	701a      	strb	r2, [r3, #0]
  volatile int32_t ret =  (int32_t)LED1202_OK;
 80018a2:	2300      	movs	r3, #0
 80018a4:	60fb      	str	r3, [r7, #12]
  ret = LED12A1_SetDeviceAddr(pObj ,DevSelect);
 80018a6:	1c7b      	adds	r3, r7, #1
 80018a8:	781a      	ldrb	r2, [r3, #0]
 80018aa:	687b      	ldr	r3, [r7, #4]
 80018ac:	0011      	movs	r1, r2
 80018ae:	0018      	movs	r0, r3
 80018b0:	f7ff feec 	bl	800168c <LED12A1_SetDeviceAddr>
 80018b4:	0003      	movs	r3, r0
 80018b6:	60fb      	str	r3, [r7, #12]
  ret = LED1202_SetChannelState(pObj , (uint16_t) Channel ,CH_STATE_DISABLE, pObj->IO.Address);
 80018b8:	687b      	ldr	r3, [r7, #4]
 80018ba:	791a      	ldrb	r2, [r3, #4]
 80018bc:	1cbb      	adds	r3, r7, #2
 80018be:	8819      	ldrh	r1, [r3, #0]
 80018c0:	6878      	ldr	r0, [r7, #4]
 80018c2:	0013      	movs	r3, r2
 80018c4:	2201      	movs	r2, #1
 80018c6:	f7ff fc67 	bl	8001198 <LED1202_SetChannelState>
 80018ca:	0003      	movs	r3, r0
 80018cc:	60fb      	str	r3, [r7, #12]
  
  return(ret);
 80018ce:	68fb      	ldr	r3, [r7, #12]
}
 80018d0:	0018      	movs	r0, r3
 80018d2:	46bd      	mov	sp, r7
 80018d4:	b004      	add	sp, #16
 80018d6:	bd80      	pop	{r7, pc}

080018d8 <HAL_Init>:
  *         each 1ms in the SysTick_Handler() interrupt handler.
  *
  * @retval HAL status
  */
HAL_StatusTypeDef HAL_Init(void)
{
 80018d8:	b580      	push	{r7, lr}
 80018da:	b082      	sub	sp, #8
 80018dc:	af00      	add	r7, sp, #0
  HAL_StatusTypeDef  status = HAL_OK;
 80018de:	1dfb      	adds	r3, r7, #7
 80018e0:	2200      	movs	r2, #0
 80018e2:	701a      	strb	r2, [r3, #0]
#if (INSTRUCTION_CACHE_ENABLE == 0U)
  __HAL_FLASH_INSTRUCTION_CACHE_DISABLE();
#endif /* INSTRUCTION_CACHE_ENABLE */

#if (PREFETCH_ENABLE != 0U)
  __HAL_FLASH_PREFETCH_BUFFER_ENABLE();
 80018e4:	4b0b      	ldr	r3, [pc, #44]	; (8001914 <HAL_Init+0x3c>)
 80018e6:	681a      	ldr	r2, [r3, #0]
 80018e8:	4b0a      	ldr	r3, [pc, #40]	; (8001914 <HAL_Init+0x3c>)
 80018ea:	2180      	movs	r1, #128	; 0x80
 80018ec:	0049      	lsls	r1, r1, #1
 80018ee:	430a      	orrs	r2, r1
 80018f0:	601a      	str	r2, [r3, #0]
#endif /* PREFETCH_ENABLE */

  /* Use SysTick as time base source and configure 1ms tick (default clock after Reset is HSI) */
  if (HAL_InitTick(TICK_INT_PRIORITY) != HAL_OK)
 80018f2:	2000      	movs	r0, #0
 80018f4:	f000 f810 	bl	8001918 <HAL_InitTick>
 80018f8:	1e03      	subs	r3, r0, #0
 80018fa:	d003      	beq.n	8001904 <HAL_Init+0x2c>
  {
    status = HAL_ERROR;
 80018fc:	1dfb      	adds	r3, r7, #7
 80018fe:	2201      	movs	r2, #1
 8001900:	701a      	strb	r2, [r3, #0]
 8001902:	e001      	b.n	8001908 <HAL_Init+0x30>
  }
  else
  {
  /* Init the low level hardware */
  HAL_MspInit();
 8001904:	f7ff fa50 	bl	8000da8 <HAL_MspInit>
  }

  /* Return function status */
  return status;
 8001908:	1dfb      	adds	r3, r7, #7
 800190a:	781b      	ldrb	r3, [r3, #0]
}
 800190c:	0018      	movs	r0, r3
 800190e:	46bd      	mov	sp, r7
 8001910:	b002      	add	sp, #8
 8001912:	bd80      	pop	{r7, pc}
 8001914:	40022000 	.word	0x40022000

08001918 <HAL_InitTick>:
  *       implementation  in user file.
  * @param TickPriority Tick interrupt priority.
  * @retval HAL status
  */
__weak HAL_StatusTypeDef HAL_InitTick(uint32_t TickPriority)
{
 8001918:	b590      	push	{r4, r7, lr}
 800191a:	b085      	sub	sp, #20
 800191c:	af00      	add	r7, sp, #0
 800191e:	6078      	str	r0, [r7, #4]
  HAL_StatusTypeDef  status = HAL_OK;
 8001920:	230f      	movs	r3, #15
 8001922:	18fb      	adds	r3, r7, r3
 8001924:	2200      	movs	r2, #0
 8001926:	701a      	strb	r2, [r3, #0]

  /* Check uwTickFreq for MisraC 2012 (even if uwTickFreq is a enum type that doesn't take the value zero)*/ 
  if ((uint32_t)uwTickFreq != 0U)
 8001928:	4b1d      	ldr	r3, [pc, #116]	; (80019a0 <HAL_InitTick+0x88>)
 800192a:	781b      	ldrb	r3, [r3, #0]
 800192c:	2b00      	cmp	r3, #0
 800192e:	d02b      	beq.n	8001988 <HAL_InitTick+0x70>
  {
    /*Configure the SysTick to have interrupt in 1ms time basis*/
    if (HAL_SYSTICK_Config(SystemCoreClock / (1000U /(uint32_t)uwTickFreq)) == 0U)
 8001930:	4b1c      	ldr	r3, [pc, #112]	; (80019a4 <HAL_InitTick+0x8c>)
 8001932:	681c      	ldr	r4, [r3, #0]
 8001934:	4b1a      	ldr	r3, [pc, #104]	; (80019a0 <HAL_InitTick+0x88>)
 8001936:	781b      	ldrb	r3, [r3, #0]
 8001938:	0019      	movs	r1, r3
 800193a:	23fa      	movs	r3, #250	; 0xfa
 800193c:	0098      	lsls	r0, r3, #2
 800193e:	f7fe fbe1 	bl	8000104 <__udivsi3>
 8001942:	0003      	movs	r3, r0
 8001944:	0019      	movs	r1, r3
 8001946:	0020      	movs	r0, r4
 8001948:	f7fe fbdc 	bl	8000104 <__udivsi3>
 800194c:	0003      	movs	r3, r0
 800194e:	0018      	movs	r0, r3
 8001950:	f000 f913 	bl	8001b7a <HAL_SYSTICK_Config>
 8001954:	1e03      	subs	r3, r0, #0
 8001956:	d112      	bne.n	800197e <HAL_InitTick+0x66>
    {
      /* Configure the SysTick IRQ priority */
      if (TickPriority < (1UL << __NVIC_PRIO_BITS))
 8001958:	687b      	ldr	r3, [r7, #4]
 800195a:	2b03      	cmp	r3, #3
 800195c:	d80a      	bhi.n	8001974 <HAL_InitTick+0x5c>
      {
        HAL_NVIC_SetPriority(SysTick_IRQn, TickPriority, 0U);
 800195e:	6879      	ldr	r1, [r7, #4]
 8001960:	2301      	movs	r3, #1
 8001962:	425b      	negs	r3, r3
 8001964:	2200      	movs	r2, #0
 8001966:	0018      	movs	r0, r3
 8001968:	f000 f8f2 	bl	8001b50 <HAL_NVIC_SetPriority>
        uwTickPrio = TickPriority;
 800196c:	4b0e      	ldr	r3, [pc, #56]	; (80019a8 <HAL_InitTick+0x90>)
 800196e:	687a      	ldr	r2, [r7, #4]
 8001970:	601a      	str	r2, [r3, #0]
 8001972:	e00d      	b.n	8001990 <HAL_InitTick+0x78>
      }
      else
      {
        status = HAL_ERROR;
 8001974:	230f      	movs	r3, #15
 8001976:	18fb      	adds	r3, r7, r3
 8001978:	2201      	movs	r2, #1
 800197a:	701a      	strb	r2, [r3, #0]
 800197c:	e008      	b.n	8001990 <HAL_InitTick+0x78>
      }
    }
    else
    {
      status = HAL_ERROR;
 800197e:	230f      	movs	r3, #15
 8001980:	18fb      	adds	r3, r7, r3
 8001982:	2201      	movs	r2, #1
 8001984:	701a      	strb	r2, [r3, #0]
 8001986:	e003      	b.n	8001990 <HAL_InitTick+0x78>
    }
  }
  else
  {
    status = HAL_ERROR;
 8001988:	230f      	movs	r3, #15
 800198a:	18fb      	adds	r3, r7, r3
 800198c:	2201      	movs	r2, #1
 800198e:	701a      	strb	r2, [r3, #0]
  }

  /* Return function status */
  return status;
 8001990:	230f      	movs	r3, #15
 8001992:	18fb      	adds	r3, r7, r3
 8001994:	781b      	ldrb	r3, [r3, #0]
}
 8001996:	0018      	movs	r0, r3
 8001998:	46bd      	mov	sp, r7
 800199a:	b005      	add	sp, #20
 800199c:	bd90      	pop	{r4, r7, pc}
 800199e:	46c0      	nop			; (mov r8, r8)
 80019a0:	20000008 	.word	0x20000008
 80019a4:	20000000 	.word	0x20000000
 80019a8:	20000004 	.word	0x20000004

080019ac <HAL_IncTick>:
  * @note This function is declared as __weak to be overwritten in case of other
  *      implementations in user file.
  * @retval None
  */
__weak void HAL_IncTick(void)
{
 80019ac:	b580      	push	{r7, lr}
 80019ae:	af00      	add	r7, sp, #0
  uwTick += (uint32_t)uwTickFreq;
 80019b0:	4b05      	ldr	r3, [pc, #20]	; (80019c8 <HAL_IncTick+0x1c>)
 80019b2:	781b      	ldrb	r3, [r3, #0]
 80019b4:	001a      	movs	r2, r3
 80019b6:	4b05      	ldr	r3, [pc, #20]	; (80019cc <HAL_IncTick+0x20>)
 80019b8:	681b      	ldr	r3, [r3, #0]
 80019ba:	18d2      	adds	r2, r2, r3
 80019bc:	4b03      	ldr	r3, [pc, #12]	; (80019cc <HAL_IncTick+0x20>)
 80019be:	601a      	str	r2, [r3, #0]
}
 80019c0:	46c0      	nop			; (mov r8, r8)
 80019c2:	46bd      	mov	sp, r7
 80019c4:	bd80      	pop	{r7, pc}
 80019c6:	46c0      	nop			; (mov r8, r8)
 80019c8:	20000008 	.word	0x20000008
 80019cc:	20000268 	.word	0x20000268

080019d0 <HAL_GetTick>:
  * @note This function is declared as __weak to be overwritten in case of other
  *       implementations in user file.
  * @retval tick value
  */
__weak uint32_t HAL_GetTick(void)
{
 80019d0:	b580      	push	{r7, lr}
 80019d2:	af00      	add	r7, sp, #0
  return uwTick;
 80019d4:	4b02      	ldr	r3, [pc, #8]	; (80019e0 <HAL_GetTick+0x10>)
 80019d6:	681b      	ldr	r3, [r3, #0]
}
 80019d8:	0018      	movs	r0, r3
 80019da:	46bd      	mov	sp, r7
 80019dc:	bd80      	pop	{r7, pc}
 80019de:	46c0      	nop			; (mov r8, r8)
 80019e0:	20000268 	.word	0x20000268

080019e4 <HAL_Delay>:
  *       implementations in user file.
  * @param Delay  specifies the delay time length, in milliseconds.
  * @retval None
  */
__weak void HAL_Delay(uint32_t Delay)
{
 80019e4:	b580      	push	{r7, lr}
 80019e6:	b084      	sub	sp, #16
 80019e8:	af00      	add	r7, sp, #0
 80019ea:	6078      	str	r0, [r7, #4]
  uint32_t tickstart = HAL_GetTick();
 80019ec:	f7ff fff0 	bl	80019d0 <HAL_GetTick>
 80019f0:	0003      	movs	r3, r0
 80019f2:	60bb      	str	r3, [r7, #8]
  uint32_t wait = Delay;
 80019f4:	687b      	ldr	r3, [r7, #4]
 80019f6:	60fb      	str	r3, [r7, #12]

  /* Add a freq to guarantee minimum wait */
  if (wait < HAL_MAX_DELAY)
 80019f8:	68fb      	ldr	r3, [r7, #12]
 80019fa:	3301      	adds	r3, #1
 80019fc:	d005      	beq.n	8001a0a <HAL_Delay+0x26>
  {
    wait += (uint32_t)(uwTickFreq);
 80019fe:	4b0a      	ldr	r3, [pc, #40]	; (8001a28 <HAL_Delay+0x44>)
 8001a00:	781b      	ldrb	r3, [r3, #0]
 8001a02:	001a      	movs	r2, r3
 8001a04:	68fb      	ldr	r3, [r7, #12]
 8001a06:	189b      	adds	r3, r3, r2
 8001a08:	60fb      	str	r3, [r7, #12]
  }

  while ((HAL_GetTick() - tickstart) < wait)
 8001a0a:	46c0      	nop			; (mov r8, r8)
 8001a0c:	f7ff ffe0 	bl	80019d0 <HAL_GetTick>
 8001a10:	0002      	movs	r2, r0
 8001a12:	68bb      	ldr	r3, [r7, #8]
 8001a14:	1ad3      	subs	r3, r2, r3
 8001a16:	68fa      	ldr	r2, [r7, #12]
 8001a18:	429a      	cmp	r2, r3
 8001a1a:	d8f7      	bhi.n	8001a0c <HAL_Delay+0x28>
  {
  }
}
 8001a1c:	46c0      	nop			; (mov r8, r8)
 8001a1e:	46c0      	nop			; (mov r8, r8)
 8001a20:	46bd      	mov	sp, r7
 8001a22:	b004      	add	sp, #16
 8001a24:	bd80      	pop	{r7, pc}
 8001a26:	46c0      	nop			; (mov r8, r8)
 8001a28:	20000008 	.word	0x20000008

08001a2c <__NVIC_SetPriority>:
  \param [in]      IRQn  Interrupt number.
  \param [in]  priority  Priority to set.
  \note    The priority cannot be set for every processor exception.
 */
__STATIC_INLINE void __NVIC_SetPriority(IRQn_Type IRQn, uint32_t priority)
{
 8001a2c:	b590      	push	{r4, r7, lr}
 8001a2e:	b083      	sub	sp, #12
 8001a30:	af00      	add	r7, sp, #0
 8001a32:	0002      	movs	r2, r0
 8001a34:	6039      	str	r1, [r7, #0]
 8001a36:	1dfb      	adds	r3, r7, #7
 8001a38:	701a      	strb	r2, [r3, #0]
  if ((int32_t)(IRQn) >= 0)
 8001a3a:	1dfb      	adds	r3, r7, #7
 8001a3c:	781b      	ldrb	r3, [r3, #0]
 8001a3e:	2b7f      	cmp	r3, #127	; 0x7f
 8001a40:	d828      	bhi.n	8001a94 <__NVIC_SetPriority+0x68>
  {
    NVIC->IP[_IP_IDX(IRQn)]  = ((uint32_t)(NVIC->IP[_IP_IDX(IRQn)]  & ~(0xFFUL << _BIT_SHIFT(IRQn))) |
 8001a42:	4a2f      	ldr	r2, [pc, #188]	; (8001b00 <__NVIC_SetPriority+0xd4>)
 8001a44:	1dfb      	adds	r3, r7, #7
 8001a46:	781b      	ldrb	r3, [r3, #0]
 8001a48:	b25b      	sxtb	r3, r3
 8001a4a:	089b      	lsrs	r3, r3, #2
 8001a4c:	33c0      	adds	r3, #192	; 0xc0
 8001a4e:	009b      	lsls	r3, r3, #2
 8001a50:	589b      	ldr	r3, [r3, r2]
 8001a52:	1dfa      	adds	r2, r7, #7
 8001a54:	7812      	ldrb	r2, [r2, #0]
 8001a56:	0011      	movs	r1, r2
 8001a58:	2203      	movs	r2, #3
 8001a5a:	400a      	ands	r2, r1
 8001a5c:	00d2      	lsls	r2, r2, #3
 8001a5e:	21ff      	movs	r1, #255	; 0xff
 8001a60:	4091      	lsls	r1, r2
 8001a62:	000a      	movs	r2, r1
 8001a64:	43d2      	mvns	r2, r2
 8001a66:	401a      	ands	r2, r3
 8001a68:	0011      	movs	r1, r2
       (((priority << (8U - __NVIC_PRIO_BITS)) & (uint32_t)0xFFUL) << _BIT_SHIFT(IRQn)));
 8001a6a:	683b      	ldr	r3, [r7, #0]
 8001a6c:	019b      	lsls	r3, r3, #6
 8001a6e:	22ff      	movs	r2, #255	; 0xff
 8001a70:	401a      	ands	r2, r3
 8001a72:	1dfb      	adds	r3, r7, #7
 8001a74:	781b      	ldrb	r3, [r3, #0]
 8001a76:	0018      	movs	r0, r3
 8001a78:	2303      	movs	r3, #3
 8001a7a:	4003      	ands	r3, r0
 8001a7c:	00db      	lsls	r3, r3, #3
 8001a7e:	409a      	lsls	r2, r3
    NVIC->IP[_IP_IDX(IRQn)]  = ((uint32_t)(NVIC->IP[_IP_IDX(IRQn)]  & ~(0xFFUL << _BIT_SHIFT(IRQn))) |
 8001a80:	481f      	ldr	r0, [pc, #124]	; (8001b00 <__NVIC_SetPriority+0xd4>)
 8001a82:	1dfb      	adds	r3, r7, #7
 8001a84:	781b      	ldrb	r3, [r3, #0]
 8001a86:	b25b      	sxtb	r3, r3
 8001a88:	089b      	lsrs	r3, r3, #2
 8001a8a:	430a      	orrs	r2, r1
 8001a8c:	33c0      	adds	r3, #192	; 0xc0
 8001a8e:	009b      	lsls	r3, r3, #2
 8001a90:	501a      	str	r2, [r3, r0]
  else
  {
    SCB->SHP[_SHP_IDX(IRQn)] = ((uint32_t)(SCB->SHP[_SHP_IDX(IRQn)] & ~(0xFFUL << _BIT_SHIFT(IRQn))) |
       (((priority << (8U - __NVIC_PRIO_BITS)) & (uint32_t)0xFFUL) << _BIT_SHIFT(IRQn)));
  }
}
 8001a92:	e031      	b.n	8001af8 <__NVIC_SetPriority+0xcc>
    SCB->SHP[_SHP_IDX(IRQn)] = ((uint32_t)(SCB->SHP[_SHP_IDX(IRQn)] & ~(0xFFUL << _BIT_SHIFT(IRQn))) |
 8001a94:	4a1b      	ldr	r2, [pc, #108]	; (8001b04 <__NVIC_SetPriority+0xd8>)
 8001a96:	1dfb      	adds	r3, r7, #7
 8001a98:	781b      	ldrb	r3, [r3, #0]
 8001a9a:	0019      	movs	r1, r3
 8001a9c:	230f      	movs	r3, #15
 8001a9e:	400b      	ands	r3, r1
 8001aa0:	3b08      	subs	r3, #8
 8001aa2:	089b      	lsrs	r3, r3, #2
 8001aa4:	3306      	adds	r3, #6
 8001aa6:	009b      	lsls	r3, r3, #2
 8001aa8:	18d3      	adds	r3, r2, r3
 8001aaa:	3304      	adds	r3, #4
 8001aac:	681b      	ldr	r3, [r3, #0]
 8001aae:	1dfa      	adds	r2, r7, #7
 8001ab0:	7812      	ldrb	r2, [r2, #0]
 8001ab2:	0011      	movs	r1, r2
 8001ab4:	2203      	movs	r2, #3
 8001ab6:	400a      	ands	r2, r1
 8001ab8:	00d2      	lsls	r2, r2, #3
 8001aba:	21ff      	movs	r1, #255	; 0xff
 8001abc:	4091      	lsls	r1, r2
 8001abe:	000a      	movs	r2, r1
 8001ac0:	43d2      	mvns	r2, r2
 8001ac2:	401a      	ands	r2, r3
 8001ac4:	0011      	movs	r1, r2
       (((priority << (8U - __NVIC_PRIO_BITS)) & (uint32_t)0xFFUL) << _BIT_SHIFT(IRQn)));
 8001ac6:	683b      	ldr	r3, [r7, #0]
 8001ac8:	019b      	lsls	r3, r3, #6
 8001aca:	22ff      	movs	r2, #255	; 0xff
 8001acc:	401a      	ands	r2, r3
 8001ace:	1dfb      	adds	r3, r7, #7
 8001ad0:	781b      	ldrb	r3, [r3, #0]
 8001ad2:	0018      	movs	r0, r3
 8001ad4:	2303      	movs	r3, #3
 8001ad6:	4003      	ands	r3, r0
 8001ad8:	00db      	lsls	r3, r3, #3
 8001ada:	409a      	lsls	r2, r3
    SCB->SHP[_SHP_IDX(IRQn)] = ((uint32_t)(SCB->SHP[_SHP_IDX(IRQn)] & ~(0xFFUL << _BIT_SHIFT(IRQn))) |
 8001adc:	4809      	ldr	r0, [pc, #36]	; (8001b04 <__NVIC_SetPriority+0xd8>)
 8001ade:	1dfb      	adds	r3, r7, #7
 8001ae0:	781b      	ldrb	r3, [r3, #0]
 8001ae2:	001c      	movs	r4, r3
 8001ae4:	230f      	movs	r3, #15
 8001ae6:	4023      	ands	r3, r4
 8001ae8:	3b08      	subs	r3, #8
 8001aea:	089b      	lsrs	r3, r3, #2
 8001aec:	430a      	orrs	r2, r1
 8001aee:	3306      	adds	r3, #6
 8001af0:	009b      	lsls	r3, r3, #2
 8001af2:	18c3      	adds	r3, r0, r3
 8001af4:	3304      	adds	r3, #4
 8001af6:	601a      	str	r2, [r3, #0]
}
 8001af8:	46c0      	nop			; (mov r8, r8)
 8001afa:	46bd      	mov	sp, r7
 8001afc:	b003      	add	sp, #12
 8001afe:	bd90      	pop	{r4, r7, pc}
 8001b00:	e000e100 	.word	0xe000e100
 8001b04:	e000ed00 	.word	0xe000ed00

08001b08 <SysTick_Config>:
  \note    When the variable <b>__Vendor_SysTickConfig</b> is set to 1, then the
           function <b>SysTick_Config</b> is not included. In this case, the file <b><i>device</i>.h</b>
           must contain a vendor-specific implementation of this function.
 */
__STATIC_INLINE uint32_t SysTick_Config(uint32_t ticks)
{
 8001b08:	b580      	push	{r7, lr}
 8001b0a:	b082      	sub	sp, #8
 8001b0c:	af00      	add	r7, sp, #0
 8001b0e:	6078      	str	r0, [r7, #4]
  if ((ticks - 1UL) > SysTick_LOAD_RELOAD_Msk)
 8001b10:	687b      	ldr	r3, [r7, #4]
 8001b12:	1e5a      	subs	r2, r3, #1
 8001b14:	2380      	movs	r3, #128	; 0x80
 8001b16:	045b      	lsls	r3, r3, #17
 8001b18:	429a      	cmp	r2, r3
 8001b1a:	d301      	bcc.n	8001b20 <SysTick_Config+0x18>
  {
    return (1UL);                                                   /* Reload value impossible */
 8001b1c:	2301      	movs	r3, #1
 8001b1e:	e010      	b.n	8001b42 <SysTick_Config+0x3a>
  }

  SysTick->LOAD  = (uint32_t)(ticks - 1UL);                         /* set reload register */
 8001b20:	4b0a      	ldr	r3, [pc, #40]	; (8001b4c <SysTick_Config+0x44>)
 8001b22:	687a      	ldr	r2, [r7, #4]
 8001b24:	3a01      	subs	r2, #1
 8001b26:	605a      	str	r2, [r3, #4]
  NVIC_SetPriority (SysTick_IRQn, (1UL << __NVIC_PRIO_BITS) - 1UL); /* set Priority for Systick Interrupt */
 8001b28:	2301      	movs	r3, #1
 8001b2a:	425b      	negs	r3, r3
 8001b2c:	2103      	movs	r1, #3
 8001b2e:	0018      	movs	r0, r3
 8001b30:	f7ff ff7c 	bl	8001a2c <__NVIC_SetPriority>
  SysTick->VAL   = 0UL;                                             /* Load the SysTick Counter Value */
 8001b34:	4b05      	ldr	r3, [pc, #20]	; (8001b4c <SysTick_Config+0x44>)
 8001b36:	2200      	movs	r2, #0
 8001b38:	609a      	str	r2, [r3, #8]
  SysTick->CTRL  = SysTick_CTRL_CLKSOURCE_Msk |
 8001b3a:	4b04      	ldr	r3, [pc, #16]	; (8001b4c <SysTick_Config+0x44>)
 8001b3c:	2207      	movs	r2, #7
 8001b3e:	601a      	str	r2, [r3, #0]
                   SysTick_CTRL_TICKINT_Msk   |
                   SysTick_CTRL_ENABLE_Msk;                         /* Enable SysTick IRQ and SysTick Timer */
  return (0UL);                                                     /* Function successful */
 8001b40:	2300      	movs	r3, #0
}
 8001b42:	0018      	movs	r0, r3
 8001b44:	46bd      	mov	sp, r7
 8001b46:	b002      	add	sp, #8
 8001b48:	bd80      	pop	{r7, pc}
 8001b4a:	46c0      	nop			; (mov r8, r8)
 8001b4c:	e000e010 	.word	0xe000e010

08001b50 <HAL_NVIC_SetPriority>:
  *         with stm32g0xx devices, this parameter is a dummy value and it is ignored, because
  *         no subpriority supported in Cortex M0+ based products.
  * @retval None
  */
void HAL_NVIC_SetPriority(IRQn_Type IRQn, uint32_t PreemptPriority, uint32_t SubPriority)
{
 8001b50:	b580      	push	{r7, lr}
 8001b52:	b084      	sub	sp, #16
 8001b54:	af00      	add	r7, sp, #0
 8001b56:	60b9      	str	r1, [r7, #8]
 8001b58:	607a      	str	r2, [r7, #4]
 8001b5a:	210f      	movs	r1, #15
 8001b5c:	187b      	adds	r3, r7, r1
 8001b5e:	1c02      	adds	r2, r0, #0
 8001b60:	701a      	strb	r2, [r3, #0]
  /* Prevent unused argument(s) compilation warning */
  UNUSED(SubPriority);

  /* Check the parameters */
  assert_param(IS_NVIC_PREEMPTION_PRIORITY(PreemptPriority));
  NVIC_SetPriority(IRQn, PreemptPriority);
 8001b62:	68ba      	ldr	r2, [r7, #8]
 8001b64:	187b      	adds	r3, r7, r1
 8001b66:	781b      	ldrb	r3, [r3, #0]
 8001b68:	b25b      	sxtb	r3, r3
 8001b6a:	0011      	movs	r1, r2
 8001b6c:	0018      	movs	r0, r3
 8001b6e:	f7ff ff5d 	bl	8001a2c <__NVIC_SetPriority>
}
 8001b72:	46c0      	nop			; (mov r8, r8)
 8001b74:	46bd      	mov	sp, r7
 8001b76:	b004      	add	sp, #16
 8001b78:	bd80      	pop	{r7, pc}

08001b7a <HAL_SYSTICK_Config>:
  * @param  TicksNumb Specifies the ticks Number of ticks between two interrupts.
  * @retval status:  - 0  Function succeeded.
  *                  - 1  Function failed.
  */
uint32_t HAL_SYSTICK_Config(uint32_t TicksNumb)
{
 8001b7a:	b580      	push	{r7, lr}
 8001b7c:	b082      	sub	sp, #8
 8001b7e:	af00      	add	r7, sp, #0
 8001b80:	6078      	str	r0, [r7, #4]
  return SysTick_Config(TicksNumb);
 8001b82:	687b      	ldr	r3, [r7, #4]
 8001b84:	0018      	movs	r0, r3
 8001b86:	f7ff ffbf 	bl	8001b08 <SysTick_Config>
 8001b8a:	0003      	movs	r3, r0
}
 8001b8c:	0018      	movs	r0, r3
 8001b8e:	46bd      	mov	sp, r7
 8001b90:	b002      	add	sp, #8
 8001b92:	bd80      	pop	{r7, pc}

08001b94 <HAL_GPIO_Init>:
  * @param  GPIO_Init pointer to a GPIO_InitTypeDef structure that contains
  *         the configuration information for the specified GPIO peripheral.
  * @retval None
  */
void HAL_GPIO_Init(GPIO_TypeDef  *GPIOx, GPIO_InitTypeDef *GPIO_Init)
{
 8001b94:	b580      	push	{r7, lr}
 8001b96:	b086      	sub	sp, #24
 8001b98:	af00      	add	r7, sp, #0
 8001b9a:	6078      	str	r0, [r7, #4]
 8001b9c:	6039      	str	r1, [r7, #0]
  uint32_t position = 0x00u;
 8001b9e:	2300      	movs	r3, #0
 8001ba0:	617b      	str	r3, [r7, #20]
  assert_param(IS_GPIO_ALL_INSTANCE(GPIOx));
  assert_param(IS_GPIO_PIN(GPIO_Init->Pin));
  assert_param(IS_GPIO_MODE(GPIO_Init->Mode));

  /* Configure the port pins */
  while (((GPIO_Init->Pin) >> position) != 0x00u)
 8001ba2:	e14d      	b.n	8001e40 <HAL_GPIO_Init+0x2ac>
  {
    /* Get current io position */
    iocurrent = (GPIO_Init->Pin) & (1uL << position);
 8001ba4:	683b      	ldr	r3, [r7, #0]
 8001ba6:	681b      	ldr	r3, [r3, #0]
 8001ba8:	2101      	movs	r1, #1
 8001baa:	697a      	ldr	r2, [r7, #20]
 8001bac:	4091      	lsls	r1, r2
 8001bae:	000a      	movs	r2, r1
 8001bb0:	4013      	ands	r3, r2
 8001bb2:	60fb      	str	r3, [r7, #12]

    if (iocurrent != 0x00u)
 8001bb4:	68fb      	ldr	r3, [r7, #12]
 8001bb6:	2b00      	cmp	r3, #0
 8001bb8:	d100      	bne.n	8001bbc <HAL_GPIO_Init+0x28>
 8001bba:	e13e      	b.n	8001e3a <HAL_GPIO_Init+0x2a6>
    {
      /*--------------------- GPIO Mode Configuration ------------------------*/
      /* In case of Output or Alternate function mode selection */
      if (((GPIO_Init->Mode & GPIO_MODE) == MODE_OUTPUT) || ((GPIO_Init->Mode & GPIO_MODE) == MODE_AF))
 8001bbc:	683b      	ldr	r3, [r7, #0]
 8001bbe:	685b      	ldr	r3, [r3, #4]
 8001bc0:	2203      	movs	r2, #3
 8001bc2:	4013      	ands	r3, r2
 8001bc4:	2b01      	cmp	r3, #1
 8001bc6:	d005      	beq.n	8001bd4 <HAL_GPIO_Init+0x40>
 8001bc8:	683b      	ldr	r3, [r7, #0]
 8001bca:	685b      	ldr	r3, [r3, #4]
 8001bcc:	2203      	movs	r2, #3
 8001bce:	4013      	ands	r3, r2
 8001bd0:	2b02      	cmp	r3, #2
 8001bd2:	d130      	bne.n	8001c36 <HAL_GPIO_Init+0xa2>
      {
        /* Check the Speed parameter */
        assert_param(IS_GPIO_SPEED(GPIO_Init->Speed));

        /* Configure the IO Speed */
        temp = GPIOx->OSPEEDR;
 8001bd4:	687b      	ldr	r3, [r7, #4]
 8001bd6:	689b      	ldr	r3, [r3, #8]
 8001bd8:	613b      	str	r3, [r7, #16]
        temp &= ~(GPIO_OSPEEDR_OSPEED0 << (position * 2u));
 8001bda:	697b      	ldr	r3, [r7, #20]
 8001bdc:	005b      	lsls	r3, r3, #1
 8001bde:	2203      	movs	r2, #3
 8001be0:	409a      	lsls	r2, r3
 8001be2:	0013      	movs	r3, r2
 8001be4:	43da      	mvns	r2, r3
 8001be6:	693b      	ldr	r3, [r7, #16]
 8001be8:	4013      	ands	r3, r2
 8001bea:	613b      	str	r3, [r7, #16]
        temp |= (GPIO_Init->Speed << (position * 2u));
 8001bec:	683b      	ldr	r3, [r7, #0]
 8001bee:	68da      	ldr	r2, [r3, #12]
 8001bf0:	697b      	ldr	r3, [r7, #20]
 8001bf2:	005b      	lsls	r3, r3, #1
 8001bf4:	409a      	lsls	r2, r3
 8001bf6:	0013      	movs	r3, r2
 8001bf8:	693a      	ldr	r2, [r7, #16]
 8001bfa:	4313      	orrs	r3, r2
 8001bfc:	613b      	str	r3, [r7, #16]
        GPIOx->OSPEEDR = temp;
 8001bfe:	687b      	ldr	r3, [r7, #4]
 8001c00:	693a      	ldr	r2, [r7, #16]
 8001c02:	609a      	str	r2, [r3, #8]

        /* Configure the IO Output Type */
        temp = GPIOx->OTYPER;
 8001c04:	687b      	ldr	r3, [r7, #4]
 8001c06:	685b      	ldr	r3, [r3, #4]
 8001c08:	613b      	str	r3, [r7, #16]
        temp &= ~(GPIO_OTYPER_OT0 << position) ;
 8001c0a:	2201      	movs	r2, #1
 8001c0c:	697b      	ldr	r3, [r7, #20]
 8001c0e:	409a      	lsls	r2, r3
 8001c10:	0013      	movs	r3, r2
 8001c12:	43da      	mvns	r2, r3
 8001c14:	693b      	ldr	r3, [r7, #16]
 8001c16:	4013      	ands	r3, r2
 8001c18:	613b      	str	r3, [r7, #16]
        temp |= (((GPIO_Init->Mode & OUTPUT_TYPE) >> OUTPUT_TYPE_Pos) << position);
 8001c1a:	683b      	ldr	r3, [r7, #0]
 8001c1c:	685b      	ldr	r3, [r3, #4]
 8001c1e:	091b      	lsrs	r3, r3, #4
 8001c20:	2201      	movs	r2, #1
 8001c22:	401a      	ands	r2, r3
 8001c24:	697b      	ldr	r3, [r7, #20]
 8001c26:	409a      	lsls	r2, r3
 8001c28:	0013      	movs	r3, r2
 8001c2a:	693a      	ldr	r2, [r7, #16]
 8001c2c:	4313      	orrs	r3, r2
 8001c2e:	613b      	str	r3, [r7, #16]
        GPIOx->OTYPER = temp;
 8001c30:	687b      	ldr	r3, [r7, #4]
 8001c32:	693a      	ldr	r2, [r7, #16]
 8001c34:	605a      	str	r2, [r3, #4]
      }

      if ((GPIO_Init->Mode & GPIO_MODE) != MODE_ANALOG)
 8001c36:	683b      	ldr	r3, [r7, #0]
 8001c38:	685b      	ldr	r3, [r3, #4]
 8001c3a:	2203      	movs	r2, #3
 8001c3c:	4013      	ands	r3, r2
 8001c3e:	2b03      	cmp	r3, #3
 8001c40:	d017      	beq.n	8001c72 <HAL_GPIO_Init+0xde>
      {
        /* Check the Pull parameter */
        assert_param(IS_GPIO_PULL(GPIO_Init->Pull));

        /* Activate the Pull-up or Pull down resistor for the current IO */
        temp = GPIOx->PUPDR;
 8001c42:	687b      	ldr	r3, [r7, #4]
 8001c44:	68db      	ldr	r3, [r3, #12]
 8001c46:	613b      	str	r3, [r7, #16]
        temp &= ~(GPIO_PUPDR_PUPD0 << (position * 2u));
 8001c48:	697b      	ldr	r3, [r7, #20]
 8001c4a:	005b      	lsls	r3, r3, #1
 8001c4c:	2203      	movs	r2, #3
 8001c4e:	409a      	lsls	r2, r3
 8001c50:	0013      	movs	r3, r2
 8001c52:	43da      	mvns	r2, r3
 8001c54:	693b      	ldr	r3, [r7, #16]
 8001c56:	4013      	ands	r3, r2
 8001c58:	613b      	str	r3, [r7, #16]
        temp |= ((GPIO_Init->Pull) << (position * 2u));
 8001c5a:	683b      	ldr	r3, [r7, #0]
 8001c5c:	689a      	ldr	r2, [r3, #8]
 8001c5e:	697b      	ldr	r3, [r7, #20]
 8001c60:	005b      	lsls	r3, r3, #1
 8001c62:	409a      	lsls	r2, r3
 8001c64:	0013      	movs	r3, r2
 8001c66:	693a      	ldr	r2, [r7, #16]
 8001c68:	4313      	orrs	r3, r2
 8001c6a:	613b      	str	r3, [r7, #16]
        GPIOx->PUPDR = temp;
 8001c6c:	687b      	ldr	r3, [r7, #4]
 8001c6e:	693a      	ldr	r2, [r7, #16]
 8001c70:	60da      	str	r2, [r3, #12]
      }

      /* In case of Alternate function mode selection */
      if ((GPIO_Init->Mode & GPIO_MODE) == MODE_AF)
 8001c72:	683b      	ldr	r3, [r7, #0]
 8001c74:	685b      	ldr	r3, [r3, #4]
 8001c76:	2203      	movs	r2, #3
 8001c78:	4013      	ands	r3, r2
 8001c7a:	2b02      	cmp	r3, #2
 8001c7c:	d123      	bne.n	8001cc6 <HAL_GPIO_Init+0x132>
        /* Check the Alternate function parameters */
        assert_param(IS_GPIO_AF_INSTANCE(GPIOx));
        assert_param(IS_GPIO_AF(GPIO_Init->Alternate));

        /* Configure Alternate function mapped with the current IO */
        temp = GPIOx->AFR[position >> 3u];
 8001c7e:	697b      	ldr	r3, [r7, #20]
 8001c80:	08da      	lsrs	r2, r3, #3
 8001c82:	687b      	ldr	r3, [r7, #4]
 8001c84:	3208      	adds	r2, #8
 8001c86:	0092      	lsls	r2, r2, #2
 8001c88:	58d3      	ldr	r3, [r2, r3]
 8001c8a:	613b      	str	r3, [r7, #16]
        temp &= ~(0xFu << ((position & 0x07u) * 4u));
 8001c8c:	697b      	ldr	r3, [r7, #20]
 8001c8e:	2207      	movs	r2, #7
 8001c90:	4013      	ands	r3, r2
 8001c92:	009b      	lsls	r3, r3, #2
 8001c94:	220f      	movs	r2, #15
 8001c96:	409a      	lsls	r2, r3
 8001c98:	0013      	movs	r3, r2
 8001c9a:	43da      	mvns	r2, r3
 8001c9c:	693b      	ldr	r3, [r7, #16]
 8001c9e:	4013      	ands	r3, r2
 8001ca0:	613b      	str	r3, [r7, #16]
        temp |= ((GPIO_Init->Alternate) << ((position & 0x07u) * 4u));
 8001ca2:	683b      	ldr	r3, [r7, #0]
 8001ca4:	691a      	ldr	r2, [r3, #16]
 8001ca6:	697b      	ldr	r3, [r7, #20]
 8001ca8:	2107      	movs	r1, #7
 8001caa:	400b      	ands	r3, r1
 8001cac:	009b      	lsls	r3, r3, #2
 8001cae:	409a      	lsls	r2, r3
 8001cb0:	0013      	movs	r3, r2
 8001cb2:	693a      	ldr	r2, [r7, #16]
 8001cb4:	4313      	orrs	r3, r2
 8001cb6:	613b      	str	r3, [r7, #16]
        GPIOx->AFR[position >> 3u] = temp;
 8001cb8:	697b      	ldr	r3, [r7, #20]
 8001cba:	08da      	lsrs	r2, r3, #3
 8001cbc:	687b      	ldr	r3, [r7, #4]
 8001cbe:	3208      	adds	r2, #8
 8001cc0:	0092      	lsls	r2, r2, #2
 8001cc2:	6939      	ldr	r1, [r7, #16]
 8001cc4:	50d1      	str	r1, [r2, r3]
      }

      /* Configure IO Direction mode (Input, Output, Alternate or Analog) */
      temp = GPIOx->MODER;
 8001cc6:	687b      	ldr	r3, [r7, #4]
 8001cc8:	681b      	ldr	r3, [r3, #0]
 8001cca:	613b      	str	r3, [r7, #16]
      temp &= ~(GPIO_MODER_MODE0 << (position * 2u));
 8001ccc:	697b      	ldr	r3, [r7, #20]
 8001cce:	005b      	lsls	r3, r3, #1
 8001cd0:	2203      	movs	r2, #3
 8001cd2:	409a      	lsls	r2, r3
 8001cd4:	0013      	movs	r3, r2
 8001cd6:	43da      	mvns	r2, r3
 8001cd8:	693b      	ldr	r3, [r7, #16]
 8001cda:	4013      	ands	r3, r2
 8001cdc:	613b      	str	r3, [r7, #16]
      temp |= ((GPIO_Init->Mode & GPIO_MODE) << (position * 2u));
 8001cde:	683b      	ldr	r3, [r7, #0]
 8001ce0:	685b      	ldr	r3, [r3, #4]
 8001ce2:	2203      	movs	r2, #3
 8001ce4:	401a      	ands	r2, r3
 8001ce6:	697b      	ldr	r3, [r7, #20]
 8001ce8:	005b      	lsls	r3, r3, #1
 8001cea:	409a      	lsls	r2, r3
 8001cec:	0013      	movs	r3, r2
 8001cee:	693a      	ldr	r2, [r7, #16]
 8001cf0:	4313      	orrs	r3, r2
 8001cf2:	613b      	str	r3, [r7, #16]
      GPIOx->MODER = temp;
 8001cf4:	687b      	ldr	r3, [r7, #4]
 8001cf6:	693a      	ldr	r2, [r7, #16]
 8001cf8:	601a      	str	r2, [r3, #0]

      /*--------------------- EXTI Mode Configuration ------------------------*/
      /* Configure the External Interrupt or event for the current IO */
      if ((GPIO_Init->Mode & EXTI_MODE) != 0x00u)
 8001cfa:	683b      	ldr	r3, [r7, #0]
 8001cfc:	685a      	ldr	r2, [r3, #4]
 8001cfe:	23c0      	movs	r3, #192	; 0xc0
 8001d00:	029b      	lsls	r3, r3, #10
 8001d02:	4013      	ands	r3, r2
 8001d04:	d100      	bne.n	8001d08 <HAL_GPIO_Init+0x174>
 8001d06:	e098      	b.n	8001e3a <HAL_GPIO_Init+0x2a6>
      {
        temp = EXTI->EXTICR[position >> 2u];
 8001d08:	4a53      	ldr	r2, [pc, #332]	; (8001e58 <HAL_GPIO_Init+0x2c4>)
 8001d0a:	697b      	ldr	r3, [r7, #20]
 8001d0c:	089b      	lsrs	r3, r3, #2
 8001d0e:	3318      	adds	r3, #24
 8001d10:	009b      	lsls	r3, r3, #2
 8001d12:	589b      	ldr	r3, [r3, r2]
 8001d14:	613b      	str	r3, [r7, #16]
        temp &= ~(0x0FuL << (8u * (position & 0x03u)));
 8001d16:	697b      	ldr	r3, [r7, #20]
 8001d18:	2203      	movs	r2, #3
 8001d1a:	4013      	ands	r3, r2
 8001d1c:	00db      	lsls	r3, r3, #3
 8001d1e:	220f      	movs	r2, #15
 8001d20:	409a      	lsls	r2, r3
 8001d22:	0013      	movs	r3, r2
 8001d24:	43da      	mvns	r2, r3
 8001d26:	693b      	ldr	r3, [r7, #16]
 8001d28:	4013      	ands	r3, r2
 8001d2a:	613b      	str	r3, [r7, #16]
        temp |= (GPIO_GET_INDEX(GPIOx) << (8u * (position & 0x03u)));
 8001d2c:	687a      	ldr	r2, [r7, #4]
 8001d2e:	23a0      	movs	r3, #160	; 0xa0
 8001d30:	05db      	lsls	r3, r3, #23
 8001d32:	429a      	cmp	r2, r3
 8001d34:	d019      	beq.n	8001d6a <HAL_GPIO_Init+0x1d6>
 8001d36:	687b      	ldr	r3, [r7, #4]
 8001d38:	4a48      	ldr	r2, [pc, #288]	; (8001e5c <HAL_GPIO_Init+0x2c8>)
 8001d3a:	4293      	cmp	r3, r2
 8001d3c:	d013      	beq.n	8001d66 <HAL_GPIO_Init+0x1d2>
 8001d3e:	687b      	ldr	r3, [r7, #4]
 8001d40:	4a47      	ldr	r2, [pc, #284]	; (8001e60 <HAL_GPIO_Init+0x2cc>)
 8001d42:	4293      	cmp	r3, r2
 8001d44:	d00d      	beq.n	8001d62 <HAL_GPIO_Init+0x1ce>
 8001d46:	687b      	ldr	r3, [r7, #4]
 8001d48:	4a46      	ldr	r2, [pc, #280]	; (8001e64 <HAL_GPIO_Init+0x2d0>)
 8001d4a:	4293      	cmp	r3, r2
 8001d4c:	d007      	beq.n	8001d5e <HAL_GPIO_Init+0x1ca>
 8001d4e:	687b      	ldr	r3, [r7, #4]
 8001d50:	4a45      	ldr	r2, [pc, #276]	; (8001e68 <HAL_GPIO_Init+0x2d4>)
 8001d52:	4293      	cmp	r3, r2
 8001d54:	d101      	bne.n	8001d5a <HAL_GPIO_Init+0x1c6>
 8001d56:	2304      	movs	r3, #4
 8001d58:	e008      	b.n	8001d6c <HAL_GPIO_Init+0x1d8>
 8001d5a:	2305      	movs	r3, #5
 8001d5c:	e006      	b.n	8001d6c <HAL_GPIO_Init+0x1d8>
 8001d5e:	2303      	movs	r3, #3
 8001d60:	e004      	b.n	8001d6c <HAL_GPIO_Init+0x1d8>
 8001d62:	2302      	movs	r3, #2
 8001d64:	e002      	b.n	8001d6c <HAL_GPIO_Init+0x1d8>
 8001d66:	2301      	movs	r3, #1
 8001d68:	e000      	b.n	8001d6c <HAL_GPIO_Init+0x1d8>
 8001d6a:	2300      	movs	r3, #0
 8001d6c:	697a      	ldr	r2, [r7, #20]
 8001d6e:	2103      	movs	r1, #3
 8001d70:	400a      	ands	r2, r1
 8001d72:	00d2      	lsls	r2, r2, #3
 8001d74:	4093      	lsls	r3, r2
 8001d76:	693a      	ldr	r2, [r7, #16]
 8001d78:	4313      	orrs	r3, r2
 8001d7a:	613b      	str	r3, [r7, #16]
        EXTI->EXTICR[position >> 2u] = temp;
 8001d7c:	4936      	ldr	r1, [pc, #216]	; (8001e58 <HAL_GPIO_Init+0x2c4>)
 8001d7e:	697b      	ldr	r3, [r7, #20]
 8001d80:	089b      	lsrs	r3, r3, #2
 8001d82:	3318      	adds	r3, #24
 8001d84:	009b      	lsls	r3, r3, #2
 8001d86:	693a      	ldr	r2, [r7, #16]
 8001d88:	505a      	str	r2, [r3, r1]

        /* Clear Rising Falling edge configuration */
        temp = EXTI->RTSR1;
 8001d8a:	4b33      	ldr	r3, [pc, #204]	; (8001e58 <HAL_GPIO_Init+0x2c4>)
 8001d8c:	681b      	ldr	r3, [r3, #0]
 8001d8e:	613b      	str	r3, [r7, #16]
        temp &= ~(iocurrent);
 8001d90:	68fb      	ldr	r3, [r7, #12]
 8001d92:	43da      	mvns	r2, r3
 8001d94:	693b      	ldr	r3, [r7, #16]
 8001d96:	4013      	ands	r3, r2
 8001d98:	613b      	str	r3, [r7, #16]
        if ((GPIO_Init->Mode & TRIGGER_RISING) != 0x00u)
 8001d9a:	683b      	ldr	r3, [r7, #0]
 8001d9c:	685a      	ldr	r2, [r3, #4]
 8001d9e:	2380      	movs	r3, #128	; 0x80
 8001da0:	035b      	lsls	r3, r3, #13
 8001da2:	4013      	ands	r3, r2
 8001da4:	d003      	beq.n	8001dae <HAL_GPIO_Init+0x21a>
        {
          temp |= iocurrent;
 8001da6:	693a      	ldr	r2, [r7, #16]
 8001da8:	68fb      	ldr	r3, [r7, #12]
 8001daa:	4313      	orrs	r3, r2
 8001dac:	613b      	str	r3, [r7, #16]
        }
        EXTI->RTSR1 = temp;
 8001dae:	4b2a      	ldr	r3, [pc, #168]	; (8001e58 <HAL_GPIO_Init+0x2c4>)
 8001db0:	693a      	ldr	r2, [r7, #16]
 8001db2:	601a      	str	r2, [r3, #0]

        temp = EXTI->FTSR1;
 8001db4:	4b28      	ldr	r3, [pc, #160]	; (8001e58 <HAL_GPIO_Init+0x2c4>)
 8001db6:	685b      	ldr	r3, [r3, #4]
 8001db8:	613b      	str	r3, [r7, #16]
        temp &= ~(iocurrent);
 8001dba:	68fb      	ldr	r3, [r7, #12]
 8001dbc:	43da      	mvns	r2, r3
 8001dbe:	693b      	ldr	r3, [r7, #16]
 8001dc0:	4013      	ands	r3, r2
 8001dc2:	613b      	str	r3, [r7, #16]
        if ((GPIO_Init->Mode & TRIGGER_FALLING) != 0x00u)
 8001dc4:	683b      	ldr	r3, [r7, #0]
 8001dc6:	685a      	ldr	r2, [r3, #4]
 8001dc8:	2380      	movs	r3, #128	; 0x80
 8001dca:	039b      	lsls	r3, r3, #14
 8001dcc:	4013      	ands	r3, r2
 8001dce:	d003      	beq.n	8001dd8 <HAL_GPIO_Init+0x244>
        {
          temp |= iocurrent;
 8001dd0:	693a      	ldr	r2, [r7, #16]
 8001dd2:	68fb      	ldr	r3, [r7, #12]
 8001dd4:	4313      	orrs	r3, r2
 8001dd6:	613b      	str	r3, [r7, #16]
        }
        EXTI->FTSR1 = temp;
 8001dd8:	4b1f      	ldr	r3, [pc, #124]	; (8001e58 <HAL_GPIO_Init+0x2c4>)
 8001dda:	693a      	ldr	r2, [r7, #16]
 8001ddc:	605a      	str	r2, [r3, #4]

        /* Clear EXTI line configuration */
        temp = EXTI->EMR1;
 8001dde:	4a1e      	ldr	r2, [pc, #120]	; (8001e58 <HAL_GPIO_Init+0x2c4>)
 8001de0:	2384      	movs	r3, #132	; 0x84
 8001de2:	58d3      	ldr	r3, [r2, r3]
 8001de4:	613b      	str	r3, [r7, #16]
        temp &= ~(iocurrent);
 8001de6:	68fb      	ldr	r3, [r7, #12]
 8001de8:	43da      	mvns	r2, r3
 8001dea:	693b      	ldr	r3, [r7, #16]
 8001dec:	4013      	ands	r3, r2
 8001dee:	613b      	str	r3, [r7, #16]
        if ((GPIO_Init->Mode & EXTI_EVT) != 0x00u)
 8001df0:	683b      	ldr	r3, [r7, #0]
 8001df2:	685a      	ldr	r2, [r3, #4]
 8001df4:	2380      	movs	r3, #128	; 0x80
 8001df6:	029b      	lsls	r3, r3, #10
 8001df8:	4013      	ands	r3, r2
 8001dfa:	d003      	beq.n	8001e04 <HAL_GPIO_Init+0x270>
        {
          temp |= iocurrent;
 8001dfc:	693a      	ldr	r2, [r7, #16]
 8001dfe:	68fb      	ldr	r3, [r7, #12]
 8001e00:	4313      	orrs	r3, r2
 8001e02:	613b      	str	r3, [r7, #16]
        }
        EXTI->EMR1 = temp;
 8001e04:	4914      	ldr	r1, [pc, #80]	; (8001e58 <HAL_GPIO_Init+0x2c4>)
 8001e06:	2284      	movs	r2, #132	; 0x84
 8001e08:	693b      	ldr	r3, [r7, #16]
 8001e0a:	508b      	str	r3, [r1, r2]

        temp = EXTI->IMR1;
 8001e0c:	4a12      	ldr	r2, [pc, #72]	; (8001e58 <HAL_GPIO_Init+0x2c4>)
 8001e0e:	2380      	movs	r3, #128	; 0x80
 8001e10:	58d3      	ldr	r3, [r2, r3]
 8001e12:	613b      	str	r3, [r7, #16]
        temp &= ~(iocurrent);
 8001e14:	68fb      	ldr	r3, [r7, #12]
 8001e16:	43da      	mvns	r2, r3
 8001e18:	693b      	ldr	r3, [r7, #16]
 8001e1a:	4013      	ands	r3, r2
 8001e1c:	613b      	str	r3, [r7, #16]
        if ((GPIO_Init->Mode & EXTI_IT) != 0x00u)
 8001e1e:	683b      	ldr	r3, [r7, #0]
 8001e20:	685a      	ldr	r2, [r3, #4]
 8001e22:	2380      	movs	r3, #128	; 0x80
 8001e24:	025b      	lsls	r3, r3, #9
 8001e26:	4013      	ands	r3, r2
 8001e28:	d003      	beq.n	8001e32 <HAL_GPIO_Init+0x29e>
        {
          temp |= iocurrent;
 8001e2a:	693a      	ldr	r2, [r7, #16]
 8001e2c:	68fb      	ldr	r3, [r7, #12]
 8001e2e:	4313      	orrs	r3, r2
 8001e30:	613b      	str	r3, [r7, #16]
        }
        EXTI->IMR1 = temp;
 8001e32:	4909      	ldr	r1, [pc, #36]	; (8001e58 <HAL_GPIO_Init+0x2c4>)
 8001e34:	2280      	movs	r2, #128	; 0x80
 8001e36:	693b      	ldr	r3, [r7, #16]
 8001e38:	508b      	str	r3, [r1, r2]
      }
    }

    position++;
 8001e3a:	697b      	ldr	r3, [r7, #20]
 8001e3c:	3301      	adds	r3, #1
 8001e3e:	617b      	str	r3, [r7, #20]
  while (((GPIO_Init->Pin) >> position) != 0x00u)
 8001e40:	683b      	ldr	r3, [r7, #0]
 8001e42:	681a      	ldr	r2, [r3, #0]
 8001e44:	697b      	ldr	r3, [r7, #20]
 8001e46:	40da      	lsrs	r2, r3
 8001e48:	1e13      	subs	r3, r2, #0
 8001e4a:	d000      	beq.n	8001e4e <HAL_GPIO_Init+0x2ba>
 8001e4c:	e6aa      	b.n	8001ba4 <HAL_GPIO_Init+0x10>
  }
}
 8001e4e:	46c0      	nop			; (mov r8, r8)
 8001e50:	46c0      	nop			; (mov r8, r8)
 8001e52:	46bd      	mov	sp, r7
 8001e54:	b006      	add	sp, #24
 8001e56:	bd80      	pop	{r7, pc}
 8001e58:	40021800 	.word	0x40021800
 8001e5c:	50000400 	.word	0x50000400
 8001e60:	50000800 	.word	0x50000800
 8001e64:	50000c00 	.word	0x50000c00
 8001e68:	50001000 	.word	0x50001000

08001e6c <HAL_GPIO_DeInit>:
  * @param  GPIO_Pin specifies the port bit to be written.
  *         This parameter can be any combination of GPIO_Pin_x where x can be (0..15).
  * @retval None
  */
void HAL_GPIO_DeInit(GPIO_TypeDef  *GPIOx, uint32_t GPIO_Pin)
{
 8001e6c:	b580      	push	{r7, lr}
 8001e6e:	b086      	sub	sp, #24
 8001e70:	af00      	add	r7, sp, #0
 8001e72:	6078      	str	r0, [r7, #4]
 8001e74:	6039      	str	r1, [r7, #0]
  uint32_t position = 0x00u;
 8001e76:	2300      	movs	r3, #0
 8001e78:	617b      	str	r3, [r7, #20]
  /* Check the parameters */
  assert_param(IS_GPIO_ALL_INSTANCE(GPIOx));
  assert_param(IS_GPIO_PIN(GPIO_Pin));

  /* Configure the port pins */
  while ((GPIO_Pin >> position) != 0x00u)
 8001e7a:	e0ba      	b.n	8001ff2 <HAL_GPIO_DeInit+0x186>
  {
    /* Get current io position */
    iocurrent = (GPIO_Pin) & (1uL << position);
 8001e7c:	2201      	movs	r2, #1
 8001e7e:	697b      	ldr	r3, [r7, #20]
 8001e80:	409a      	lsls	r2, r3
 8001e82:	683b      	ldr	r3, [r7, #0]
 8001e84:	4013      	ands	r3, r2
 8001e86:	613b      	str	r3, [r7, #16]

    if (iocurrent != 0x00u)
 8001e88:	693b      	ldr	r3, [r7, #16]
 8001e8a:	2b00      	cmp	r3, #0
 8001e8c:	d100      	bne.n	8001e90 <HAL_GPIO_DeInit+0x24>
 8001e8e:	e0ad      	b.n	8001fec <HAL_GPIO_DeInit+0x180>
    {
      /*------------------------- EXTI Mode Configuration --------------------*/
      /* Clear the External Interrupt or Event for the current IO */

      tmp = EXTI->EXTICR[position >> 2u];
 8001e90:	4a5d      	ldr	r2, [pc, #372]	; (8002008 <HAL_GPIO_DeInit+0x19c>)
 8001e92:	697b      	ldr	r3, [r7, #20]
 8001e94:	089b      	lsrs	r3, r3, #2
 8001e96:	3318      	adds	r3, #24
 8001e98:	009b      	lsls	r3, r3, #2
 8001e9a:	589b      	ldr	r3, [r3, r2]
 8001e9c:	60fb      	str	r3, [r7, #12]
      tmp &= (0x0FuL << (8u * (position & 0x03u)));
 8001e9e:	697b      	ldr	r3, [r7, #20]
 8001ea0:	2203      	movs	r2, #3
 8001ea2:	4013      	ands	r3, r2
 8001ea4:	00db      	lsls	r3, r3, #3
 8001ea6:	220f      	movs	r2, #15
 8001ea8:	409a      	lsls	r2, r3
 8001eaa:	68fb      	ldr	r3, [r7, #12]
 8001eac:	4013      	ands	r3, r2
 8001eae:	60fb      	str	r3, [r7, #12]
      if (tmp == (GPIO_GET_INDEX(GPIOx) << (8u * (position & 0x03u))))
 8001eb0:	687a      	ldr	r2, [r7, #4]
 8001eb2:	23a0      	movs	r3, #160	; 0xa0
 8001eb4:	05db      	lsls	r3, r3, #23
 8001eb6:	429a      	cmp	r2, r3
 8001eb8:	d019      	beq.n	8001eee <HAL_GPIO_DeInit+0x82>
 8001eba:	687b      	ldr	r3, [r7, #4]
 8001ebc:	4a53      	ldr	r2, [pc, #332]	; (800200c <HAL_GPIO_DeInit+0x1a0>)
 8001ebe:	4293      	cmp	r3, r2
 8001ec0:	d013      	beq.n	8001eea <HAL_GPIO_DeInit+0x7e>
 8001ec2:	687b      	ldr	r3, [r7, #4]
 8001ec4:	4a52      	ldr	r2, [pc, #328]	; (8002010 <HAL_GPIO_DeInit+0x1a4>)
 8001ec6:	4293      	cmp	r3, r2
 8001ec8:	d00d      	beq.n	8001ee6 <HAL_GPIO_DeInit+0x7a>
 8001eca:	687b      	ldr	r3, [r7, #4]
 8001ecc:	4a51      	ldr	r2, [pc, #324]	; (8002014 <HAL_GPIO_DeInit+0x1a8>)
 8001ece:	4293      	cmp	r3, r2
 8001ed0:	d007      	beq.n	8001ee2 <HAL_GPIO_DeInit+0x76>
 8001ed2:	687b      	ldr	r3, [r7, #4]
 8001ed4:	4a50      	ldr	r2, [pc, #320]	; (8002018 <HAL_GPIO_DeInit+0x1ac>)
 8001ed6:	4293      	cmp	r3, r2
 8001ed8:	d101      	bne.n	8001ede <HAL_GPIO_DeInit+0x72>
 8001eda:	2304      	movs	r3, #4
 8001edc:	e008      	b.n	8001ef0 <HAL_GPIO_DeInit+0x84>
 8001ede:	2305      	movs	r3, #5
 8001ee0:	e006      	b.n	8001ef0 <HAL_GPIO_DeInit+0x84>
 8001ee2:	2303      	movs	r3, #3
 8001ee4:	e004      	b.n	8001ef0 <HAL_GPIO_DeInit+0x84>
 8001ee6:	2302      	movs	r3, #2
 8001ee8:	e002      	b.n	8001ef0 <HAL_GPIO_DeInit+0x84>
 8001eea:	2301      	movs	r3, #1
 8001eec:	e000      	b.n	8001ef0 <HAL_GPIO_DeInit+0x84>
 8001eee:	2300      	movs	r3, #0
 8001ef0:	697a      	ldr	r2, [r7, #20]
 8001ef2:	2103      	movs	r1, #3
 8001ef4:	400a      	ands	r2, r1
 8001ef6:	00d2      	lsls	r2, r2, #3
 8001ef8:	4093      	lsls	r3, r2
 8001efa:	68fa      	ldr	r2, [r7, #12]
 8001efc:	429a      	cmp	r2, r3
 8001efe:	d136      	bne.n	8001f6e <HAL_GPIO_DeInit+0x102>
      {
        /* Clear EXTI line configuration */
        EXTI->IMR1 &= ~(iocurrent);
 8001f00:	4a41      	ldr	r2, [pc, #260]	; (8002008 <HAL_GPIO_DeInit+0x19c>)
 8001f02:	2380      	movs	r3, #128	; 0x80
 8001f04:	58d3      	ldr	r3, [r2, r3]
 8001f06:	693a      	ldr	r2, [r7, #16]
 8001f08:	43d2      	mvns	r2, r2
 8001f0a:	493f      	ldr	r1, [pc, #252]	; (8002008 <HAL_GPIO_DeInit+0x19c>)
 8001f0c:	4013      	ands	r3, r2
 8001f0e:	2280      	movs	r2, #128	; 0x80
 8001f10:	508b      	str	r3, [r1, r2]
        EXTI->EMR1 &= ~(iocurrent);
 8001f12:	4a3d      	ldr	r2, [pc, #244]	; (8002008 <HAL_GPIO_DeInit+0x19c>)
 8001f14:	2384      	movs	r3, #132	; 0x84
 8001f16:	58d3      	ldr	r3, [r2, r3]
 8001f18:	693a      	ldr	r2, [r7, #16]
 8001f1a:	43d2      	mvns	r2, r2
 8001f1c:	493a      	ldr	r1, [pc, #232]	; (8002008 <HAL_GPIO_DeInit+0x19c>)
 8001f1e:	4013      	ands	r3, r2
 8001f20:	2284      	movs	r2, #132	; 0x84
 8001f22:	508b      	str	r3, [r1, r2]

        /* Clear Rising Falling edge configuration */
        EXTI->FTSR1 &= ~(iocurrent);
 8001f24:	4b38      	ldr	r3, [pc, #224]	; (8002008 <HAL_GPIO_DeInit+0x19c>)
 8001f26:	685a      	ldr	r2, [r3, #4]
 8001f28:	693b      	ldr	r3, [r7, #16]
 8001f2a:	43d9      	mvns	r1, r3
 8001f2c:	4b36      	ldr	r3, [pc, #216]	; (8002008 <HAL_GPIO_DeInit+0x19c>)
 8001f2e:	400a      	ands	r2, r1
 8001f30:	605a      	str	r2, [r3, #4]
        EXTI->RTSR1 &= ~(iocurrent);
 8001f32:	4b35      	ldr	r3, [pc, #212]	; (8002008 <HAL_GPIO_DeInit+0x19c>)
 8001f34:	681a      	ldr	r2, [r3, #0]
 8001f36:	693b      	ldr	r3, [r7, #16]
 8001f38:	43d9      	mvns	r1, r3
 8001f3a:	4b33      	ldr	r3, [pc, #204]	; (8002008 <HAL_GPIO_DeInit+0x19c>)
 8001f3c:	400a      	ands	r2, r1
 8001f3e:	601a      	str	r2, [r3, #0]

        tmp = 0x0FuL << (8u * (position & 0x03u));
 8001f40:	697b      	ldr	r3, [r7, #20]
 8001f42:	2203      	movs	r2, #3
 8001f44:	4013      	ands	r3, r2
 8001f46:	00db      	lsls	r3, r3, #3
 8001f48:	220f      	movs	r2, #15
 8001f4a:	409a      	lsls	r2, r3
 8001f4c:	0013      	movs	r3, r2
 8001f4e:	60fb      	str	r3, [r7, #12]
        EXTI->EXTICR[position >> 2u] &= ~tmp;
 8001f50:	4a2d      	ldr	r2, [pc, #180]	; (8002008 <HAL_GPIO_DeInit+0x19c>)
 8001f52:	697b      	ldr	r3, [r7, #20]
 8001f54:	089b      	lsrs	r3, r3, #2
 8001f56:	3318      	adds	r3, #24
 8001f58:	009b      	lsls	r3, r3, #2
 8001f5a:	589a      	ldr	r2, [r3, r2]
 8001f5c:	68fb      	ldr	r3, [r7, #12]
 8001f5e:	43d9      	mvns	r1, r3
 8001f60:	4829      	ldr	r0, [pc, #164]	; (8002008 <HAL_GPIO_DeInit+0x19c>)
 8001f62:	697b      	ldr	r3, [r7, #20]
 8001f64:	089b      	lsrs	r3, r3, #2
 8001f66:	400a      	ands	r2, r1
 8001f68:	3318      	adds	r3, #24
 8001f6a:	009b      	lsls	r3, r3, #2
 8001f6c:	501a      	str	r2, [r3, r0]
      }

      /*------------------------- GPIO Mode Configuration --------------------*/
      /* Configure IO in Analog Mode */
      GPIOx->MODER |= (GPIO_MODER_MODE0 << (position * 2u));
 8001f6e:	687b      	ldr	r3, [r7, #4]
 8001f70:	681a      	ldr	r2, [r3, #0]
 8001f72:	697b      	ldr	r3, [r7, #20]
 8001f74:	005b      	lsls	r3, r3, #1
 8001f76:	2103      	movs	r1, #3
 8001f78:	4099      	lsls	r1, r3
 8001f7a:	000b      	movs	r3, r1
 8001f7c:	431a      	orrs	r2, r3
 8001f7e:	687b      	ldr	r3, [r7, #4]
 8001f80:	601a      	str	r2, [r3, #0]

      /* Configure the default Alternate Function in current IO */
      GPIOx->AFR[position >> 3u] &= ~(0xFu << ((position & 0x07u) * 4u)) ;
 8001f82:	697b      	ldr	r3, [r7, #20]
 8001f84:	08da      	lsrs	r2, r3, #3
 8001f86:	687b      	ldr	r3, [r7, #4]
 8001f88:	3208      	adds	r2, #8
 8001f8a:	0092      	lsls	r2, r2, #2
 8001f8c:	58d3      	ldr	r3, [r2, r3]
 8001f8e:	697a      	ldr	r2, [r7, #20]
 8001f90:	2107      	movs	r1, #7
 8001f92:	400a      	ands	r2, r1
 8001f94:	0092      	lsls	r2, r2, #2
 8001f96:	210f      	movs	r1, #15
 8001f98:	4091      	lsls	r1, r2
 8001f9a:	000a      	movs	r2, r1
 8001f9c:	43d1      	mvns	r1, r2
 8001f9e:	697a      	ldr	r2, [r7, #20]
 8001fa0:	08d2      	lsrs	r2, r2, #3
 8001fa2:	4019      	ands	r1, r3
 8001fa4:	687b      	ldr	r3, [r7, #4]
 8001fa6:	3208      	adds	r2, #8
 8001fa8:	0092      	lsls	r2, r2, #2
 8001faa:	50d1      	str	r1, [r2, r3]

      /* Configure the default value for IO Speed */
      GPIOx->OSPEEDR &= ~(GPIO_OSPEEDR_OSPEED0 << (position * 2u));
 8001fac:	687b      	ldr	r3, [r7, #4]
 8001fae:	689b      	ldr	r3, [r3, #8]
 8001fb0:	697a      	ldr	r2, [r7, #20]
 8001fb2:	0052      	lsls	r2, r2, #1
 8001fb4:	2103      	movs	r1, #3
 8001fb6:	4091      	lsls	r1, r2
 8001fb8:	000a      	movs	r2, r1
 8001fba:	43d2      	mvns	r2, r2
 8001fbc:	401a      	ands	r2, r3
 8001fbe:	687b      	ldr	r3, [r7, #4]
 8001fc0:	609a      	str	r2, [r3, #8]

      /* Configure the default value IO Output Type */
      GPIOx->OTYPER  &= ~(GPIO_OTYPER_OT0 << position) ;
 8001fc2:	687b      	ldr	r3, [r7, #4]
 8001fc4:	685b      	ldr	r3, [r3, #4]
 8001fc6:	2101      	movs	r1, #1
 8001fc8:	697a      	ldr	r2, [r7, #20]
 8001fca:	4091      	lsls	r1, r2
 8001fcc:	000a      	movs	r2, r1
 8001fce:	43d2      	mvns	r2, r2
 8001fd0:	401a      	ands	r2, r3
 8001fd2:	687b      	ldr	r3, [r7, #4]
 8001fd4:	605a      	str	r2, [r3, #4]

      /* Deactivate the Pull-up and Pull-down resistor for the current IO */
      GPIOx->PUPDR &= ~(GPIO_PUPDR_PUPD0 << (position * 2u));
 8001fd6:	687b      	ldr	r3, [r7, #4]
 8001fd8:	68db      	ldr	r3, [r3, #12]
 8001fda:	697a      	ldr	r2, [r7, #20]
 8001fdc:	0052      	lsls	r2, r2, #1
 8001fde:	2103      	movs	r1, #3
 8001fe0:	4091      	lsls	r1, r2
 8001fe2:	000a      	movs	r2, r1
 8001fe4:	43d2      	mvns	r2, r2
 8001fe6:	401a      	ands	r2, r3
 8001fe8:	687b      	ldr	r3, [r7, #4]
 8001fea:	60da      	str	r2, [r3, #12]
    }

    position++;
 8001fec:	697b      	ldr	r3, [r7, #20]
 8001fee:	3301      	adds	r3, #1
 8001ff0:	617b      	str	r3, [r7, #20]
  while ((GPIO_Pin >> position) != 0x00u)
 8001ff2:	683a      	ldr	r2, [r7, #0]
 8001ff4:	697b      	ldr	r3, [r7, #20]
 8001ff6:	40da      	lsrs	r2, r3
 8001ff8:	1e13      	subs	r3, r2, #0
 8001ffa:	d000      	beq.n	8001ffe <HAL_GPIO_DeInit+0x192>
 8001ffc:	e73e      	b.n	8001e7c <HAL_GPIO_DeInit+0x10>
  }
}
 8001ffe:	46c0      	nop			; (mov r8, r8)
 8002000:	46c0      	nop			; (mov r8, r8)
 8002002:	46bd      	mov	sp, r7
 8002004:	b006      	add	sp, #24
 8002006:	bd80      	pop	{r7, pc}
 8002008:	40021800 	.word	0x40021800
 800200c:	50000400 	.word	0x50000400
 8002010:	50000800 	.word	0x50000800
 8002014:	50000c00 	.word	0x50000c00
 8002018:	50001000 	.word	0x50001000

0800201c <HAL_GPIO_WritePin>:
  *            @arg GPIO_PIN_RESET: to clear the port pin
  *            @arg GPIO_PIN_SET: to set the port pin
  * @retval None
  */
void HAL_GPIO_WritePin(GPIO_TypeDef *GPIOx, uint16_t GPIO_Pin, GPIO_PinState PinState)
{
 800201c:	b580      	push	{r7, lr}
 800201e:	b082      	sub	sp, #8
 8002020:	af00      	add	r7, sp, #0
 8002022:	6078      	str	r0, [r7, #4]
 8002024:	0008      	movs	r0, r1
 8002026:	0011      	movs	r1, r2
 8002028:	1cbb      	adds	r3, r7, #2
 800202a:	1c02      	adds	r2, r0, #0
 800202c:	801a      	strh	r2, [r3, #0]
 800202e:	1c7b      	adds	r3, r7, #1
 8002030:	1c0a      	adds	r2, r1, #0
 8002032:	701a      	strb	r2, [r3, #0]
  /* Check the parameters */
  assert_param(IS_GPIO_PIN(GPIO_Pin));
  assert_param(IS_GPIO_PIN_ACTION(PinState));

  if (PinState != GPIO_PIN_RESET)
 8002034:	1c7b      	adds	r3, r7, #1
 8002036:	781b      	ldrb	r3, [r3, #0]
 8002038:	2b00      	cmp	r3, #0
 800203a:	d004      	beq.n	8002046 <HAL_GPIO_WritePin+0x2a>
  {
    GPIOx->BSRR = (uint32_t)GPIO_Pin;
 800203c:	1cbb      	adds	r3, r7, #2
 800203e:	881a      	ldrh	r2, [r3, #0]
 8002040:	687b      	ldr	r3, [r7, #4]
 8002042:	619a      	str	r2, [r3, #24]
  }
  else
  {
    GPIOx->BRR = (uint32_t)GPIO_Pin;
  }
}
 8002044:	e003      	b.n	800204e <HAL_GPIO_WritePin+0x32>
    GPIOx->BRR = (uint32_t)GPIO_Pin;
 8002046:	1cbb      	adds	r3, r7, #2
 8002048:	881a      	ldrh	r2, [r3, #0]
 800204a:	687b      	ldr	r3, [r7, #4]
 800204c:	629a      	str	r2, [r3, #40]	; 0x28
}
 800204e:	46c0      	nop			; (mov r8, r8)
 8002050:	46bd      	mov	sp, r7
 8002052:	b002      	add	sp, #8
 8002054:	bd80      	pop	{r7, pc}
	...

08002058 <HAL_I2C_Init>:
  * @param  hi2c Pointer to a I2C_HandleTypeDef structure that contains
  *                the configuration information for the specified I2C.
  * @retval HAL status
  */
HAL_StatusTypeDef HAL_I2C_Init(I2C_HandleTypeDef *hi2c)
{
 8002058:	b580      	push	{r7, lr}
 800205a:	b082      	sub	sp, #8
 800205c:	af00      	add	r7, sp, #0
 800205e:	6078      	str	r0, [r7, #4]
  /* Check the I2C handle allocation */
  if (hi2c == NULL)
 8002060:	687b      	ldr	r3, [r7, #4]
 8002062:	2b00      	cmp	r3, #0
 8002064:	d101      	bne.n	800206a <HAL_I2C_Init+0x12>
  {
    return HAL_ERROR;
 8002066:	2301      	movs	r3, #1
 8002068:	e082      	b.n	8002170 <HAL_I2C_Init+0x118>
  assert_param(IS_I2C_OWN_ADDRESS2(hi2c->Init.OwnAddress2));
  assert_param(IS_I2C_OWN_ADDRESS2_MASK(hi2c->Init.OwnAddress2Masks));
  assert_param(IS_I2C_GENERAL_CALL(hi2c->Init.GeneralCallMode));
  assert_param(IS_I2C_NO_STRETCH(hi2c->Init.NoStretchMode));

  if (hi2c->State == HAL_I2C_STATE_RESET)
 800206a:	687b      	ldr	r3, [r7, #4]
 800206c:	2241      	movs	r2, #65	; 0x41
 800206e:	5c9b      	ldrb	r3, [r3, r2]
 8002070:	b2db      	uxtb	r3, r3
 8002072:	2b00      	cmp	r3, #0
 8002074:	d107      	bne.n	8002086 <HAL_I2C_Init+0x2e>
  {
    /* Allocate lock resource and initialize it */
    hi2c->Lock = HAL_UNLOCKED;
 8002076:	687b      	ldr	r3, [r7, #4]
 8002078:	2240      	movs	r2, #64	; 0x40
 800207a:	2100      	movs	r1, #0
 800207c:	5499      	strb	r1, [r3, r2]

    /* Init the low level hardware : GPIO, CLOCK, CORTEX...etc */
    hi2c->MspInitCallback(hi2c);
#else
    /* Init the low level hardware : GPIO, CLOCK, CORTEX...etc */
    HAL_I2C_MspInit(hi2c);
 800207e:	687b      	ldr	r3, [r7, #4]
 8002080:	0018      	movs	r0, r3
 8002082:	f7fe feb5 	bl	8000df0 <HAL_I2C_MspInit>
#endif /* USE_HAL_I2C_REGISTER_CALLBACKS */
  }

  hi2c->State = HAL_I2C_STATE_BUSY;
 8002086:	687b      	ldr	r3, [r7, #4]
 8002088:	2241      	movs	r2, #65	; 0x41
 800208a:	2124      	movs	r1, #36	; 0x24
 800208c:	5499      	strb	r1, [r3, r2]

  /* Disable the selected I2C peripheral */
  __HAL_I2C_DISABLE(hi2c);
 800208e:	687b      	ldr	r3, [r7, #4]
 8002090:	681b      	ldr	r3, [r3, #0]
 8002092:	681a      	ldr	r2, [r3, #0]
 8002094:	687b      	ldr	r3, [r7, #4]
 8002096:	681b      	ldr	r3, [r3, #0]
 8002098:	2101      	movs	r1, #1
 800209a:	438a      	bics	r2, r1
 800209c:	601a      	str	r2, [r3, #0]

  /*---------------------------- I2Cx TIMINGR Configuration ------------------*/
  /* Configure I2Cx: Frequency range */
  hi2c->Instance->TIMINGR = hi2c->Init.Timing & TIMING_CLEAR_MASK;
 800209e:	687b      	ldr	r3, [r7, #4]
 80020a0:	685a      	ldr	r2, [r3, #4]
 80020a2:	687b      	ldr	r3, [r7, #4]
 80020a4:	681b      	ldr	r3, [r3, #0]
 80020a6:	4934      	ldr	r1, [pc, #208]	; (8002178 <HAL_I2C_Init+0x120>)
 80020a8:	400a      	ands	r2, r1
 80020aa:	611a      	str	r2, [r3, #16]

  /*---------------------------- I2Cx OAR1 Configuration ---------------------*/
  /* Disable Own Address1 before set the Own Address1 configuration */
  hi2c->Instance->OAR1 &= ~I2C_OAR1_OA1EN;
 80020ac:	687b      	ldr	r3, [r7, #4]
 80020ae:	681b      	ldr	r3, [r3, #0]
 80020b0:	689a      	ldr	r2, [r3, #8]
 80020b2:	687b      	ldr	r3, [r7, #4]
 80020b4:	681b      	ldr	r3, [r3, #0]
 80020b6:	4931      	ldr	r1, [pc, #196]	; (800217c <HAL_I2C_Init+0x124>)
 80020b8:	400a      	ands	r2, r1
 80020ba:	609a      	str	r2, [r3, #8]

  /* Configure I2Cx: Own Address1 and ack own address1 mode */
  if (hi2c->Init.AddressingMode == I2C_ADDRESSINGMODE_7BIT)
 80020bc:	687b      	ldr	r3, [r7, #4]
 80020be:	68db      	ldr	r3, [r3, #12]
 80020c0:	2b01      	cmp	r3, #1
 80020c2:	d108      	bne.n	80020d6 <HAL_I2C_Init+0x7e>
  {
    hi2c->Instance->OAR1 = (I2C_OAR1_OA1EN | hi2c->Init.OwnAddress1);
 80020c4:	687b      	ldr	r3, [r7, #4]
 80020c6:	689a      	ldr	r2, [r3, #8]
 80020c8:	687b      	ldr	r3, [r7, #4]
 80020ca:	681b      	ldr	r3, [r3, #0]
 80020cc:	2180      	movs	r1, #128	; 0x80
 80020ce:	0209      	lsls	r1, r1, #8
 80020d0:	430a      	orrs	r2, r1
 80020d2:	609a      	str	r2, [r3, #8]
 80020d4:	e007      	b.n	80020e6 <HAL_I2C_Init+0x8e>
  }
  else /* I2C_ADDRESSINGMODE_10BIT */
  {
    hi2c->Instance->OAR1 = (I2C_OAR1_OA1EN | I2C_OAR1_OA1MODE | hi2c->Init.OwnAddress1);
 80020d6:	687b      	ldr	r3, [r7, #4]
 80020d8:	689a      	ldr	r2, [r3, #8]
 80020da:	687b      	ldr	r3, [r7, #4]
 80020dc:	681b      	ldr	r3, [r3, #0]
 80020de:	2184      	movs	r1, #132	; 0x84
 80020e0:	0209      	lsls	r1, r1, #8
 80020e2:	430a      	orrs	r2, r1
 80020e4:	609a      	str	r2, [r3, #8]
  }

  /*---------------------------- I2Cx CR2 Configuration ----------------------*/
  /* Configure I2Cx: Addressing Master mode */
  if (hi2c->Init.AddressingMode == I2C_ADDRESSINGMODE_10BIT)
 80020e6:	687b      	ldr	r3, [r7, #4]
 80020e8:	68db      	ldr	r3, [r3, #12]
 80020ea:	2b02      	cmp	r3, #2
 80020ec:	d104      	bne.n	80020f8 <HAL_I2C_Init+0xa0>
  {
    hi2c->Instance->CR2 = (I2C_CR2_ADD10);
 80020ee:	687b      	ldr	r3, [r7, #4]
 80020f0:	681b      	ldr	r3, [r3, #0]
 80020f2:	2280      	movs	r2, #128	; 0x80
 80020f4:	0112      	lsls	r2, r2, #4
 80020f6:	605a      	str	r2, [r3, #4]
  }
  /* Enable the AUTOEND by default, and enable NACK (should be disable only during Slave process */
  hi2c->Instance->CR2 |= (I2C_CR2_AUTOEND | I2C_CR2_NACK);
 80020f8:	687b      	ldr	r3, [r7, #4]
 80020fa:	681b      	ldr	r3, [r3, #0]
 80020fc:	685a      	ldr	r2, [r3, #4]
 80020fe:	687b      	ldr	r3, [r7, #4]
 8002100:	681b      	ldr	r3, [r3, #0]
 8002102:	491f      	ldr	r1, [pc, #124]	; (8002180 <HAL_I2C_Init+0x128>)
 8002104:	430a      	orrs	r2, r1
 8002106:	605a      	str	r2, [r3, #4]

  /*---------------------------- I2Cx OAR2 Configuration ---------------------*/
  /* Disable Own Address2 before set the Own Address2 configuration */
  hi2c->Instance->OAR2 &= ~I2C_DUALADDRESS_ENABLE;
 8002108:	687b      	ldr	r3, [r7, #4]
 800210a:	681b      	ldr	r3, [r3, #0]
 800210c:	68da      	ldr	r2, [r3, #12]
 800210e:	687b      	ldr	r3, [r7, #4]
 8002110:	681b      	ldr	r3, [r3, #0]
 8002112:	491a      	ldr	r1, [pc, #104]	; (800217c <HAL_I2C_Init+0x124>)
 8002114:	400a      	ands	r2, r1
 8002116:	60da      	str	r2, [r3, #12]

  /* Configure I2Cx: Dual mode and Own Address2 */
  hi2c->Instance->OAR2 = (hi2c->Init.DualAddressMode | hi2c->Init.OwnAddress2 | \
 8002118:	687b      	ldr	r3, [r7, #4]
 800211a:	691a      	ldr	r2, [r3, #16]
 800211c:	687b      	ldr	r3, [r7, #4]
 800211e:	695b      	ldr	r3, [r3, #20]
 8002120:	431a      	orrs	r2, r3
 8002122:	0011      	movs	r1, r2
                          (hi2c->Init.OwnAddress2Masks << 8));
 8002124:	687b      	ldr	r3, [r7, #4]
 8002126:	699b      	ldr	r3, [r3, #24]
 8002128:	021a      	lsls	r2, r3, #8
  hi2c->Instance->OAR2 = (hi2c->Init.DualAddressMode | hi2c->Init.OwnAddress2 | \
 800212a:	687b      	ldr	r3, [r7, #4]
 800212c:	681b      	ldr	r3, [r3, #0]
 800212e:	430a      	orrs	r2, r1
 8002130:	60da      	str	r2, [r3, #12]

  /*---------------------------- I2Cx CR1 Configuration ----------------------*/
  /* Configure I2Cx: Generalcall and NoStretch mode */
  hi2c->Instance->CR1 = (hi2c->Init.GeneralCallMode | hi2c->Init.NoStretchMode);
 8002132:	687b      	ldr	r3, [r7, #4]
 8002134:	69d9      	ldr	r1, [r3, #28]
 8002136:	687b      	ldr	r3, [r7, #4]
 8002138:	6a1a      	ldr	r2, [r3, #32]
 800213a:	687b      	ldr	r3, [r7, #4]
 800213c:	681b      	ldr	r3, [r3, #0]
 800213e:	430a      	orrs	r2, r1
 8002140:	601a      	str	r2, [r3, #0]

  /* Enable the selected I2C peripheral */
  __HAL_I2C_ENABLE(hi2c);
 8002142:	687b      	ldr	r3, [r7, #4]
 8002144:	681b      	ldr	r3, [r3, #0]
 8002146:	681a      	ldr	r2, [r3, #0]
 8002148:	687b      	ldr	r3, [r7, #4]
 800214a:	681b      	ldr	r3, [r3, #0]
 800214c:	2101      	movs	r1, #1
 800214e:	430a      	orrs	r2, r1
 8002150:	601a      	str	r2, [r3, #0]

  hi2c->ErrorCode = HAL_I2C_ERROR_NONE;
 8002152:	687b      	ldr	r3, [r7, #4]
 8002154:	2200      	movs	r2, #0
 8002156:	645a      	str	r2, [r3, #68]	; 0x44
  hi2c->State = HAL_I2C_STATE_READY;
 8002158:	687b      	ldr	r3, [r7, #4]
 800215a:	2241      	movs	r2, #65	; 0x41
 800215c:	2120      	movs	r1, #32
 800215e:	5499      	strb	r1, [r3, r2]
  hi2c->PreviousState = I2C_STATE_NONE;
 8002160:	687b      	ldr	r3, [r7, #4]
 8002162:	2200      	movs	r2, #0
 8002164:	631a      	str	r2, [r3, #48]	; 0x30
  hi2c->Mode = HAL_I2C_MODE_NONE;
 8002166:	687b      	ldr	r3, [r7, #4]
 8002168:	2242      	movs	r2, #66	; 0x42
 800216a:	2100      	movs	r1, #0
 800216c:	5499      	strb	r1, [r3, r2]

  return HAL_OK;
 800216e:	2300      	movs	r3, #0
}
 8002170:	0018      	movs	r0, r3
 8002172:	46bd      	mov	sp, r7
 8002174:	b002      	add	sp, #8
 8002176:	bd80      	pop	{r7, pc}
 8002178:	f0ffffff 	.word	0xf0ffffff
 800217c:	ffff7fff 	.word	0xffff7fff
 8002180:	02008000 	.word	0x02008000

08002184 <HAL_I2C_DeInit>:
  * @param  hi2c Pointer to a I2C_HandleTypeDef structure that contains
  *                the configuration information for the specified I2C.
  * @retval HAL status
  */
HAL_StatusTypeDef HAL_I2C_DeInit(I2C_HandleTypeDef *hi2c)
{
 8002184:	b580      	push	{r7, lr}
 8002186:	b082      	sub	sp, #8
 8002188:	af00      	add	r7, sp, #0
 800218a:	6078      	str	r0, [r7, #4]
  /* Check the I2C handle allocation */
  if (hi2c == NULL)
 800218c:	687b      	ldr	r3, [r7, #4]
 800218e:	2b00      	cmp	r3, #0
 8002190:	d101      	bne.n	8002196 <HAL_I2C_DeInit+0x12>
  {
    return HAL_ERROR;
 8002192:	2301      	movs	r3, #1
 8002194:	e022      	b.n	80021dc <HAL_I2C_DeInit+0x58>
  }

  /* Check the parameters */
  assert_param(IS_I2C_ALL_INSTANCE(hi2c->Instance));

  hi2c->State = HAL_I2C_STATE_BUSY;
 8002196:	687b      	ldr	r3, [r7, #4]
 8002198:	2241      	movs	r2, #65	; 0x41
 800219a:	2124      	movs	r1, #36	; 0x24
 800219c:	5499      	strb	r1, [r3, r2]

  /* Disable the I2C Peripheral Clock */
  __HAL_I2C_DISABLE(hi2c);
 800219e:	687b      	ldr	r3, [r7, #4]
 80021a0:	681b      	ldr	r3, [r3, #0]
 80021a2:	681a      	ldr	r2, [r3, #0]
 80021a4:	687b      	ldr	r3, [r7, #4]
 80021a6:	681b      	ldr	r3, [r3, #0]
 80021a8:	2101      	movs	r1, #1
 80021aa:	438a      	bics	r2, r1
 80021ac:	601a      	str	r2, [r3, #0]

  /* DeInit the low level hardware: GPIO, CLOCK, NVIC */
  hi2c->MspDeInitCallback(hi2c);
#else
  /* DeInit the low level hardware: GPIO, CLOCK, NVIC */
  HAL_I2C_MspDeInit(hi2c);
 80021ae:	687b      	ldr	r3, [r7, #4]
 80021b0:	0018      	movs	r0, r3
 80021b2:	f7fe fe7f 	bl	8000eb4 <HAL_I2C_MspDeInit>
#endif /* USE_HAL_I2C_REGISTER_CALLBACKS */

  hi2c->ErrorCode = HAL_I2C_ERROR_NONE;
 80021b6:	687b      	ldr	r3, [r7, #4]
 80021b8:	2200      	movs	r2, #0
 80021ba:	645a      	str	r2, [r3, #68]	; 0x44
  hi2c->State = HAL_I2C_STATE_RESET;
 80021bc:	687b      	ldr	r3, [r7, #4]
 80021be:	2241      	movs	r2, #65	; 0x41
 80021c0:	2100      	movs	r1, #0
 80021c2:	5499      	strb	r1, [r3, r2]
  hi2c->PreviousState = I2C_STATE_NONE;
 80021c4:	687b      	ldr	r3, [r7, #4]
 80021c6:	2200      	movs	r2, #0
 80021c8:	631a      	str	r2, [r3, #48]	; 0x30
  hi2c->Mode = HAL_I2C_MODE_NONE;
 80021ca:	687b      	ldr	r3, [r7, #4]
 80021cc:	2242      	movs	r2, #66	; 0x42
 80021ce:	2100      	movs	r1, #0
 80021d0:	5499      	strb	r1, [r3, r2]

  /* Release Lock */
  __HAL_UNLOCK(hi2c);
 80021d2:	687b      	ldr	r3, [r7, #4]
 80021d4:	2240      	movs	r2, #64	; 0x40
 80021d6:	2100      	movs	r1, #0
 80021d8:	5499      	strb	r1, [r3, r2]

  return HAL_OK;
 80021da:	2300      	movs	r3, #0
}
 80021dc:	0018      	movs	r0, r3
 80021de:	46bd      	mov	sp, r7
 80021e0:	b002      	add	sp, #8
 80021e2:	bd80      	pop	{r7, pc}

080021e4 <HAL_I2C_Mem_Write>:
  * @param  Timeout Timeout duration
  * @retval HAL status
  */
HAL_StatusTypeDef HAL_I2C_Mem_Write(I2C_HandleTypeDef *hi2c, uint16_t DevAddress, uint16_t MemAddress,
                                    uint16_t MemAddSize, uint8_t *pData, uint16_t Size, uint32_t Timeout)
{
 80021e4:	b590      	push	{r4, r7, lr}
 80021e6:	b089      	sub	sp, #36	; 0x24
 80021e8:	af02      	add	r7, sp, #8
 80021ea:	60f8      	str	r0, [r7, #12]
 80021ec:	000c      	movs	r4, r1
 80021ee:	0010      	movs	r0, r2
 80021f0:	0019      	movs	r1, r3
 80021f2:	230a      	movs	r3, #10
 80021f4:	18fb      	adds	r3, r7, r3
 80021f6:	1c22      	adds	r2, r4, #0
 80021f8:	801a      	strh	r2, [r3, #0]
 80021fa:	2308      	movs	r3, #8
 80021fc:	18fb      	adds	r3, r7, r3
 80021fe:	1c02      	adds	r2, r0, #0
 8002200:	801a      	strh	r2, [r3, #0]
 8002202:	1dbb      	adds	r3, r7, #6
 8002204:	1c0a      	adds	r2, r1, #0
 8002206:	801a      	strh	r2, [r3, #0]
  uint32_t tickstart;

  /* Check the parameters */
  assert_param(IS_I2C_MEMADD_SIZE(MemAddSize));

  if (hi2c->State == HAL_I2C_STATE_READY)
 8002208:	68fb      	ldr	r3, [r7, #12]
 800220a:	2241      	movs	r2, #65	; 0x41
 800220c:	5c9b      	ldrb	r3, [r3, r2]
 800220e:	b2db      	uxtb	r3, r3
 8002210:	2b20      	cmp	r3, #32
 8002212:	d000      	beq.n	8002216 <HAL_I2C_Mem_Write+0x32>
 8002214:	e10c      	b.n	8002430 <HAL_I2C_Mem_Write+0x24c>
  {
    if ((pData == NULL) || (Size == 0U))
 8002216:	6abb      	ldr	r3, [r7, #40]	; 0x28
 8002218:	2b00      	cmp	r3, #0
 800221a:	d004      	beq.n	8002226 <HAL_I2C_Mem_Write+0x42>
 800221c:	232c      	movs	r3, #44	; 0x2c
 800221e:	18fb      	adds	r3, r7, r3
 8002220:	881b      	ldrh	r3, [r3, #0]
 8002222:	2b00      	cmp	r3, #0
 8002224:	d105      	bne.n	8002232 <HAL_I2C_Mem_Write+0x4e>
    {
      hi2c->ErrorCode = HAL_I2C_ERROR_INVALID_PARAM;
 8002226:	68fb      	ldr	r3, [r7, #12]
 8002228:	2280      	movs	r2, #128	; 0x80
 800222a:	0092      	lsls	r2, r2, #2
 800222c:	645a      	str	r2, [r3, #68]	; 0x44
      return  HAL_ERROR;
 800222e:	2301      	movs	r3, #1
 8002230:	e0ff      	b.n	8002432 <HAL_I2C_Mem_Write+0x24e>
    }

    /* Process Locked */
    __HAL_LOCK(hi2c);
 8002232:	68fb      	ldr	r3, [r7, #12]
 8002234:	2240      	movs	r2, #64	; 0x40
 8002236:	5c9b      	ldrb	r3, [r3, r2]
 8002238:	2b01      	cmp	r3, #1
 800223a:	d101      	bne.n	8002240 <HAL_I2C_Mem_Write+0x5c>
 800223c:	2302      	movs	r3, #2
 800223e:	e0f8      	b.n	8002432 <HAL_I2C_Mem_Write+0x24e>
 8002240:	68fb      	ldr	r3, [r7, #12]
 8002242:	2240      	movs	r2, #64	; 0x40
 8002244:	2101      	movs	r1, #1
 8002246:	5499      	strb	r1, [r3, r2]

    /* Init tickstart for timeout management*/
    tickstart = HAL_GetTick();
 8002248:	f7ff fbc2 	bl	80019d0 <HAL_GetTick>
 800224c:	0003      	movs	r3, r0
 800224e:	617b      	str	r3, [r7, #20]

    if (I2C_WaitOnFlagUntilTimeout(hi2c, I2C_FLAG_BUSY, SET, I2C_TIMEOUT_BUSY, tickstart) != HAL_OK)
 8002250:	2380      	movs	r3, #128	; 0x80
 8002252:	0219      	lsls	r1, r3, #8
 8002254:	68f8      	ldr	r0, [r7, #12]
 8002256:	697b      	ldr	r3, [r7, #20]
 8002258:	9300      	str	r3, [sp, #0]
 800225a:	2319      	movs	r3, #25
 800225c:	2201      	movs	r2, #1
 800225e:	f000 fb0b 	bl	8002878 <I2C_WaitOnFlagUntilTimeout>
 8002262:	1e03      	subs	r3, r0, #0
 8002264:	d001      	beq.n	800226a <HAL_I2C_Mem_Write+0x86>
    {
      return HAL_ERROR;
 8002266:	2301      	movs	r3, #1
 8002268:	e0e3      	b.n	8002432 <HAL_I2C_Mem_Write+0x24e>
    }

    hi2c->State     = HAL_I2C_STATE_BUSY_TX;
 800226a:	68fb      	ldr	r3, [r7, #12]
 800226c:	2241      	movs	r2, #65	; 0x41
 800226e:	2121      	movs	r1, #33	; 0x21
 8002270:	5499      	strb	r1, [r3, r2]
    hi2c->Mode      = HAL_I2C_MODE_MEM;
 8002272:	68fb      	ldr	r3, [r7, #12]
 8002274:	2242      	movs	r2, #66	; 0x42
 8002276:	2140      	movs	r1, #64	; 0x40
 8002278:	5499      	strb	r1, [r3, r2]
    hi2c->ErrorCode = HAL_I2C_ERROR_NONE;
 800227a:	68fb      	ldr	r3, [r7, #12]
 800227c:	2200      	movs	r2, #0
 800227e:	645a      	str	r2, [r3, #68]	; 0x44

    /* Prepare transfer parameters */
    hi2c->pBuffPtr  = pData;
 8002280:	68fb      	ldr	r3, [r7, #12]
 8002282:	6aba      	ldr	r2, [r7, #40]	; 0x28
 8002284:	625a      	str	r2, [r3, #36]	; 0x24
    hi2c->XferCount = Size;
 8002286:	68fb      	ldr	r3, [r7, #12]
 8002288:	222c      	movs	r2, #44	; 0x2c
 800228a:	18ba      	adds	r2, r7, r2
 800228c:	8812      	ldrh	r2, [r2, #0]
 800228e:	855a      	strh	r2, [r3, #42]	; 0x2a
    hi2c->XferISR   = NULL;
 8002290:	68fb      	ldr	r3, [r7, #12]
 8002292:	2200      	movs	r2, #0
 8002294:	635a      	str	r2, [r3, #52]	; 0x34

    /* Send Slave Address and Memory Address */
    if (I2C_RequestMemoryWrite(hi2c, DevAddress, MemAddress, MemAddSize, Timeout, tickstart) != HAL_OK)
 8002296:	1dbb      	adds	r3, r7, #6
 8002298:	881c      	ldrh	r4, [r3, #0]
 800229a:	2308      	movs	r3, #8
 800229c:	18fb      	adds	r3, r7, r3
 800229e:	881a      	ldrh	r2, [r3, #0]
 80022a0:	230a      	movs	r3, #10
 80022a2:	18fb      	adds	r3, r7, r3
 80022a4:	8819      	ldrh	r1, [r3, #0]
 80022a6:	68f8      	ldr	r0, [r7, #12]
 80022a8:	697b      	ldr	r3, [r7, #20]
 80022aa:	9301      	str	r3, [sp, #4]
 80022ac:	6b3b      	ldr	r3, [r7, #48]	; 0x30
 80022ae:	9300      	str	r3, [sp, #0]
 80022b0:	0023      	movs	r3, r4
 80022b2:	f000 f9f9 	bl	80026a8 <I2C_RequestMemoryWrite>
 80022b6:	1e03      	subs	r3, r0, #0
 80022b8:	d005      	beq.n	80022c6 <HAL_I2C_Mem_Write+0xe2>
    {
      /* Process Unlocked */
      __HAL_UNLOCK(hi2c);
 80022ba:	68fb      	ldr	r3, [r7, #12]
 80022bc:	2240      	movs	r2, #64	; 0x40
 80022be:	2100      	movs	r1, #0
 80022c0:	5499      	strb	r1, [r3, r2]
      return HAL_ERROR;
 80022c2:	2301      	movs	r3, #1
 80022c4:	e0b5      	b.n	8002432 <HAL_I2C_Mem_Write+0x24e>
    }

    /* Set NBYTES to write and reload if hi2c->XferCount > MAX_NBYTE_SIZE */
    if (hi2c->XferCount > MAX_NBYTE_SIZE)
 80022c6:	68fb      	ldr	r3, [r7, #12]
 80022c8:	8d5b      	ldrh	r3, [r3, #42]	; 0x2a
 80022ca:	b29b      	uxth	r3, r3
 80022cc:	2bff      	cmp	r3, #255	; 0xff
 80022ce:	d911      	bls.n	80022f4 <HAL_I2C_Mem_Write+0x110>
    {
      hi2c->XferSize = MAX_NBYTE_SIZE;
 80022d0:	68fb      	ldr	r3, [r7, #12]
 80022d2:	22ff      	movs	r2, #255	; 0xff
 80022d4:	851a      	strh	r2, [r3, #40]	; 0x28
      I2C_TransferConfig(hi2c, DevAddress, (uint8_t)hi2c->XferSize, I2C_RELOAD_MODE, I2C_NO_STARTSTOP);
 80022d6:	68fb      	ldr	r3, [r7, #12]
 80022d8:	8d1b      	ldrh	r3, [r3, #40]	; 0x28
 80022da:	b2da      	uxtb	r2, r3
 80022dc:	2380      	movs	r3, #128	; 0x80
 80022de:	045c      	lsls	r4, r3, #17
 80022e0:	230a      	movs	r3, #10
 80022e2:	18fb      	adds	r3, r7, r3
 80022e4:	8819      	ldrh	r1, [r3, #0]
 80022e6:	68f8      	ldr	r0, [r7, #12]
 80022e8:	2300      	movs	r3, #0
 80022ea:	9300      	str	r3, [sp, #0]
 80022ec:	0023      	movs	r3, r4
 80022ee:	f000 fc7d 	bl	8002bec <I2C_TransferConfig>
 80022f2:	e012      	b.n	800231a <HAL_I2C_Mem_Write+0x136>
    }
    else
    {
      hi2c->XferSize = hi2c->XferCount;
 80022f4:	68fb      	ldr	r3, [r7, #12]
 80022f6:	8d5b      	ldrh	r3, [r3, #42]	; 0x2a
 80022f8:	b29a      	uxth	r2, r3
 80022fa:	68fb      	ldr	r3, [r7, #12]
 80022fc:	851a      	strh	r2, [r3, #40]	; 0x28
      I2C_TransferConfig(hi2c, DevAddress, (uint8_t)hi2c->XferSize, I2C_AUTOEND_MODE, I2C_NO_STARTSTOP);
 80022fe:	68fb      	ldr	r3, [r7, #12]
 8002300:	8d1b      	ldrh	r3, [r3, #40]	; 0x28
 8002302:	b2da      	uxtb	r2, r3
 8002304:	2380      	movs	r3, #128	; 0x80
 8002306:	049c      	lsls	r4, r3, #18
 8002308:	230a      	movs	r3, #10
 800230a:	18fb      	adds	r3, r7, r3
 800230c:	8819      	ldrh	r1, [r3, #0]
 800230e:	68f8      	ldr	r0, [r7, #12]
 8002310:	2300      	movs	r3, #0
 8002312:	9300      	str	r3, [sp, #0]
 8002314:	0023      	movs	r3, r4
 8002316:	f000 fc69 	bl	8002bec <I2C_TransferConfig>
    }

    do
    {
      /* Wait until TXIS flag is set */
      if (I2C_WaitOnTXISFlagUntilTimeout(hi2c, Timeout, tickstart) != HAL_OK)
 800231a:	697a      	ldr	r2, [r7, #20]
 800231c:	6b39      	ldr	r1, [r7, #48]	; 0x30
 800231e:	68fb      	ldr	r3, [r7, #12]
 8002320:	0018      	movs	r0, r3
 8002322:	f000 fae8 	bl	80028f6 <I2C_WaitOnTXISFlagUntilTimeout>
 8002326:	1e03      	subs	r3, r0, #0
 8002328:	d001      	beq.n	800232e <HAL_I2C_Mem_Write+0x14a>
      {
        return HAL_ERROR;
 800232a:	2301      	movs	r3, #1
 800232c:	e081      	b.n	8002432 <HAL_I2C_Mem_Write+0x24e>
      }

      /* Write data to TXDR */
      hi2c->Instance->TXDR = *hi2c->pBuffPtr;
 800232e:	68fb      	ldr	r3, [r7, #12]
 8002330:	6a5b      	ldr	r3, [r3, #36]	; 0x24
 8002332:	781a      	ldrb	r2, [r3, #0]
 8002334:	68fb      	ldr	r3, [r7, #12]
 8002336:	681b      	ldr	r3, [r3, #0]
 8002338:	629a      	str	r2, [r3, #40]	; 0x28

      /* Increment Buffer pointer */
      hi2c->pBuffPtr++;
 800233a:	68fb      	ldr	r3, [r7, #12]
 800233c:	6a5b      	ldr	r3, [r3, #36]	; 0x24
 800233e:	1c5a      	adds	r2, r3, #1
 8002340:	68fb      	ldr	r3, [r7, #12]
 8002342:	625a      	str	r2, [r3, #36]	; 0x24

      hi2c->XferCount--;
 8002344:	68fb      	ldr	r3, [r7, #12]
 8002346:	8d5b      	ldrh	r3, [r3, #42]	; 0x2a
 8002348:	b29b      	uxth	r3, r3
 800234a:	3b01      	subs	r3, #1
 800234c:	b29a      	uxth	r2, r3
 800234e:	68fb      	ldr	r3, [r7, #12]
 8002350:	855a      	strh	r2, [r3, #42]	; 0x2a
      hi2c->XferSize--;
 8002352:	68fb      	ldr	r3, [r7, #12]
 8002354:	8d1b      	ldrh	r3, [r3, #40]	; 0x28
 8002356:	3b01      	subs	r3, #1
 8002358:	b29a      	uxth	r2, r3
 800235a:	68fb      	ldr	r3, [r7, #12]
 800235c:	851a      	strh	r2, [r3, #40]	; 0x28

      if ((hi2c->XferCount != 0U) && (hi2c->XferSize == 0U))
 800235e:	68fb      	ldr	r3, [r7, #12]
 8002360:	8d5b      	ldrh	r3, [r3, #42]	; 0x2a
 8002362:	b29b      	uxth	r3, r3
 8002364:	2b00      	cmp	r3, #0
 8002366:	d03a      	beq.n	80023de <HAL_I2C_Mem_Write+0x1fa>
 8002368:	68fb      	ldr	r3, [r7, #12]
 800236a:	8d1b      	ldrh	r3, [r3, #40]	; 0x28
 800236c:	2b00      	cmp	r3, #0
 800236e:	d136      	bne.n	80023de <HAL_I2C_Mem_Write+0x1fa>
      {
        /* Wait until TCR flag is set */
        if (I2C_WaitOnFlagUntilTimeout(hi2c, I2C_FLAG_TCR, RESET, Timeout, tickstart) != HAL_OK)
 8002370:	6b3a      	ldr	r2, [r7, #48]	; 0x30
 8002372:	68f8      	ldr	r0, [r7, #12]
 8002374:	697b      	ldr	r3, [r7, #20]
 8002376:	9300      	str	r3, [sp, #0]
 8002378:	0013      	movs	r3, r2
 800237a:	2200      	movs	r2, #0
 800237c:	2180      	movs	r1, #128	; 0x80
 800237e:	f000 fa7b 	bl	8002878 <I2C_WaitOnFlagUntilTimeout>
 8002382:	1e03      	subs	r3, r0, #0
 8002384:	d001      	beq.n	800238a <HAL_I2C_Mem_Write+0x1a6>
        {
          return HAL_ERROR;
 8002386:	2301      	movs	r3, #1
 8002388:	e053      	b.n	8002432 <HAL_I2C_Mem_Write+0x24e>
        }

        if (hi2c->XferCount > MAX_NBYTE_SIZE)
 800238a:	68fb      	ldr	r3, [r7, #12]
 800238c:	8d5b      	ldrh	r3, [r3, #42]	; 0x2a
 800238e:	b29b      	uxth	r3, r3
 8002390:	2bff      	cmp	r3, #255	; 0xff
 8002392:	d911      	bls.n	80023b8 <HAL_I2C_Mem_Write+0x1d4>
        {
          hi2c->XferSize = MAX_NBYTE_SIZE;
 8002394:	68fb      	ldr	r3, [r7, #12]
 8002396:	22ff      	movs	r2, #255	; 0xff
 8002398:	851a      	strh	r2, [r3, #40]	; 0x28
          I2C_TransferConfig(hi2c, DevAddress, (uint8_t)hi2c->XferSize, I2C_RELOAD_MODE,
 800239a:	68fb      	ldr	r3, [r7, #12]
 800239c:	8d1b      	ldrh	r3, [r3, #40]	; 0x28
 800239e:	b2da      	uxtb	r2, r3
 80023a0:	2380      	movs	r3, #128	; 0x80
 80023a2:	045c      	lsls	r4, r3, #17
 80023a4:	230a      	movs	r3, #10
 80023a6:	18fb      	adds	r3, r7, r3
 80023a8:	8819      	ldrh	r1, [r3, #0]
 80023aa:	68f8      	ldr	r0, [r7, #12]
 80023ac:	2300      	movs	r3, #0
 80023ae:	9300      	str	r3, [sp, #0]
 80023b0:	0023      	movs	r3, r4
 80023b2:	f000 fc1b 	bl	8002bec <I2C_TransferConfig>
 80023b6:	e012      	b.n	80023de <HAL_I2C_Mem_Write+0x1fa>
                             I2C_NO_STARTSTOP);
        }
        else
        {
          hi2c->XferSize = hi2c->XferCount;
 80023b8:	68fb      	ldr	r3, [r7, #12]
 80023ba:	8d5b      	ldrh	r3, [r3, #42]	; 0x2a
 80023bc:	b29a      	uxth	r2, r3
 80023be:	68fb      	ldr	r3, [r7, #12]
 80023c0:	851a      	strh	r2, [r3, #40]	; 0x28
          I2C_TransferConfig(hi2c, DevAddress, (uint8_t)hi2c->XferSize, I2C_AUTOEND_MODE,
 80023c2:	68fb      	ldr	r3, [r7, #12]
 80023c4:	8d1b      	ldrh	r3, [r3, #40]	; 0x28
 80023c6:	b2da      	uxtb	r2, r3
 80023c8:	2380      	movs	r3, #128	; 0x80
 80023ca:	049c      	lsls	r4, r3, #18
 80023cc:	230a      	movs	r3, #10
 80023ce:	18fb      	adds	r3, r7, r3
 80023d0:	8819      	ldrh	r1, [r3, #0]
 80023d2:	68f8      	ldr	r0, [r7, #12]
 80023d4:	2300      	movs	r3, #0
 80023d6:	9300      	str	r3, [sp, #0]
 80023d8:	0023      	movs	r3, r4
 80023da:	f000 fc07 	bl	8002bec <I2C_TransferConfig>
                             I2C_NO_STARTSTOP);
        }
      }

    } while (hi2c->XferCount > 0U);
 80023de:	68fb      	ldr	r3, [r7, #12]
 80023e0:	8d5b      	ldrh	r3, [r3, #42]	; 0x2a
 80023e2:	b29b      	uxth	r3, r3
 80023e4:	2b00      	cmp	r3, #0
 80023e6:	d198      	bne.n	800231a <HAL_I2C_Mem_Write+0x136>

    /* No need to Check TC flag, with AUTOEND mode the stop is automatically generated */
    /* Wait until STOPF flag is reset */
    if (I2C_WaitOnSTOPFlagUntilTimeout(hi2c, Timeout, tickstart) != HAL_OK)
 80023e8:	697a      	ldr	r2, [r7, #20]
 80023ea:	6b39      	ldr	r1, [r7, #48]	; 0x30
 80023ec:	68fb      	ldr	r3, [r7, #12]
 80023ee:	0018      	movs	r0, r3
 80023f0:	f000 fac0 	bl	8002974 <I2C_WaitOnSTOPFlagUntilTimeout>
 80023f4:	1e03      	subs	r3, r0, #0
 80023f6:	d001      	beq.n	80023fc <HAL_I2C_Mem_Write+0x218>
    {
      return HAL_ERROR;
 80023f8:	2301      	movs	r3, #1
 80023fa:	e01a      	b.n	8002432 <HAL_I2C_Mem_Write+0x24e>
    }

    /* Clear STOP Flag */
    __HAL_I2C_CLEAR_FLAG(hi2c, I2C_FLAG_STOPF);
 80023fc:	68fb      	ldr	r3, [r7, #12]
 80023fe:	681b      	ldr	r3, [r3, #0]
 8002400:	2220      	movs	r2, #32
 8002402:	61da      	str	r2, [r3, #28]

    /* Clear Configuration Register 2 */
    I2C_RESET_CR2(hi2c);
 8002404:	68fb      	ldr	r3, [r7, #12]
 8002406:	681b      	ldr	r3, [r3, #0]
 8002408:	685a      	ldr	r2, [r3, #4]
 800240a:	68fb      	ldr	r3, [r7, #12]
 800240c:	681b      	ldr	r3, [r3, #0]
 800240e:	490b      	ldr	r1, [pc, #44]	; (800243c <HAL_I2C_Mem_Write+0x258>)
 8002410:	400a      	ands	r2, r1
 8002412:	605a      	str	r2, [r3, #4]

    hi2c->State = HAL_I2C_STATE_READY;
 8002414:	68fb      	ldr	r3, [r7, #12]
 8002416:	2241      	movs	r2, #65	; 0x41
 8002418:	2120      	movs	r1, #32
 800241a:	5499      	strb	r1, [r3, r2]
    hi2c->Mode  = HAL_I2C_MODE_NONE;
 800241c:	68fb      	ldr	r3, [r7, #12]
 800241e:	2242      	movs	r2, #66	; 0x42
 8002420:	2100      	movs	r1, #0
 8002422:	5499      	strb	r1, [r3, r2]

    /* Process Unlocked */
    __HAL_UNLOCK(hi2c);
 8002424:	68fb      	ldr	r3, [r7, #12]
 8002426:	2240      	movs	r2, #64	; 0x40
 8002428:	2100      	movs	r1, #0
 800242a:	5499      	strb	r1, [r3, r2]

    return HAL_OK;
 800242c:	2300      	movs	r3, #0
 800242e:	e000      	b.n	8002432 <HAL_I2C_Mem_Write+0x24e>
  }
  else
  {
    return HAL_BUSY;
 8002430:	2302      	movs	r3, #2
  }
}
 8002432:	0018      	movs	r0, r3
 8002434:	46bd      	mov	sp, r7
 8002436:	b007      	add	sp, #28
 8002438:	bd90      	pop	{r4, r7, pc}
 800243a:	46c0      	nop			; (mov r8, r8)
 800243c:	fe00e800 	.word	0xfe00e800

08002440 <HAL_I2C_Mem_Read>:
  * @param  Timeout Timeout duration
  * @retval HAL status
  */
HAL_StatusTypeDef HAL_I2C_Mem_Read(I2C_HandleTypeDef *hi2c, uint16_t DevAddress, uint16_t MemAddress,
                                   uint16_t MemAddSize, uint8_t *pData, uint16_t Size, uint32_t Timeout)
{
 8002440:	b590      	push	{r4, r7, lr}
 8002442:	b089      	sub	sp, #36	; 0x24
 8002444:	af02      	add	r7, sp, #8
 8002446:	60f8      	str	r0, [r7, #12]
 8002448:	000c      	movs	r4, r1
 800244a:	0010      	movs	r0, r2
 800244c:	0019      	movs	r1, r3
 800244e:	230a      	movs	r3, #10
 8002450:	18fb      	adds	r3, r7, r3
 8002452:	1c22      	adds	r2, r4, #0
 8002454:	801a      	strh	r2, [r3, #0]
 8002456:	2308      	movs	r3, #8
 8002458:	18fb      	adds	r3, r7, r3
 800245a:	1c02      	adds	r2, r0, #0
 800245c:	801a      	strh	r2, [r3, #0]
 800245e:	1dbb      	adds	r3, r7, #6
 8002460:	1c0a      	adds	r2, r1, #0
 8002462:	801a      	strh	r2, [r3, #0]
  uint32_t tickstart;

  /* Check the parameters */
  assert_param(IS_I2C_MEMADD_SIZE(MemAddSize));

  if (hi2c->State == HAL_I2C_STATE_READY)
 8002464:	68fb      	ldr	r3, [r7, #12]
 8002466:	2241      	movs	r2, #65	; 0x41
 8002468:	5c9b      	ldrb	r3, [r3, r2]
 800246a:	b2db      	uxtb	r3, r3
 800246c:	2b20      	cmp	r3, #32
 800246e:	d000      	beq.n	8002472 <HAL_I2C_Mem_Read+0x32>
 8002470:	e110      	b.n	8002694 <HAL_I2C_Mem_Read+0x254>
  {
    if ((pData == NULL) || (Size == 0U))
 8002472:	6abb      	ldr	r3, [r7, #40]	; 0x28
 8002474:	2b00      	cmp	r3, #0
 8002476:	d004      	beq.n	8002482 <HAL_I2C_Mem_Read+0x42>
 8002478:	232c      	movs	r3, #44	; 0x2c
 800247a:	18fb      	adds	r3, r7, r3
 800247c:	881b      	ldrh	r3, [r3, #0]
 800247e:	2b00      	cmp	r3, #0
 8002480:	d105      	bne.n	800248e <HAL_I2C_Mem_Read+0x4e>
    {
      hi2c->ErrorCode = HAL_I2C_ERROR_INVALID_PARAM;
 8002482:	68fb      	ldr	r3, [r7, #12]
 8002484:	2280      	movs	r2, #128	; 0x80
 8002486:	0092      	lsls	r2, r2, #2
 8002488:	645a      	str	r2, [r3, #68]	; 0x44
      return  HAL_ERROR;
 800248a:	2301      	movs	r3, #1
 800248c:	e103      	b.n	8002696 <HAL_I2C_Mem_Read+0x256>
    }

    /* Process Locked */
    __HAL_LOCK(hi2c);
 800248e:	68fb      	ldr	r3, [r7, #12]
 8002490:	2240      	movs	r2, #64	; 0x40
 8002492:	5c9b      	ldrb	r3, [r3, r2]
 8002494:	2b01      	cmp	r3, #1
 8002496:	d101      	bne.n	800249c <HAL_I2C_Mem_Read+0x5c>
 8002498:	2302      	movs	r3, #2
 800249a:	e0fc      	b.n	8002696 <HAL_I2C_Mem_Read+0x256>
 800249c:	68fb      	ldr	r3, [r7, #12]
 800249e:	2240      	movs	r2, #64	; 0x40
 80024a0:	2101      	movs	r1, #1
 80024a2:	5499      	strb	r1, [r3, r2]

    /* Init tickstart for timeout management*/
    tickstart = HAL_GetTick();
 80024a4:	f7ff fa94 	bl	80019d0 <HAL_GetTick>
 80024a8:	0003      	movs	r3, r0
 80024aa:	617b      	str	r3, [r7, #20]

    if (I2C_WaitOnFlagUntilTimeout(hi2c, I2C_FLAG_BUSY, SET, I2C_TIMEOUT_BUSY, tickstart) != HAL_OK)
 80024ac:	2380      	movs	r3, #128	; 0x80
 80024ae:	0219      	lsls	r1, r3, #8
 80024b0:	68f8      	ldr	r0, [r7, #12]
 80024b2:	697b      	ldr	r3, [r7, #20]
 80024b4:	9300      	str	r3, [sp, #0]
 80024b6:	2319      	movs	r3, #25
 80024b8:	2201      	movs	r2, #1
 80024ba:	f000 f9dd 	bl	8002878 <I2C_WaitOnFlagUntilTimeout>
 80024be:	1e03      	subs	r3, r0, #0
 80024c0:	d001      	beq.n	80024c6 <HAL_I2C_Mem_Read+0x86>
    {
      return HAL_ERROR;
 80024c2:	2301      	movs	r3, #1
 80024c4:	e0e7      	b.n	8002696 <HAL_I2C_Mem_Read+0x256>
    }

    hi2c->State     = HAL_I2C_STATE_BUSY_RX;
 80024c6:	68fb      	ldr	r3, [r7, #12]
 80024c8:	2241      	movs	r2, #65	; 0x41
 80024ca:	2122      	movs	r1, #34	; 0x22
 80024cc:	5499      	strb	r1, [r3, r2]
    hi2c->Mode      = HAL_I2C_MODE_MEM;
 80024ce:	68fb      	ldr	r3, [r7, #12]
 80024d0:	2242      	movs	r2, #66	; 0x42
 80024d2:	2140      	movs	r1, #64	; 0x40
 80024d4:	5499      	strb	r1, [r3, r2]
    hi2c->ErrorCode = HAL_I2C_ERROR_NONE;
 80024d6:	68fb      	ldr	r3, [r7, #12]
 80024d8:	2200      	movs	r2, #0
 80024da:	645a      	str	r2, [r3, #68]	; 0x44

    /* Prepare transfer parameters */
    hi2c->pBuffPtr  = pData;
 80024dc:	68fb      	ldr	r3, [r7, #12]
 80024de:	6aba      	ldr	r2, [r7, #40]	; 0x28
 80024e0:	625a      	str	r2, [r3, #36]	; 0x24
    hi2c->XferCount = Size;
 80024e2:	68fb      	ldr	r3, [r7, #12]
 80024e4:	222c      	movs	r2, #44	; 0x2c
 80024e6:	18ba      	adds	r2, r7, r2
 80024e8:	8812      	ldrh	r2, [r2, #0]
 80024ea:	855a      	strh	r2, [r3, #42]	; 0x2a
    hi2c->XferISR   = NULL;
 80024ec:	68fb      	ldr	r3, [r7, #12]
 80024ee:	2200      	movs	r2, #0
 80024f0:	635a      	str	r2, [r3, #52]	; 0x34

    /* Send Slave Address and Memory Address */
    if (I2C_RequestMemoryRead(hi2c, DevAddress, MemAddress, MemAddSize, Timeout, tickstart) != HAL_OK)
 80024f2:	1dbb      	adds	r3, r7, #6
 80024f4:	881c      	ldrh	r4, [r3, #0]
 80024f6:	2308      	movs	r3, #8
 80024f8:	18fb      	adds	r3, r7, r3
 80024fa:	881a      	ldrh	r2, [r3, #0]
 80024fc:	230a      	movs	r3, #10
 80024fe:	18fb      	adds	r3, r7, r3
 8002500:	8819      	ldrh	r1, [r3, #0]
 8002502:	68f8      	ldr	r0, [r7, #12]
 8002504:	697b      	ldr	r3, [r7, #20]
 8002506:	9301      	str	r3, [sp, #4]
 8002508:	6b3b      	ldr	r3, [r7, #48]	; 0x30
 800250a:	9300      	str	r3, [sp, #0]
 800250c:	0023      	movs	r3, r4
 800250e:	f000 f92f 	bl	8002770 <I2C_RequestMemoryRead>
 8002512:	1e03      	subs	r3, r0, #0
 8002514:	d005      	beq.n	8002522 <HAL_I2C_Mem_Read+0xe2>
    {
      /* Process Unlocked */
      __HAL_UNLOCK(hi2c);
 8002516:	68fb      	ldr	r3, [r7, #12]
 8002518:	2240      	movs	r2, #64	; 0x40
 800251a:	2100      	movs	r1, #0
 800251c:	5499      	strb	r1, [r3, r2]
      return HAL_ERROR;
 800251e:	2301      	movs	r3, #1
 8002520:	e0b9      	b.n	8002696 <HAL_I2C_Mem_Read+0x256>
    }

    /* Send Slave Address */
    /* Set NBYTES to write and reload if hi2c->XferCount > MAX_NBYTE_SIZE and generate RESTART */
    if (hi2c->XferCount > MAX_NBYTE_SIZE)
 8002522:	68fb      	ldr	r3, [r7, #12]
 8002524:	8d5b      	ldrh	r3, [r3, #42]	; 0x2a
 8002526:	b29b      	uxth	r3, r3
 8002528:	2bff      	cmp	r3, #255	; 0xff
 800252a:	d911      	bls.n	8002550 <HAL_I2C_Mem_Read+0x110>
    {
      hi2c->XferSize = MAX_NBYTE_SIZE;
 800252c:	68fb      	ldr	r3, [r7, #12]
 800252e:	22ff      	movs	r2, #255	; 0xff
 8002530:	851a      	strh	r2, [r3, #40]	; 0x28
      I2C_TransferConfig(hi2c, DevAddress, (uint8_t)hi2c->XferSize, I2C_RELOAD_MODE,
 8002532:	68fb      	ldr	r3, [r7, #12]
 8002534:	8d1b      	ldrh	r3, [r3, #40]	; 0x28
 8002536:	b2da      	uxtb	r2, r3
 8002538:	2380      	movs	r3, #128	; 0x80
 800253a:	045c      	lsls	r4, r3, #17
 800253c:	230a      	movs	r3, #10
 800253e:	18fb      	adds	r3, r7, r3
 8002540:	8819      	ldrh	r1, [r3, #0]
 8002542:	68f8      	ldr	r0, [r7, #12]
 8002544:	4b56      	ldr	r3, [pc, #344]	; (80026a0 <HAL_I2C_Mem_Read+0x260>)
 8002546:	9300      	str	r3, [sp, #0]
 8002548:	0023      	movs	r3, r4
 800254a:	f000 fb4f 	bl	8002bec <I2C_TransferConfig>
 800254e:	e012      	b.n	8002576 <HAL_I2C_Mem_Read+0x136>
                         I2C_GENERATE_START_READ);
    }
    else
    {
      hi2c->XferSize = hi2c->XferCount;
 8002550:	68fb      	ldr	r3, [r7, #12]
 8002552:	8d5b      	ldrh	r3, [r3, #42]	; 0x2a
 8002554:	b29a      	uxth	r2, r3
 8002556:	68fb      	ldr	r3, [r7, #12]
 8002558:	851a      	strh	r2, [r3, #40]	; 0x28
      I2C_TransferConfig(hi2c, DevAddress, (uint8_t)hi2c->XferSize, I2C_AUTOEND_MODE,
 800255a:	68fb      	ldr	r3, [r7, #12]
 800255c:	8d1b      	ldrh	r3, [r3, #40]	; 0x28
 800255e:	b2da      	uxtb	r2, r3
 8002560:	2380      	movs	r3, #128	; 0x80
 8002562:	049c      	lsls	r4, r3, #18
 8002564:	230a      	movs	r3, #10
 8002566:	18fb      	adds	r3, r7, r3
 8002568:	8819      	ldrh	r1, [r3, #0]
 800256a:	68f8      	ldr	r0, [r7, #12]
 800256c:	4b4c      	ldr	r3, [pc, #304]	; (80026a0 <HAL_I2C_Mem_Read+0x260>)
 800256e:	9300      	str	r3, [sp, #0]
 8002570:	0023      	movs	r3, r4
 8002572:	f000 fb3b 	bl	8002bec <I2C_TransferConfig>
    }

    do
    {
      /* Wait until RXNE flag is set */
      if (I2C_WaitOnFlagUntilTimeout(hi2c, I2C_FLAG_RXNE, RESET, Timeout, tickstart) != HAL_OK)
 8002576:	6b3a      	ldr	r2, [r7, #48]	; 0x30
 8002578:	68f8      	ldr	r0, [r7, #12]
 800257a:	697b      	ldr	r3, [r7, #20]
 800257c:	9300      	str	r3, [sp, #0]
 800257e:	0013      	movs	r3, r2
 8002580:	2200      	movs	r2, #0
 8002582:	2104      	movs	r1, #4
 8002584:	f000 f978 	bl	8002878 <I2C_WaitOnFlagUntilTimeout>
 8002588:	1e03      	subs	r3, r0, #0
 800258a:	d001      	beq.n	8002590 <HAL_I2C_Mem_Read+0x150>
      {
        return HAL_ERROR;
 800258c:	2301      	movs	r3, #1
 800258e:	e082      	b.n	8002696 <HAL_I2C_Mem_Read+0x256>
      }

      /* Read data from RXDR */
      *hi2c->pBuffPtr = (uint8_t)hi2c->Instance->RXDR;
 8002590:	68fb      	ldr	r3, [r7, #12]
 8002592:	681b      	ldr	r3, [r3, #0]
 8002594:	6a5a      	ldr	r2, [r3, #36]	; 0x24
 8002596:	68fb      	ldr	r3, [r7, #12]
 8002598:	6a5b      	ldr	r3, [r3, #36]	; 0x24
 800259a:	b2d2      	uxtb	r2, r2
 800259c:	701a      	strb	r2, [r3, #0]

      /* Increment Buffer pointer */
      hi2c->pBuffPtr++;
 800259e:	68fb      	ldr	r3, [r7, #12]
 80025a0:	6a5b      	ldr	r3, [r3, #36]	; 0x24
 80025a2:	1c5a      	adds	r2, r3, #1
 80025a4:	68fb      	ldr	r3, [r7, #12]
 80025a6:	625a      	str	r2, [r3, #36]	; 0x24

      hi2c->XferSize--;
 80025a8:	68fb      	ldr	r3, [r7, #12]
 80025aa:	8d1b      	ldrh	r3, [r3, #40]	; 0x28
 80025ac:	3b01      	subs	r3, #1
 80025ae:	b29a      	uxth	r2, r3
 80025b0:	68fb      	ldr	r3, [r7, #12]
 80025b2:	851a      	strh	r2, [r3, #40]	; 0x28
      hi2c->XferCount--;
 80025b4:	68fb      	ldr	r3, [r7, #12]
 80025b6:	8d5b      	ldrh	r3, [r3, #42]	; 0x2a
 80025b8:	b29b      	uxth	r3, r3
 80025ba:	3b01      	subs	r3, #1
 80025bc:	b29a      	uxth	r2, r3
 80025be:	68fb      	ldr	r3, [r7, #12]
 80025c0:	855a      	strh	r2, [r3, #42]	; 0x2a

      if ((hi2c->XferCount != 0U) && (hi2c->XferSize == 0U))
 80025c2:	68fb      	ldr	r3, [r7, #12]
 80025c4:	8d5b      	ldrh	r3, [r3, #42]	; 0x2a
 80025c6:	b29b      	uxth	r3, r3
 80025c8:	2b00      	cmp	r3, #0
 80025ca:	d03a      	beq.n	8002642 <HAL_I2C_Mem_Read+0x202>
 80025cc:	68fb      	ldr	r3, [r7, #12]
 80025ce:	8d1b      	ldrh	r3, [r3, #40]	; 0x28
 80025d0:	2b00      	cmp	r3, #0
 80025d2:	d136      	bne.n	8002642 <HAL_I2C_Mem_Read+0x202>
      {
        /* Wait until TCR flag is set */
        if (I2C_WaitOnFlagUntilTimeout(hi2c, I2C_FLAG_TCR, RESET, Timeout, tickstart) != HAL_OK)
 80025d4:	6b3a      	ldr	r2, [r7, #48]	; 0x30
 80025d6:	68f8      	ldr	r0, [r7, #12]
 80025d8:	697b      	ldr	r3, [r7, #20]
 80025da:	9300      	str	r3, [sp, #0]
 80025dc:	0013      	movs	r3, r2
 80025de:	2200      	movs	r2, #0
 80025e0:	2180      	movs	r1, #128	; 0x80
 80025e2:	f000 f949 	bl	8002878 <I2C_WaitOnFlagUntilTimeout>
 80025e6:	1e03      	subs	r3, r0, #0
 80025e8:	d001      	beq.n	80025ee <HAL_I2C_Mem_Read+0x1ae>
        {
          return HAL_ERROR;
 80025ea:	2301      	movs	r3, #1
 80025ec:	e053      	b.n	8002696 <HAL_I2C_Mem_Read+0x256>
        }

        if (hi2c->XferCount > MAX_NBYTE_SIZE)
 80025ee:	68fb      	ldr	r3, [r7, #12]
 80025f0:	8d5b      	ldrh	r3, [r3, #42]	; 0x2a
 80025f2:	b29b      	uxth	r3, r3
 80025f4:	2bff      	cmp	r3, #255	; 0xff
 80025f6:	d911      	bls.n	800261c <HAL_I2C_Mem_Read+0x1dc>
        {
          hi2c->XferSize = MAX_NBYTE_SIZE;
 80025f8:	68fb      	ldr	r3, [r7, #12]
 80025fa:	22ff      	movs	r2, #255	; 0xff
 80025fc:	851a      	strh	r2, [r3, #40]	; 0x28
          I2C_TransferConfig(hi2c, DevAddress, (uint8_t) hi2c->XferSize, I2C_RELOAD_MODE,
 80025fe:	68fb      	ldr	r3, [r7, #12]
 8002600:	8d1b      	ldrh	r3, [r3, #40]	; 0x28
 8002602:	b2da      	uxtb	r2, r3
 8002604:	2380      	movs	r3, #128	; 0x80
 8002606:	045c      	lsls	r4, r3, #17
 8002608:	230a      	movs	r3, #10
 800260a:	18fb      	adds	r3, r7, r3
 800260c:	8819      	ldrh	r1, [r3, #0]
 800260e:	68f8      	ldr	r0, [r7, #12]
 8002610:	2300      	movs	r3, #0
 8002612:	9300      	str	r3, [sp, #0]
 8002614:	0023      	movs	r3, r4
 8002616:	f000 fae9 	bl	8002bec <I2C_TransferConfig>
 800261a:	e012      	b.n	8002642 <HAL_I2C_Mem_Read+0x202>
                             I2C_NO_STARTSTOP);
        }
        else
        {
          hi2c->XferSize = hi2c->XferCount;
 800261c:	68fb      	ldr	r3, [r7, #12]
 800261e:	8d5b      	ldrh	r3, [r3, #42]	; 0x2a
 8002620:	b29a      	uxth	r2, r3
 8002622:	68fb      	ldr	r3, [r7, #12]
 8002624:	851a      	strh	r2, [r3, #40]	; 0x28
          I2C_TransferConfig(hi2c, DevAddress, (uint8_t)hi2c->XferSize, I2C_AUTOEND_MODE,
 8002626:	68fb      	ldr	r3, [r7, #12]
 8002628:	8d1b      	ldrh	r3, [r3, #40]	; 0x28
 800262a:	b2da      	uxtb	r2, r3
 800262c:	2380      	movs	r3, #128	; 0x80
 800262e:	049c      	lsls	r4, r3, #18
 8002630:	230a      	movs	r3, #10
 8002632:	18fb      	adds	r3, r7, r3
 8002634:	8819      	ldrh	r1, [r3, #0]
 8002636:	68f8      	ldr	r0, [r7, #12]
 8002638:	2300      	movs	r3, #0
 800263a:	9300      	str	r3, [sp, #0]
 800263c:	0023      	movs	r3, r4
 800263e:	f000 fad5 	bl	8002bec <I2C_TransferConfig>
                             I2C_NO_STARTSTOP);
        }
      }
    } while (hi2c->XferCount > 0U);
 8002642:	68fb      	ldr	r3, [r7, #12]
 8002644:	8d5b      	ldrh	r3, [r3, #42]	; 0x2a
 8002646:	b29b      	uxth	r3, r3
 8002648:	2b00      	cmp	r3, #0
 800264a:	d194      	bne.n	8002576 <HAL_I2C_Mem_Read+0x136>

    /* No need to Check TC flag, with AUTOEND mode the stop is automatically generated */
    /* Wait until STOPF flag is reset */
    if (I2C_WaitOnSTOPFlagUntilTimeout(hi2c, Timeout, tickstart) != HAL_OK)
 800264c:	697a      	ldr	r2, [r7, #20]
 800264e:	6b39      	ldr	r1, [r7, #48]	; 0x30
 8002650:	68fb      	ldr	r3, [r7, #12]
 8002652:	0018      	movs	r0, r3
 8002654:	f000 f98e 	bl	8002974 <I2C_WaitOnSTOPFlagUntilTimeout>
 8002658:	1e03      	subs	r3, r0, #0
 800265a:	d001      	beq.n	8002660 <HAL_I2C_Mem_Read+0x220>
    {
      return HAL_ERROR;
 800265c:	2301      	movs	r3, #1
 800265e:	e01a      	b.n	8002696 <HAL_I2C_Mem_Read+0x256>
    }

    /* Clear STOP Flag */
    __HAL_I2C_CLEAR_FLAG(hi2c, I2C_FLAG_STOPF);
 8002660:	68fb      	ldr	r3, [r7, #12]
 8002662:	681b      	ldr	r3, [r3, #0]
 8002664:	2220      	movs	r2, #32
 8002666:	61da      	str	r2, [r3, #28]

    /* Clear Configuration Register 2 */
    I2C_RESET_CR2(hi2c);
 8002668:	68fb      	ldr	r3, [r7, #12]
 800266a:	681b      	ldr	r3, [r3, #0]
 800266c:	685a      	ldr	r2, [r3, #4]
 800266e:	68fb      	ldr	r3, [r7, #12]
 8002670:	681b      	ldr	r3, [r3, #0]
 8002672:	490c      	ldr	r1, [pc, #48]	; (80026a4 <HAL_I2C_Mem_Read+0x264>)
 8002674:	400a      	ands	r2, r1
 8002676:	605a      	str	r2, [r3, #4]

    hi2c->State = HAL_I2C_STATE_READY;
 8002678:	68fb      	ldr	r3, [r7, #12]
 800267a:	2241      	movs	r2, #65	; 0x41
 800267c:	2120      	movs	r1, #32
 800267e:	5499      	strb	r1, [r3, r2]
    hi2c->Mode  = HAL_I2C_MODE_NONE;
 8002680:	68fb      	ldr	r3, [r7, #12]
 8002682:	2242      	movs	r2, #66	; 0x42
 8002684:	2100      	movs	r1, #0
 8002686:	5499      	strb	r1, [r3, r2]

    /* Process Unlocked */
    __HAL_UNLOCK(hi2c);
 8002688:	68fb      	ldr	r3, [r7, #12]
 800268a:	2240      	movs	r2, #64	; 0x40
 800268c:	2100      	movs	r1, #0
 800268e:	5499      	strb	r1, [r3, r2]

    return HAL_OK;
 8002690:	2300      	movs	r3, #0
 8002692:	e000      	b.n	8002696 <HAL_I2C_Mem_Read+0x256>
  }
  else
  {
    return HAL_BUSY;
 8002694:	2302      	movs	r3, #2
  }
}
 8002696:	0018      	movs	r0, r3
 8002698:	46bd      	mov	sp, r7
 800269a:	b007      	add	sp, #28
 800269c:	bd90      	pop	{r4, r7, pc}
 800269e:	46c0      	nop			; (mov r8, r8)
 80026a0:	80002400 	.word	0x80002400
 80026a4:	fe00e800 	.word	0xfe00e800

080026a8 <I2C_RequestMemoryWrite>:
  * @retval HAL status
  */
static HAL_StatusTypeDef I2C_RequestMemoryWrite(I2C_HandleTypeDef *hi2c, uint16_t DevAddress,
                                                uint16_t MemAddress, uint16_t MemAddSize, uint32_t Timeout,
                                                uint32_t Tickstart)
{
 80026a8:	b5b0      	push	{r4, r5, r7, lr}
 80026aa:	b086      	sub	sp, #24
 80026ac:	af02      	add	r7, sp, #8
 80026ae:	60f8      	str	r0, [r7, #12]
 80026b0:	000c      	movs	r4, r1
 80026b2:	0010      	movs	r0, r2
 80026b4:	0019      	movs	r1, r3
 80026b6:	250a      	movs	r5, #10
 80026b8:	197b      	adds	r3, r7, r5
 80026ba:	1c22      	adds	r2, r4, #0
 80026bc:	801a      	strh	r2, [r3, #0]
 80026be:	2308      	movs	r3, #8
 80026c0:	18fb      	adds	r3, r7, r3
 80026c2:	1c02      	adds	r2, r0, #0
 80026c4:	801a      	strh	r2, [r3, #0]
 80026c6:	1dbb      	adds	r3, r7, #6
 80026c8:	1c0a      	adds	r2, r1, #0
 80026ca:	801a      	strh	r2, [r3, #0]
  I2C_TransferConfig(hi2c, DevAddress, (uint8_t)MemAddSize, I2C_RELOAD_MODE, I2C_GENERATE_START_WRITE);
 80026cc:	1dbb      	adds	r3, r7, #6
 80026ce:	881b      	ldrh	r3, [r3, #0]
 80026d0:	b2da      	uxtb	r2, r3
 80026d2:	2380      	movs	r3, #128	; 0x80
 80026d4:	045c      	lsls	r4, r3, #17
 80026d6:	197b      	adds	r3, r7, r5
 80026d8:	8819      	ldrh	r1, [r3, #0]
 80026da:	68f8      	ldr	r0, [r7, #12]
 80026dc:	4b23      	ldr	r3, [pc, #140]	; (800276c <I2C_RequestMemoryWrite+0xc4>)
 80026de:	9300      	str	r3, [sp, #0]
 80026e0:	0023      	movs	r3, r4
 80026e2:	f000 fa83 	bl	8002bec <I2C_TransferConfig>

  /* Wait until TXIS flag is set */
  if (I2C_WaitOnTXISFlagUntilTimeout(hi2c, Timeout, Tickstart) != HAL_OK)
 80026e6:	6a7a      	ldr	r2, [r7, #36]	; 0x24
 80026e8:	6a39      	ldr	r1, [r7, #32]
 80026ea:	68fb      	ldr	r3, [r7, #12]
 80026ec:	0018      	movs	r0, r3
 80026ee:	f000 f902 	bl	80028f6 <I2C_WaitOnTXISFlagUntilTimeout>
 80026f2:	1e03      	subs	r3, r0, #0
 80026f4:	d001      	beq.n	80026fa <I2C_RequestMemoryWrite+0x52>
  {
    return HAL_ERROR;
 80026f6:	2301      	movs	r3, #1
 80026f8:	e033      	b.n	8002762 <I2C_RequestMemoryWrite+0xba>
  }

  /* If Memory address size is 8Bit */
  if (MemAddSize == I2C_MEMADD_SIZE_8BIT)
 80026fa:	1dbb      	adds	r3, r7, #6
 80026fc:	881b      	ldrh	r3, [r3, #0]
 80026fe:	2b01      	cmp	r3, #1
 8002700:	d107      	bne.n	8002712 <I2C_RequestMemoryWrite+0x6a>
  {
    /* Send Memory Address */
    hi2c->Instance->TXDR = I2C_MEM_ADD_LSB(MemAddress);
 8002702:	2308      	movs	r3, #8
 8002704:	18fb      	adds	r3, r7, r3
 8002706:	881b      	ldrh	r3, [r3, #0]
 8002708:	b2da      	uxtb	r2, r3
 800270a:	68fb      	ldr	r3, [r7, #12]
 800270c:	681b      	ldr	r3, [r3, #0]
 800270e:	629a      	str	r2, [r3, #40]	; 0x28
 8002710:	e019      	b.n	8002746 <I2C_RequestMemoryWrite+0x9e>
  }
  /* If Memory address size is 16Bit */
  else
  {
    /* Send MSB of Memory Address */
    hi2c->Instance->TXDR = I2C_MEM_ADD_MSB(MemAddress);
 8002712:	2308      	movs	r3, #8
 8002714:	18fb      	adds	r3, r7, r3
 8002716:	881b      	ldrh	r3, [r3, #0]
 8002718:	0a1b      	lsrs	r3, r3, #8
 800271a:	b29b      	uxth	r3, r3
 800271c:	b2da      	uxtb	r2, r3
 800271e:	68fb      	ldr	r3, [r7, #12]
 8002720:	681b      	ldr	r3, [r3, #0]
 8002722:	629a      	str	r2, [r3, #40]	; 0x28

    /* Wait until TXIS flag is set */
    if (I2C_WaitOnTXISFlagUntilTimeout(hi2c, Timeout, Tickstart) != HAL_OK)
 8002724:	6a7a      	ldr	r2, [r7, #36]	; 0x24
 8002726:	6a39      	ldr	r1, [r7, #32]
 8002728:	68fb      	ldr	r3, [r7, #12]
 800272a:	0018      	movs	r0, r3
 800272c:	f000 f8e3 	bl	80028f6 <I2C_WaitOnTXISFlagUntilTimeout>
 8002730:	1e03      	subs	r3, r0, #0
 8002732:	d001      	beq.n	8002738 <I2C_RequestMemoryWrite+0x90>
    {
      return HAL_ERROR;
 8002734:	2301      	movs	r3, #1
 8002736:	e014      	b.n	8002762 <I2C_RequestMemoryWrite+0xba>
    }

    /* Send LSB of Memory Address */
    hi2c->Instance->TXDR = I2C_MEM_ADD_LSB(MemAddress);
 8002738:	2308      	movs	r3, #8
 800273a:	18fb      	adds	r3, r7, r3
 800273c:	881b      	ldrh	r3, [r3, #0]
 800273e:	b2da      	uxtb	r2, r3
 8002740:	68fb      	ldr	r3, [r7, #12]
 8002742:	681b      	ldr	r3, [r3, #0]
 8002744:	629a      	str	r2, [r3, #40]	; 0x28
  }

  /* Wait until TCR flag is set */
  if (I2C_WaitOnFlagUntilTimeout(hi2c, I2C_FLAG_TCR, RESET, Timeout, Tickstart) != HAL_OK)
 8002746:	6a3a      	ldr	r2, [r7, #32]
 8002748:	68f8      	ldr	r0, [r7, #12]
 800274a:	6a7b      	ldr	r3, [r7, #36]	; 0x24
 800274c:	9300      	str	r3, [sp, #0]
 800274e:	0013      	movs	r3, r2
 8002750:	2200      	movs	r2, #0
 8002752:	2180      	movs	r1, #128	; 0x80
 8002754:	f000 f890 	bl	8002878 <I2C_WaitOnFlagUntilTimeout>
 8002758:	1e03      	subs	r3, r0, #0
 800275a:	d001      	beq.n	8002760 <I2C_RequestMemoryWrite+0xb8>
  {
    return HAL_ERROR;
 800275c:	2301      	movs	r3, #1
 800275e:	e000      	b.n	8002762 <I2C_RequestMemoryWrite+0xba>
  }

  return HAL_OK;
 8002760:	2300      	movs	r3, #0
}
 8002762:	0018      	movs	r0, r3
 8002764:	46bd      	mov	sp, r7
 8002766:	b004      	add	sp, #16
 8002768:	bdb0      	pop	{r4, r5, r7, pc}
 800276a:	46c0      	nop			; (mov r8, r8)
 800276c:	80002000 	.word	0x80002000

08002770 <I2C_RequestMemoryRead>:
  * @retval HAL status
  */
static HAL_StatusTypeDef I2C_RequestMemoryRead(I2C_HandleTypeDef *hi2c, uint16_t DevAddress,
                                               uint16_t MemAddress, uint16_t MemAddSize, uint32_t Timeout,
                                               uint32_t Tickstart)
{
 8002770:	b5b0      	push	{r4, r5, r7, lr}
 8002772:	b086      	sub	sp, #24
 8002774:	af02      	add	r7, sp, #8
 8002776:	60f8      	str	r0, [r7, #12]
 8002778:	000c      	movs	r4, r1
 800277a:	0010      	movs	r0, r2
 800277c:	0019      	movs	r1, r3
 800277e:	250a      	movs	r5, #10
 8002780:	197b      	adds	r3, r7, r5
 8002782:	1c22      	adds	r2, r4, #0
 8002784:	801a      	strh	r2, [r3, #0]
 8002786:	2308      	movs	r3, #8
 8002788:	18fb      	adds	r3, r7, r3
 800278a:	1c02      	adds	r2, r0, #0
 800278c:	801a      	strh	r2, [r3, #0]
 800278e:	1dbb      	adds	r3, r7, #6
 8002790:	1c0a      	adds	r2, r1, #0
 8002792:	801a      	strh	r2, [r3, #0]
  I2C_TransferConfig(hi2c, DevAddress, (uint8_t)MemAddSize, I2C_SOFTEND_MODE, I2C_GENERATE_START_WRITE);
 8002794:	1dbb      	adds	r3, r7, #6
 8002796:	881b      	ldrh	r3, [r3, #0]
 8002798:	b2da      	uxtb	r2, r3
 800279a:	197b      	adds	r3, r7, r5
 800279c:	8819      	ldrh	r1, [r3, #0]
 800279e:	68f8      	ldr	r0, [r7, #12]
 80027a0:	4b23      	ldr	r3, [pc, #140]	; (8002830 <I2C_RequestMemoryRead+0xc0>)
 80027a2:	9300      	str	r3, [sp, #0]
 80027a4:	2300      	movs	r3, #0
 80027a6:	f000 fa21 	bl	8002bec <I2C_TransferConfig>

  /* Wait until TXIS flag is set */
  if (I2C_WaitOnTXISFlagUntilTimeout(hi2c, Timeout, Tickstart) != HAL_OK)
 80027aa:	6a7a      	ldr	r2, [r7, #36]	; 0x24
 80027ac:	6a39      	ldr	r1, [r7, #32]
 80027ae:	68fb      	ldr	r3, [r7, #12]
 80027b0:	0018      	movs	r0, r3
 80027b2:	f000 f8a0 	bl	80028f6 <I2C_WaitOnTXISFlagUntilTimeout>
 80027b6:	1e03      	subs	r3, r0, #0
 80027b8:	d001      	beq.n	80027be <I2C_RequestMemoryRead+0x4e>
  {
    return HAL_ERROR;
 80027ba:	2301      	movs	r3, #1
 80027bc:	e033      	b.n	8002826 <I2C_RequestMemoryRead+0xb6>
  }

  /* If Memory address size is 8Bit */
  if (MemAddSize == I2C_MEMADD_SIZE_8BIT)
 80027be:	1dbb      	adds	r3, r7, #6
 80027c0:	881b      	ldrh	r3, [r3, #0]
 80027c2:	2b01      	cmp	r3, #1
 80027c4:	d107      	bne.n	80027d6 <I2C_RequestMemoryRead+0x66>
  {
    /* Send Memory Address */
    hi2c->Instance->TXDR = I2C_MEM_ADD_LSB(MemAddress);
 80027c6:	2308      	movs	r3, #8
 80027c8:	18fb      	adds	r3, r7, r3
 80027ca:	881b      	ldrh	r3, [r3, #0]
 80027cc:	b2da      	uxtb	r2, r3
 80027ce:	68fb      	ldr	r3, [r7, #12]
 80027d0:	681b      	ldr	r3, [r3, #0]
 80027d2:	629a      	str	r2, [r3, #40]	; 0x28
 80027d4:	e019      	b.n	800280a <I2C_RequestMemoryRead+0x9a>
  }
  /* If Memory address size is 16Bit */
  else
  {
    /* Send MSB of Memory Address */
    hi2c->Instance->TXDR = I2C_MEM_ADD_MSB(MemAddress);
 80027d6:	2308      	movs	r3, #8
 80027d8:	18fb      	adds	r3, r7, r3
 80027da:	881b      	ldrh	r3, [r3, #0]
 80027dc:	0a1b      	lsrs	r3, r3, #8
 80027de:	b29b      	uxth	r3, r3
 80027e0:	b2da      	uxtb	r2, r3
 80027e2:	68fb      	ldr	r3, [r7, #12]
 80027e4:	681b      	ldr	r3, [r3, #0]
 80027e6:	629a      	str	r2, [r3, #40]	; 0x28

    /* Wait until TXIS flag is set */
    if (I2C_WaitOnTXISFlagUntilTimeout(hi2c, Timeout, Tickstart) != HAL_OK)
 80027e8:	6a7a      	ldr	r2, [r7, #36]	; 0x24
 80027ea:	6a39      	ldr	r1, [r7, #32]
 80027ec:	68fb      	ldr	r3, [r7, #12]
 80027ee:	0018      	movs	r0, r3
 80027f0:	f000 f881 	bl	80028f6 <I2C_WaitOnTXISFlagUntilTimeout>
 80027f4:	1e03      	subs	r3, r0, #0
 80027f6:	d001      	beq.n	80027fc <I2C_RequestMemoryRead+0x8c>
    {
      return HAL_ERROR;
 80027f8:	2301      	movs	r3, #1
 80027fa:	e014      	b.n	8002826 <I2C_RequestMemoryRead+0xb6>
    }

    /* Send LSB of Memory Address */
    hi2c->Instance->TXDR = I2C_MEM_ADD_LSB(MemAddress);
 80027fc:	2308      	movs	r3, #8
 80027fe:	18fb      	adds	r3, r7, r3
 8002800:	881b      	ldrh	r3, [r3, #0]
 8002802:	b2da      	uxtb	r2, r3
 8002804:	68fb      	ldr	r3, [r7, #12]
 8002806:	681b      	ldr	r3, [r3, #0]
 8002808:	629a      	str	r2, [r3, #40]	; 0x28
  }

  /* Wait until TC flag is set */
  if (I2C_WaitOnFlagUntilTimeout(hi2c, I2C_FLAG_TC, RESET, Timeout, Tickstart) != HAL_OK)
 800280a:	6a3a      	ldr	r2, [r7, #32]
 800280c:	68f8      	ldr	r0, [r7, #12]
 800280e:	6a7b      	ldr	r3, [r7, #36]	; 0x24
 8002810:	9300      	str	r3, [sp, #0]
 8002812:	0013      	movs	r3, r2
 8002814:	2200      	movs	r2, #0
 8002816:	2140      	movs	r1, #64	; 0x40
 8002818:	f000 f82e 	bl	8002878 <I2C_WaitOnFlagUntilTimeout>
 800281c:	1e03      	subs	r3, r0, #0
 800281e:	d001      	beq.n	8002824 <I2C_RequestMemoryRead+0xb4>
  {
    return HAL_ERROR;
 8002820:	2301      	movs	r3, #1
 8002822:	e000      	b.n	8002826 <I2C_RequestMemoryRead+0xb6>
  }

  return HAL_OK;
 8002824:	2300      	movs	r3, #0
}
 8002826:	0018      	movs	r0, r3
 8002828:	46bd      	mov	sp, r7
 800282a:	b004      	add	sp, #16
 800282c:	bdb0      	pop	{r4, r5, r7, pc}
 800282e:	46c0      	nop			; (mov r8, r8)
 8002830:	80002000 	.word	0x80002000

08002834 <I2C_Flush_TXDR>:
  * @brief  I2C Tx data register flush process.
  * @param  hi2c I2C handle.
  * @retval None
  */
static void I2C_Flush_TXDR(I2C_HandleTypeDef *hi2c)
{
 8002834:	b580      	push	{r7, lr}
 8002836:	b082      	sub	sp, #8
 8002838:	af00      	add	r7, sp, #0
 800283a:	6078      	str	r0, [r7, #4]
  /* If a pending TXIS flag is set */
  /* Write a dummy data in TXDR to clear it */
  if (__HAL_I2C_GET_FLAG(hi2c, I2C_FLAG_TXIS) != RESET)
 800283c:	687b      	ldr	r3, [r7, #4]
 800283e:	681b      	ldr	r3, [r3, #0]
 8002840:	699b      	ldr	r3, [r3, #24]
 8002842:	2202      	movs	r2, #2
 8002844:	4013      	ands	r3, r2
 8002846:	2b02      	cmp	r3, #2
 8002848:	d103      	bne.n	8002852 <I2C_Flush_TXDR+0x1e>
  {
    hi2c->Instance->TXDR = 0x00U;
 800284a:	687b      	ldr	r3, [r7, #4]
 800284c:	681b      	ldr	r3, [r3, #0]
 800284e:	2200      	movs	r2, #0
 8002850:	629a      	str	r2, [r3, #40]	; 0x28
  }

  /* Flush TX register if not empty */
  if (__HAL_I2C_GET_FLAG(hi2c, I2C_FLAG_TXE) == RESET)
 8002852:	687b      	ldr	r3, [r7, #4]
 8002854:	681b      	ldr	r3, [r3, #0]
 8002856:	699b      	ldr	r3, [r3, #24]
 8002858:	2201      	movs	r2, #1
 800285a:	4013      	ands	r3, r2
 800285c:	2b01      	cmp	r3, #1
 800285e:	d007      	beq.n	8002870 <I2C_Flush_TXDR+0x3c>
  {
    __HAL_I2C_CLEAR_FLAG(hi2c, I2C_FLAG_TXE);
 8002860:	687b      	ldr	r3, [r7, #4]
 8002862:	681b      	ldr	r3, [r3, #0]
 8002864:	699a      	ldr	r2, [r3, #24]
 8002866:	687b      	ldr	r3, [r7, #4]
 8002868:	681b      	ldr	r3, [r3, #0]
 800286a:	2101      	movs	r1, #1
 800286c:	430a      	orrs	r2, r1
 800286e:	619a      	str	r2, [r3, #24]
  }
}
 8002870:	46c0      	nop			; (mov r8, r8)
 8002872:	46bd      	mov	sp, r7
 8002874:	b002      	add	sp, #8
 8002876:	bd80      	pop	{r7, pc}

08002878 <I2C_WaitOnFlagUntilTimeout>:
  * @param  Tickstart Tick start value
  * @retval HAL status
  */
static HAL_StatusTypeDef I2C_WaitOnFlagUntilTimeout(I2C_HandleTypeDef *hi2c, uint32_t Flag, FlagStatus Status,
                                                    uint32_t Timeout, uint32_t Tickstart)
{
 8002878:	b580      	push	{r7, lr}
 800287a:	b084      	sub	sp, #16
 800287c:	af00      	add	r7, sp, #0
 800287e:	60f8      	str	r0, [r7, #12]
 8002880:	60b9      	str	r1, [r7, #8]
 8002882:	603b      	str	r3, [r7, #0]
 8002884:	1dfb      	adds	r3, r7, #7
 8002886:	701a      	strb	r2, [r3, #0]
  while (__HAL_I2C_GET_FLAG(hi2c, Flag) == Status)
 8002888:	e021      	b.n	80028ce <I2C_WaitOnFlagUntilTimeout+0x56>
  {
    /* Check for the Timeout */
    if (Timeout != HAL_MAX_DELAY)
 800288a:	683b      	ldr	r3, [r7, #0]
 800288c:	3301      	adds	r3, #1
 800288e:	d01e      	beq.n	80028ce <I2C_WaitOnFlagUntilTimeout+0x56>
    {
      if (((HAL_GetTick() - Tickstart) > Timeout) || (Timeout == 0U))
 8002890:	f7ff f89e 	bl	80019d0 <HAL_GetTick>
 8002894:	0002      	movs	r2, r0
 8002896:	69bb      	ldr	r3, [r7, #24]
 8002898:	1ad3      	subs	r3, r2, r3
 800289a:	683a      	ldr	r2, [r7, #0]
 800289c:	429a      	cmp	r2, r3
 800289e:	d302      	bcc.n	80028a6 <I2C_WaitOnFlagUntilTimeout+0x2e>
 80028a0:	683b      	ldr	r3, [r7, #0]
 80028a2:	2b00      	cmp	r3, #0
 80028a4:	d113      	bne.n	80028ce <I2C_WaitOnFlagUntilTimeout+0x56>
      {
        hi2c->ErrorCode |= HAL_I2C_ERROR_TIMEOUT;
 80028a6:	68fb      	ldr	r3, [r7, #12]
 80028a8:	6c5b      	ldr	r3, [r3, #68]	; 0x44
 80028aa:	2220      	movs	r2, #32
 80028ac:	431a      	orrs	r2, r3
 80028ae:	68fb      	ldr	r3, [r7, #12]
 80028b0:	645a      	str	r2, [r3, #68]	; 0x44
        hi2c->State = HAL_I2C_STATE_READY;
 80028b2:	68fb      	ldr	r3, [r7, #12]
 80028b4:	2241      	movs	r2, #65	; 0x41
 80028b6:	2120      	movs	r1, #32
 80028b8:	5499      	strb	r1, [r3, r2]
        hi2c->Mode = HAL_I2C_MODE_NONE;
 80028ba:	68fb      	ldr	r3, [r7, #12]
 80028bc:	2242      	movs	r2, #66	; 0x42
 80028be:	2100      	movs	r1, #0
 80028c0:	5499      	strb	r1, [r3, r2]

        /* Process Unlocked */
        __HAL_UNLOCK(hi2c);
 80028c2:	68fb      	ldr	r3, [r7, #12]
 80028c4:	2240      	movs	r2, #64	; 0x40
 80028c6:	2100      	movs	r1, #0
 80028c8:	5499      	strb	r1, [r3, r2]
        return HAL_ERROR;
 80028ca:	2301      	movs	r3, #1
 80028cc:	e00f      	b.n	80028ee <I2C_WaitOnFlagUntilTimeout+0x76>
  while (__HAL_I2C_GET_FLAG(hi2c, Flag) == Status)
 80028ce:	68fb      	ldr	r3, [r7, #12]
 80028d0:	681b      	ldr	r3, [r3, #0]
 80028d2:	699b      	ldr	r3, [r3, #24]
 80028d4:	68ba      	ldr	r2, [r7, #8]
 80028d6:	4013      	ands	r3, r2
 80028d8:	68ba      	ldr	r2, [r7, #8]
 80028da:	1ad3      	subs	r3, r2, r3
 80028dc:	425a      	negs	r2, r3
 80028de:	4153      	adcs	r3, r2
 80028e0:	b2db      	uxtb	r3, r3
 80028e2:	001a      	movs	r2, r3
 80028e4:	1dfb      	adds	r3, r7, #7
 80028e6:	781b      	ldrb	r3, [r3, #0]
 80028e8:	429a      	cmp	r2, r3
 80028ea:	d0ce      	beq.n	800288a <I2C_WaitOnFlagUntilTimeout+0x12>
      }
    }
  }
  return HAL_OK;
 80028ec:	2300      	movs	r3, #0
}
 80028ee:	0018      	movs	r0, r3
 80028f0:	46bd      	mov	sp, r7
 80028f2:	b004      	add	sp, #16
 80028f4:	bd80      	pop	{r7, pc}

080028f6 <I2C_WaitOnTXISFlagUntilTimeout>:
  * @param  Tickstart Tick start value
  * @retval HAL status
  */
static HAL_StatusTypeDef I2C_WaitOnTXISFlagUntilTimeout(I2C_HandleTypeDef *hi2c, uint32_t Timeout,
                                                        uint32_t Tickstart)
{
 80028f6:	b580      	push	{r7, lr}
 80028f8:	b084      	sub	sp, #16
 80028fa:	af00      	add	r7, sp, #0
 80028fc:	60f8      	str	r0, [r7, #12]
 80028fe:	60b9      	str	r1, [r7, #8]
 8002900:	607a      	str	r2, [r7, #4]
  while (__HAL_I2C_GET_FLAG(hi2c, I2C_FLAG_TXIS) == RESET)
 8002902:	e02b      	b.n	800295c <I2C_WaitOnTXISFlagUntilTimeout+0x66>
  {
    /* Check if an error is detected */
    if (I2C_IsErrorOccurred(hi2c, Timeout, Tickstart) != HAL_OK)
 8002904:	687a      	ldr	r2, [r7, #4]
 8002906:	68b9      	ldr	r1, [r7, #8]
 8002908:	68fb      	ldr	r3, [r7, #12]
 800290a:	0018      	movs	r0, r3
 800290c:	f000 f86e 	bl	80029ec <I2C_IsErrorOccurred>
 8002910:	1e03      	subs	r3, r0, #0
 8002912:	d001      	beq.n	8002918 <I2C_WaitOnTXISFlagUntilTimeout+0x22>
    {
      return HAL_ERROR;
 8002914:	2301      	movs	r3, #1
 8002916:	e029      	b.n	800296c <I2C_WaitOnTXISFlagUntilTimeout+0x76>
    }

    /* Check for the Timeout */
    if (Timeout != HAL_MAX_DELAY)
 8002918:	68bb      	ldr	r3, [r7, #8]
 800291a:	3301      	adds	r3, #1
 800291c:	d01e      	beq.n	800295c <I2C_WaitOnTXISFlagUntilTimeout+0x66>
    {
      if (((HAL_GetTick() - Tickstart) > Timeout) || (Timeout == 0U))
 800291e:	f7ff f857 	bl	80019d0 <HAL_GetTick>
 8002922:	0002      	movs	r2, r0
 8002924:	687b      	ldr	r3, [r7, #4]
 8002926:	1ad3      	subs	r3, r2, r3
 8002928:	68ba      	ldr	r2, [r7, #8]
 800292a:	429a      	cmp	r2, r3
 800292c:	d302      	bcc.n	8002934 <I2C_WaitOnTXISFlagUntilTimeout+0x3e>
 800292e:	68bb      	ldr	r3, [r7, #8]
 8002930:	2b00      	cmp	r3, #0
 8002932:	d113      	bne.n	800295c <I2C_WaitOnTXISFlagUntilTimeout+0x66>
      {
        hi2c->ErrorCode |= HAL_I2C_ERROR_TIMEOUT;
 8002934:	68fb      	ldr	r3, [r7, #12]
 8002936:	6c5b      	ldr	r3, [r3, #68]	; 0x44
 8002938:	2220      	movs	r2, #32
 800293a:	431a      	orrs	r2, r3
 800293c:	68fb      	ldr	r3, [r7, #12]
 800293e:	645a      	str	r2, [r3, #68]	; 0x44
        hi2c->State = HAL_I2C_STATE_READY;
 8002940:	68fb      	ldr	r3, [r7, #12]
 8002942:	2241      	movs	r2, #65	; 0x41
 8002944:	2120      	movs	r1, #32
 8002946:	5499      	strb	r1, [r3, r2]
        hi2c->Mode = HAL_I2C_MODE_NONE;
 8002948:	68fb      	ldr	r3, [r7, #12]
 800294a:	2242      	movs	r2, #66	; 0x42
 800294c:	2100      	movs	r1, #0
 800294e:	5499      	strb	r1, [r3, r2]

        /* Process Unlocked */
        __HAL_UNLOCK(hi2c);
 8002950:	68fb      	ldr	r3, [r7, #12]
 8002952:	2240      	movs	r2, #64	; 0x40
 8002954:	2100      	movs	r1, #0
 8002956:	5499      	strb	r1, [r3, r2]

        return HAL_ERROR;
 8002958:	2301      	movs	r3, #1
 800295a:	e007      	b.n	800296c <I2C_WaitOnTXISFlagUntilTimeout+0x76>
  while (__HAL_I2C_GET_FLAG(hi2c, I2C_FLAG_TXIS) == RESET)
 800295c:	68fb      	ldr	r3, [r7, #12]
 800295e:	681b      	ldr	r3, [r3, #0]
 8002960:	699b      	ldr	r3, [r3, #24]
 8002962:	2202      	movs	r2, #2
 8002964:	4013      	ands	r3, r2
 8002966:	2b02      	cmp	r3, #2
 8002968:	d1cc      	bne.n	8002904 <I2C_WaitOnTXISFlagUntilTimeout+0xe>
      }
    }
  }
  return HAL_OK;
 800296a:	2300      	movs	r3, #0
}
 800296c:	0018      	movs	r0, r3
 800296e:	46bd      	mov	sp, r7
 8002970:	b004      	add	sp, #16
 8002972:	bd80      	pop	{r7, pc}

08002974 <I2C_WaitOnSTOPFlagUntilTimeout>:
  * @param  Tickstart Tick start value
  * @retval HAL status
  */
static HAL_StatusTypeDef I2C_WaitOnSTOPFlagUntilTimeout(I2C_HandleTypeDef *hi2c, uint32_t Timeout,
                                                        uint32_t Tickstart)
{
 8002974:	b580      	push	{r7, lr}
 8002976:	b084      	sub	sp, #16
 8002978:	af00      	add	r7, sp, #0
 800297a:	60f8      	str	r0, [r7, #12]
 800297c:	60b9      	str	r1, [r7, #8]
 800297e:	607a      	str	r2, [r7, #4]
  while (__HAL_I2C_GET_FLAG(hi2c, I2C_FLAG_STOPF) == RESET)
 8002980:	e028      	b.n	80029d4 <I2C_WaitOnSTOPFlagUntilTimeout+0x60>
  {
    /* Check if an error is detected */
    if (I2C_IsErrorOccurred(hi2c, Timeout, Tickstart) != HAL_OK)
 8002982:	687a      	ldr	r2, [r7, #4]
 8002984:	68b9      	ldr	r1, [r7, #8]
 8002986:	68fb      	ldr	r3, [r7, #12]
 8002988:	0018      	movs	r0, r3
 800298a:	f000 f82f 	bl	80029ec <I2C_IsErrorOccurred>
 800298e:	1e03      	subs	r3, r0, #0
 8002990:	d001      	beq.n	8002996 <I2C_WaitOnSTOPFlagUntilTimeout+0x22>
    {
      return HAL_ERROR;
 8002992:	2301      	movs	r3, #1
 8002994:	e026      	b.n	80029e4 <I2C_WaitOnSTOPFlagUntilTimeout+0x70>
    }

    /* Check for the Timeout */
    if (((HAL_GetTick() - Tickstart) > Timeout) || (Timeout == 0U))
 8002996:	f7ff f81b 	bl	80019d0 <HAL_GetTick>
 800299a:	0002      	movs	r2, r0
 800299c:	687b      	ldr	r3, [r7, #4]
 800299e:	1ad3      	subs	r3, r2, r3
 80029a0:	68ba      	ldr	r2, [r7, #8]
 80029a2:	429a      	cmp	r2, r3
 80029a4:	d302      	bcc.n	80029ac <I2C_WaitOnSTOPFlagUntilTimeout+0x38>
 80029a6:	68bb      	ldr	r3, [r7, #8]
 80029a8:	2b00      	cmp	r3, #0
 80029aa:	d113      	bne.n	80029d4 <I2C_WaitOnSTOPFlagUntilTimeout+0x60>
    {
      hi2c->ErrorCode |= HAL_I2C_ERROR_TIMEOUT;
 80029ac:	68fb      	ldr	r3, [r7, #12]
 80029ae:	6c5b      	ldr	r3, [r3, #68]	; 0x44
 80029b0:	2220      	movs	r2, #32
 80029b2:	431a      	orrs	r2, r3
 80029b4:	68fb      	ldr	r3, [r7, #12]
 80029b6:	645a      	str	r2, [r3, #68]	; 0x44
      hi2c->State = HAL_I2C_STATE_READY;
 80029b8:	68fb      	ldr	r3, [r7, #12]
 80029ba:	2241      	movs	r2, #65	; 0x41
 80029bc:	2120      	movs	r1, #32
 80029be:	5499      	strb	r1, [r3, r2]
      hi2c->Mode = HAL_I2C_MODE_NONE;
 80029c0:	68fb      	ldr	r3, [r7, #12]
 80029c2:	2242      	movs	r2, #66	; 0x42
 80029c4:	2100      	movs	r1, #0
 80029c6:	5499      	strb	r1, [r3, r2]

      /* Process Unlocked */
      __HAL_UNLOCK(hi2c);
 80029c8:	68fb      	ldr	r3, [r7, #12]
 80029ca:	2240      	movs	r2, #64	; 0x40
 80029cc:	2100      	movs	r1, #0
 80029ce:	5499      	strb	r1, [r3, r2]

      return HAL_ERROR;
 80029d0:	2301      	movs	r3, #1
 80029d2:	e007      	b.n	80029e4 <I2C_WaitOnSTOPFlagUntilTimeout+0x70>
  while (__HAL_I2C_GET_FLAG(hi2c, I2C_FLAG_STOPF) == RESET)
 80029d4:	68fb      	ldr	r3, [r7, #12]
 80029d6:	681b      	ldr	r3, [r3, #0]
 80029d8:	699b      	ldr	r3, [r3, #24]
 80029da:	2220      	movs	r2, #32
 80029dc:	4013      	ands	r3, r2
 80029de:	2b20      	cmp	r3, #32
 80029e0:	d1cf      	bne.n	8002982 <I2C_WaitOnSTOPFlagUntilTimeout+0xe>
    }
  }
  return HAL_OK;
 80029e2:	2300      	movs	r3, #0
}
 80029e4:	0018      	movs	r0, r3
 80029e6:	46bd      	mov	sp, r7
 80029e8:	b004      	add	sp, #16
 80029ea:	bd80      	pop	{r7, pc}

080029ec <I2C_IsErrorOccurred>:
  * @param  Timeout Timeout duration
  * @param  Tickstart Tick start value
  * @retval HAL status
  */
static HAL_StatusTypeDef I2C_IsErrorOccurred(I2C_HandleTypeDef *hi2c, uint32_t Timeout, uint32_t Tickstart)
{
 80029ec:	b590      	push	{r4, r7, lr}
 80029ee:	b08b      	sub	sp, #44	; 0x2c
 80029f0:	af00      	add	r7, sp, #0
 80029f2:	60f8      	str	r0, [r7, #12]
 80029f4:	60b9      	str	r1, [r7, #8]
 80029f6:	607a      	str	r2, [r7, #4]
  HAL_StatusTypeDef status = HAL_OK;
 80029f8:	2327      	movs	r3, #39	; 0x27
 80029fa:	18fb      	adds	r3, r7, r3
 80029fc:	2200      	movs	r2, #0
 80029fe:	701a      	strb	r2, [r3, #0]
  uint32_t itflag   = hi2c->Instance->ISR;
 8002a00:	68fb      	ldr	r3, [r7, #12]
 8002a02:	681b      	ldr	r3, [r3, #0]
 8002a04:	699b      	ldr	r3, [r3, #24]
 8002a06:	61bb      	str	r3, [r7, #24]
  uint32_t error_code = 0;
 8002a08:	2300      	movs	r3, #0
 8002a0a:	623b      	str	r3, [r7, #32]
  uint32_t tickstart = Tickstart;
 8002a0c:	687b      	ldr	r3, [r7, #4]
 8002a0e:	61fb      	str	r3, [r7, #28]
  uint32_t tmp1;
  HAL_I2C_ModeTypeDef tmp2;

  if (HAL_IS_BIT_SET(itflag, I2C_FLAG_AF))
 8002a10:	69bb      	ldr	r3, [r7, #24]
 8002a12:	2210      	movs	r2, #16
 8002a14:	4013      	ands	r3, r2
 8002a16:	d100      	bne.n	8002a1a <I2C_IsErrorOccurred+0x2e>
 8002a18:	e082      	b.n	8002b20 <I2C_IsErrorOccurred+0x134>
  {
    /* Clear NACKF Flag */
    __HAL_I2C_CLEAR_FLAG(hi2c, I2C_FLAG_AF);
 8002a1a:	68fb      	ldr	r3, [r7, #12]
 8002a1c:	681b      	ldr	r3, [r3, #0]
 8002a1e:	2210      	movs	r2, #16
 8002a20:	61da      	str	r2, [r3, #28]

    /* Wait until STOP Flag is set or timeout occurred */
    /* AutoEnd should be initiate after AF */
    while ((__HAL_I2C_GET_FLAG(hi2c, I2C_FLAG_STOPF) == RESET) && (status == HAL_OK))
 8002a22:	e060      	b.n	8002ae6 <I2C_IsErrorOccurred+0xfa>
 8002a24:	2427      	movs	r4, #39	; 0x27
 8002a26:	193b      	adds	r3, r7, r4
 8002a28:	193a      	adds	r2, r7, r4
 8002a2a:	7812      	ldrb	r2, [r2, #0]
 8002a2c:	701a      	strb	r2, [r3, #0]
    {
      /* Check for the Timeout */
      if (Timeout != HAL_MAX_DELAY)
 8002a2e:	68bb      	ldr	r3, [r7, #8]
 8002a30:	3301      	adds	r3, #1
 8002a32:	d058      	beq.n	8002ae6 <I2C_IsErrorOccurred+0xfa>
      {
        if (((HAL_GetTick() - tickstart) > Timeout) || (Timeout == 0U))
 8002a34:	f7fe ffcc 	bl	80019d0 <HAL_GetTick>
 8002a38:	0002      	movs	r2, r0
 8002a3a:	69fb      	ldr	r3, [r7, #28]
 8002a3c:	1ad3      	subs	r3, r2, r3
 8002a3e:	68ba      	ldr	r2, [r7, #8]
 8002a40:	429a      	cmp	r2, r3
 8002a42:	d306      	bcc.n	8002a52 <I2C_IsErrorOccurred+0x66>
 8002a44:	193b      	adds	r3, r7, r4
 8002a46:	193a      	adds	r2, r7, r4
 8002a48:	7812      	ldrb	r2, [r2, #0]
 8002a4a:	701a      	strb	r2, [r3, #0]
 8002a4c:	68bb      	ldr	r3, [r7, #8]
 8002a4e:	2b00      	cmp	r3, #0
 8002a50:	d149      	bne.n	8002ae6 <I2C_IsErrorOccurred+0xfa>
        {
          tmp1 = (uint32_t)(hi2c->Instance->CR2 & I2C_CR2_STOP);
 8002a52:	68fb      	ldr	r3, [r7, #12]
 8002a54:	681b      	ldr	r3, [r3, #0]
 8002a56:	685a      	ldr	r2, [r3, #4]
 8002a58:	2380      	movs	r3, #128	; 0x80
 8002a5a:	01db      	lsls	r3, r3, #7
 8002a5c:	4013      	ands	r3, r2
 8002a5e:	617b      	str	r3, [r7, #20]
          tmp2 = hi2c->Mode;
 8002a60:	2013      	movs	r0, #19
 8002a62:	183b      	adds	r3, r7, r0
 8002a64:	68fa      	ldr	r2, [r7, #12]
 8002a66:	2142      	movs	r1, #66	; 0x42
 8002a68:	5c52      	ldrb	r2, [r2, r1]
 8002a6a:	701a      	strb	r2, [r3, #0]

          /* In case of I2C still busy, try to regenerate a STOP manually */
          if ((__HAL_I2C_GET_FLAG(hi2c, I2C_FLAG_BUSY) != RESET) && \
 8002a6c:	68fb      	ldr	r3, [r7, #12]
 8002a6e:	681b      	ldr	r3, [r3, #0]
 8002a70:	699a      	ldr	r2, [r3, #24]
 8002a72:	2380      	movs	r3, #128	; 0x80
 8002a74:	021b      	lsls	r3, r3, #8
 8002a76:	401a      	ands	r2, r3
 8002a78:	2380      	movs	r3, #128	; 0x80
 8002a7a:	021b      	lsls	r3, r3, #8
 8002a7c:	429a      	cmp	r2, r3
 8002a7e:	d126      	bne.n	8002ace <I2C_IsErrorOccurred+0xe2>
 8002a80:	697a      	ldr	r2, [r7, #20]
 8002a82:	2380      	movs	r3, #128	; 0x80
 8002a84:	01db      	lsls	r3, r3, #7
 8002a86:	429a      	cmp	r2, r3
 8002a88:	d021      	beq.n	8002ace <I2C_IsErrorOccurred+0xe2>
              (tmp1 != I2C_CR2_STOP) && \
 8002a8a:	183b      	adds	r3, r7, r0
 8002a8c:	781b      	ldrb	r3, [r3, #0]
 8002a8e:	2b20      	cmp	r3, #32
 8002a90:	d01d      	beq.n	8002ace <I2C_IsErrorOccurred+0xe2>
              (tmp2 != HAL_I2C_MODE_SLAVE))
          {
            /* Generate Stop */
            hi2c->Instance->CR2 |= I2C_CR2_STOP;
 8002a92:	68fb      	ldr	r3, [r7, #12]
 8002a94:	681b      	ldr	r3, [r3, #0]
 8002a96:	685a      	ldr	r2, [r3, #4]
 8002a98:	68fb      	ldr	r3, [r7, #12]
 8002a9a:	681b      	ldr	r3, [r3, #0]
 8002a9c:	2180      	movs	r1, #128	; 0x80
 8002a9e:	01c9      	lsls	r1, r1, #7
 8002aa0:	430a      	orrs	r2, r1
 8002aa2:	605a      	str	r2, [r3, #4]

            /* Update Tick with new reference */
            tickstart = HAL_GetTick();
 8002aa4:	f7fe ff94 	bl	80019d0 <HAL_GetTick>
 8002aa8:	0003      	movs	r3, r0
 8002aaa:	61fb      	str	r3, [r7, #28]
          }

          while (__HAL_I2C_GET_FLAG(hi2c, I2C_FLAG_STOPF) == RESET)
 8002aac:	e00f      	b.n	8002ace <I2C_IsErrorOccurred+0xe2>
          {
            /* Check for the Timeout */
            if ((HAL_GetTick() - tickstart) > I2C_TIMEOUT_STOPF)
 8002aae:	f7fe ff8f 	bl	80019d0 <HAL_GetTick>
 8002ab2:	0002      	movs	r2, r0
 8002ab4:	69fb      	ldr	r3, [r7, #28]
 8002ab6:	1ad3      	subs	r3, r2, r3
 8002ab8:	2b19      	cmp	r3, #25
 8002aba:	d908      	bls.n	8002ace <I2C_IsErrorOccurred+0xe2>
            {
              error_code |=HAL_I2C_ERROR_TIMEOUT;
 8002abc:	6a3b      	ldr	r3, [r7, #32]
 8002abe:	2220      	movs	r2, #32
 8002ac0:	4313      	orrs	r3, r2
 8002ac2:	623b      	str	r3, [r7, #32]

              status = HAL_ERROR;
 8002ac4:	2327      	movs	r3, #39	; 0x27
 8002ac6:	18fb      	adds	r3, r7, r3
 8002ac8:	2201      	movs	r2, #1
 8002aca:	701a      	strb	r2, [r3, #0]

              break;
 8002acc:	e00b      	b.n	8002ae6 <I2C_IsErrorOccurred+0xfa>
          while (__HAL_I2C_GET_FLAG(hi2c, I2C_FLAG_STOPF) == RESET)
 8002ace:	68fb      	ldr	r3, [r7, #12]
 8002ad0:	681b      	ldr	r3, [r3, #0]
 8002ad2:	699b      	ldr	r3, [r3, #24]
 8002ad4:	2220      	movs	r2, #32
 8002ad6:	4013      	ands	r3, r2
 8002ad8:	2127      	movs	r1, #39	; 0x27
 8002ada:	187a      	adds	r2, r7, r1
 8002adc:	1879      	adds	r1, r7, r1
 8002ade:	7809      	ldrb	r1, [r1, #0]
 8002ae0:	7011      	strb	r1, [r2, #0]
 8002ae2:	2b20      	cmp	r3, #32
 8002ae4:	d1e3      	bne.n	8002aae <I2C_IsErrorOccurred+0xc2>
    while ((__HAL_I2C_GET_FLAG(hi2c, I2C_FLAG_STOPF) == RESET) && (status == HAL_OK))
 8002ae6:	68fb      	ldr	r3, [r7, #12]
 8002ae8:	681b      	ldr	r3, [r3, #0]
 8002aea:	699b      	ldr	r3, [r3, #24]
 8002aec:	2220      	movs	r2, #32
 8002aee:	4013      	ands	r3, r2
 8002af0:	2b20      	cmp	r3, #32
 8002af2:	d004      	beq.n	8002afe <I2C_IsErrorOccurred+0x112>
 8002af4:	2327      	movs	r3, #39	; 0x27
 8002af6:	18fb      	adds	r3, r7, r3
 8002af8:	781b      	ldrb	r3, [r3, #0]
 8002afa:	2b00      	cmp	r3, #0
 8002afc:	d092      	beq.n	8002a24 <I2C_IsErrorOccurred+0x38>
        }
      }
    }

    /* In case STOP Flag is detected, clear it */
    if (status == HAL_OK)
 8002afe:	2327      	movs	r3, #39	; 0x27
 8002b00:	18fb      	adds	r3, r7, r3
 8002b02:	781b      	ldrb	r3, [r3, #0]
 8002b04:	2b00      	cmp	r3, #0
 8002b06:	d103      	bne.n	8002b10 <I2C_IsErrorOccurred+0x124>
    {
      /* Clear STOP Flag */
      __HAL_I2C_CLEAR_FLAG(hi2c, I2C_FLAG_STOPF);
 8002b08:	68fb      	ldr	r3, [r7, #12]
 8002b0a:	681b      	ldr	r3, [r3, #0]
 8002b0c:	2220      	movs	r2, #32
 8002b0e:	61da      	str	r2, [r3, #28]
    }

    error_code |= HAL_I2C_ERROR_AF;
 8002b10:	6a3b      	ldr	r3, [r7, #32]
 8002b12:	2204      	movs	r2, #4
 8002b14:	4313      	orrs	r3, r2
 8002b16:	623b      	str	r3, [r7, #32]

    status = HAL_ERROR;
 8002b18:	2327      	movs	r3, #39	; 0x27
 8002b1a:	18fb      	adds	r3, r7, r3
 8002b1c:	2201      	movs	r2, #1
 8002b1e:	701a      	strb	r2, [r3, #0]
  }

  /* Refresh Content of Status register */
  itflag = hi2c->Instance->ISR;
 8002b20:	68fb      	ldr	r3, [r7, #12]
 8002b22:	681b      	ldr	r3, [r3, #0]
 8002b24:	699b      	ldr	r3, [r3, #24]
 8002b26:	61bb      	str	r3, [r7, #24]

  /* Then verify if an additional errors occurs */
  /* Check if a Bus error occurred */
  if (HAL_IS_BIT_SET(itflag, I2C_FLAG_BERR))
 8002b28:	69ba      	ldr	r2, [r7, #24]
 8002b2a:	2380      	movs	r3, #128	; 0x80
 8002b2c:	005b      	lsls	r3, r3, #1
 8002b2e:	4013      	ands	r3, r2
 8002b30:	d00c      	beq.n	8002b4c <I2C_IsErrorOccurred+0x160>
  {
    error_code |= HAL_I2C_ERROR_BERR;
 8002b32:	6a3b      	ldr	r3, [r7, #32]
 8002b34:	2201      	movs	r2, #1
 8002b36:	4313      	orrs	r3, r2
 8002b38:	623b      	str	r3, [r7, #32]

    /* Clear BERR flag */
    __HAL_I2C_CLEAR_FLAG(hi2c, I2C_FLAG_BERR);
 8002b3a:	68fb      	ldr	r3, [r7, #12]
 8002b3c:	681b      	ldr	r3, [r3, #0]
 8002b3e:	2280      	movs	r2, #128	; 0x80
 8002b40:	0052      	lsls	r2, r2, #1
 8002b42:	61da      	str	r2, [r3, #28]

    status = HAL_ERROR;
 8002b44:	2327      	movs	r3, #39	; 0x27
 8002b46:	18fb      	adds	r3, r7, r3
 8002b48:	2201      	movs	r2, #1
 8002b4a:	701a      	strb	r2, [r3, #0]
  }

  /* Check if an Over-Run/Under-Run error occurred */
  if (HAL_IS_BIT_SET(itflag, I2C_FLAG_OVR))
 8002b4c:	69ba      	ldr	r2, [r7, #24]
 8002b4e:	2380      	movs	r3, #128	; 0x80
 8002b50:	00db      	lsls	r3, r3, #3
 8002b52:	4013      	ands	r3, r2
 8002b54:	d00c      	beq.n	8002b70 <I2C_IsErrorOccurred+0x184>
  {
    error_code |= HAL_I2C_ERROR_OVR;
 8002b56:	6a3b      	ldr	r3, [r7, #32]
 8002b58:	2208      	movs	r2, #8
 8002b5a:	4313      	orrs	r3, r2
 8002b5c:	623b      	str	r3, [r7, #32]

    /* Clear OVR flag */
    __HAL_I2C_CLEAR_FLAG(hi2c, I2C_FLAG_OVR);
 8002b5e:	68fb      	ldr	r3, [r7, #12]
 8002b60:	681b      	ldr	r3, [r3, #0]
 8002b62:	2280      	movs	r2, #128	; 0x80
 8002b64:	00d2      	lsls	r2, r2, #3
 8002b66:	61da      	str	r2, [r3, #28]

    status = HAL_ERROR;
 8002b68:	2327      	movs	r3, #39	; 0x27
 8002b6a:	18fb      	adds	r3, r7, r3
 8002b6c:	2201      	movs	r2, #1
 8002b6e:	701a      	strb	r2, [r3, #0]
  }

  /* Check if an Arbitration Loss error occurred */
  if (HAL_IS_BIT_SET(itflag, I2C_FLAG_ARLO))
 8002b70:	69ba      	ldr	r2, [r7, #24]
 8002b72:	2380      	movs	r3, #128	; 0x80
 8002b74:	009b      	lsls	r3, r3, #2
 8002b76:	4013      	ands	r3, r2
 8002b78:	d00c      	beq.n	8002b94 <I2C_IsErrorOccurred+0x1a8>
  {
    error_code |= HAL_I2C_ERROR_ARLO;
 8002b7a:	6a3b      	ldr	r3, [r7, #32]
 8002b7c:	2202      	movs	r2, #2
 8002b7e:	4313      	orrs	r3, r2
 8002b80:	623b      	str	r3, [r7, #32]

    /* Clear ARLO flag */
    __HAL_I2C_CLEAR_FLAG(hi2c, I2C_FLAG_ARLO);
 8002b82:	68fb      	ldr	r3, [r7, #12]
 8002b84:	681b      	ldr	r3, [r3, #0]
 8002b86:	2280      	movs	r2, #128	; 0x80
 8002b88:	0092      	lsls	r2, r2, #2
 8002b8a:	61da      	str	r2, [r3, #28]

    status = HAL_ERROR;
 8002b8c:	2327      	movs	r3, #39	; 0x27
 8002b8e:	18fb      	adds	r3, r7, r3
 8002b90:	2201      	movs	r2, #1
 8002b92:	701a      	strb	r2, [r3, #0]
  }

  if (status != HAL_OK)
 8002b94:	2327      	movs	r3, #39	; 0x27
 8002b96:	18fb      	adds	r3, r7, r3
 8002b98:	781b      	ldrb	r3, [r3, #0]
 8002b9a:	2b00      	cmp	r3, #0
 8002b9c:	d01d      	beq.n	8002bda <I2C_IsErrorOccurred+0x1ee>
  {
    /* Flush TX register */
    I2C_Flush_TXDR(hi2c);
 8002b9e:	68fb      	ldr	r3, [r7, #12]
 8002ba0:	0018      	movs	r0, r3
 8002ba2:	f7ff fe47 	bl	8002834 <I2C_Flush_TXDR>

    /* Clear Configuration Register 2 */
    I2C_RESET_CR2(hi2c);
 8002ba6:	68fb      	ldr	r3, [r7, #12]
 8002ba8:	681b      	ldr	r3, [r3, #0]
 8002baa:	685a      	ldr	r2, [r3, #4]
 8002bac:	68fb      	ldr	r3, [r7, #12]
 8002bae:	681b      	ldr	r3, [r3, #0]
 8002bb0:	490d      	ldr	r1, [pc, #52]	; (8002be8 <I2C_IsErrorOccurred+0x1fc>)
 8002bb2:	400a      	ands	r2, r1
 8002bb4:	605a      	str	r2, [r3, #4]

    hi2c->ErrorCode |= error_code;
 8002bb6:	68fb      	ldr	r3, [r7, #12]
 8002bb8:	6c5a      	ldr	r2, [r3, #68]	; 0x44
 8002bba:	6a3b      	ldr	r3, [r7, #32]
 8002bbc:	431a      	orrs	r2, r3
 8002bbe:	68fb      	ldr	r3, [r7, #12]
 8002bc0:	645a      	str	r2, [r3, #68]	; 0x44
    hi2c->State = HAL_I2C_STATE_READY;
 8002bc2:	68fb      	ldr	r3, [r7, #12]
 8002bc4:	2241      	movs	r2, #65	; 0x41
 8002bc6:	2120      	movs	r1, #32
 8002bc8:	5499      	strb	r1, [r3, r2]
    hi2c->Mode = HAL_I2C_MODE_NONE;
 8002bca:	68fb      	ldr	r3, [r7, #12]
 8002bcc:	2242      	movs	r2, #66	; 0x42
 8002bce:	2100      	movs	r1, #0
 8002bd0:	5499      	strb	r1, [r3, r2]

    /* Process Unlocked */
    __HAL_UNLOCK(hi2c);
 8002bd2:	68fb      	ldr	r3, [r7, #12]
 8002bd4:	2240      	movs	r2, #64	; 0x40
 8002bd6:	2100      	movs	r1, #0
 8002bd8:	5499      	strb	r1, [r3, r2]
  }

  return status;
 8002bda:	2327      	movs	r3, #39	; 0x27
 8002bdc:	18fb      	adds	r3, r7, r3
 8002bde:	781b      	ldrb	r3, [r3, #0]
}
 8002be0:	0018      	movs	r0, r3
 8002be2:	46bd      	mov	sp, r7
 8002be4:	b00b      	add	sp, #44	; 0x2c
 8002be6:	bd90      	pop	{r4, r7, pc}
 8002be8:	fe00e800 	.word	0xfe00e800

08002bec <I2C_TransferConfig>:
  *     @arg @ref I2C_GENERATE_START_WRITE Generate Restart for write request.
  * @retval None
  */
static void I2C_TransferConfig(I2C_HandleTypeDef *hi2c, uint16_t DevAddress, uint8_t Size, uint32_t Mode,
                               uint32_t Request)
{
 8002bec:	b590      	push	{r4, r7, lr}
 8002bee:	b087      	sub	sp, #28
 8002bf0:	af00      	add	r7, sp, #0
 8002bf2:	60f8      	str	r0, [r7, #12]
 8002bf4:	0008      	movs	r0, r1
 8002bf6:	0011      	movs	r1, r2
 8002bf8:	607b      	str	r3, [r7, #4]
 8002bfa:	240a      	movs	r4, #10
 8002bfc:	193b      	adds	r3, r7, r4
 8002bfe:	1c02      	adds	r2, r0, #0
 8002c00:	801a      	strh	r2, [r3, #0]
 8002c02:	2009      	movs	r0, #9
 8002c04:	183b      	adds	r3, r7, r0
 8002c06:	1c0a      	adds	r2, r1, #0
 8002c08:	701a      	strb	r2, [r3, #0]
  assert_param(IS_I2C_ALL_INSTANCE(hi2c->Instance));
  assert_param(IS_TRANSFER_MODE(Mode));
  assert_param(IS_TRANSFER_REQUEST(Request));

  /* Declaration of tmp to prevent undefined behavior of volatile usage */
  uint32_t tmp = ((uint32_t)(((uint32_t)DevAddress & I2C_CR2_SADD) | \
 8002c0a:	193b      	adds	r3, r7, r4
 8002c0c:	881b      	ldrh	r3, [r3, #0]
 8002c0e:	059b      	lsls	r3, r3, #22
 8002c10:	0d9a      	lsrs	r2, r3, #22
                             (((uint32_t)Size << I2C_CR2_NBYTES_Pos) & I2C_CR2_NBYTES) | \
 8002c12:	183b      	adds	r3, r7, r0
 8002c14:	781b      	ldrb	r3, [r3, #0]
 8002c16:	0419      	lsls	r1, r3, #16
 8002c18:	23ff      	movs	r3, #255	; 0xff
 8002c1a:	041b      	lsls	r3, r3, #16
 8002c1c:	400b      	ands	r3, r1
  uint32_t tmp = ((uint32_t)(((uint32_t)DevAddress & I2C_CR2_SADD) | \
 8002c1e:	431a      	orrs	r2, r3
                             (((uint32_t)Size << I2C_CR2_NBYTES_Pos) & I2C_CR2_NBYTES) | \
 8002c20:	687b      	ldr	r3, [r7, #4]
 8002c22:	431a      	orrs	r2, r3
  uint32_t tmp = ((uint32_t)(((uint32_t)DevAddress & I2C_CR2_SADD) | \
 8002c24:	6abb      	ldr	r3, [r7, #40]	; 0x28
 8002c26:	4313      	orrs	r3, r2
 8002c28:	005b      	lsls	r3, r3, #1
 8002c2a:	085b      	lsrs	r3, r3, #1
 8002c2c:	617b      	str	r3, [r7, #20]
                             (uint32_t)Mode | (uint32_t)Request) & (~0x80000000U));

  /* update CR2 register */
  MODIFY_REG(hi2c->Instance->CR2, \
 8002c2e:	68fb      	ldr	r3, [r7, #12]
 8002c30:	681b      	ldr	r3, [r3, #0]
 8002c32:	685b      	ldr	r3, [r3, #4]
 8002c34:	6aba      	ldr	r2, [r7, #40]	; 0x28
 8002c36:	0d51      	lsrs	r1, r2, #21
 8002c38:	2280      	movs	r2, #128	; 0x80
 8002c3a:	00d2      	lsls	r2, r2, #3
 8002c3c:	400a      	ands	r2, r1
 8002c3e:	4907      	ldr	r1, [pc, #28]	; (8002c5c <I2C_TransferConfig+0x70>)
 8002c40:	430a      	orrs	r2, r1
 8002c42:	43d2      	mvns	r2, r2
 8002c44:	401a      	ands	r2, r3
 8002c46:	0011      	movs	r1, r2
 8002c48:	68fb      	ldr	r3, [r7, #12]
 8002c4a:	681b      	ldr	r3, [r3, #0]
 8002c4c:	697a      	ldr	r2, [r7, #20]
 8002c4e:	430a      	orrs	r2, r1
 8002c50:	605a      	str	r2, [r3, #4]
             ((I2C_CR2_SADD | I2C_CR2_NBYTES | I2C_CR2_RELOAD | I2C_CR2_AUTOEND | \
               (I2C_CR2_RD_WRN & (uint32_t)(Request >> (31U - I2C_CR2_RD_WRN_Pos))) | \
               I2C_CR2_START | I2C_CR2_STOP)), tmp);
}
 8002c52:	46c0      	nop			; (mov r8, r8)
 8002c54:	46bd      	mov	sp, r7
 8002c56:	b007      	add	sp, #28
 8002c58:	bd90      	pop	{r4, r7, pc}
 8002c5a:	46c0      	nop			; (mov r8, r8)
 8002c5c:	03ff63ff 	.word	0x03ff63ff

08002c60 <HAL_I2CEx_ConfigAnalogFilter>:
  *                the configuration information for the specified I2Cx peripheral.
  * @param  AnalogFilter New state of the Analog filter.
  * @retval HAL status
  */
HAL_StatusTypeDef HAL_I2CEx_ConfigAnalogFilter(I2C_HandleTypeDef *hi2c, uint32_t AnalogFilter)
{
 8002c60:	b580      	push	{r7, lr}
 8002c62:	b082      	sub	sp, #8
 8002c64:	af00      	add	r7, sp, #0
 8002c66:	6078      	str	r0, [r7, #4]
 8002c68:	6039      	str	r1, [r7, #0]
  /* Check the parameters */
  assert_param(IS_I2C_ALL_INSTANCE(hi2c->Instance));
  assert_param(IS_I2C_ANALOG_FILTER(AnalogFilter));

  if (hi2c->State == HAL_I2C_STATE_READY)
 8002c6a:	687b      	ldr	r3, [r7, #4]
 8002c6c:	2241      	movs	r2, #65	; 0x41
 8002c6e:	5c9b      	ldrb	r3, [r3, r2]
 8002c70:	b2db      	uxtb	r3, r3
 8002c72:	2b20      	cmp	r3, #32
 8002c74:	d138      	bne.n	8002ce8 <HAL_I2CEx_ConfigAnalogFilter+0x88>
  {
    /* Process Locked */
    __HAL_LOCK(hi2c);
 8002c76:	687b      	ldr	r3, [r7, #4]
 8002c78:	2240      	movs	r2, #64	; 0x40
 8002c7a:	5c9b      	ldrb	r3, [r3, r2]
 8002c7c:	2b01      	cmp	r3, #1
 8002c7e:	d101      	bne.n	8002c84 <HAL_I2CEx_ConfigAnalogFilter+0x24>
 8002c80:	2302      	movs	r3, #2
 8002c82:	e032      	b.n	8002cea <HAL_I2CEx_ConfigAnalogFilter+0x8a>
 8002c84:	687b      	ldr	r3, [r7, #4]
 8002c86:	2240      	movs	r2, #64	; 0x40
 8002c88:	2101      	movs	r1, #1
 8002c8a:	5499      	strb	r1, [r3, r2]

    hi2c->State = HAL_I2C_STATE_BUSY;
 8002c8c:	687b      	ldr	r3, [r7, #4]
 8002c8e:	2241      	movs	r2, #65	; 0x41
 8002c90:	2124      	movs	r1, #36	; 0x24
 8002c92:	5499      	strb	r1, [r3, r2]

    /* Disable the selected I2C peripheral */
    __HAL_I2C_DISABLE(hi2c);
 8002c94:	687b      	ldr	r3, [r7, #4]
 8002c96:	681b      	ldr	r3, [r3, #0]
 8002c98:	681a      	ldr	r2, [r3, #0]
 8002c9a:	687b      	ldr	r3, [r7, #4]
 8002c9c:	681b      	ldr	r3, [r3, #0]
 8002c9e:	2101      	movs	r1, #1
 8002ca0:	438a      	bics	r2, r1
 8002ca2:	601a      	str	r2, [r3, #0]

    /* Reset I2Cx ANOFF bit */
    hi2c->Instance->CR1 &= ~(I2C_CR1_ANFOFF);
 8002ca4:	687b      	ldr	r3, [r7, #4]
 8002ca6:	681b      	ldr	r3, [r3, #0]
 8002ca8:	681a      	ldr	r2, [r3, #0]
 8002caa:	687b      	ldr	r3, [r7, #4]
 8002cac:	681b      	ldr	r3, [r3, #0]
 8002cae:	4911      	ldr	r1, [pc, #68]	; (8002cf4 <HAL_I2CEx_ConfigAnalogFilter+0x94>)
 8002cb0:	400a      	ands	r2, r1
 8002cb2:	601a      	str	r2, [r3, #0]

    /* Set analog filter bit*/
    hi2c->Instance->CR1 |= AnalogFilter;
 8002cb4:	687b      	ldr	r3, [r7, #4]
 8002cb6:	681b      	ldr	r3, [r3, #0]
 8002cb8:	6819      	ldr	r1, [r3, #0]
 8002cba:	687b      	ldr	r3, [r7, #4]
 8002cbc:	681b      	ldr	r3, [r3, #0]
 8002cbe:	683a      	ldr	r2, [r7, #0]
 8002cc0:	430a      	orrs	r2, r1
 8002cc2:	601a      	str	r2, [r3, #0]

    __HAL_I2C_ENABLE(hi2c);
 8002cc4:	687b      	ldr	r3, [r7, #4]
 8002cc6:	681b      	ldr	r3, [r3, #0]
 8002cc8:	681a      	ldr	r2, [r3, #0]
 8002cca:	687b      	ldr	r3, [r7, #4]
 8002ccc:	681b      	ldr	r3, [r3, #0]
 8002cce:	2101      	movs	r1, #1
 8002cd0:	430a      	orrs	r2, r1
 8002cd2:	601a      	str	r2, [r3, #0]

    hi2c->State = HAL_I2C_STATE_READY;
 8002cd4:	687b      	ldr	r3, [r7, #4]
 8002cd6:	2241      	movs	r2, #65	; 0x41
 8002cd8:	2120      	movs	r1, #32
 8002cda:	5499      	strb	r1, [r3, r2]

    /* Process Unlocked */
    __HAL_UNLOCK(hi2c);
 8002cdc:	687b      	ldr	r3, [r7, #4]
 8002cde:	2240      	movs	r2, #64	; 0x40
 8002ce0:	2100      	movs	r1, #0
 8002ce2:	5499      	strb	r1, [r3, r2]

    return HAL_OK;
 8002ce4:	2300      	movs	r3, #0
 8002ce6:	e000      	b.n	8002cea <HAL_I2CEx_ConfigAnalogFilter+0x8a>
  }
  else
  {
    return HAL_BUSY;
 8002ce8:	2302      	movs	r3, #2
  }
}
 8002cea:	0018      	movs	r0, r3
 8002cec:	46bd      	mov	sp, r7
 8002cee:	b002      	add	sp, #8
 8002cf0:	bd80      	pop	{r7, pc}
 8002cf2:	46c0      	nop			; (mov r8, r8)
 8002cf4:	ffffefff 	.word	0xffffefff

08002cf8 <HAL_I2CEx_ConfigDigitalFilter>:
  *                the configuration information for the specified I2Cx peripheral.
  * @param  DigitalFilter Coefficient of digital noise filter between Min_Data=0x00 and Max_Data=0x0F.
  * @retval HAL status
  */
HAL_StatusTypeDef HAL_I2CEx_ConfigDigitalFilter(I2C_HandleTypeDef *hi2c, uint32_t DigitalFilter)
{
 8002cf8:	b580      	push	{r7, lr}
 8002cfa:	b084      	sub	sp, #16
 8002cfc:	af00      	add	r7, sp, #0
 8002cfe:	6078      	str	r0, [r7, #4]
 8002d00:	6039      	str	r1, [r7, #0]

  /* Check the parameters */
  assert_param(IS_I2C_ALL_INSTANCE(hi2c->Instance));
  assert_param(IS_I2C_DIGITAL_FILTER(DigitalFilter));

  if (hi2c->State == HAL_I2C_STATE_READY)
 8002d02:	687b      	ldr	r3, [r7, #4]
 8002d04:	2241      	movs	r2, #65	; 0x41
 8002d06:	5c9b      	ldrb	r3, [r3, r2]
 8002d08:	b2db      	uxtb	r3, r3
 8002d0a:	2b20      	cmp	r3, #32
 8002d0c:	d139      	bne.n	8002d82 <HAL_I2CEx_ConfigDigitalFilter+0x8a>
  {
    /* Process Locked */
    __HAL_LOCK(hi2c);
 8002d0e:	687b      	ldr	r3, [r7, #4]
 8002d10:	2240      	movs	r2, #64	; 0x40
 8002d12:	5c9b      	ldrb	r3, [r3, r2]
 8002d14:	2b01      	cmp	r3, #1
 8002d16:	d101      	bne.n	8002d1c <HAL_I2CEx_ConfigDigitalFilter+0x24>
 8002d18:	2302      	movs	r3, #2
 8002d1a:	e033      	b.n	8002d84 <HAL_I2CEx_ConfigDigitalFilter+0x8c>
 8002d1c:	687b      	ldr	r3, [r7, #4]
 8002d1e:	2240      	movs	r2, #64	; 0x40
 8002d20:	2101      	movs	r1, #1
 8002d22:	5499      	strb	r1, [r3, r2]

    hi2c->State = HAL_I2C_STATE_BUSY;
 8002d24:	687b      	ldr	r3, [r7, #4]
 8002d26:	2241      	movs	r2, #65	; 0x41
 8002d28:	2124      	movs	r1, #36	; 0x24
 8002d2a:	5499      	strb	r1, [r3, r2]

    /* Disable the selected I2C peripheral */
    __HAL_I2C_DISABLE(hi2c);
 8002d2c:	687b      	ldr	r3, [r7, #4]
 8002d2e:	681b      	ldr	r3, [r3, #0]
 8002d30:	681a      	ldr	r2, [r3, #0]
 8002d32:	687b      	ldr	r3, [r7, #4]
 8002d34:	681b      	ldr	r3, [r3, #0]
 8002d36:	2101      	movs	r1, #1
 8002d38:	438a      	bics	r2, r1
 8002d3a:	601a      	str	r2, [r3, #0]

    /* Get the old register value */
    tmpreg = hi2c->Instance->CR1;
 8002d3c:	687b      	ldr	r3, [r7, #4]
 8002d3e:	681b      	ldr	r3, [r3, #0]
 8002d40:	681b      	ldr	r3, [r3, #0]
 8002d42:	60fb      	str	r3, [r7, #12]

    /* Reset I2Cx DNF bits [11:8] */
    tmpreg &= ~(I2C_CR1_DNF);
 8002d44:	68fb      	ldr	r3, [r7, #12]
 8002d46:	4a11      	ldr	r2, [pc, #68]	; (8002d8c <HAL_I2CEx_ConfigDigitalFilter+0x94>)
 8002d48:	4013      	ands	r3, r2
 8002d4a:	60fb      	str	r3, [r7, #12]

    /* Set I2Cx DNF coefficient */
    tmpreg |= DigitalFilter << 8U;
 8002d4c:	683b      	ldr	r3, [r7, #0]
 8002d4e:	021b      	lsls	r3, r3, #8
 8002d50:	68fa      	ldr	r2, [r7, #12]
 8002d52:	4313      	orrs	r3, r2
 8002d54:	60fb      	str	r3, [r7, #12]

    /* Store the new register value */
    hi2c->Instance->CR1 = tmpreg;
 8002d56:	687b      	ldr	r3, [r7, #4]
 8002d58:	681b      	ldr	r3, [r3, #0]
 8002d5a:	68fa      	ldr	r2, [r7, #12]
 8002d5c:	601a      	str	r2, [r3, #0]

    __HAL_I2C_ENABLE(hi2c);
 8002d5e:	687b      	ldr	r3, [r7, #4]
 8002d60:	681b      	ldr	r3, [r3, #0]
 8002d62:	681a      	ldr	r2, [r3, #0]
 8002d64:	687b      	ldr	r3, [r7, #4]
 8002d66:	681b      	ldr	r3, [r3, #0]
 8002d68:	2101      	movs	r1, #1
 8002d6a:	430a      	orrs	r2, r1
 8002d6c:	601a      	str	r2, [r3, #0]

    hi2c->State = HAL_I2C_STATE_READY;
 8002d6e:	687b      	ldr	r3, [r7, #4]
 8002d70:	2241      	movs	r2, #65	; 0x41
 8002d72:	2120      	movs	r1, #32
 8002d74:	5499      	strb	r1, [r3, r2]

    /* Process Unlocked */
    __HAL_UNLOCK(hi2c);
 8002d76:	687b      	ldr	r3, [r7, #4]
 8002d78:	2240      	movs	r2, #64	; 0x40
 8002d7a:	2100      	movs	r1, #0
 8002d7c:	5499      	strb	r1, [r3, r2]

    return HAL_OK;
 8002d7e:	2300      	movs	r3, #0
 8002d80:	e000      	b.n	8002d84 <HAL_I2CEx_ConfigDigitalFilter+0x8c>
  }
  else
  {
    return HAL_BUSY;
 8002d82:	2302      	movs	r3, #2
  }
}
 8002d84:	0018      	movs	r0, r3
 8002d86:	46bd      	mov	sp, r7
 8002d88:	b004      	add	sp, #16
 8002d8a:	bd80      	pop	{r7, pc}
 8002d8c:	fffff0ff 	.word	0xfffff0ff

08002d90 <HAL_PWREx_ControlVoltageScaling>:
  *        cleared before returning the status. If the flag is not cleared within
  *        6 microseconds, HAL_TIMEOUT status is reported.
  * @retval HAL Status
  */
HAL_StatusTypeDef HAL_PWREx_ControlVoltageScaling(uint32_t VoltageScaling)
{
 8002d90:	b580      	push	{r7, lr}
 8002d92:	b084      	sub	sp, #16
 8002d94:	af00      	add	r7, sp, #0
 8002d96:	6078      	str	r0, [r7, #4]
  uint32_t wait_loop_index;

  assert_param(IS_PWR_VOLTAGE_SCALING_RANGE(VoltageScaling));

  /* Modify voltage scaling range */
  MODIFY_REG(PWR->CR1, PWR_CR1_VOS, VoltageScaling);
 8002d98:	4b19      	ldr	r3, [pc, #100]	; (8002e00 <HAL_PWREx_ControlVoltageScaling+0x70>)
 8002d9a:	681b      	ldr	r3, [r3, #0]
 8002d9c:	4a19      	ldr	r2, [pc, #100]	; (8002e04 <HAL_PWREx_ControlVoltageScaling+0x74>)
 8002d9e:	4013      	ands	r3, r2
 8002da0:	0019      	movs	r1, r3
 8002da2:	4b17      	ldr	r3, [pc, #92]	; (8002e00 <HAL_PWREx_ControlVoltageScaling+0x70>)
 8002da4:	687a      	ldr	r2, [r7, #4]
 8002da6:	430a      	orrs	r2, r1
 8002da8:	601a      	str	r2, [r3, #0]

  /* In case of Range 1 selected, we need to ensure that main regulator reaches new value */
  if (VoltageScaling == PWR_REGULATOR_VOLTAGE_SCALE1)
 8002daa:	687a      	ldr	r2, [r7, #4]
 8002dac:	2380      	movs	r3, #128	; 0x80
 8002dae:	009b      	lsls	r3, r3, #2
 8002db0:	429a      	cmp	r2, r3
 8002db2:	d11f      	bne.n	8002df4 <HAL_PWREx_ControlVoltageScaling+0x64>
  {
    /* Set timeout value */
    wait_loop_index = ((PWR_VOSF_SETTING_DELAY_6_US * SystemCoreClock) / 1000000U) + 1U;
 8002db4:	4b14      	ldr	r3, [pc, #80]	; (8002e08 <HAL_PWREx_ControlVoltageScaling+0x78>)
 8002db6:	681a      	ldr	r2, [r3, #0]
 8002db8:	0013      	movs	r3, r2
 8002dba:	005b      	lsls	r3, r3, #1
 8002dbc:	189b      	adds	r3, r3, r2
 8002dbe:	005b      	lsls	r3, r3, #1
 8002dc0:	4912      	ldr	r1, [pc, #72]	; (8002e0c <HAL_PWREx_ControlVoltageScaling+0x7c>)
 8002dc2:	0018      	movs	r0, r3
 8002dc4:	f7fd f99e 	bl	8000104 <__udivsi3>
 8002dc8:	0003      	movs	r3, r0
 8002dca:	3301      	adds	r3, #1
 8002dcc:	60fb      	str	r3, [r7, #12]

    /* Wait until VOSF is reset */
    while (HAL_IS_BIT_SET(PWR->SR2, PWR_SR2_VOSF))
 8002dce:	e008      	b.n	8002de2 <HAL_PWREx_ControlVoltageScaling+0x52>
    {
      if (wait_loop_index != 0U)
 8002dd0:	68fb      	ldr	r3, [r7, #12]
 8002dd2:	2b00      	cmp	r3, #0
 8002dd4:	d003      	beq.n	8002dde <HAL_PWREx_ControlVoltageScaling+0x4e>
      {
        wait_loop_index--;
 8002dd6:	68fb      	ldr	r3, [r7, #12]
 8002dd8:	3b01      	subs	r3, #1
 8002dda:	60fb      	str	r3, [r7, #12]
 8002ddc:	e001      	b.n	8002de2 <HAL_PWREx_ControlVoltageScaling+0x52>
      }
      else
      {
        return HAL_TIMEOUT;
 8002dde:	2303      	movs	r3, #3
 8002de0:	e009      	b.n	8002df6 <HAL_PWREx_ControlVoltageScaling+0x66>
    while (HAL_IS_BIT_SET(PWR->SR2, PWR_SR2_VOSF))
 8002de2:	4b07      	ldr	r3, [pc, #28]	; (8002e00 <HAL_PWREx_ControlVoltageScaling+0x70>)
 8002de4:	695a      	ldr	r2, [r3, #20]
 8002de6:	2380      	movs	r3, #128	; 0x80
 8002de8:	00db      	lsls	r3, r3, #3
 8002dea:	401a      	ands	r2, r3
 8002dec:	2380      	movs	r3, #128	; 0x80
 8002dee:	00db      	lsls	r3, r3, #3
 8002df0:	429a      	cmp	r2, r3
 8002df2:	d0ed      	beq.n	8002dd0 <HAL_PWREx_ControlVoltageScaling+0x40>
      }
    }
  }

  return HAL_OK;
 8002df4:	2300      	movs	r3, #0
}
 8002df6:	0018      	movs	r0, r3
 8002df8:	46bd      	mov	sp, r7
 8002dfa:	b004      	add	sp, #16
 8002dfc:	bd80      	pop	{r7, pc}
 8002dfe:	46c0      	nop			; (mov r8, r8)
 8002e00:	40007000 	.word	0x40007000
 8002e04:	fffff9ff 	.word	0xfffff9ff
 8002e08:	20000000 	.word	0x20000000
 8002e0c:	000f4240 	.word	0x000f4240

08002e10 <LL_RCC_GetAPB1Prescaler>:
  *         @arg @ref LL_RCC_APB1_DIV_4
  *         @arg @ref LL_RCC_APB1_DIV_8
  *         @arg @ref LL_RCC_APB1_DIV_16
  */
__STATIC_INLINE uint32_t LL_RCC_GetAPB1Prescaler(void)
{
 8002e10:	b580      	push	{r7, lr}
 8002e12:	af00      	add	r7, sp, #0
  return (uint32_t)(READ_BIT(RCC->CFGR, RCC_CFGR_PPRE));
 8002e14:	4b03      	ldr	r3, [pc, #12]	; (8002e24 <LL_RCC_GetAPB1Prescaler+0x14>)
 8002e16:	689a      	ldr	r2, [r3, #8]
 8002e18:	23e0      	movs	r3, #224	; 0xe0
 8002e1a:	01db      	lsls	r3, r3, #7
 8002e1c:	4013      	ands	r3, r2
}
 8002e1e:	0018      	movs	r0, r3
 8002e20:	46bd      	mov	sp, r7
 8002e22:	bd80      	pop	{r7, pc}
 8002e24:	40021000 	.word	0x40021000

08002e28 <HAL_RCC_OscConfig>:
  *         supported by this function. User should request a transition to LSE Off
  *         first and then to LSE On or LSE Bypass.
  * @retval HAL status
  */
HAL_StatusTypeDef HAL_RCC_OscConfig(RCC_OscInitTypeDef  *RCC_OscInitStruct)
{
 8002e28:	b580      	push	{r7, lr}
 8002e2a:	b088      	sub	sp, #32
 8002e2c:	af00      	add	r7, sp, #0
 8002e2e:	6078      	str	r0, [r7, #4]
  uint32_t tickstart;
  uint32_t temp_sysclksrc;
  uint32_t temp_pllckcfg;

  /* Check Null pointer */
  if (RCC_OscInitStruct == NULL)
 8002e30:	687b      	ldr	r3, [r7, #4]
 8002e32:	2b00      	cmp	r3, #0
 8002e34:	d102      	bne.n	8002e3c <HAL_RCC_OscConfig+0x14>
  {
    return HAL_ERROR;
 8002e36:	2301      	movs	r3, #1
 8002e38:	f000 fb50 	bl	80034dc <HAL_RCC_OscConfig+0x6b4>

  /* Check the parameters */
  assert_param(IS_RCC_OSCILLATORTYPE(RCC_OscInitStruct->OscillatorType));

  /*------------------------------- HSE Configuration ------------------------*/
  if (((RCC_OscInitStruct->OscillatorType) & RCC_OSCILLATORTYPE_HSE) == RCC_OSCILLATORTYPE_HSE)
 8002e3c:	687b      	ldr	r3, [r7, #4]
 8002e3e:	681b      	ldr	r3, [r3, #0]
 8002e40:	2201      	movs	r2, #1
 8002e42:	4013      	ands	r3, r2
 8002e44:	d100      	bne.n	8002e48 <HAL_RCC_OscConfig+0x20>
 8002e46:	e07c      	b.n	8002f42 <HAL_RCC_OscConfig+0x11a>
  {
    /* Check the parameters */
    assert_param(IS_RCC_HSE(RCC_OscInitStruct->HSEState));

    temp_sysclksrc = __HAL_RCC_GET_SYSCLK_SOURCE();
 8002e48:	4bc3      	ldr	r3, [pc, #780]	; (8003158 <HAL_RCC_OscConfig+0x330>)
 8002e4a:	689b      	ldr	r3, [r3, #8]
 8002e4c:	2238      	movs	r2, #56	; 0x38
 8002e4e:	4013      	ands	r3, r2
 8002e50:	61bb      	str	r3, [r7, #24]
    temp_pllckcfg = __HAL_RCC_GET_PLL_OSCSOURCE();
 8002e52:	4bc1      	ldr	r3, [pc, #772]	; (8003158 <HAL_RCC_OscConfig+0x330>)
 8002e54:	68db      	ldr	r3, [r3, #12]
 8002e56:	2203      	movs	r2, #3
 8002e58:	4013      	ands	r3, r2
 8002e5a:	617b      	str	r3, [r7, #20]

    /* When the HSE is used as system clock or clock source for PLL in these cases it is not allowed to be disabled */
    if (((temp_sysclksrc == RCC_SYSCLKSOURCE_STATUS_PLLCLK) && (temp_pllckcfg == RCC_PLLSOURCE_HSE))
 8002e5c:	69bb      	ldr	r3, [r7, #24]
 8002e5e:	2b10      	cmp	r3, #16
 8002e60:	d102      	bne.n	8002e68 <HAL_RCC_OscConfig+0x40>
 8002e62:	697b      	ldr	r3, [r7, #20]
 8002e64:	2b03      	cmp	r3, #3
 8002e66:	d002      	beq.n	8002e6e <HAL_RCC_OscConfig+0x46>
        || (temp_sysclksrc == RCC_SYSCLKSOURCE_STATUS_HSE))
 8002e68:	69bb      	ldr	r3, [r7, #24]
 8002e6a:	2b08      	cmp	r3, #8
 8002e6c:	d10b      	bne.n	8002e86 <HAL_RCC_OscConfig+0x5e>
    {
      if ((READ_BIT(RCC->CR, RCC_CR_HSERDY) != 0U) && (RCC_OscInitStruct->HSEState == RCC_HSE_OFF))
 8002e6e:	4bba      	ldr	r3, [pc, #744]	; (8003158 <HAL_RCC_OscConfig+0x330>)
 8002e70:	681a      	ldr	r2, [r3, #0]
 8002e72:	2380      	movs	r3, #128	; 0x80
 8002e74:	029b      	lsls	r3, r3, #10
 8002e76:	4013      	ands	r3, r2
 8002e78:	d062      	beq.n	8002f40 <HAL_RCC_OscConfig+0x118>
 8002e7a:	687b      	ldr	r3, [r7, #4]
 8002e7c:	685b      	ldr	r3, [r3, #4]
 8002e7e:	2b00      	cmp	r3, #0
 8002e80:	d15e      	bne.n	8002f40 <HAL_RCC_OscConfig+0x118>
      {
        return HAL_ERROR;
 8002e82:	2301      	movs	r3, #1
 8002e84:	e32a      	b.n	80034dc <HAL_RCC_OscConfig+0x6b4>
      }
    }
    else
    {
      /* Set the new HSE configuration ---------------------------------------*/
      __HAL_RCC_HSE_CONFIG(RCC_OscInitStruct->HSEState);
 8002e86:	687b      	ldr	r3, [r7, #4]
 8002e88:	685a      	ldr	r2, [r3, #4]
 8002e8a:	2380      	movs	r3, #128	; 0x80
 8002e8c:	025b      	lsls	r3, r3, #9
 8002e8e:	429a      	cmp	r2, r3
 8002e90:	d107      	bne.n	8002ea2 <HAL_RCC_OscConfig+0x7a>
 8002e92:	4bb1      	ldr	r3, [pc, #708]	; (8003158 <HAL_RCC_OscConfig+0x330>)
 8002e94:	681a      	ldr	r2, [r3, #0]
 8002e96:	4bb0      	ldr	r3, [pc, #704]	; (8003158 <HAL_RCC_OscConfig+0x330>)
 8002e98:	2180      	movs	r1, #128	; 0x80
 8002e9a:	0249      	lsls	r1, r1, #9
 8002e9c:	430a      	orrs	r2, r1
 8002e9e:	601a      	str	r2, [r3, #0]
 8002ea0:	e020      	b.n	8002ee4 <HAL_RCC_OscConfig+0xbc>
 8002ea2:	687b      	ldr	r3, [r7, #4]
 8002ea4:	685a      	ldr	r2, [r3, #4]
 8002ea6:	23a0      	movs	r3, #160	; 0xa0
 8002ea8:	02db      	lsls	r3, r3, #11
 8002eaa:	429a      	cmp	r2, r3
 8002eac:	d10e      	bne.n	8002ecc <HAL_RCC_OscConfig+0xa4>
 8002eae:	4baa      	ldr	r3, [pc, #680]	; (8003158 <HAL_RCC_OscConfig+0x330>)
 8002eb0:	681a      	ldr	r2, [r3, #0]
 8002eb2:	4ba9      	ldr	r3, [pc, #676]	; (8003158 <HAL_RCC_OscConfig+0x330>)
 8002eb4:	2180      	movs	r1, #128	; 0x80
 8002eb6:	02c9      	lsls	r1, r1, #11
 8002eb8:	430a      	orrs	r2, r1
 8002eba:	601a      	str	r2, [r3, #0]
 8002ebc:	4ba6      	ldr	r3, [pc, #664]	; (8003158 <HAL_RCC_OscConfig+0x330>)
 8002ebe:	681a      	ldr	r2, [r3, #0]
 8002ec0:	4ba5      	ldr	r3, [pc, #660]	; (8003158 <HAL_RCC_OscConfig+0x330>)
 8002ec2:	2180      	movs	r1, #128	; 0x80
 8002ec4:	0249      	lsls	r1, r1, #9
 8002ec6:	430a      	orrs	r2, r1
 8002ec8:	601a      	str	r2, [r3, #0]
 8002eca:	e00b      	b.n	8002ee4 <HAL_RCC_OscConfig+0xbc>
 8002ecc:	4ba2      	ldr	r3, [pc, #648]	; (8003158 <HAL_RCC_OscConfig+0x330>)
 8002ece:	681a      	ldr	r2, [r3, #0]
 8002ed0:	4ba1      	ldr	r3, [pc, #644]	; (8003158 <HAL_RCC_OscConfig+0x330>)
 8002ed2:	49a2      	ldr	r1, [pc, #648]	; (800315c <HAL_RCC_OscConfig+0x334>)
 8002ed4:	400a      	ands	r2, r1
 8002ed6:	601a      	str	r2, [r3, #0]
 8002ed8:	4b9f      	ldr	r3, [pc, #636]	; (8003158 <HAL_RCC_OscConfig+0x330>)
 8002eda:	681a      	ldr	r2, [r3, #0]
 8002edc:	4b9e      	ldr	r3, [pc, #632]	; (8003158 <HAL_RCC_OscConfig+0x330>)
 8002ede:	49a0      	ldr	r1, [pc, #640]	; (8003160 <HAL_RCC_OscConfig+0x338>)
 8002ee0:	400a      	ands	r2, r1
 8002ee2:	601a      	str	r2, [r3, #0]

      /* Check the HSE State */
      if (RCC_OscInitStruct->HSEState != RCC_HSE_OFF)
 8002ee4:	687b      	ldr	r3, [r7, #4]
 8002ee6:	685b      	ldr	r3, [r3, #4]
 8002ee8:	2b00      	cmp	r3, #0
 8002eea:	d014      	beq.n	8002f16 <HAL_RCC_OscConfig+0xee>
      {
        /* Get Start Tick*/
        tickstart = HAL_GetTick();
 8002eec:	f7fe fd70 	bl	80019d0 <HAL_GetTick>
 8002ef0:	0003      	movs	r3, r0
 8002ef2:	613b      	str	r3, [r7, #16]

        /* Wait till HSE is ready */
        while (READ_BIT(RCC->CR, RCC_CR_HSERDY) == 0U)
 8002ef4:	e008      	b.n	8002f08 <HAL_RCC_OscConfig+0xe0>
        {
          if ((HAL_GetTick() - tickstart) > HSE_TIMEOUT_VALUE)
 8002ef6:	f7fe fd6b 	bl	80019d0 <HAL_GetTick>
 8002efa:	0002      	movs	r2, r0
 8002efc:	693b      	ldr	r3, [r7, #16]
 8002efe:	1ad3      	subs	r3, r2, r3
 8002f00:	2b64      	cmp	r3, #100	; 0x64
 8002f02:	d901      	bls.n	8002f08 <HAL_RCC_OscConfig+0xe0>
          {
            return HAL_TIMEOUT;
 8002f04:	2303      	movs	r3, #3
 8002f06:	e2e9      	b.n	80034dc <HAL_RCC_OscConfig+0x6b4>
        while (READ_BIT(RCC->CR, RCC_CR_HSERDY) == 0U)
 8002f08:	4b93      	ldr	r3, [pc, #588]	; (8003158 <HAL_RCC_OscConfig+0x330>)
 8002f0a:	681a      	ldr	r2, [r3, #0]
 8002f0c:	2380      	movs	r3, #128	; 0x80
 8002f0e:	029b      	lsls	r3, r3, #10
 8002f10:	4013      	ands	r3, r2
 8002f12:	d0f0      	beq.n	8002ef6 <HAL_RCC_OscConfig+0xce>
 8002f14:	e015      	b.n	8002f42 <HAL_RCC_OscConfig+0x11a>
        }
      }
      else
      {
        /* Get Start Tick*/
        tickstart = HAL_GetTick();
 8002f16:	f7fe fd5b 	bl	80019d0 <HAL_GetTick>
 8002f1a:	0003      	movs	r3, r0
 8002f1c:	613b      	str	r3, [r7, #16]

        /* Wait till HSE is disabled */
        while (READ_BIT(RCC->CR, RCC_CR_HSERDY) != 0U)
 8002f1e:	e008      	b.n	8002f32 <HAL_RCC_OscConfig+0x10a>
        {
          if ((HAL_GetTick() - tickstart) > HSE_TIMEOUT_VALUE)
 8002f20:	f7fe fd56 	bl	80019d0 <HAL_GetTick>
 8002f24:	0002      	movs	r2, r0
 8002f26:	693b      	ldr	r3, [r7, #16]
 8002f28:	1ad3      	subs	r3, r2, r3
 8002f2a:	2b64      	cmp	r3, #100	; 0x64
 8002f2c:	d901      	bls.n	8002f32 <HAL_RCC_OscConfig+0x10a>
          {
            return HAL_TIMEOUT;
 8002f2e:	2303      	movs	r3, #3
 8002f30:	e2d4      	b.n	80034dc <HAL_RCC_OscConfig+0x6b4>
        while (READ_BIT(RCC->CR, RCC_CR_HSERDY) != 0U)
 8002f32:	4b89      	ldr	r3, [pc, #548]	; (8003158 <HAL_RCC_OscConfig+0x330>)
 8002f34:	681a      	ldr	r2, [r3, #0]
 8002f36:	2380      	movs	r3, #128	; 0x80
 8002f38:	029b      	lsls	r3, r3, #10
 8002f3a:	4013      	ands	r3, r2
 8002f3c:	d1f0      	bne.n	8002f20 <HAL_RCC_OscConfig+0xf8>
 8002f3e:	e000      	b.n	8002f42 <HAL_RCC_OscConfig+0x11a>
      if ((READ_BIT(RCC->CR, RCC_CR_HSERDY) != 0U) && (RCC_OscInitStruct->HSEState == RCC_HSE_OFF))
 8002f40:	46c0      	nop			; (mov r8, r8)
        }
      }
    }
  }
  /*----------------------------- HSI Configuration --------------------------*/
  if (((RCC_OscInitStruct->OscillatorType) & RCC_OSCILLATORTYPE_HSI) == RCC_OSCILLATORTYPE_HSI)
 8002f42:	687b      	ldr	r3, [r7, #4]
 8002f44:	681b      	ldr	r3, [r3, #0]
 8002f46:	2202      	movs	r2, #2
 8002f48:	4013      	ands	r3, r2
 8002f4a:	d100      	bne.n	8002f4e <HAL_RCC_OscConfig+0x126>
 8002f4c:	e099      	b.n	8003082 <HAL_RCC_OscConfig+0x25a>
    assert_param(IS_RCC_HSI(RCC_OscInitStruct->HSIState));
    assert_param(IS_RCC_HSI_CALIBRATION_VALUE(RCC_OscInitStruct->HSICalibrationValue));
    assert_param(IS_RCC_HSIDIV(RCC_OscInitStruct->HSIDiv));

    /* Check if HSI16 is used as system clock or as PLL source when PLL is selected as system clock */
    temp_sysclksrc = __HAL_RCC_GET_SYSCLK_SOURCE();
 8002f4e:	4b82      	ldr	r3, [pc, #520]	; (8003158 <HAL_RCC_OscConfig+0x330>)
 8002f50:	689b      	ldr	r3, [r3, #8]
 8002f52:	2238      	movs	r2, #56	; 0x38
 8002f54:	4013      	ands	r3, r2
 8002f56:	61bb      	str	r3, [r7, #24]
    temp_pllckcfg = __HAL_RCC_GET_PLL_OSCSOURCE();
 8002f58:	4b7f      	ldr	r3, [pc, #508]	; (8003158 <HAL_RCC_OscConfig+0x330>)
 8002f5a:	68db      	ldr	r3, [r3, #12]
 8002f5c:	2203      	movs	r2, #3
 8002f5e:	4013      	ands	r3, r2
 8002f60:	617b      	str	r3, [r7, #20]
    if (((temp_sysclksrc == RCC_SYSCLKSOURCE_STATUS_PLLCLK) && (temp_pllckcfg == RCC_PLLSOURCE_HSI))
 8002f62:	69bb      	ldr	r3, [r7, #24]
 8002f64:	2b10      	cmp	r3, #16
 8002f66:	d102      	bne.n	8002f6e <HAL_RCC_OscConfig+0x146>
 8002f68:	697b      	ldr	r3, [r7, #20]
 8002f6a:	2b02      	cmp	r3, #2
 8002f6c:	d002      	beq.n	8002f74 <HAL_RCC_OscConfig+0x14c>
        || (temp_sysclksrc == RCC_SYSCLKSOURCE_STATUS_HSI))
 8002f6e:	69bb      	ldr	r3, [r7, #24]
 8002f70:	2b00      	cmp	r3, #0
 8002f72:	d135      	bne.n	8002fe0 <HAL_RCC_OscConfig+0x1b8>
    {
      /* When HSI is used as system clock or as PLL input clock it can not be disabled */
      if ((READ_BIT(RCC->CR, RCC_CR_HSIRDY) != 0U) && (RCC_OscInitStruct->HSIState == RCC_HSI_OFF))
 8002f74:	4b78      	ldr	r3, [pc, #480]	; (8003158 <HAL_RCC_OscConfig+0x330>)
 8002f76:	681a      	ldr	r2, [r3, #0]
 8002f78:	2380      	movs	r3, #128	; 0x80
 8002f7a:	00db      	lsls	r3, r3, #3
 8002f7c:	4013      	ands	r3, r2
 8002f7e:	d005      	beq.n	8002f8c <HAL_RCC_OscConfig+0x164>
 8002f80:	687b      	ldr	r3, [r7, #4]
 8002f82:	68db      	ldr	r3, [r3, #12]
 8002f84:	2b00      	cmp	r3, #0
 8002f86:	d101      	bne.n	8002f8c <HAL_RCC_OscConfig+0x164>
      {
        return HAL_ERROR;
 8002f88:	2301      	movs	r3, #1
 8002f8a:	e2a7      	b.n	80034dc <HAL_RCC_OscConfig+0x6b4>
      }
      /* Otherwise, just the calibration is allowed */
      else
      {
        /* Adjusts the Internal High Speed oscillator (HSI) calibration value.*/
        __HAL_RCC_HSI_CALIBRATIONVALUE_ADJUST(RCC_OscInitStruct->HSICalibrationValue);
 8002f8c:	4b72      	ldr	r3, [pc, #456]	; (8003158 <HAL_RCC_OscConfig+0x330>)
 8002f8e:	685b      	ldr	r3, [r3, #4]
 8002f90:	4a74      	ldr	r2, [pc, #464]	; (8003164 <HAL_RCC_OscConfig+0x33c>)
 8002f92:	4013      	ands	r3, r2
 8002f94:	0019      	movs	r1, r3
 8002f96:	687b      	ldr	r3, [r7, #4]
 8002f98:	695b      	ldr	r3, [r3, #20]
 8002f9a:	021a      	lsls	r2, r3, #8
 8002f9c:	4b6e      	ldr	r3, [pc, #440]	; (8003158 <HAL_RCC_OscConfig+0x330>)
 8002f9e:	430a      	orrs	r2, r1
 8002fa0:	605a      	str	r2, [r3, #4]

        if (temp_sysclksrc == RCC_SYSCLKSOURCE_STATUS_HSI)
 8002fa2:	69bb      	ldr	r3, [r7, #24]
 8002fa4:	2b00      	cmp	r3, #0
 8002fa6:	d112      	bne.n	8002fce <HAL_RCC_OscConfig+0x1a6>
        {
          /* Adjust the HSI16 division factor */
          __HAL_RCC_HSI_CONFIG(RCC_OscInitStruct->HSIDiv);
 8002fa8:	4b6b      	ldr	r3, [pc, #428]	; (8003158 <HAL_RCC_OscConfig+0x330>)
 8002faa:	681b      	ldr	r3, [r3, #0]
 8002fac:	4a6e      	ldr	r2, [pc, #440]	; (8003168 <HAL_RCC_OscConfig+0x340>)
 8002fae:	4013      	ands	r3, r2
 8002fb0:	0019      	movs	r1, r3
 8002fb2:	687b      	ldr	r3, [r7, #4]
 8002fb4:	691a      	ldr	r2, [r3, #16]
 8002fb6:	4b68      	ldr	r3, [pc, #416]	; (8003158 <HAL_RCC_OscConfig+0x330>)
 8002fb8:	430a      	orrs	r2, r1
 8002fba:	601a      	str	r2, [r3, #0]

          /* Update the SystemCoreClock global variable with HSISYS value  */
          SystemCoreClock = (HSI_VALUE / (1UL << ((READ_BIT(RCC->CR, RCC_CR_HSIDIV)) >> RCC_CR_HSIDIV_Pos)));
 8002fbc:	4b66      	ldr	r3, [pc, #408]	; (8003158 <HAL_RCC_OscConfig+0x330>)
 8002fbe:	681b      	ldr	r3, [r3, #0]
 8002fc0:	0adb      	lsrs	r3, r3, #11
 8002fc2:	2207      	movs	r2, #7
 8002fc4:	4013      	ands	r3, r2
 8002fc6:	4a69      	ldr	r2, [pc, #420]	; (800316c <HAL_RCC_OscConfig+0x344>)
 8002fc8:	40da      	lsrs	r2, r3
 8002fca:	4b69      	ldr	r3, [pc, #420]	; (8003170 <HAL_RCC_OscConfig+0x348>)
 8002fcc:	601a      	str	r2, [r3, #0]
        }

        /* Adapt Systick interrupt period */
        if (HAL_InitTick(uwTickPrio) != HAL_OK)
 8002fce:	4b69      	ldr	r3, [pc, #420]	; (8003174 <HAL_RCC_OscConfig+0x34c>)
 8002fd0:	681b      	ldr	r3, [r3, #0]
 8002fd2:	0018      	movs	r0, r3
 8002fd4:	f7fe fca0 	bl	8001918 <HAL_InitTick>
 8002fd8:	1e03      	subs	r3, r0, #0
 8002fda:	d051      	beq.n	8003080 <HAL_RCC_OscConfig+0x258>
        {
          return HAL_ERROR;
 8002fdc:	2301      	movs	r3, #1
 8002fde:	e27d      	b.n	80034dc <HAL_RCC_OscConfig+0x6b4>
      }
    }
    else
    {
      /* Check the HSI State */
      if (RCC_OscInitStruct->HSIState != RCC_HSI_OFF)
 8002fe0:	687b      	ldr	r3, [r7, #4]
 8002fe2:	68db      	ldr	r3, [r3, #12]
 8002fe4:	2b00      	cmp	r3, #0
 8002fe6:	d030      	beq.n	800304a <HAL_RCC_OscConfig+0x222>
      {
        /* Configure the HSI16 division factor */
        __HAL_RCC_HSI_CONFIG(RCC_OscInitStruct->HSIDiv);
 8002fe8:	4b5b      	ldr	r3, [pc, #364]	; (8003158 <HAL_RCC_OscConfig+0x330>)
 8002fea:	681b      	ldr	r3, [r3, #0]
 8002fec:	4a5e      	ldr	r2, [pc, #376]	; (8003168 <HAL_RCC_OscConfig+0x340>)
 8002fee:	4013      	ands	r3, r2
 8002ff0:	0019      	movs	r1, r3
 8002ff2:	687b      	ldr	r3, [r7, #4]
 8002ff4:	691a      	ldr	r2, [r3, #16]
 8002ff6:	4b58      	ldr	r3, [pc, #352]	; (8003158 <HAL_RCC_OscConfig+0x330>)
 8002ff8:	430a      	orrs	r2, r1
 8002ffa:	601a      	str	r2, [r3, #0]

        /* Enable the Internal High Speed oscillator (HSI16). */
        __HAL_RCC_HSI_ENABLE();
 8002ffc:	4b56      	ldr	r3, [pc, #344]	; (8003158 <HAL_RCC_OscConfig+0x330>)
 8002ffe:	681a      	ldr	r2, [r3, #0]
 8003000:	4b55      	ldr	r3, [pc, #340]	; (8003158 <HAL_RCC_OscConfig+0x330>)
 8003002:	2180      	movs	r1, #128	; 0x80
 8003004:	0049      	lsls	r1, r1, #1
 8003006:	430a      	orrs	r2, r1
 8003008:	601a      	str	r2, [r3, #0]

        /* Get Start Tick*/
        tickstart = HAL_GetTick();
 800300a:	f7fe fce1 	bl	80019d0 <HAL_GetTick>
 800300e:	0003      	movs	r3, r0
 8003010:	613b      	str	r3, [r7, #16]

        /* Wait till HSI is ready */
        while (READ_BIT(RCC->CR, RCC_CR_HSIRDY) == 0U)
 8003012:	e008      	b.n	8003026 <HAL_RCC_OscConfig+0x1fe>
        {
          if ((HAL_GetTick() - tickstart) > HSI_TIMEOUT_VALUE)
 8003014:	f7fe fcdc 	bl	80019d0 <HAL_GetTick>
 8003018:	0002      	movs	r2, r0
 800301a:	693b      	ldr	r3, [r7, #16]
 800301c:	1ad3      	subs	r3, r2, r3
 800301e:	2b02      	cmp	r3, #2
 8003020:	d901      	bls.n	8003026 <HAL_RCC_OscConfig+0x1fe>
          {
            return HAL_TIMEOUT;
 8003022:	2303      	movs	r3, #3
 8003024:	e25a      	b.n	80034dc <HAL_RCC_OscConfig+0x6b4>
        while (READ_BIT(RCC->CR, RCC_CR_HSIRDY) == 0U)
 8003026:	4b4c      	ldr	r3, [pc, #304]	; (8003158 <HAL_RCC_OscConfig+0x330>)
 8003028:	681a      	ldr	r2, [r3, #0]
 800302a:	2380      	movs	r3, #128	; 0x80
 800302c:	00db      	lsls	r3, r3, #3
 800302e:	4013      	ands	r3, r2
 8003030:	d0f0      	beq.n	8003014 <HAL_RCC_OscConfig+0x1ec>
          }
        }

        /* Adjusts the Internal High Speed oscillator (HSI) calibration value.*/
        __HAL_RCC_HSI_CALIBRATIONVALUE_ADJUST(RCC_OscInitStruct->HSICalibrationValue);
 8003032:	4b49      	ldr	r3, [pc, #292]	; (8003158 <HAL_RCC_OscConfig+0x330>)
 8003034:	685b      	ldr	r3, [r3, #4]
 8003036:	4a4b      	ldr	r2, [pc, #300]	; (8003164 <HAL_RCC_OscConfig+0x33c>)
 8003038:	4013      	ands	r3, r2
 800303a:	0019      	movs	r1, r3
 800303c:	687b      	ldr	r3, [r7, #4]
 800303e:	695b      	ldr	r3, [r3, #20]
 8003040:	021a      	lsls	r2, r3, #8
 8003042:	4b45      	ldr	r3, [pc, #276]	; (8003158 <HAL_RCC_OscConfig+0x330>)
 8003044:	430a      	orrs	r2, r1
 8003046:	605a      	str	r2, [r3, #4]
 8003048:	e01b      	b.n	8003082 <HAL_RCC_OscConfig+0x25a>
      }
      else
      {
        /* Disable the Internal High Speed oscillator (HSI16). */
        __HAL_RCC_HSI_DISABLE();
 800304a:	4b43      	ldr	r3, [pc, #268]	; (8003158 <HAL_RCC_OscConfig+0x330>)
 800304c:	681a      	ldr	r2, [r3, #0]
 800304e:	4b42      	ldr	r3, [pc, #264]	; (8003158 <HAL_RCC_OscConfig+0x330>)
 8003050:	4949      	ldr	r1, [pc, #292]	; (8003178 <HAL_RCC_OscConfig+0x350>)
 8003052:	400a      	ands	r2, r1
 8003054:	601a      	str	r2, [r3, #0]

        /* Get Start Tick*/
        tickstart = HAL_GetTick();
 8003056:	f7fe fcbb 	bl	80019d0 <HAL_GetTick>
 800305a:	0003      	movs	r3, r0
 800305c:	613b      	str	r3, [r7, #16]

        /* Wait till HSI is disabled */
        while (READ_BIT(RCC->CR, RCC_CR_HSIRDY) != 0U)
 800305e:	e008      	b.n	8003072 <HAL_RCC_OscConfig+0x24a>
        {
          if ((HAL_GetTick() - tickstart) > HSI_TIMEOUT_VALUE)
 8003060:	f7fe fcb6 	bl	80019d0 <HAL_GetTick>
 8003064:	0002      	movs	r2, r0
 8003066:	693b      	ldr	r3, [r7, #16]
 8003068:	1ad3      	subs	r3, r2, r3
 800306a:	2b02      	cmp	r3, #2
 800306c:	d901      	bls.n	8003072 <HAL_RCC_OscConfig+0x24a>
          {
            return HAL_TIMEOUT;
 800306e:	2303      	movs	r3, #3
 8003070:	e234      	b.n	80034dc <HAL_RCC_OscConfig+0x6b4>
        while (READ_BIT(RCC->CR, RCC_CR_HSIRDY) != 0U)
 8003072:	4b39      	ldr	r3, [pc, #228]	; (8003158 <HAL_RCC_OscConfig+0x330>)
 8003074:	681a      	ldr	r2, [r3, #0]
 8003076:	2380      	movs	r3, #128	; 0x80
 8003078:	00db      	lsls	r3, r3, #3
 800307a:	4013      	ands	r3, r2
 800307c:	d1f0      	bne.n	8003060 <HAL_RCC_OscConfig+0x238>
 800307e:	e000      	b.n	8003082 <HAL_RCC_OscConfig+0x25a>
      if ((READ_BIT(RCC->CR, RCC_CR_HSIRDY) != 0U) && (RCC_OscInitStruct->HSIState == RCC_HSI_OFF))
 8003080:	46c0      	nop			; (mov r8, r8)
        }
      }
    }
  }
  /*------------------------------ LSI Configuration -------------------------*/
  if (((RCC_OscInitStruct->OscillatorType) & RCC_OSCILLATORTYPE_LSI) == RCC_OSCILLATORTYPE_LSI)
 8003082:	687b      	ldr	r3, [r7, #4]
 8003084:	681b      	ldr	r3, [r3, #0]
 8003086:	2208      	movs	r2, #8
 8003088:	4013      	ands	r3, r2
 800308a:	d047      	beq.n	800311c <HAL_RCC_OscConfig+0x2f4>
  {
    /* Check the parameters */
    assert_param(IS_RCC_LSI(RCC_OscInitStruct->LSIState));

    /* Check if LSI is used as system clock */
    if (__HAL_RCC_GET_SYSCLK_SOURCE() == RCC_SYSCLKSOURCE_STATUS_LSI)
 800308c:	4b32      	ldr	r3, [pc, #200]	; (8003158 <HAL_RCC_OscConfig+0x330>)
 800308e:	689b      	ldr	r3, [r3, #8]
 8003090:	2238      	movs	r2, #56	; 0x38
 8003092:	4013      	ands	r3, r2
 8003094:	2b18      	cmp	r3, #24
 8003096:	d10a      	bne.n	80030ae <HAL_RCC_OscConfig+0x286>
    {
      /* When LSI is used as system clock it will not be disabled */
      if ((((RCC->CSR) & RCC_CSR_LSIRDY) != 0U) && (RCC_OscInitStruct->LSIState == RCC_LSI_OFF))
 8003098:	4b2f      	ldr	r3, [pc, #188]	; (8003158 <HAL_RCC_OscConfig+0x330>)
 800309a:	6e1b      	ldr	r3, [r3, #96]	; 0x60
 800309c:	2202      	movs	r2, #2
 800309e:	4013      	ands	r3, r2
 80030a0:	d03c      	beq.n	800311c <HAL_RCC_OscConfig+0x2f4>
 80030a2:	687b      	ldr	r3, [r7, #4]
 80030a4:	699b      	ldr	r3, [r3, #24]
 80030a6:	2b00      	cmp	r3, #0
 80030a8:	d138      	bne.n	800311c <HAL_RCC_OscConfig+0x2f4>
      {
        return HAL_ERROR;
 80030aa:	2301      	movs	r3, #1
 80030ac:	e216      	b.n	80034dc <HAL_RCC_OscConfig+0x6b4>
      }
    }
    else
    {
      /* Check the LSI State */
      if (RCC_OscInitStruct->LSIState != RCC_LSI_OFF)
 80030ae:	687b      	ldr	r3, [r7, #4]
 80030b0:	699b      	ldr	r3, [r3, #24]
 80030b2:	2b00      	cmp	r3, #0
 80030b4:	d019      	beq.n	80030ea <HAL_RCC_OscConfig+0x2c2>
      {
        /* Enable the Internal Low Speed oscillator (LSI). */
        __HAL_RCC_LSI_ENABLE();
 80030b6:	4b28      	ldr	r3, [pc, #160]	; (8003158 <HAL_RCC_OscConfig+0x330>)
 80030b8:	6e1a      	ldr	r2, [r3, #96]	; 0x60
 80030ba:	4b27      	ldr	r3, [pc, #156]	; (8003158 <HAL_RCC_OscConfig+0x330>)
 80030bc:	2101      	movs	r1, #1
 80030be:	430a      	orrs	r2, r1
 80030c0:	661a      	str	r2, [r3, #96]	; 0x60

        /* Get Start Tick*/
        tickstart = HAL_GetTick();
 80030c2:	f7fe fc85 	bl	80019d0 <HAL_GetTick>
 80030c6:	0003      	movs	r3, r0
 80030c8:	613b      	str	r3, [r7, #16]

        /* Wait till LSI is ready */
        while (READ_BIT(RCC->CSR, RCC_CSR_LSIRDY) == 0U)
 80030ca:	e008      	b.n	80030de <HAL_RCC_OscConfig+0x2b6>
        {
          if ((HAL_GetTick() - tickstart) > LSI_TIMEOUT_VALUE)
 80030cc:	f7fe fc80 	bl	80019d0 <HAL_GetTick>
 80030d0:	0002      	movs	r2, r0
 80030d2:	693b      	ldr	r3, [r7, #16]
 80030d4:	1ad3      	subs	r3, r2, r3
 80030d6:	2b02      	cmp	r3, #2
 80030d8:	d901      	bls.n	80030de <HAL_RCC_OscConfig+0x2b6>
          {
            return HAL_TIMEOUT;
 80030da:	2303      	movs	r3, #3
 80030dc:	e1fe      	b.n	80034dc <HAL_RCC_OscConfig+0x6b4>
        while (READ_BIT(RCC->CSR, RCC_CSR_LSIRDY) == 0U)
 80030de:	4b1e      	ldr	r3, [pc, #120]	; (8003158 <HAL_RCC_OscConfig+0x330>)
 80030e0:	6e1b      	ldr	r3, [r3, #96]	; 0x60
 80030e2:	2202      	movs	r2, #2
 80030e4:	4013      	ands	r3, r2
 80030e6:	d0f1      	beq.n	80030cc <HAL_RCC_OscConfig+0x2a4>
 80030e8:	e018      	b.n	800311c <HAL_RCC_OscConfig+0x2f4>
        }
      }
      else
      {
        /* Disable the Internal Low Speed oscillator (LSI). */
        __HAL_RCC_LSI_DISABLE();
 80030ea:	4b1b      	ldr	r3, [pc, #108]	; (8003158 <HAL_RCC_OscConfig+0x330>)
 80030ec:	6e1a      	ldr	r2, [r3, #96]	; 0x60
 80030ee:	4b1a      	ldr	r3, [pc, #104]	; (8003158 <HAL_RCC_OscConfig+0x330>)
 80030f0:	2101      	movs	r1, #1
 80030f2:	438a      	bics	r2, r1
 80030f4:	661a      	str	r2, [r3, #96]	; 0x60

        /* Get Start Tick*/
        tickstart = HAL_GetTick();
 80030f6:	f7fe fc6b 	bl	80019d0 <HAL_GetTick>
 80030fa:	0003      	movs	r3, r0
 80030fc:	613b      	str	r3, [r7, #16]

        /* Wait till LSI is disabled */
        while (READ_BIT(RCC->CSR, RCC_CSR_LSIRDY) != 0U)
 80030fe:	e008      	b.n	8003112 <HAL_RCC_OscConfig+0x2ea>
        {
          if ((HAL_GetTick() - tickstart) > LSI_TIMEOUT_VALUE)
 8003100:	f7fe fc66 	bl	80019d0 <HAL_GetTick>
 8003104:	0002      	movs	r2, r0
 8003106:	693b      	ldr	r3, [r7, #16]
 8003108:	1ad3      	subs	r3, r2, r3
 800310a:	2b02      	cmp	r3, #2
 800310c:	d901      	bls.n	8003112 <HAL_RCC_OscConfig+0x2ea>
          {
            return HAL_TIMEOUT;
 800310e:	2303      	movs	r3, #3
 8003110:	e1e4      	b.n	80034dc <HAL_RCC_OscConfig+0x6b4>
        while (READ_BIT(RCC->CSR, RCC_CSR_LSIRDY) != 0U)
 8003112:	4b11      	ldr	r3, [pc, #68]	; (8003158 <HAL_RCC_OscConfig+0x330>)
 8003114:	6e1b      	ldr	r3, [r3, #96]	; 0x60
 8003116:	2202      	movs	r2, #2
 8003118:	4013      	ands	r3, r2
 800311a:	d1f1      	bne.n	8003100 <HAL_RCC_OscConfig+0x2d8>
        }
      }
    }
  }
  /*------------------------------ LSE Configuration -------------------------*/
  if (((RCC_OscInitStruct->OscillatorType) & RCC_OSCILLATORTYPE_LSE) == RCC_OSCILLATORTYPE_LSE)
 800311c:	687b      	ldr	r3, [r7, #4]
 800311e:	681b      	ldr	r3, [r3, #0]
 8003120:	2204      	movs	r2, #4
 8003122:	4013      	ands	r3, r2
 8003124:	d100      	bne.n	8003128 <HAL_RCC_OscConfig+0x300>
 8003126:	e0c7      	b.n	80032b8 <HAL_RCC_OscConfig+0x490>
  {
    FlagStatus       pwrclkchanged = RESET;
 8003128:	231f      	movs	r3, #31
 800312a:	18fb      	adds	r3, r7, r3
 800312c:	2200      	movs	r2, #0
 800312e:	701a      	strb	r2, [r3, #0]

    /* Check the parameters */
    assert_param(IS_RCC_LSE(RCC_OscInitStruct->LSEState));

    /* When the LSE is used as system clock, it is not allowed disable it */
    if (__HAL_RCC_GET_SYSCLK_SOURCE() == RCC_SYSCLKSOURCE_STATUS_LSE)
 8003130:	4b09      	ldr	r3, [pc, #36]	; (8003158 <HAL_RCC_OscConfig+0x330>)
 8003132:	689b      	ldr	r3, [r3, #8]
 8003134:	2238      	movs	r2, #56	; 0x38
 8003136:	4013      	ands	r3, r2
 8003138:	2b20      	cmp	r3, #32
 800313a:	d11f      	bne.n	800317c <HAL_RCC_OscConfig+0x354>
    {
      if ((((RCC->BDCR) & RCC_BDCR_LSERDY) != 0U) && (RCC_OscInitStruct->LSEState == RCC_LSE_OFF))
 800313c:	4b06      	ldr	r3, [pc, #24]	; (8003158 <HAL_RCC_OscConfig+0x330>)
 800313e:	6ddb      	ldr	r3, [r3, #92]	; 0x5c
 8003140:	2202      	movs	r2, #2
 8003142:	4013      	ands	r3, r2
 8003144:	d100      	bne.n	8003148 <HAL_RCC_OscConfig+0x320>
 8003146:	e0b7      	b.n	80032b8 <HAL_RCC_OscConfig+0x490>
 8003148:	687b      	ldr	r3, [r7, #4]
 800314a:	689b      	ldr	r3, [r3, #8]
 800314c:	2b00      	cmp	r3, #0
 800314e:	d000      	beq.n	8003152 <HAL_RCC_OscConfig+0x32a>
 8003150:	e0b2      	b.n	80032b8 <HAL_RCC_OscConfig+0x490>
      {
        return HAL_ERROR;
 8003152:	2301      	movs	r3, #1
 8003154:	e1c2      	b.n	80034dc <HAL_RCC_OscConfig+0x6b4>
 8003156:	46c0      	nop			; (mov r8, r8)
 8003158:	40021000 	.word	0x40021000
 800315c:	fffeffff 	.word	0xfffeffff
 8003160:	fffbffff 	.word	0xfffbffff
 8003164:	ffff80ff 	.word	0xffff80ff
 8003168:	ffffc7ff 	.word	0xffffc7ff
 800316c:	00f42400 	.word	0x00f42400
 8003170:	20000000 	.word	0x20000000
 8003174:	20000004 	.word	0x20000004
 8003178:	fffffeff 	.word	0xfffffeff
    }
    else
    {
      /* Update LSE configuration in Backup Domain control register    */
      /* Requires to enable write access to Backup Domain of necessary */
      if (__HAL_RCC_PWR_IS_CLK_DISABLED() != 0U)
 800317c:	4bb5      	ldr	r3, [pc, #724]	; (8003454 <HAL_RCC_OscConfig+0x62c>)
 800317e:	6bda      	ldr	r2, [r3, #60]	; 0x3c
 8003180:	2380      	movs	r3, #128	; 0x80
 8003182:	055b      	lsls	r3, r3, #21
 8003184:	4013      	ands	r3, r2
 8003186:	d101      	bne.n	800318c <HAL_RCC_OscConfig+0x364>
 8003188:	2301      	movs	r3, #1
 800318a:	e000      	b.n	800318e <HAL_RCC_OscConfig+0x366>
 800318c:	2300      	movs	r3, #0
 800318e:	2b00      	cmp	r3, #0
 8003190:	d011      	beq.n	80031b6 <HAL_RCC_OscConfig+0x38e>
      {
        __HAL_RCC_PWR_CLK_ENABLE();
 8003192:	4bb0      	ldr	r3, [pc, #704]	; (8003454 <HAL_RCC_OscConfig+0x62c>)
 8003194:	6bda      	ldr	r2, [r3, #60]	; 0x3c
 8003196:	4baf      	ldr	r3, [pc, #700]	; (8003454 <HAL_RCC_OscConfig+0x62c>)
 8003198:	2180      	movs	r1, #128	; 0x80
 800319a:	0549      	lsls	r1, r1, #21
 800319c:	430a      	orrs	r2, r1
 800319e:	63da      	str	r2, [r3, #60]	; 0x3c
 80031a0:	4bac      	ldr	r3, [pc, #688]	; (8003454 <HAL_RCC_OscConfig+0x62c>)
 80031a2:	6bda      	ldr	r2, [r3, #60]	; 0x3c
 80031a4:	2380      	movs	r3, #128	; 0x80
 80031a6:	055b      	lsls	r3, r3, #21
 80031a8:	4013      	ands	r3, r2
 80031aa:	60fb      	str	r3, [r7, #12]
 80031ac:	68fb      	ldr	r3, [r7, #12]
        pwrclkchanged = SET;
 80031ae:	231f      	movs	r3, #31
 80031b0:	18fb      	adds	r3, r7, r3
 80031b2:	2201      	movs	r2, #1
 80031b4:	701a      	strb	r2, [r3, #0]
      }

      if (HAL_IS_BIT_CLR(PWR->CR1, PWR_CR1_DBP))
 80031b6:	4ba8      	ldr	r3, [pc, #672]	; (8003458 <HAL_RCC_OscConfig+0x630>)
 80031b8:	681a      	ldr	r2, [r3, #0]
 80031ba:	2380      	movs	r3, #128	; 0x80
 80031bc:	005b      	lsls	r3, r3, #1
 80031be:	4013      	ands	r3, r2
 80031c0:	d11a      	bne.n	80031f8 <HAL_RCC_OscConfig+0x3d0>
      {
        /* Enable write access to Backup domain */
        SET_BIT(PWR->CR1, PWR_CR1_DBP);
 80031c2:	4ba5      	ldr	r3, [pc, #660]	; (8003458 <HAL_RCC_OscConfig+0x630>)
 80031c4:	681a      	ldr	r2, [r3, #0]
 80031c6:	4ba4      	ldr	r3, [pc, #656]	; (8003458 <HAL_RCC_OscConfig+0x630>)
 80031c8:	2180      	movs	r1, #128	; 0x80
 80031ca:	0049      	lsls	r1, r1, #1
 80031cc:	430a      	orrs	r2, r1
 80031ce:	601a      	str	r2, [r3, #0]

        /* Wait for Backup domain Write protection disable */
        tickstart = HAL_GetTick();
 80031d0:	f7fe fbfe 	bl	80019d0 <HAL_GetTick>
 80031d4:	0003      	movs	r3, r0
 80031d6:	613b      	str	r3, [r7, #16]

        while (HAL_IS_BIT_CLR(PWR->CR1, PWR_CR1_DBP))
 80031d8:	e008      	b.n	80031ec <HAL_RCC_OscConfig+0x3c4>
        {
          if ((HAL_GetTick() - tickstart) > RCC_DBP_TIMEOUT_VALUE)
 80031da:	f7fe fbf9 	bl	80019d0 <HAL_GetTick>
 80031de:	0002      	movs	r2, r0
 80031e0:	693b      	ldr	r3, [r7, #16]
 80031e2:	1ad3      	subs	r3, r2, r3
 80031e4:	2b02      	cmp	r3, #2
 80031e6:	d901      	bls.n	80031ec <HAL_RCC_OscConfig+0x3c4>
          {
            return HAL_TIMEOUT;
 80031e8:	2303      	movs	r3, #3
 80031ea:	e177      	b.n	80034dc <HAL_RCC_OscConfig+0x6b4>
        while (HAL_IS_BIT_CLR(PWR->CR1, PWR_CR1_DBP))
 80031ec:	4b9a      	ldr	r3, [pc, #616]	; (8003458 <HAL_RCC_OscConfig+0x630>)
 80031ee:	681a      	ldr	r2, [r3, #0]
 80031f0:	2380      	movs	r3, #128	; 0x80
 80031f2:	005b      	lsls	r3, r3, #1
 80031f4:	4013      	ands	r3, r2
 80031f6:	d0f0      	beq.n	80031da <HAL_RCC_OscConfig+0x3b2>
          }
        }
      }

      /* Set the new LSE configuration -----------------------------------------*/
      __HAL_RCC_LSE_CONFIG(RCC_OscInitStruct->LSEState);
 80031f8:	687b      	ldr	r3, [r7, #4]
 80031fa:	689b      	ldr	r3, [r3, #8]
 80031fc:	2b01      	cmp	r3, #1
 80031fe:	d106      	bne.n	800320e <HAL_RCC_OscConfig+0x3e6>
 8003200:	4b94      	ldr	r3, [pc, #592]	; (8003454 <HAL_RCC_OscConfig+0x62c>)
 8003202:	6dda      	ldr	r2, [r3, #92]	; 0x5c
 8003204:	4b93      	ldr	r3, [pc, #588]	; (8003454 <HAL_RCC_OscConfig+0x62c>)
 8003206:	2101      	movs	r1, #1
 8003208:	430a      	orrs	r2, r1
 800320a:	65da      	str	r2, [r3, #92]	; 0x5c
 800320c:	e01c      	b.n	8003248 <HAL_RCC_OscConfig+0x420>
 800320e:	687b      	ldr	r3, [r7, #4]
 8003210:	689b      	ldr	r3, [r3, #8]
 8003212:	2b05      	cmp	r3, #5
 8003214:	d10c      	bne.n	8003230 <HAL_RCC_OscConfig+0x408>
 8003216:	4b8f      	ldr	r3, [pc, #572]	; (8003454 <HAL_RCC_OscConfig+0x62c>)
 8003218:	6dda      	ldr	r2, [r3, #92]	; 0x5c
 800321a:	4b8e      	ldr	r3, [pc, #568]	; (8003454 <HAL_RCC_OscConfig+0x62c>)
 800321c:	2104      	movs	r1, #4
 800321e:	430a      	orrs	r2, r1
 8003220:	65da      	str	r2, [r3, #92]	; 0x5c
 8003222:	4b8c      	ldr	r3, [pc, #560]	; (8003454 <HAL_RCC_OscConfig+0x62c>)
 8003224:	6dda      	ldr	r2, [r3, #92]	; 0x5c
 8003226:	4b8b      	ldr	r3, [pc, #556]	; (8003454 <HAL_RCC_OscConfig+0x62c>)
 8003228:	2101      	movs	r1, #1
 800322a:	430a      	orrs	r2, r1
 800322c:	65da      	str	r2, [r3, #92]	; 0x5c
 800322e:	e00b      	b.n	8003248 <HAL_RCC_OscConfig+0x420>
 8003230:	4b88      	ldr	r3, [pc, #544]	; (8003454 <HAL_RCC_OscConfig+0x62c>)
 8003232:	6dda      	ldr	r2, [r3, #92]	; 0x5c
 8003234:	4b87      	ldr	r3, [pc, #540]	; (8003454 <HAL_RCC_OscConfig+0x62c>)
 8003236:	2101      	movs	r1, #1
 8003238:	438a      	bics	r2, r1
 800323a:	65da      	str	r2, [r3, #92]	; 0x5c
 800323c:	4b85      	ldr	r3, [pc, #532]	; (8003454 <HAL_RCC_OscConfig+0x62c>)
 800323e:	6dda      	ldr	r2, [r3, #92]	; 0x5c
 8003240:	4b84      	ldr	r3, [pc, #528]	; (8003454 <HAL_RCC_OscConfig+0x62c>)
 8003242:	2104      	movs	r1, #4
 8003244:	438a      	bics	r2, r1
 8003246:	65da      	str	r2, [r3, #92]	; 0x5c

      /* Check the LSE State */
      if (RCC_OscInitStruct->LSEState != RCC_LSE_OFF)
 8003248:	687b      	ldr	r3, [r7, #4]
 800324a:	689b      	ldr	r3, [r3, #8]
 800324c:	2b00      	cmp	r3, #0
 800324e:	d014      	beq.n	800327a <HAL_RCC_OscConfig+0x452>
      {
        /* Get Start Tick*/
        tickstart = HAL_GetTick();
 8003250:	f7fe fbbe 	bl	80019d0 <HAL_GetTick>
 8003254:	0003      	movs	r3, r0
 8003256:	613b      	str	r3, [r7, #16]

        /* Wait till LSE is ready */
        while (READ_BIT(RCC->BDCR, RCC_BDCR_LSERDY) == 0U)
 8003258:	e009      	b.n	800326e <HAL_RCC_OscConfig+0x446>
        {
          if ((HAL_GetTick() - tickstart) > RCC_LSE_TIMEOUT_VALUE)
 800325a:	f7fe fbb9 	bl	80019d0 <HAL_GetTick>
 800325e:	0002      	movs	r2, r0
 8003260:	693b      	ldr	r3, [r7, #16]
 8003262:	1ad3      	subs	r3, r2, r3
 8003264:	4a7d      	ldr	r2, [pc, #500]	; (800345c <HAL_RCC_OscConfig+0x634>)
 8003266:	4293      	cmp	r3, r2
 8003268:	d901      	bls.n	800326e <HAL_RCC_OscConfig+0x446>
          {
            return HAL_TIMEOUT;
 800326a:	2303      	movs	r3, #3
 800326c:	e136      	b.n	80034dc <HAL_RCC_OscConfig+0x6b4>
        while (READ_BIT(RCC->BDCR, RCC_BDCR_LSERDY) == 0U)
 800326e:	4b79      	ldr	r3, [pc, #484]	; (8003454 <HAL_RCC_OscConfig+0x62c>)
 8003270:	6ddb      	ldr	r3, [r3, #92]	; 0x5c
 8003272:	2202      	movs	r2, #2
 8003274:	4013      	ands	r3, r2
 8003276:	d0f0      	beq.n	800325a <HAL_RCC_OscConfig+0x432>
 8003278:	e013      	b.n	80032a2 <HAL_RCC_OscConfig+0x47a>
        }
      }
      else
      {
        /* Get Start Tick*/
        tickstart = HAL_GetTick();
 800327a:	f7fe fba9 	bl	80019d0 <HAL_GetTick>
 800327e:	0003      	movs	r3, r0
 8003280:	613b      	str	r3, [r7, #16]

        /* Wait till LSE is disabled */
        while (READ_BIT(RCC->BDCR, RCC_BDCR_LSERDY) != 0U)
 8003282:	e009      	b.n	8003298 <HAL_RCC_OscConfig+0x470>
        {
          if ((HAL_GetTick() - tickstart) > RCC_LSE_TIMEOUT_VALUE)
 8003284:	f7fe fba4 	bl	80019d0 <HAL_GetTick>
 8003288:	0002      	movs	r2, r0
 800328a:	693b      	ldr	r3, [r7, #16]
 800328c:	1ad3      	subs	r3, r2, r3
 800328e:	4a73      	ldr	r2, [pc, #460]	; (800345c <HAL_RCC_OscConfig+0x634>)
 8003290:	4293      	cmp	r3, r2
 8003292:	d901      	bls.n	8003298 <HAL_RCC_OscConfig+0x470>
          {
            return HAL_TIMEOUT;
 8003294:	2303      	movs	r3, #3
 8003296:	e121      	b.n	80034dc <HAL_RCC_OscConfig+0x6b4>
        while (READ_BIT(RCC->BDCR, RCC_BDCR_LSERDY) != 0U)
 8003298:	4b6e      	ldr	r3, [pc, #440]	; (8003454 <HAL_RCC_OscConfig+0x62c>)
 800329a:	6ddb      	ldr	r3, [r3, #92]	; 0x5c
 800329c:	2202      	movs	r2, #2
 800329e:	4013      	ands	r3, r2
 80032a0:	d1f0      	bne.n	8003284 <HAL_RCC_OscConfig+0x45c>
          }
        }
      }

      /* Restore clock configuration if changed */
      if (pwrclkchanged == SET)
 80032a2:	231f      	movs	r3, #31
 80032a4:	18fb      	adds	r3, r7, r3
 80032a6:	781b      	ldrb	r3, [r3, #0]
 80032a8:	2b01      	cmp	r3, #1
 80032aa:	d105      	bne.n	80032b8 <HAL_RCC_OscConfig+0x490>
      {
        __HAL_RCC_PWR_CLK_DISABLE();
 80032ac:	4b69      	ldr	r3, [pc, #420]	; (8003454 <HAL_RCC_OscConfig+0x62c>)
 80032ae:	6bda      	ldr	r2, [r3, #60]	; 0x3c
 80032b0:	4b68      	ldr	r3, [pc, #416]	; (8003454 <HAL_RCC_OscConfig+0x62c>)
 80032b2:	496b      	ldr	r1, [pc, #428]	; (8003460 <HAL_RCC_OscConfig+0x638>)
 80032b4:	400a      	ands	r2, r1
 80032b6:	63da      	str	r2, [r3, #60]	; 0x3c
      }
    }
  }
#if defined(RCC_HSI48_SUPPORT)
  /*------------------------------ HSI48 Configuration -----------------------*/
  if (((RCC_OscInitStruct->OscillatorType) & RCC_OSCILLATORTYPE_HSI48) == RCC_OSCILLATORTYPE_HSI48)
 80032b8:	687b      	ldr	r3, [r7, #4]
 80032ba:	681b      	ldr	r3, [r3, #0]
 80032bc:	2220      	movs	r2, #32
 80032be:	4013      	ands	r3, r2
 80032c0:	d039      	beq.n	8003336 <HAL_RCC_OscConfig+0x50e>
  {
    /* Check the parameters */
    assert_param(IS_RCC_HSI48(RCC_OscInitStruct->HSI48State));

    /* Check the LSI State */
    if (RCC_OscInitStruct->HSI48State != RCC_HSI48_OFF)
 80032c2:	687b      	ldr	r3, [r7, #4]
 80032c4:	69db      	ldr	r3, [r3, #28]
 80032c6:	2b00      	cmp	r3, #0
 80032c8:	d01b      	beq.n	8003302 <HAL_RCC_OscConfig+0x4da>
    {
      /* Enable the Internal Low Speed oscillator (HSI48). */
      __HAL_RCC_HSI48_ENABLE();
 80032ca:	4b62      	ldr	r3, [pc, #392]	; (8003454 <HAL_RCC_OscConfig+0x62c>)
 80032cc:	681a      	ldr	r2, [r3, #0]
 80032ce:	4b61      	ldr	r3, [pc, #388]	; (8003454 <HAL_RCC_OscConfig+0x62c>)
 80032d0:	2180      	movs	r1, #128	; 0x80
 80032d2:	03c9      	lsls	r1, r1, #15
 80032d4:	430a      	orrs	r2, r1
 80032d6:	601a      	str	r2, [r3, #0]

      /* Get Start Tick*/
      tickstart = HAL_GetTick();
 80032d8:	f7fe fb7a 	bl	80019d0 <HAL_GetTick>
 80032dc:	0003      	movs	r3, r0
 80032de:	613b      	str	r3, [r7, #16]

      /* Wait till HSI48 is ready */
      while (READ_BIT(RCC->CR, RCC_CR_HSI48RDY) == 0U)
 80032e0:	e008      	b.n	80032f4 <HAL_RCC_OscConfig+0x4cc>
      {
        if ((HAL_GetTick() - tickstart) > HSI48_TIMEOUT_VALUE)
 80032e2:	f7fe fb75 	bl	80019d0 <HAL_GetTick>
 80032e6:	0002      	movs	r2, r0
 80032e8:	693b      	ldr	r3, [r7, #16]
 80032ea:	1ad3      	subs	r3, r2, r3
 80032ec:	2b02      	cmp	r3, #2
 80032ee:	d901      	bls.n	80032f4 <HAL_RCC_OscConfig+0x4cc>
        {
          return HAL_TIMEOUT;
 80032f0:	2303      	movs	r3, #3
 80032f2:	e0f3      	b.n	80034dc <HAL_RCC_OscConfig+0x6b4>
      while (READ_BIT(RCC->CR, RCC_CR_HSI48RDY) == 0U)
 80032f4:	4b57      	ldr	r3, [pc, #348]	; (8003454 <HAL_RCC_OscConfig+0x62c>)
 80032f6:	681a      	ldr	r2, [r3, #0]
 80032f8:	2380      	movs	r3, #128	; 0x80
 80032fa:	041b      	lsls	r3, r3, #16
 80032fc:	4013      	ands	r3, r2
 80032fe:	d0f0      	beq.n	80032e2 <HAL_RCC_OscConfig+0x4ba>
 8003300:	e019      	b.n	8003336 <HAL_RCC_OscConfig+0x50e>
      }
    }
    else
    {
      /* Disable the Internal Low Speed oscillator (HSI48). */
      __HAL_RCC_HSI48_DISABLE();
 8003302:	4b54      	ldr	r3, [pc, #336]	; (8003454 <HAL_RCC_OscConfig+0x62c>)
 8003304:	681a      	ldr	r2, [r3, #0]
 8003306:	4b53      	ldr	r3, [pc, #332]	; (8003454 <HAL_RCC_OscConfig+0x62c>)
 8003308:	4956      	ldr	r1, [pc, #344]	; (8003464 <HAL_RCC_OscConfig+0x63c>)
 800330a:	400a      	ands	r2, r1
 800330c:	601a      	str	r2, [r3, #0]

      /* Get Start Tick*/
      tickstart = HAL_GetTick();
 800330e:	f7fe fb5f 	bl	80019d0 <HAL_GetTick>
 8003312:	0003      	movs	r3, r0
 8003314:	613b      	str	r3, [r7, #16]

      /* Wait till HSI48 is disabled */
      while (READ_BIT(RCC->CR, RCC_CR_HSI48RDY) != 0U)
 8003316:	e008      	b.n	800332a <HAL_RCC_OscConfig+0x502>
      {
        if ((HAL_GetTick() - tickstart) > HSI48_TIMEOUT_VALUE)
 8003318:	f7fe fb5a 	bl	80019d0 <HAL_GetTick>
 800331c:	0002      	movs	r2, r0
 800331e:	693b      	ldr	r3, [r7, #16]
 8003320:	1ad3      	subs	r3, r2, r3
 8003322:	2b02      	cmp	r3, #2
 8003324:	d901      	bls.n	800332a <HAL_RCC_OscConfig+0x502>
        {
          return HAL_TIMEOUT;
 8003326:	2303      	movs	r3, #3
 8003328:	e0d8      	b.n	80034dc <HAL_RCC_OscConfig+0x6b4>
      while (READ_BIT(RCC->CR, RCC_CR_HSI48RDY) != 0U)
 800332a:	4b4a      	ldr	r3, [pc, #296]	; (8003454 <HAL_RCC_OscConfig+0x62c>)
 800332c:	681a      	ldr	r2, [r3, #0]
 800332e:	2380      	movs	r3, #128	; 0x80
 8003330:	041b      	lsls	r3, r3, #16
 8003332:	4013      	ands	r3, r2
 8003334:	d1f0      	bne.n	8003318 <HAL_RCC_OscConfig+0x4f0>
#endif /* RCC_HSI48_SUPPORT */
  /*-------------------------------- PLL Configuration -----------------------*/
  /* Check the parameters */
  assert_param(IS_RCC_PLL(RCC_OscInitStruct->PLL.PLLState));

  if (RCC_OscInitStruct->PLL.PLLState != RCC_PLL_NONE)
 8003336:	687b      	ldr	r3, [r7, #4]
 8003338:	6a1b      	ldr	r3, [r3, #32]
 800333a:	2b00      	cmp	r3, #0
 800333c:	d100      	bne.n	8003340 <HAL_RCC_OscConfig+0x518>
 800333e:	e0cc      	b.n	80034da <HAL_RCC_OscConfig+0x6b2>
  {
    /* Check if the PLL is used as system clock or not */
    if (__HAL_RCC_GET_SYSCLK_SOURCE() != RCC_SYSCLKSOURCE_STATUS_PLLCLK)
 8003340:	4b44      	ldr	r3, [pc, #272]	; (8003454 <HAL_RCC_OscConfig+0x62c>)
 8003342:	689b      	ldr	r3, [r3, #8]
 8003344:	2238      	movs	r2, #56	; 0x38
 8003346:	4013      	ands	r3, r2
 8003348:	2b10      	cmp	r3, #16
 800334a:	d100      	bne.n	800334e <HAL_RCC_OscConfig+0x526>
 800334c:	e07b      	b.n	8003446 <HAL_RCC_OscConfig+0x61e>
    {
      if (RCC_OscInitStruct->PLL.PLLState == RCC_PLL_ON)
 800334e:	687b      	ldr	r3, [r7, #4]
 8003350:	6a1b      	ldr	r3, [r3, #32]
 8003352:	2b02      	cmp	r3, #2
 8003354:	d156      	bne.n	8003404 <HAL_RCC_OscConfig+0x5dc>
        assert_param(IS_RCC_PLLQ_VALUE(RCC_OscInitStruct->PLL.PLLQ));
#endif /* RCC_PLLQ_SUPPORT */
        assert_param(IS_RCC_PLLR_VALUE(RCC_OscInitStruct->PLL.PLLR));

        /* Disable the main PLL. */
        __HAL_RCC_PLL_DISABLE();
 8003356:	4b3f      	ldr	r3, [pc, #252]	; (8003454 <HAL_RCC_OscConfig+0x62c>)
 8003358:	681a      	ldr	r2, [r3, #0]
 800335a:	4b3e      	ldr	r3, [pc, #248]	; (8003454 <HAL_RCC_OscConfig+0x62c>)
 800335c:	4942      	ldr	r1, [pc, #264]	; (8003468 <HAL_RCC_OscConfig+0x640>)
 800335e:	400a      	ands	r2, r1
 8003360:	601a      	str	r2, [r3, #0]

        /* Get Start Tick*/
        tickstart = HAL_GetTick();
 8003362:	f7fe fb35 	bl	80019d0 <HAL_GetTick>
 8003366:	0003      	movs	r3, r0
 8003368:	613b      	str	r3, [r7, #16]

        /* Wait till PLL is ready */
        while (READ_BIT(RCC->CR, RCC_CR_PLLRDY) != 0U)
 800336a:	e008      	b.n	800337e <HAL_RCC_OscConfig+0x556>
        {
          if ((HAL_GetTick() - tickstart) > PLL_TIMEOUT_VALUE)
 800336c:	f7fe fb30 	bl	80019d0 <HAL_GetTick>
 8003370:	0002      	movs	r2, r0
 8003372:	693b      	ldr	r3, [r7, #16]
 8003374:	1ad3      	subs	r3, r2, r3
 8003376:	2b02      	cmp	r3, #2
 8003378:	d901      	bls.n	800337e <HAL_RCC_OscConfig+0x556>
          {
            return HAL_TIMEOUT;
 800337a:	2303      	movs	r3, #3
 800337c:	e0ae      	b.n	80034dc <HAL_RCC_OscConfig+0x6b4>
        while (READ_BIT(RCC->CR, RCC_CR_PLLRDY) != 0U)
 800337e:	4b35      	ldr	r3, [pc, #212]	; (8003454 <HAL_RCC_OscConfig+0x62c>)
 8003380:	681a      	ldr	r2, [r3, #0]
 8003382:	2380      	movs	r3, #128	; 0x80
 8003384:	049b      	lsls	r3, r3, #18
 8003386:	4013      	ands	r3, r2
 8003388:	d1f0      	bne.n	800336c <HAL_RCC_OscConfig+0x544>
          }
        }

        /* Configure the main PLL clock source, multiplication and division factors. */
#if defined(RCC_PLLQ_SUPPORT)
        __HAL_RCC_PLL_CONFIG(RCC_OscInitStruct->PLL.PLLSource,
 800338a:	4b32      	ldr	r3, [pc, #200]	; (8003454 <HAL_RCC_OscConfig+0x62c>)
 800338c:	68db      	ldr	r3, [r3, #12]
 800338e:	4a37      	ldr	r2, [pc, #220]	; (800346c <HAL_RCC_OscConfig+0x644>)
 8003390:	4013      	ands	r3, r2
 8003392:	0019      	movs	r1, r3
 8003394:	687b      	ldr	r3, [r7, #4]
 8003396:	6a5a      	ldr	r2, [r3, #36]	; 0x24
 8003398:	687b      	ldr	r3, [r7, #4]
 800339a:	6a9b      	ldr	r3, [r3, #40]	; 0x28
 800339c:	431a      	orrs	r2, r3
 800339e:	687b      	ldr	r3, [r7, #4]
 80033a0:	6adb      	ldr	r3, [r3, #44]	; 0x2c
 80033a2:	021b      	lsls	r3, r3, #8
 80033a4:	431a      	orrs	r2, r3
 80033a6:	687b      	ldr	r3, [r7, #4]
 80033a8:	6b1b      	ldr	r3, [r3, #48]	; 0x30
 80033aa:	431a      	orrs	r2, r3
 80033ac:	687b      	ldr	r3, [r7, #4]
 80033ae:	6b5b      	ldr	r3, [r3, #52]	; 0x34
 80033b0:	431a      	orrs	r2, r3
 80033b2:	687b      	ldr	r3, [r7, #4]
 80033b4:	6b9b      	ldr	r3, [r3, #56]	; 0x38
 80033b6:	431a      	orrs	r2, r3
 80033b8:	4b26      	ldr	r3, [pc, #152]	; (8003454 <HAL_RCC_OscConfig+0x62c>)
 80033ba:	430a      	orrs	r2, r1
 80033bc:	60da      	str	r2, [r3, #12]
                             RCC_OscInitStruct->PLL.PLLP,
                             RCC_OscInitStruct->PLL.PLLR);
#endif /* RCC_PLLQ_SUPPORT */

        /* Enable the main PLL. */
        __HAL_RCC_PLL_ENABLE();
 80033be:	4b25      	ldr	r3, [pc, #148]	; (8003454 <HAL_RCC_OscConfig+0x62c>)
 80033c0:	681a      	ldr	r2, [r3, #0]
 80033c2:	4b24      	ldr	r3, [pc, #144]	; (8003454 <HAL_RCC_OscConfig+0x62c>)
 80033c4:	2180      	movs	r1, #128	; 0x80
 80033c6:	0449      	lsls	r1, r1, #17
 80033c8:	430a      	orrs	r2, r1
 80033ca:	601a      	str	r2, [r3, #0]

        /* Enable PLLR Clock output. */
        __HAL_RCC_PLLCLKOUT_ENABLE(RCC_PLLRCLK);
 80033cc:	4b21      	ldr	r3, [pc, #132]	; (8003454 <HAL_RCC_OscConfig+0x62c>)
 80033ce:	68da      	ldr	r2, [r3, #12]
 80033d0:	4b20      	ldr	r3, [pc, #128]	; (8003454 <HAL_RCC_OscConfig+0x62c>)
 80033d2:	2180      	movs	r1, #128	; 0x80
 80033d4:	0549      	lsls	r1, r1, #21
 80033d6:	430a      	orrs	r2, r1
 80033d8:	60da      	str	r2, [r3, #12]

        /* Get Start Tick*/
        tickstart = HAL_GetTick();
 80033da:	f7fe faf9 	bl	80019d0 <HAL_GetTick>
 80033de:	0003      	movs	r3, r0
 80033e0:	613b      	str	r3, [r7, #16]

        /* Wait till PLL is ready */
        while (READ_BIT(RCC->CR, RCC_CR_PLLRDY) == 0U)
 80033e2:	e008      	b.n	80033f6 <HAL_RCC_OscConfig+0x5ce>
        {
          if ((HAL_GetTick() - tickstart) > PLL_TIMEOUT_VALUE)
 80033e4:	f7fe faf4 	bl	80019d0 <HAL_GetTick>
 80033e8:	0002      	movs	r2, r0
 80033ea:	693b      	ldr	r3, [r7, #16]
 80033ec:	1ad3      	subs	r3, r2, r3
 80033ee:	2b02      	cmp	r3, #2
 80033f0:	d901      	bls.n	80033f6 <HAL_RCC_OscConfig+0x5ce>
          {
            return HAL_TIMEOUT;
 80033f2:	2303      	movs	r3, #3
 80033f4:	e072      	b.n	80034dc <HAL_RCC_OscConfig+0x6b4>
        while (READ_BIT(RCC->CR, RCC_CR_PLLRDY) == 0U)
 80033f6:	4b17      	ldr	r3, [pc, #92]	; (8003454 <HAL_RCC_OscConfig+0x62c>)
 80033f8:	681a      	ldr	r2, [r3, #0]
 80033fa:	2380      	movs	r3, #128	; 0x80
 80033fc:	049b      	lsls	r3, r3, #18
 80033fe:	4013      	ands	r3, r2
 8003400:	d0f0      	beq.n	80033e4 <HAL_RCC_OscConfig+0x5bc>
 8003402:	e06a      	b.n	80034da <HAL_RCC_OscConfig+0x6b2>
        }
      }
      else
      {
        /* Disable the main PLL. */
        __HAL_RCC_PLL_DISABLE();
 8003404:	4b13      	ldr	r3, [pc, #76]	; (8003454 <HAL_RCC_OscConfig+0x62c>)
 8003406:	681a      	ldr	r2, [r3, #0]
 8003408:	4b12      	ldr	r3, [pc, #72]	; (8003454 <HAL_RCC_OscConfig+0x62c>)
 800340a:	4917      	ldr	r1, [pc, #92]	; (8003468 <HAL_RCC_OscConfig+0x640>)
 800340c:	400a      	ands	r2, r1
 800340e:	601a      	str	r2, [r3, #0]

        /* Get Start Tick*/
        tickstart = HAL_GetTick();
 8003410:	f7fe fade 	bl	80019d0 <HAL_GetTick>
 8003414:	0003      	movs	r3, r0
 8003416:	613b      	str	r3, [r7, #16]

        /* Wait till PLL is disabled */
        while (READ_BIT(RCC->CR, RCC_CR_PLLRDY) != 0U)
 8003418:	e008      	b.n	800342c <HAL_RCC_OscConfig+0x604>
        {
          if ((HAL_GetTick() - tickstart) > PLL_TIMEOUT_VALUE)
 800341a:	f7fe fad9 	bl	80019d0 <HAL_GetTick>
 800341e:	0002      	movs	r2, r0
 8003420:	693b      	ldr	r3, [r7, #16]
 8003422:	1ad3      	subs	r3, r2, r3
 8003424:	2b02      	cmp	r3, #2
 8003426:	d901      	bls.n	800342c <HAL_RCC_OscConfig+0x604>
          {
            return HAL_TIMEOUT;
 8003428:	2303      	movs	r3, #3
 800342a:	e057      	b.n	80034dc <HAL_RCC_OscConfig+0x6b4>
        while (READ_BIT(RCC->CR, RCC_CR_PLLRDY) != 0U)
 800342c:	4b09      	ldr	r3, [pc, #36]	; (8003454 <HAL_RCC_OscConfig+0x62c>)
 800342e:	681a      	ldr	r2, [r3, #0]
 8003430:	2380      	movs	r3, #128	; 0x80
 8003432:	049b      	lsls	r3, r3, #18
 8003434:	4013      	ands	r3, r2
 8003436:	d1f0      	bne.n	800341a <HAL_RCC_OscConfig+0x5f2>
          }
        }
        /* Unselect main PLL clock source and disable main PLL outputs to save power */
#if defined(RCC_PLLQ_SUPPORT)
        RCC->PLLCFGR &= ~(RCC_PLLCFGR_PLLSRC | RCC_PLLCFGR_PLLPEN | RCC_PLLCFGR_PLLQEN | RCC_PLLCFGR_PLLREN);
 8003438:	4b06      	ldr	r3, [pc, #24]	; (8003454 <HAL_RCC_OscConfig+0x62c>)
 800343a:	68da      	ldr	r2, [r3, #12]
 800343c:	4b05      	ldr	r3, [pc, #20]	; (8003454 <HAL_RCC_OscConfig+0x62c>)
 800343e:	490c      	ldr	r1, [pc, #48]	; (8003470 <HAL_RCC_OscConfig+0x648>)
 8003440:	400a      	ands	r2, r1
 8003442:	60da      	str	r2, [r3, #12]
 8003444:	e049      	b.n	80034da <HAL_RCC_OscConfig+0x6b2>
      }
    }
    else
    {
      /* Check if there is a request to disable the PLL used as System clock source */
      if ((RCC_OscInitStruct->PLL.PLLState) == RCC_PLL_OFF)
 8003446:	687b      	ldr	r3, [r7, #4]
 8003448:	6a1b      	ldr	r3, [r3, #32]
 800344a:	2b01      	cmp	r3, #1
 800344c:	d112      	bne.n	8003474 <HAL_RCC_OscConfig+0x64c>
      {
        return HAL_ERROR;
 800344e:	2301      	movs	r3, #1
 8003450:	e044      	b.n	80034dc <HAL_RCC_OscConfig+0x6b4>
 8003452:	46c0      	nop			; (mov r8, r8)
 8003454:	40021000 	.word	0x40021000
 8003458:	40007000 	.word	0x40007000
 800345c:	00001388 	.word	0x00001388
 8003460:	efffffff 	.word	0xefffffff
 8003464:	ffbfffff 	.word	0xffbfffff
 8003468:	feffffff 	.word	0xfeffffff
 800346c:	11c1808c 	.word	0x11c1808c
 8003470:	eefefffc 	.word	0xeefefffc
      }
      else
      {
        /* Do not return HAL_ERROR if request repeats the current configuration */
        temp_pllckcfg = RCC->PLLCFGR;
 8003474:	4b1b      	ldr	r3, [pc, #108]	; (80034e4 <HAL_RCC_OscConfig+0x6bc>)
 8003476:	68db      	ldr	r3, [r3, #12]
 8003478:	617b      	str	r3, [r7, #20]
        if ((READ_BIT(temp_pllckcfg, RCC_PLLCFGR_PLLSRC) != RCC_OscInitStruct->PLL.PLLSource) ||
 800347a:	697b      	ldr	r3, [r7, #20]
 800347c:	2203      	movs	r2, #3
 800347e:	401a      	ands	r2, r3
 8003480:	687b      	ldr	r3, [r7, #4]
 8003482:	6a5b      	ldr	r3, [r3, #36]	; 0x24
 8003484:	429a      	cmp	r2, r3
 8003486:	d126      	bne.n	80034d6 <HAL_RCC_OscConfig+0x6ae>
            (READ_BIT(temp_pllckcfg, RCC_PLLCFGR_PLLM) != RCC_OscInitStruct->PLL.PLLM) ||
 8003488:	697b      	ldr	r3, [r7, #20]
 800348a:	2270      	movs	r2, #112	; 0x70
 800348c:	401a      	ands	r2, r3
 800348e:	687b      	ldr	r3, [r7, #4]
 8003490:	6a9b      	ldr	r3, [r3, #40]	; 0x28
        if ((READ_BIT(temp_pllckcfg, RCC_PLLCFGR_PLLSRC) != RCC_OscInitStruct->PLL.PLLSource) ||
 8003492:	429a      	cmp	r2, r3
 8003494:	d11f      	bne.n	80034d6 <HAL_RCC_OscConfig+0x6ae>
            (READ_BIT(temp_pllckcfg, RCC_PLLCFGR_PLLN) != (RCC_OscInitStruct->PLL.PLLN << RCC_PLLCFGR_PLLN_Pos)) ||
 8003496:	697a      	ldr	r2, [r7, #20]
 8003498:	23fe      	movs	r3, #254	; 0xfe
 800349a:	01db      	lsls	r3, r3, #7
 800349c:	401a      	ands	r2, r3
 800349e:	687b      	ldr	r3, [r7, #4]
 80034a0:	6adb      	ldr	r3, [r3, #44]	; 0x2c
 80034a2:	021b      	lsls	r3, r3, #8
            (READ_BIT(temp_pllckcfg, RCC_PLLCFGR_PLLM) != RCC_OscInitStruct->PLL.PLLM) ||
 80034a4:	429a      	cmp	r2, r3
 80034a6:	d116      	bne.n	80034d6 <HAL_RCC_OscConfig+0x6ae>
            (READ_BIT(temp_pllckcfg, RCC_PLLCFGR_PLLP) != RCC_OscInitStruct->PLL.PLLP) ||
 80034a8:	697a      	ldr	r2, [r7, #20]
 80034aa:	23f8      	movs	r3, #248	; 0xf8
 80034ac:	039b      	lsls	r3, r3, #14
 80034ae:	401a      	ands	r2, r3
 80034b0:	687b      	ldr	r3, [r7, #4]
 80034b2:	6b1b      	ldr	r3, [r3, #48]	; 0x30
            (READ_BIT(temp_pllckcfg, RCC_PLLCFGR_PLLN) != (RCC_OscInitStruct->PLL.PLLN << RCC_PLLCFGR_PLLN_Pos)) ||
 80034b4:	429a      	cmp	r2, r3
 80034b6:	d10e      	bne.n	80034d6 <HAL_RCC_OscConfig+0x6ae>
#if defined (RCC_PLLQ_SUPPORT)
            (READ_BIT(temp_pllckcfg, RCC_PLLCFGR_PLLQ) != RCC_OscInitStruct->PLL.PLLQ) ||
 80034b8:	697a      	ldr	r2, [r7, #20]
 80034ba:	23e0      	movs	r3, #224	; 0xe0
 80034bc:	051b      	lsls	r3, r3, #20
 80034be:	401a      	ands	r2, r3
 80034c0:	687b      	ldr	r3, [r7, #4]
 80034c2:	6b5b      	ldr	r3, [r3, #52]	; 0x34
            (READ_BIT(temp_pllckcfg, RCC_PLLCFGR_PLLP) != RCC_OscInitStruct->PLL.PLLP) ||
 80034c4:	429a      	cmp	r2, r3
 80034c6:	d106      	bne.n	80034d6 <HAL_RCC_OscConfig+0x6ae>
#endif /* RCC_PLLQ_SUPPORT */
            (READ_BIT(temp_pllckcfg, RCC_PLLCFGR_PLLR) != RCC_OscInitStruct->PLL.PLLR))
 80034c8:	697b      	ldr	r3, [r7, #20]
 80034ca:	0f5b      	lsrs	r3, r3, #29
 80034cc:	075a      	lsls	r2, r3, #29
 80034ce:	687b      	ldr	r3, [r7, #4]
 80034d0:	6b9b      	ldr	r3, [r3, #56]	; 0x38
            (READ_BIT(temp_pllckcfg, RCC_PLLCFGR_PLLQ) != RCC_OscInitStruct->PLL.PLLQ) ||
 80034d2:	429a      	cmp	r2, r3
 80034d4:	d001      	beq.n	80034da <HAL_RCC_OscConfig+0x6b2>
        {
          return HAL_ERROR;
 80034d6:	2301      	movs	r3, #1
 80034d8:	e000      	b.n	80034dc <HAL_RCC_OscConfig+0x6b4>
        }
      }
    }
  }
  return HAL_OK;
 80034da:	2300      	movs	r3, #0
}
 80034dc:	0018      	movs	r0, r3
 80034de:	46bd      	mov	sp, r7
 80034e0:	b008      	add	sp, #32
 80034e2:	bd80      	pop	{r7, pc}
 80034e4:	40021000 	.word	0x40021000

080034e8 <HAL_RCC_ClockConfig>:
  *         HPRE[3:0] bits to ensure that HCLK not exceed the maximum allowed frequency
  *         (for more details refer to section above "Initialization/de-initialization functions")
  * @retval None
  */
HAL_StatusTypeDef HAL_RCC_ClockConfig(RCC_ClkInitTypeDef  *RCC_ClkInitStruct, uint32_t FLatency)
{
 80034e8:	b580      	push	{r7, lr}
 80034ea:	b084      	sub	sp, #16
 80034ec:	af00      	add	r7, sp, #0
 80034ee:	6078      	str	r0, [r7, #4]
 80034f0:	6039      	str	r1, [r7, #0]
  uint32_t tickstart;

  /* Check Null pointer */
  if (RCC_ClkInitStruct == NULL)
 80034f2:	687b      	ldr	r3, [r7, #4]
 80034f4:	2b00      	cmp	r3, #0
 80034f6:	d101      	bne.n	80034fc <HAL_RCC_ClockConfig+0x14>
  {
    return HAL_ERROR;
 80034f8:	2301      	movs	r3, #1
 80034fa:	e0e9      	b.n	80036d0 <HAL_RCC_ClockConfig+0x1e8>
  /* To correctly read data from FLASH memory, the number of wait states (LATENCY)
    must be correctly programmed according to the frequency of the FLASH clock
    (HCLK) and the supply voltage of the device. */

  /* Increasing the number of wait states because of higher CPU frequency */
  if (FLatency > __HAL_FLASH_GET_LATENCY())
 80034fc:	4b76      	ldr	r3, [pc, #472]	; (80036d8 <HAL_RCC_ClockConfig+0x1f0>)
 80034fe:	681b      	ldr	r3, [r3, #0]
 8003500:	2207      	movs	r2, #7
 8003502:	4013      	ands	r3, r2
 8003504:	683a      	ldr	r2, [r7, #0]
 8003506:	429a      	cmp	r2, r3
 8003508:	d91e      	bls.n	8003548 <HAL_RCC_ClockConfig+0x60>
  {
    /* Program the new number of wait states to the LATENCY bits in the FLASH_ACR register */
    __HAL_FLASH_SET_LATENCY(FLatency);
 800350a:	4b73      	ldr	r3, [pc, #460]	; (80036d8 <HAL_RCC_ClockConfig+0x1f0>)
 800350c:	681b      	ldr	r3, [r3, #0]
 800350e:	2207      	movs	r2, #7
 8003510:	4393      	bics	r3, r2
 8003512:	0019      	movs	r1, r3
 8003514:	4b70      	ldr	r3, [pc, #448]	; (80036d8 <HAL_RCC_ClockConfig+0x1f0>)
 8003516:	683a      	ldr	r2, [r7, #0]
 8003518:	430a      	orrs	r2, r1
 800351a:	601a      	str	r2, [r3, #0]

    /* Check that the new number of wait states is taken into account to access the Flash
    memory by polling the FLASH_ACR register */
    tickstart = HAL_GetTick();
 800351c:	f7fe fa58 	bl	80019d0 <HAL_GetTick>
 8003520:	0003      	movs	r3, r0
 8003522:	60fb      	str	r3, [r7, #12]

    while ((FLASH->ACR & FLASH_ACR_LATENCY) != FLatency)
 8003524:	e009      	b.n	800353a <HAL_RCC_ClockConfig+0x52>
    {
      if ((HAL_GetTick() - tickstart) > CLOCKSWITCH_TIMEOUT_VALUE)
 8003526:	f7fe fa53 	bl	80019d0 <HAL_GetTick>
 800352a:	0002      	movs	r2, r0
 800352c:	68fb      	ldr	r3, [r7, #12]
 800352e:	1ad3      	subs	r3, r2, r3
 8003530:	4a6a      	ldr	r2, [pc, #424]	; (80036dc <HAL_RCC_ClockConfig+0x1f4>)
 8003532:	4293      	cmp	r3, r2
 8003534:	d901      	bls.n	800353a <HAL_RCC_ClockConfig+0x52>
      {
        return HAL_TIMEOUT;
 8003536:	2303      	movs	r3, #3
 8003538:	e0ca      	b.n	80036d0 <HAL_RCC_ClockConfig+0x1e8>
    while ((FLASH->ACR & FLASH_ACR_LATENCY) != FLatency)
 800353a:	4b67      	ldr	r3, [pc, #412]	; (80036d8 <HAL_RCC_ClockConfig+0x1f0>)
 800353c:	681b      	ldr	r3, [r3, #0]
 800353e:	2207      	movs	r2, #7
 8003540:	4013      	ands	r3, r2
 8003542:	683a      	ldr	r2, [r7, #0]
 8003544:	429a      	cmp	r2, r3
 8003546:	d1ee      	bne.n	8003526 <HAL_RCC_ClockConfig+0x3e>
      }
    }
  }

  /*-------------------------- HCLK Configuration --------------------------*/
  if (((RCC_ClkInitStruct->ClockType) & RCC_CLOCKTYPE_HCLK) == RCC_CLOCKTYPE_HCLK)
 8003548:	687b      	ldr	r3, [r7, #4]
 800354a:	681b      	ldr	r3, [r3, #0]
 800354c:	2202      	movs	r2, #2
 800354e:	4013      	ands	r3, r2
 8003550:	d015      	beq.n	800357e <HAL_RCC_ClockConfig+0x96>
  {
    /* Set the highest APB divider in order to ensure that we do not go through
       a non-spec phase whatever we decrease or increase HCLK. */
    if (((RCC_ClkInitStruct->ClockType) & RCC_CLOCKTYPE_PCLK1) == RCC_CLOCKTYPE_PCLK1)
 8003552:	687b      	ldr	r3, [r7, #4]
 8003554:	681b      	ldr	r3, [r3, #0]
 8003556:	2204      	movs	r2, #4
 8003558:	4013      	ands	r3, r2
 800355a:	d006      	beq.n	800356a <HAL_RCC_ClockConfig+0x82>
    {
      MODIFY_REG(RCC->CFGR, RCC_CFGR_PPRE, RCC_HCLK_DIV16);
 800355c:	4b60      	ldr	r3, [pc, #384]	; (80036e0 <HAL_RCC_ClockConfig+0x1f8>)
 800355e:	689a      	ldr	r2, [r3, #8]
 8003560:	4b5f      	ldr	r3, [pc, #380]	; (80036e0 <HAL_RCC_ClockConfig+0x1f8>)
 8003562:	21e0      	movs	r1, #224	; 0xe0
 8003564:	01c9      	lsls	r1, r1, #7
 8003566:	430a      	orrs	r2, r1
 8003568:	609a      	str	r2, [r3, #8]
    }

    /* Set the new HCLK clock divider */
    assert_param(IS_RCC_HCLK(RCC_ClkInitStruct->AHBCLKDivider));
    MODIFY_REG(RCC->CFGR, RCC_CFGR_HPRE, RCC_ClkInitStruct->AHBCLKDivider);
 800356a:	4b5d      	ldr	r3, [pc, #372]	; (80036e0 <HAL_RCC_ClockConfig+0x1f8>)
 800356c:	689b      	ldr	r3, [r3, #8]
 800356e:	4a5d      	ldr	r2, [pc, #372]	; (80036e4 <HAL_RCC_ClockConfig+0x1fc>)
 8003570:	4013      	ands	r3, r2
 8003572:	0019      	movs	r1, r3
 8003574:	687b      	ldr	r3, [r7, #4]
 8003576:	689a      	ldr	r2, [r3, #8]
 8003578:	4b59      	ldr	r3, [pc, #356]	; (80036e0 <HAL_RCC_ClockConfig+0x1f8>)
 800357a:	430a      	orrs	r2, r1
 800357c:	609a      	str	r2, [r3, #8]
  }

  /*------------------------- SYSCLK Configuration ---------------------------*/
  if (((RCC_ClkInitStruct->ClockType) & RCC_CLOCKTYPE_SYSCLK) == RCC_CLOCKTYPE_SYSCLK)
 800357e:	687b      	ldr	r3, [r7, #4]
 8003580:	681b      	ldr	r3, [r3, #0]
 8003582:	2201      	movs	r2, #1
 8003584:	4013      	ands	r3, r2
 8003586:	d057      	beq.n	8003638 <HAL_RCC_ClockConfig+0x150>
  {
    assert_param(IS_RCC_SYSCLKSOURCE(RCC_ClkInitStruct->SYSCLKSource));

    /* HSE is selected as System Clock Source */
    if (RCC_ClkInitStruct->SYSCLKSource == RCC_SYSCLKSOURCE_HSE)
 8003588:	687b      	ldr	r3, [r7, #4]
 800358a:	685b      	ldr	r3, [r3, #4]
 800358c:	2b01      	cmp	r3, #1
 800358e:	d107      	bne.n	80035a0 <HAL_RCC_ClockConfig+0xb8>
    {
      /* Check the HSE ready flag */
      if (READ_BIT(RCC->CR, RCC_CR_HSERDY) == 0U)
 8003590:	4b53      	ldr	r3, [pc, #332]	; (80036e0 <HAL_RCC_ClockConfig+0x1f8>)
 8003592:	681a      	ldr	r2, [r3, #0]
 8003594:	2380      	movs	r3, #128	; 0x80
 8003596:	029b      	lsls	r3, r3, #10
 8003598:	4013      	ands	r3, r2
 800359a:	d12b      	bne.n	80035f4 <HAL_RCC_ClockConfig+0x10c>
      {
        return HAL_ERROR;
 800359c:	2301      	movs	r3, #1
 800359e:	e097      	b.n	80036d0 <HAL_RCC_ClockConfig+0x1e8>
      }
    }
    /* PLL is selected as System Clock Source */
    else if (RCC_ClkInitStruct->SYSCLKSource == RCC_SYSCLKSOURCE_PLLCLK)
 80035a0:	687b      	ldr	r3, [r7, #4]
 80035a2:	685b      	ldr	r3, [r3, #4]
 80035a4:	2b02      	cmp	r3, #2
 80035a6:	d107      	bne.n	80035b8 <HAL_RCC_ClockConfig+0xd0>
    {
      /* Check the PLL ready flag */
      if (READ_BIT(RCC->CR, RCC_CR_PLLRDY) == 0U)
 80035a8:	4b4d      	ldr	r3, [pc, #308]	; (80036e0 <HAL_RCC_ClockConfig+0x1f8>)
 80035aa:	681a      	ldr	r2, [r3, #0]
 80035ac:	2380      	movs	r3, #128	; 0x80
 80035ae:	049b      	lsls	r3, r3, #18
 80035b0:	4013      	ands	r3, r2
 80035b2:	d11f      	bne.n	80035f4 <HAL_RCC_ClockConfig+0x10c>
      {
        return HAL_ERROR;
 80035b4:	2301      	movs	r3, #1
 80035b6:	e08b      	b.n	80036d0 <HAL_RCC_ClockConfig+0x1e8>
      }
    }
    /* HSI is selected as System Clock Source */
    else if (RCC_ClkInitStruct->SYSCLKSource == RCC_SYSCLKSOURCE_HSI)
 80035b8:	687b      	ldr	r3, [r7, #4]
 80035ba:	685b      	ldr	r3, [r3, #4]
 80035bc:	2b00      	cmp	r3, #0
 80035be:	d107      	bne.n	80035d0 <HAL_RCC_ClockConfig+0xe8>
    {
      /* Check the HSI ready flag */
      if (READ_BIT(RCC->CR, RCC_CR_HSIRDY) == 0U)
 80035c0:	4b47      	ldr	r3, [pc, #284]	; (80036e0 <HAL_RCC_ClockConfig+0x1f8>)
 80035c2:	681a      	ldr	r2, [r3, #0]
 80035c4:	2380      	movs	r3, #128	; 0x80
 80035c6:	00db      	lsls	r3, r3, #3
 80035c8:	4013      	ands	r3, r2
 80035ca:	d113      	bne.n	80035f4 <HAL_RCC_ClockConfig+0x10c>
      {
        return HAL_ERROR;
 80035cc:	2301      	movs	r3, #1
 80035ce:	e07f      	b.n	80036d0 <HAL_RCC_ClockConfig+0x1e8>
      }
    }
    /* LSI is selected as System Clock Source */
    else if (RCC_ClkInitStruct->SYSCLKSource == RCC_SYSCLKSOURCE_LSI)
 80035d0:	687b      	ldr	r3, [r7, #4]
 80035d2:	685b      	ldr	r3, [r3, #4]
 80035d4:	2b03      	cmp	r3, #3
 80035d6:	d106      	bne.n	80035e6 <HAL_RCC_ClockConfig+0xfe>
    {
      /* Check the LSI ready flag */
      if (READ_BIT(RCC->CSR, RCC_CSR_LSIRDY) == 0U)
 80035d8:	4b41      	ldr	r3, [pc, #260]	; (80036e0 <HAL_RCC_ClockConfig+0x1f8>)
 80035da:	6e1b      	ldr	r3, [r3, #96]	; 0x60
 80035dc:	2202      	movs	r2, #2
 80035de:	4013      	ands	r3, r2
 80035e0:	d108      	bne.n	80035f4 <HAL_RCC_ClockConfig+0x10c>
      {
        return HAL_ERROR;
 80035e2:	2301      	movs	r3, #1
 80035e4:	e074      	b.n	80036d0 <HAL_RCC_ClockConfig+0x1e8>
    }
    /* LSE is selected as System Clock Source */
    else
    {
      /* Check the LSE ready flag */
      if (READ_BIT(RCC->BDCR, RCC_BDCR_LSERDY) == 0U)
 80035e6:	4b3e      	ldr	r3, [pc, #248]	; (80036e0 <HAL_RCC_ClockConfig+0x1f8>)
 80035e8:	6ddb      	ldr	r3, [r3, #92]	; 0x5c
 80035ea:	2202      	movs	r2, #2
 80035ec:	4013      	ands	r3, r2
 80035ee:	d101      	bne.n	80035f4 <HAL_RCC_ClockConfig+0x10c>
      {
        return HAL_ERROR;
 80035f0:	2301      	movs	r3, #1
 80035f2:	e06d      	b.n	80036d0 <HAL_RCC_ClockConfig+0x1e8>
      }
    }
    MODIFY_REG(RCC->CFGR, RCC_CFGR_SW, RCC_ClkInitStruct->SYSCLKSource);
 80035f4:	4b3a      	ldr	r3, [pc, #232]	; (80036e0 <HAL_RCC_ClockConfig+0x1f8>)
 80035f6:	689b      	ldr	r3, [r3, #8]
 80035f8:	2207      	movs	r2, #7
 80035fa:	4393      	bics	r3, r2
 80035fc:	0019      	movs	r1, r3
 80035fe:	687b      	ldr	r3, [r7, #4]
 8003600:	685a      	ldr	r2, [r3, #4]
 8003602:	4b37      	ldr	r3, [pc, #220]	; (80036e0 <HAL_RCC_ClockConfig+0x1f8>)
 8003604:	430a      	orrs	r2, r1
 8003606:	609a      	str	r2, [r3, #8]

    /* Get Start Tick*/
    tickstart = HAL_GetTick();
 8003608:	f7fe f9e2 	bl	80019d0 <HAL_GetTick>
 800360c:	0003      	movs	r3, r0
 800360e:	60fb      	str	r3, [r7, #12]

    while (__HAL_RCC_GET_SYSCLK_SOURCE() != (RCC_ClkInitStruct->SYSCLKSource << RCC_CFGR_SWS_Pos))
 8003610:	e009      	b.n	8003626 <HAL_RCC_ClockConfig+0x13e>
    {
      if ((HAL_GetTick() - tickstart) > CLOCKSWITCH_TIMEOUT_VALUE)
 8003612:	f7fe f9dd 	bl	80019d0 <HAL_GetTick>
 8003616:	0002      	movs	r2, r0
 8003618:	68fb      	ldr	r3, [r7, #12]
 800361a:	1ad3      	subs	r3, r2, r3
 800361c:	4a2f      	ldr	r2, [pc, #188]	; (80036dc <HAL_RCC_ClockConfig+0x1f4>)
 800361e:	4293      	cmp	r3, r2
 8003620:	d901      	bls.n	8003626 <HAL_RCC_ClockConfig+0x13e>
      {
        return HAL_TIMEOUT;
 8003622:	2303      	movs	r3, #3
 8003624:	e054      	b.n	80036d0 <HAL_RCC_ClockConfig+0x1e8>
    while (__HAL_RCC_GET_SYSCLK_SOURCE() != (RCC_ClkInitStruct->SYSCLKSource << RCC_CFGR_SWS_Pos))
 8003626:	4b2e      	ldr	r3, [pc, #184]	; (80036e0 <HAL_RCC_ClockConfig+0x1f8>)
 8003628:	689b      	ldr	r3, [r3, #8]
 800362a:	2238      	movs	r2, #56	; 0x38
 800362c:	401a      	ands	r2, r3
 800362e:	687b      	ldr	r3, [r7, #4]
 8003630:	685b      	ldr	r3, [r3, #4]
 8003632:	00db      	lsls	r3, r3, #3
 8003634:	429a      	cmp	r2, r3
 8003636:	d1ec      	bne.n	8003612 <HAL_RCC_ClockConfig+0x12a>
      }
    }
  }

  /* Decreasing the number of wait states because of lower CPU frequency */
  if (FLatency < __HAL_FLASH_GET_LATENCY())
 8003638:	4b27      	ldr	r3, [pc, #156]	; (80036d8 <HAL_RCC_ClockConfig+0x1f0>)
 800363a:	681b      	ldr	r3, [r3, #0]
 800363c:	2207      	movs	r2, #7
 800363e:	4013      	ands	r3, r2
 8003640:	683a      	ldr	r2, [r7, #0]
 8003642:	429a      	cmp	r2, r3
 8003644:	d21e      	bcs.n	8003684 <HAL_RCC_ClockConfig+0x19c>
  {
    /* Program the new number of wait states to the LATENCY bits in the FLASH_ACR register */
    __HAL_FLASH_SET_LATENCY(FLatency);
 8003646:	4b24      	ldr	r3, [pc, #144]	; (80036d8 <HAL_RCC_ClockConfig+0x1f0>)
 8003648:	681b      	ldr	r3, [r3, #0]
 800364a:	2207      	movs	r2, #7
 800364c:	4393      	bics	r3, r2
 800364e:	0019      	movs	r1, r3
 8003650:	4b21      	ldr	r3, [pc, #132]	; (80036d8 <HAL_RCC_ClockConfig+0x1f0>)
 8003652:	683a      	ldr	r2, [r7, #0]
 8003654:	430a      	orrs	r2, r1
 8003656:	601a      	str	r2, [r3, #0]

    /* Check that the new number of wait states is taken into account to access the Flash
    memory by polling the FLASH_ACR register */
    tickstart = HAL_GetTick();
 8003658:	f7fe f9ba 	bl	80019d0 <HAL_GetTick>
 800365c:	0003      	movs	r3, r0
 800365e:	60fb      	str	r3, [r7, #12]

    while ((FLASH->ACR & FLASH_ACR_LATENCY) != FLatency)
 8003660:	e009      	b.n	8003676 <HAL_RCC_ClockConfig+0x18e>
    {
      if ((HAL_GetTick() - tickstart) > CLOCKSWITCH_TIMEOUT_VALUE)
 8003662:	f7fe f9b5 	bl	80019d0 <HAL_GetTick>
 8003666:	0002      	movs	r2, r0
 8003668:	68fb      	ldr	r3, [r7, #12]
 800366a:	1ad3      	subs	r3, r2, r3
 800366c:	4a1b      	ldr	r2, [pc, #108]	; (80036dc <HAL_RCC_ClockConfig+0x1f4>)
 800366e:	4293      	cmp	r3, r2
 8003670:	d901      	bls.n	8003676 <HAL_RCC_ClockConfig+0x18e>
      {
        return HAL_TIMEOUT;
 8003672:	2303      	movs	r3, #3
 8003674:	e02c      	b.n	80036d0 <HAL_RCC_ClockConfig+0x1e8>
    while ((FLASH->ACR & FLASH_ACR_LATENCY) != FLatency)
 8003676:	4b18      	ldr	r3, [pc, #96]	; (80036d8 <HAL_RCC_ClockConfig+0x1f0>)
 8003678:	681b      	ldr	r3, [r3, #0]
 800367a:	2207      	movs	r2, #7
 800367c:	4013      	ands	r3, r2
 800367e:	683a      	ldr	r2, [r7, #0]
 8003680:	429a      	cmp	r2, r3
 8003682:	d1ee      	bne.n	8003662 <HAL_RCC_ClockConfig+0x17a>
      }
    }
  }

  /*-------------------------- PCLK1 Configuration ---------------------------*/
  if (((RCC_ClkInitStruct->ClockType) & RCC_CLOCKTYPE_PCLK1) == RCC_CLOCKTYPE_PCLK1)
 8003684:	687b      	ldr	r3, [r7, #4]
 8003686:	681b      	ldr	r3, [r3, #0]
 8003688:	2204      	movs	r2, #4
 800368a:	4013      	ands	r3, r2
 800368c:	d009      	beq.n	80036a2 <HAL_RCC_ClockConfig+0x1ba>
  {
    assert_param(IS_RCC_PCLK(RCC_ClkInitStruct->APB1CLKDivider));
    MODIFY_REG(RCC->CFGR, RCC_CFGR_PPRE, RCC_ClkInitStruct->APB1CLKDivider);
 800368e:	4b14      	ldr	r3, [pc, #80]	; (80036e0 <HAL_RCC_ClockConfig+0x1f8>)
 8003690:	689b      	ldr	r3, [r3, #8]
 8003692:	4a15      	ldr	r2, [pc, #84]	; (80036e8 <HAL_RCC_ClockConfig+0x200>)
 8003694:	4013      	ands	r3, r2
 8003696:	0019      	movs	r1, r3
 8003698:	687b      	ldr	r3, [r7, #4]
 800369a:	68da      	ldr	r2, [r3, #12]
 800369c:	4b10      	ldr	r3, [pc, #64]	; (80036e0 <HAL_RCC_ClockConfig+0x1f8>)
 800369e:	430a      	orrs	r2, r1
 80036a0:	609a      	str	r2, [r3, #8]
  }

  /* Update the SystemCoreClock global variable */
  SystemCoreClock = (HAL_RCC_GetSysClockFreq() >> ((AHBPrescTable[(RCC->CFGR & RCC_CFGR_HPRE) >> RCC_CFGR_HPRE_Pos]) & 0x1FU));
 80036a2:	f000 f829 	bl	80036f8 <HAL_RCC_GetSysClockFreq>
 80036a6:	0001      	movs	r1, r0
 80036a8:	4b0d      	ldr	r3, [pc, #52]	; (80036e0 <HAL_RCC_ClockConfig+0x1f8>)
 80036aa:	689b      	ldr	r3, [r3, #8]
 80036ac:	0a1b      	lsrs	r3, r3, #8
 80036ae:	220f      	movs	r2, #15
 80036b0:	401a      	ands	r2, r3
 80036b2:	4b0e      	ldr	r3, [pc, #56]	; (80036ec <HAL_RCC_ClockConfig+0x204>)
 80036b4:	0092      	lsls	r2, r2, #2
 80036b6:	58d3      	ldr	r3, [r2, r3]
 80036b8:	221f      	movs	r2, #31
 80036ba:	4013      	ands	r3, r2
 80036bc:	000a      	movs	r2, r1
 80036be:	40da      	lsrs	r2, r3
 80036c0:	4b0b      	ldr	r3, [pc, #44]	; (80036f0 <HAL_RCC_ClockConfig+0x208>)
 80036c2:	601a      	str	r2, [r3, #0]

  /* Configure the source of time base considering new system clocks settings*/
  return HAL_InitTick(uwTickPrio);
 80036c4:	4b0b      	ldr	r3, [pc, #44]	; (80036f4 <HAL_RCC_ClockConfig+0x20c>)
 80036c6:	681b      	ldr	r3, [r3, #0]
 80036c8:	0018      	movs	r0, r3
 80036ca:	f7fe f925 	bl	8001918 <HAL_InitTick>
 80036ce:	0003      	movs	r3, r0
}
 80036d0:	0018      	movs	r0, r3
 80036d2:	46bd      	mov	sp, r7
 80036d4:	b004      	add	sp, #16
 80036d6:	bd80      	pop	{r7, pc}
 80036d8:	40022000 	.word	0x40022000
 80036dc:	00001388 	.word	0x00001388
 80036e0:	40021000 	.word	0x40021000
 80036e4:	fffff0ff 	.word	0xfffff0ff
 80036e8:	ffff8fff 	.word	0xffff8fff
 80036ec:	08004fd8 	.word	0x08004fd8
 80036f0:	20000000 	.word	0x20000000
 80036f4:	20000004 	.word	0x20000004

080036f8 <HAL_RCC_GetSysClockFreq>:
  *
  *
  * @retval SYSCLK frequency
  */
uint32_t HAL_RCC_GetSysClockFreq(void)
{
 80036f8:	b580      	push	{r7, lr}
 80036fa:	b086      	sub	sp, #24
 80036fc:	af00      	add	r7, sp, #0
  uint32_t pllvco, pllsource, pllr, pllm, hsidiv;
  uint32_t sysclockfreq;

  if (__HAL_RCC_GET_SYSCLK_SOURCE() == RCC_SYSCLKSOURCE_STATUS_HSI)
 80036fe:	4b3c      	ldr	r3, [pc, #240]	; (80037f0 <HAL_RCC_GetSysClockFreq+0xf8>)
 8003700:	689b      	ldr	r3, [r3, #8]
 8003702:	2238      	movs	r2, #56	; 0x38
 8003704:	4013      	ands	r3, r2
 8003706:	d10f      	bne.n	8003728 <HAL_RCC_GetSysClockFreq+0x30>
  {
    /* HSISYS can be derived for HSI16 */
    hsidiv = (1UL << ((READ_BIT(RCC->CR, RCC_CR_HSIDIV)) >> RCC_CR_HSIDIV_Pos));
 8003708:	4b39      	ldr	r3, [pc, #228]	; (80037f0 <HAL_RCC_GetSysClockFreq+0xf8>)
 800370a:	681b      	ldr	r3, [r3, #0]
 800370c:	0adb      	lsrs	r3, r3, #11
 800370e:	2207      	movs	r2, #7
 8003710:	4013      	ands	r3, r2
 8003712:	2201      	movs	r2, #1
 8003714:	409a      	lsls	r2, r3
 8003716:	0013      	movs	r3, r2
 8003718:	603b      	str	r3, [r7, #0]

    /* HSI used as system clock source */
    sysclockfreq = (HSI_VALUE / hsidiv);
 800371a:	6839      	ldr	r1, [r7, #0]
 800371c:	4835      	ldr	r0, [pc, #212]	; (80037f4 <HAL_RCC_GetSysClockFreq+0xfc>)
 800371e:	f7fc fcf1 	bl	8000104 <__udivsi3>
 8003722:	0003      	movs	r3, r0
 8003724:	613b      	str	r3, [r7, #16]
 8003726:	e05d      	b.n	80037e4 <HAL_RCC_GetSysClockFreq+0xec>
  }
  else if (__HAL_RCC_GET_SYSCLK_SOURCE() == RCC_SYSCLKSOURCE_STATUS_HSE)
 8003728:	4b31      	ldr	r3, [pc, #196]	; (80037f0 <HAL_RCC_GetSysClockFreq+0xf8>)
 800372a:	689b      	ldr	r3, [r3, #8]
 800372c:	2238      	movs	r2, #56	; 0x38
 800372e:	4013      	ands	r3, r2
 8003730:	2b08      	cmp	r3, #8
 8003732:	d102      	bne.n	800373a <HAL_RCC_GetSysClockFreq+0x42>
  {
    /* HSE used as system clock source */
    sysclockfreq = HSE_VALUE;
 8003734:	4b30      	ldr	r3, [pc, #192]	; (80037f8 <HAL_RCC_GetSysClockFreq+0x100>)
 8003736:	613b      	str	r3, [r7, #16]
 8003738:	e054      	b.n	80037e4 <HAL_RCC_GetSysClockFreq+0xec>
  }
  else if (__HAL_RCC_GET_SYSCLK_SOURCE() == RCC_SYSCLKSOURCE_STATUS_PLLCLK)
 800373a:	4b2d      	ldr	r3, [pc, #180]	; (80037f0 <HAL_RCC_GetSysClockFreq+0xf8>)
 800373c:	689b      	ldr	r3, [r3, #8]
 800373e:	2238      	movs	r2, #56	; 0x38
 8003740:	4013      	ands	r3, r2
 8003742:	2b10      	cmp	r3, #16
 8003744:	d138      	bne.n	80037b8 <HAL_RCC_GetSysClockFreq+0xc0>
    /* PLL used as system clock  source */

    /* PLL_VCO = ((HSE_VALUE or HSI_VALUE)/ PLLM) * PLLN
    SYSCLK = PLL_VCO / PLLR
    */
    pllsource = (RCC->PLLCFGR & RCC_PLLCFGR_PLLSRC);
 8003746:	4b2a      	ldr	r3, [pc, #168]	; (80037f0 <HAL_RCC_GetSysClockFreq+0xf8>)
 8003748:	68db      	ldr	r3, [r3, #12]
 800374a:	2203      	movs	r2, #3
 800374c:	4013      	ands	r3, r2
 800374e:	60fb      	str	r3, [r7, #12]
    pllm = ((RCC->PLLCFGR & RCC_PLLCFGR_PLLM) >> RCC_PLLCFGR_PLLM_Pos) + 1U ;
 8003750:	4b27      	ldr	r3, [pc, #156]	; (80037f0 <HAL_RCC_GetSysClockFreq+0xf8>)
 8003752:	68db      	ldr	r3, [r3, #12]
 8003754:	091b      	lsrs	r3, r3, #4
 8003756:	2207      	movs	r2, #7
 8003758:	4013      	ands	r3, r2
 800375a:	3301      	adds	r3, #1
 800375c:	60bb      	str	r3, [r7, #8]

    switch (pllsource)
 800375e:	68fb      	ldr	r3, [r7, #12]
 8003760:	2b03      	cmp	r3, #3
 8003762:	d10d      	bne.n	8003780 <HAL_RCC_GetSysClockFreq+0x88>
    {
      case RCC_PLLSOURCE_HSE:  /* HSE used as PLL clock source */
        pllvco = (HSE_VALUE / pllm) * ((RCC->PLLCFGR & RCC_PLLCFGR_PLLN) >> RCC_PLLCFGR_PLLN_Pos);
 8003764:	68b9      	ldr	r1, [r7, #8]
 8003766:	4824      	ldr	r0, [pc, #144]	; (80037f8 <HAL_RCC_GetSysClockFreq+0x100>)
 8003768:	f7fc fccc 	bl	8000104 <__udivsi3>
 800376c:	0003      	movs	r3, r0
 800376e:	0019      	movs	r1, r3
 8003770:	4b1f      	ldr	r3, [pc, #124]	; (80037f0 <HAL_RCC_GetSysClockFreq+0xf8>)
 8003772:	68db      	ldr	r3, [r3, #12]
 8003774:	0a1b      	lsrs	r3, r3, #8
 8003776:	227f      	movs	r2, #127	; 0x7f
 8003778:	4013      	ands	r3, r2
 800377a:	434b      	muls	r3, r1
 800377c:	617b      	str	r3, [r7, #20]
        break;
 800377e:	e00d      	b.n	800379c <HAL_RCC_GetSysClockFreq+0xa4>

      case RCC_PLLSOURCE_HSI:  /* HSI16 used as PLL clock source */
      default:                 /* HSI16 used as PLL clock source */
        pllvco = (HSI_VALUE / pllm) * ((RCC->PLLCFGR & RCC_PLLCFGR_PLLN) >> RCC_PLLCFGR_PLLN_Pos) ;
 8003780:	68b9      	ldr	r1, [r7, #8]
 8003782:	481c      	ldr	r0, [pc, #112]	; (80037f4 <HAL_RCC_GetSysClockFreq+0xfc>)
 8003784:	f7fc fcbe 	bl	8000104 <__udivsi3>
 8003788:	0003      	movs	r3, r0
 800378a:	0019      	movs	r1, r3
 800378c:	4b18      	ldr	r3, [pc, #96]	; (80037f0 <HAL_RCC_GetSysClockFreq+0xf8>)
 800378e:	68db      	ldr	r3, [r3, #12]
 8003790:	0a1b      	lsrs	r3, r3, #8
 8003792:	227f      	movs	r2, #127	; 0x7f
 8003794:	4013      	ands	r3, r2
 8003796:	434b      	muls	r3, r1
 8003798:	617b      	str	r3, [r7, #20]
        break;
 800379a:	46c0      	nop			; (mov r8, r8)
    }
    pllr = (((RCC->PLLCFGR & RCC_PLLCFGR_PLLR) >> RCC_PLLCFGR_PLLR_Pos) + 1U);
 800379c:	4b14      	ldr	r3, [pc, #80]	; (80037f0 <HAL_RCC_GetSysClockFreq+0xf8>)
 800379e:	68db      	ldr	r3, [r3, #12]
 80037a0:	0f5b      	lsrs	r3, r3, #29
 80037a2:	2207      	movs	r2, #7
 80037a4:	4013      	ands	r3, r2
 80037a6:	3301      	adds	r3, #1
 80037a8:	607b      	str	r3, [r7, #4]
    sysclockfreq = pllvco / pllr;
 80037aa:	6879      	ldr	r1, [r7, #4]
 80037ac:	6978      	ldr	r0, [r7, #20]
 80037ae:	f7fc fca9 	bl	8000104 <__udivsi3>
 80037b2:	0003      	movs	r3, r0
 80037b4:	613b      	str	r3, [r7, #16]
 80037b6:	e015      	b.n	80037e4 <HAL_RCC_GetSysClockFreq+0xec>
  }
  else if (__HAL_RCC_GET_SYSCLK_SOURCE() == RCC_SYSCLKSOURCE_STATUS_LSE)
 80037b8:	4b0d      	ldr	r3, [pc, #52]	; (80037f0 <HAL_RCC_GetSysClockFreq+0xf8>)
 80037ba:	689b      	ldr	r3, [r3, #8]
 80037bc:	2238      	movs	r2, #56	; 0x38
 80037be:	4013      	ands	r3, r2
 80037c0:	2b20      	cmp	r3, #32
 80037c2:	d103      	bne.n	80037cc <HAL_RCC_GetSysClockFreq+0xd4>
  {
    /* LSE used as system clock source */
    sysclockfreq = LSE_VALUE;
 80037c4:	2380      	movs	r3, #128	; 0x80
 80037c6:	021b      	lsls	r3, r3, #8
 80037c8:	613b      	str	r3, [r7, #16]
 80037ca:	e00b      	b.n	80037e4 <HAL_RCC_GetSysClockFreq+0xec>
  }
  else if (__HAL_RCC_GET_SYSCLK_SOURCE() == RCC_SYSCLKSOURCE_STATUS_LSI)
 80037cc:	4b08      	ldr	r3, [pc, #32]	; (80037f0 <HAL_RCC_GetSysClockFreq+0xf8>)
 80037ce:	689b      	ldr	r3, [r3, #8]
 80037d0:	2238      	movs	r2, #56	; 0x38
 80037d2:	4013      	ands	r3, r2
 80037d4:	2b18      	cmp	r3, #24
 80037d6:	d103      	bne.n	80037e0 <HAL_RCC_GetSysClockFreq+0xe8>
  {
    /* LSI used as system clock source */
    sysclockfreq = LSI_VALUE;
 80037d8:	23fa      	movs	r3, #250	; 0xfa
 80037da:	01db      	lsls	r3, r3, #7
 80037dc:	613b      	str	r3, [r7, #16]
 80037de:	e001      	b.n	80037e4 <HAL_RCC_GetSysClockFreq+0xec>
  }
  else
  {
    sysclockfreq = 0U;
 80037e0:	2300      	movs	r3, #0
 80037e2:	613b      	str	r3, [r7, #16]
  }

  return sysclockfreq;
 80037e4:	693b      	ldr	r3, [r7, #16]
}
 80037e6:	0018      	movs	r0, r3
 80037e8:	46bd      	mov	sp, r7
 80037ea:	b006      	add	sp, #24
 80037ec:	bd80      	pop	{r7, pc}
 80037ee:	46c0      	nop			; (mov r8, r8)
 80037f0:	40021000 	.word	0x40021000
 80037f4:	00f42400 	.word	0x00f42400
 80037f8:	007a1200 	.word	0x007a1200

080037fc <HAL_RCC_GetHCLKFreq>:
  *
  * @note   The SystemCoreClock CMSIS variable is used to store System Clock Frequency.
  * @retval HCLK frequency in Hz
  */
uint32_t HAL_RCC_GetHCLKFreq(void)
{
 80037fc:	b580      	push	{r7, lr}
 80037fe:	af00      	add	r7, sp, #0
  return SystemCoreClock;
 8003800:	4b02      	ldr	r3, [pc, #8]	; (800380c <HAL_RCC_GetHCLKFreq+0x10>)
 8003802:	681b      	ldr	r3, [r3, #0]
}
 8003804:	0018      	movs	r0, r3
 8003806:	46bd      	mov	sp, r7
 8003808:	bd80      	pop	{r7, pc}
 800380a:	46c0      	nop			; (mov r8, r8)
 800380c:	20000000 	.word	0x20000000

08003810 <HAL_RCC_GetPCLK1Freq>:
  * @note   Each time PCLK1 changes, this function must be called to update the
  *         right PCLK1 value. Otherwise, any configuration based on this function will be incorrect.
  * @retval PCLK1 frequency in Hz
  */
uint32_t HAL_RCC_GetPCLK1Freq(void)
{
 8003810:	b5b0      	push	{r4, r5, r7, lr}
 8003812:	af00      	add	r7, sp, #0
  /* Get HCLK source and Compute PCLK1 frequency ---------------------------*/
  return ((uint32_t)(__LL_RCC_CALC_PCLK1_FREQ(HAL_RCC_GetHCLKFreq(), LL_RCC_GetAPB1Prescaler())));
 8003814:	f7ff fff2 	bl	80037fc <HAL_RCC_GetHCLKFreq>
 8003818:	0004      	movs	r4, r0
 800381a:	f7ff faf9 	bl	8002e10 <LL_RCC_GetAPB1Prescaler>
 800381e:	0003      	movs	r3, r0
 8003820:	0b1a      	lsrs	r2, r3, #12
 8003822:	4b05      	ldr	r3, [pc, #20]	; (8003838 <HAL_RCC_GetPCLK1Freq+0x28>)
 8003824:	0092      	lsls	r2, r2, #2
 8003826:	58d3      	ldr	r3, [r2, r3]
 8003828:	221f      	movs	r2, #31
 800382a:	4013      	ands	r3, r2
 800382c:	40dc      	lsrs	r4, r3
 800382e:	0023      	movs	r3, r4
}
 8003830:	0018      	movs	r0, r3
 8003832:	46bd      	mov	sp, r7
 8003834:	bdb0      	pop	{r4, r5, r7, pc}
 8003836:	46c0      	nop			; (mov r8, r8)
 8003838:	08005018 	.word	0x08005018

0800383c <HAL_RCCEx_PeriphCLKConfig>:
  *         the RTC clock source: in this case the access to Backup domain is enabled.
  *
  * @retval HAL status
  */
HAL_StatusTypeDef HAL_RCCEx_PeriphCLKConfig(RCC_PeriphCLKInitTypeDef  *PeriphClkInit)
{
 800383c:	b580      	push	{r7, lr}
 800383e:	b086      	sub	sp, #24
 8003840:	af00      	add	r7, sp, #0
 8003842:	6078      	str	r0, [r7, #4]
  uint32_t tmpregister;
  uint32_t tickstart;
  HAL_StatusTypeDef ret    = HAL_OK;   /* Intermediate status */
 8003844:	2313      	movs	r3, #19
 8003846:	18fb      	adds	r3, r7, r3
 8003848:	2200      	movs	r2, #0
 800384a:	701a      	strb	r2, [r3, #0]
  HAL_StatusTypeDef status = HAL_OK;   /* Final status */
 800384c:	2312      	movs	r3, #18
 800384e:	18fb      	adds	r3, r7, r3
 8003850:	2200      	movs	r2, #0
 8003852:	701a      	strb	r2, [r3, #0]

  /* Check the parameters */
  assert_param(IS_RCC_PERIPHCLOCK(PeriphClkInit->PeriphClockSelection));

  /*-------------------------- RTC clock source configuration ----------------------*/
  if ((PeriphClkInit->PeriphClockSelection & RCC_PERIPHCLK_RTC) == RCC_PERIPHCLK_RTC)
 8003854:	687b      	ldr	r3, [r7, #4]
 8003856:	681a      	ldr	r2, [r3, #0]
 8003858:	2380      	movs	r3, #128	; 0x80
 800385a:	029b      	lsls	r3, r3, #10
 800385c:	4013      	ands	r3, r2
 800385e:	d100      	bne.n	8003862 <HAL_RCCEx_PeriphCLKConfig+0x26>
 8003860:	e0ad      	b.n	80039be <HAL_RCCEx_PeriphCLKConfig+0x182>
  {
    FlagStatus       pwrclkchanged = RESET;
 8003862:	2011      	movs	r0, #17
 8003864:	183b      	adds	r3, r7, r0
 8003866:	2200      	movs	r2, #0
 8003868:	701a      	strb	r2, [r3, #0]

    /* Check for RTC Parameters used to output RTCCLK */
    assert_param(IS_RCC_RTCCLKSOURCE(PeriphClkInit->RTCClockSelection));

    /* Enable Power Clock */
    if (__HAL_RCC_PWR_IS_CLK_DISABLED())
 800386a:	4b47      	ldr	r3, [pc, #284]	; (8003988 <HAL_RCCEx_PeriphCLKConfig+0x14c>)
 800386c:	6bda      	ldr	r2, [r3, #60]	; 0x3c
 800386e:	2380      	movs	r3, #128	; 0x80
 8003870:	055b      	lsls	r3, r3, #21
 8003872:	4013      	ands	r3, r2
 8003874:	d110      	bne.n	8003898 <HAL_RCCEx_PeriphCLKConfig+0x5c>
    {
      __HAL_RCC_PWR_CLK_ENABLE();
 8003876:	4b44      	ldr	r3, [pc, #272]	; (8003988 <HAL_RCCEx_PeriphCLKConfig+0x14c>)
 8003878:	6bda      	ldr	r2, [r3, #60]	; 0x3c
 800387a:	4b43      	ldr	r3, [pc, #268]	; (8003988 <HAL_RCCEx_PeriphCLKConfig+0x14c>)
 800387c:	2180      	movs	r1, #128	; 0x80
 800387e:	0549      	lsls	r1, r1, #21
 8003880:	430a      	orrs	r2, r1
 8003882:	63da      	str	r2, [r3, #60]	; 0x3c
 8003884:	4b40      	ldr	r3, [pc, #256]	; (8003988 <HAL_RCCEx_PeriphCLKConfig+0x14c>)
 8003886:	6bda      	ldr	r2, [r3, #60]	; 0x3c
 8003888:	2380      	movs	r3, #128	; 0x80
 800388a:	055b      	lsls	r3, r3, #21
 800388c:	4013      	ands	r3, r2
 800388e:	60bb      	str	r3, [r7, #8]
 8003890:	68bb      	ldr	r3, [r7, #8]
      pwrclkchanged = SET;
 8003892:	183b      	adds	r3, r7, r0
 8003894:	2201      	movs	r2, #1
 8003896:	701a      	strb	r2, [r3, #0]
    }

    /* Enable write access to Backup domain */
    SET_BIT(PWR->CR1, PWR_CR1_DBP);
 8003898:	4b3c      	ldr	r3, [pc, #240]	; (800398c <HAL_RCCEx_PeriphCLKConfig+0x150>)
 800389a:	681a      	ldr	r2, [r3, #0]
 800389c:	4b3b      	ldr	r3, [pc, #236]	; (800398c <HAL_RCCEx_PeriphCLKConfig+0x150>)
 800389e:	2180      	movs	r1, #128	; 0x80
 80038a0:	0049      	lsls	r1, r1, #1
 80038a2:	430a      	orrs	r2, r1
 80038a4:	601a      	str	r2, [r3, #0]

    /* Wait for Backup domain Write protection disable */
    tickstart = HAL_GetTick();
 80038a6:	f7fe f893 	bl	80019d0 <HAL_GetTick>
 80038aa:	0003      	movs	r3, r0
 80038ac:	60fb      	str	r3, [r7, #12]

    while ((PWR->CR1 & PWR_CR1_DBP) == 0U)
 80038ae:	e00b      	b.n	80038c8 <HAL_RCCEx_PeriphCLKConfig+0x8c>
    {
      if ((HAL_GetTick() - tickstart) > RCC_DBP_TIMEOUT_VALUE)
 80038b0:	f7fe f88e 	bl	80019d0 <HAL_GetTick>
 80038b4:	0002      	movs	r2, r0
 80038b6:	68fb      	ldr	r3, [r7, #12]
 80038b8:	1ad3      	subs	r3, r2, r3
 80038ba:	2b02      	cmp	r3, #2
 80038bc:	d904      	bls.n	80038c8 <HAL_RCCEx_PeriphCLKConfig+0x8c>
      {
        ret = HAL_TIMEOUT;
 80038be:	2313      	movs	r3, #19
 80038c0:	18fb      	adds	r3, r7, r3
 80038c2:	2203      	movs	r2, #3
 80038c4:	701a      	strb	r2, [r3, #0]
        break;
 80038c6:	e005      	b.n	80038d4 <HAL_RCCEx_PeriphCLKConfig+0x98>
    while ((PWR->CR1 & PWR_CR1_DBP) == 0U)
 80038c8:	4b30      	ldr	r3, [pc, #192]	; (800398c <HAL_RCCEx_PeriphCLKConfig+0x150>)
 80038ca:	681a      	ldr	r2, [r3, #0]
 80038cc:	2380      	movs	r3, #128	; 0x80
 80038ce:	005b      	lsls	r3, r3, #1
 80038d0:	4013      	ands	r3, r2
 80038d2:	d0ed      	beq.n	80038b0 <HAL_RCCEx_PeriphCLKConfig+0x74>
      }
    }

    if (ret == HAL_OK)
 80038d4:	2313      	movs	r3, #19
 80038d6:	18fb      	adds	r3, r7, r3
 80038d8:	781b      	ldrb	r3, [r3, #0]
 80038da:	2b00      	cmp	r3, #0
 80038dc:	d15e      	bne.n	800399c <HAL_RCCEx_PeriphCLKConfig+0x160>
    {
      /* Reset the Backup domain only if the RTC Clock source selection is modified from default */
      tmpregister = READ_BIT(RCC->BDCR, RCC_BDCR_RTCSEL);
 80038de:	4b2a      	ldr	r3, [pc, #168]	; (8003988 <HAL_RCCEx_PeriphCLKConfig+0x14c>)
 80038e0:	6dda      	ldr	r2, [r3, #92]	; 0x5c
 80038e2:	23c0      	movs	r3, #192	; 0xc0
 80038e4:	009b      	lsls	r3, r3, #2
 80038e6:	4013      	ands	r3, r2
 80038e8:	617b      	str	r3, [r7, #20]

      /* Reset the Backup domain only if the RTC Clock source selection is modified */
      if ((tmpregister != RCC_RTCCLKSOURCE_NONE) && (tmpregister != PeriphClkInit->RTCClockSelection))
 80038ea:	697b      	ldr	r3, [r7, #20]
 80038ec:	2b00      	cmp	r3, #0
 80038ee:	d019      	beq.n	8003924 <HAL_RCCEx_PeriphCLKConfig+0xe8>
 80038f0:	687b      	ldr	r3, [r7, #4]
 80038f2:	6c1b      	ldr	r3, [r3, #64]	; 0x40
 80038f4:	697a      	ldr	r2, [r7, #20]
 80038f6:	429a      	cmp	r2, r3
 80038f8:	d014      	beq.n	8003924 <HAL_RCCEx_PeriphCLKConfig+0xe8>
      {
        /* Store the content of BDCR register before the reset of Backup Domain */
        tmpregister = READ_BIT(RCC->BDCR, ~(RCC_BDCR_RTCSEL));
 80038fa:	4b23      	ldr	r3, [pc, #140]	; (8003988 <HAL_RCCEx_PeriphCLKConfig+0x14c>)
 80038fc:	6ddb      	ldr	r3, [r3, #92]	; 0x5c
 80038fe:	4a24      	ldr	r2, [pc, #144]	; (8003990 <HAL_RCCEx_PeriphCLKConfig+0x154>)
 8003900:	4013      	ands	r3, r2
 8003902:	617b      	str	r3, [r7, #20]
        /* RTC Clock selection can be changed only if the Backup Domain is reset */
        __HAL_RCC_BACKUPRESET_FORCE();
 8003904:	4b20      	ldr	r3, [pc, #128]	; (8003988 <HAL_RCCEx_PeriphCLKConfig+0x14c>)
 8003906:	6dda      	ldr	r2, [r3, #92]	; 0x5c
 8003908:	4b1f      	ldr	r3, [pc, #124]	; (8003988 <HAL_RCCEx_PeriphCLKConfig+0x14c>)
 800390a:	2180      	movs	r1, #128	; 0x80
 800390c:	0249      	lsls	r1, r1, #9
 800390e:	430a      	orrs	r2, r1
 8003910:	65da      	str	r2, [r3, #92]	; 0x5c
        __HAL_RCC_BACKUPRESET_RELEASE();
 8003912:	4b1d      	ldr	r3, [pc, #116]	; (8003988 <HAL_RCCEx_PeriphCLKConfig+0x14c>)
 8003914:	6dda      	ldr	r2, [r3, #92]	; 0x5c
 8003916:	4b1c      	ldr	r3, [pc, #112]	; (8003988 <HAL_RCCEx_PeriphCLKConfig+0x14c>)
 8003918:	491e      	ldr	r1, [pc, #120]	; (8003994 <HAL_RCCEx_PeriphCLKConfig+0x158>)
 800391a:	400a      	ands	r2, r1
 800391c:	65da      	str	r2, [r3, #92]	; 0x5c
        /* Restore the Content of BDCR register */
        RCC->BDCR = tmpregister;
 800391e:	4b1a      	ldr	r3, [pc, #104]	; (8003988 <HAL_RCCEx_PeriphCLKConfig+0x14c>)
 8003920:	697a      	ldr	r2, [r7, #20]
 8003922:	65da      	str	r2, [r3, #92]	; 0x5c
      }

      /* Wait for LSE reactivation if LSE was enable prior to Backup Domain reset */
      if (HAL_IS_BIT_SET(tmpregister, RCC_BDCR_LSEON))
 8003924:	697b      	ldr	r3, [r7, #20]
 8003926:	2201      	movs	r2, #1
 8003928:	4013      	ands	r3, r2
 800392a:	d016      	beq.n	800395a <HAL_RCCEx_PeriphCLKConfig+0x11e>
      {
        /* Get Start Tick*/
        tickstart = HAL_GetTick();
 800392c:	f7fe f850 	bl	80019d0 <HAL_GetTick>
 8003930:	0003      	movs	r3, r0
 8003932:	60fb      	str	r3, [r7, #12]

        /* Wait till LSE is ready */
        while (READ_BIT(RCC->BDCR, RCC_BDCR_LSERDY) == 0U)
 8003934:	e00c      	b.n	8003950 <HAL_RCCEx_PeriphCLKConfig+0x114>
        {
          if ((HAL_GetTick() - tickstart) > RCC_LSE_TIMEOUT_VALUE)
 8003936:	f7fe f84b 	bl	80019d0 <HAL_GetTick>
 800393a:	0002      	movs	r2, r0
 800393c:	68fb      	ldr	r3, [r7, #12]
 800393e:	1ad3      	subs	r3, r2, r3
 8003940:	4a15      	ldr	r2, [pc, #84]	; (8003998 <HAL_RCCEx_PeriphCLKConfig+0x15c>)
 8003942:	4293      	cmp	r3, r2
 8003944:	d904      	bls.n	8003950 <HAL_RCCEx_PeriphCLKConfig+0x114>
          {
            ret = HAL_TIMEOUT;
 8003946:	2313      	movs	r3, #19
 8003948:	18fb      	adds	r3, r7, r3
 800394a:	2203      	movs	r2, #3
 800394c:	701a      	strb	r2, [r3, #0]
            break;
 800394e:	e004      	b.n	800395a <HAL_RCCEx_PeriphCLKConfig+0x11e>
        while (READ_BIT(RCC->BDCR, RCC_BDCR_LSERDY) == 0U)
 8003950:	4b0d      	ldr	r3, [pc, #52]	; (8003988 <HAL_RCCEx_PeriphCLKConfig+0x14c>)
 8003952:	6ddb      	ldr	r3, [r3, #92]	; 0x5c
 8003954:	2202      	movs	r2, #2
 8003956:	4013      	ands	r3, r2
 8003958:	d0ed      	beq.n	8003936 <HAL_RCCEx_PeriphCLKConfig+0xfa>
          }
        }
      }

      if (ret == HAL_OK)
 800395a:	2313      	movs	r3, #19
 800395c:	18fb      	adds	r3, r7, r3
 800395e:	781b      	ldrb	r3, [r3, #0]
 8003960:	2b00      	cmp	r3, #0
 8003962:	d10a      	bne.n	800397a <HAL_RCCEx_PeriphCLKConfig+0x13e>
      {
        /* Apply new RTC clock source selection */
        __HAL_RCC_RTC_CONFIG(PeriphClkInit->RTCClockSelection);
 8003964:	4b08      	ldr	r3, [pc, #32]	; (8003988 <HAL_RCCEx_PeriphCLKConfig+0x14c>)
 8003966:	6ddb      	ldr	r3, [r3, #92]	; 0x5c
 8003968:	4a09      	ldr	r2, [pc, #36]	; (8003990 <HAL_RCCEx_PeriphCLKConfig+0x154>)
 800396a:	4013      	ands	r3, r2
 800396c:	0019      	movs	r1, r3
 800396e:	687b      	ldr	r3, [r7, #4]
 8003970:	6c1a      	ldr	r2, [r3, #64]	; 0x40
 8003972:	4b05      	ldr	r3, [pc, #20]	; (8003988 <HAL_RCCEx_PeriphCLKConfig+0x14c>)
 8003974:	430a      	orrs	r2, r1
 8003976:	65da      	str	r2, [r3, #92]	; 0x5c
 8003978:	e016      	b.n	80039a8 <HAL_RCCEx_PeriphCLKConfig+0x16c>
      }
      else
      {
        /* set overall return value */
        status = ret;
 800397a:	2312      	movs	r3, #18
 800397c:	18fb      	adds	r3, r7, r3
 800397e:	2213      	movs	r2, #19
 8003980:	18ba      	adds	r2, r7, r2
 8003982:	7812      	ldrb	r2, [r2, #0]
 8003984:	701a      	strb	r2, [r3, #0]
 8003986:	e00f      	b.n	80039a8 <HAL_RCCEx_PeriphCLKConfig+0x16c>
 8003988:	40021000 	.word	0x40021000
 800398c:	40007000 	.word	0x40007000
 8003990:	fffffcff 	.word	0xfffffcff
 8003994:	fffeffff 	.word	0xfffeffff
 8003998:	00001388 	.word	0x00001388
      }
    }
    else
    {
      /* set overall return value */
      status = ret;
 800399c:	2312      	movs	r3, #18
 800399e:	18fb      	adds	r3, r7, r3
 80039a0:	2213      	movs	r2, #19
 80039a2:	18ba      	adds	r2, r7, r2
 80039a4:	7812      	ldrb	r2, [r2, #0]
 80039a6:	701a      	strb	r2, [r3, #0]
    }

    /* Restore clock configuration if changed */
    if (pwrclkchanged == SET)
 80039a8:	2311      	movs	r3, #17
 80039aa:	18fb      	adds	r3, r7, r3
 80039ac:	781b      	ldrb	r3, [r3, #0]
 80039ae:	2b01      	cmp	r3, #1
 80039b0:	d105      	bne.n	80039be <HAL_RCCEx_PeriphCLKConfig+0x182>
    {
      __HAL_RCC_PWR_CLK_DISABLE();
 80039b2:	4bb6      	ldr	r3, [pc, #728]	; (8003c8c <HAL_RCCEx_PeriphCLKConfig+0x450>)
 80039b4:	6bda      	ldr	r2, [r3, #60]	; 0x3c
 80039b6:	4bb5      	ldr	r3, [pc, #724]	; (8003c8c <HAL_RCCEx_PeriphCLKConfig+0x450>)
 80039b8:	49b5      	ldr	r1, [pc, #724]	; (8003c90 <HAL_RCCEx_PeriphCLKConfig+0x454>)
 80039ba:	400a      	ands	r2, r1
 80039bc:	63da      	str	r2, [r3, #60]	; 0x3c
    }
  }

  /*-------------------------- USART1 clock source configuration -------------------*/
  if (((PeriphClkInit->PeriphClockSelection) & RCC_PERIPHCLK_USART1) == RCC_PERIPHCLK_USART1)
 80039be:	687b      	ldr	r3, [r7, #4]
 80039c0:	681b      	ldr	r3, [r3, #0]
 80039c2:	2201      	movs	r2, #1
 80039c4:	4013      	ands	r3, r2
 80039c6:	d009      	beq.n	80039dc <HAL_RCCEx_PeriphCLKConfig+0x1a0>
  {
    /* Check the parameters */
    assert_param(IS_RCC_USART1CLKSOURCE(PeriphClkInit->Usart1ClockSelection));

    /* Configure the USART1 clock source */
    __HAL_RCC_USART1_CONFIG(PeriphClkInit->Usart1ClockSelection);
 80039c8:	4bb0      	ldr	r3, [pc, #704]	; (8003c8c <HAL_RCCEx_PeriphCLKConfig+0x450>)
 80039ca:	6d5b      	ldr	r3, [r3, #84]	; 0x54
 80039cc:	2203      	movs	r2, #3
 80039ce:	4393      	bics	r3, r2
 80039d0:	0019      	movs	r1, r3
 80039d2:	687b      	ldr	r3, [r7, #4]
 80039d4:	685a      	ldr	r2, [r3, #4]
 80039d6:	4bad      	ldr	r3, [pc, #692]	; (8003c8c <HAL_RCCEx_PeriphCLKConfig+0x450>)
 80039d8:	430a      	orrs	r2, r1
 80039da:	655a      	str	r2, [r3, #84]	; 0x54
  }

#if defined(RCC_CCIPR_USART2SEL)
  /*-------------------------- USART2 clock source configuration -------------------*/
  if (((PeriphClkInit->PeriphClockSelection) & RCC_PERIPHCLK_USART2) == RCC_PERIPHCLK_USART2)
 80039dc:	687b      	ldr	r3, [r7, #4]
 80039de:	681b      	ldr	r3, [r3, #0]
 80039e0:	2202      	movs	r2, #2
 80039e2:	4013      	ands	r3, r2
 80039e4:	d009      	beq.n	80039fa <HAL_RCCEx_PeriphCLKConfig+0x1be>
  {
    /* Check the parameters */
    assert_param(IS_RCC_USART2CLKSOURCE(PeriphClkInit->Usart2ClockSelection));

    /* Configure the USART2 clock source */
    __HAL_RCC_USART2_CONFIG(PeriphClkInit->Usart2ClockSelection);
 80039e6:	4ba9      	ldr	r3, [pc, #676]	; (8003c8c <HAL_RCCEx_PeriphCLKConfig+0x450>)
 80039e8:	6d5b      	ldr	r3, [r3, #84]	; 0x54
 80039ea:	220c      	movs	r2, #12
 80039ec:	4393      	bics	r3, r2
 80039ee:	0019      	movs	r1, r3
 80039f0:	687b      	ldr	r3, [r7, #4]
 80039f2:	689a      	ldr	r2, [r3, #8]
 80039f4:	4ba5      	ldr	r3, [pc, #660]	; (8003c8c <HAL_RCCEx_PeriphCLKConfig+0x450>)
 80039f6:	430a      	orrs	r2, r1
 80039f8:	655a      	str	r2, [r3, #84]	; 0x54
  }
#endif /* RCC_CCIPR_USART2SEL */

#if defined(RCC_CCIPR_USART3SEL)
  /*-------------------------- USART3 clock source configuration -------------------*/
  if (((PeriphClkInit->PeriphClockSelection) & RCC_PERIPHCLK_USART3) == RCC_PERIPHCLK_USART3)
 80039fa:	687b      	ldr	r3, [r7, #4]
 80039fc:	681b      	ldr	r3, [r3, #0]
 80039fe:	2204      	movs	r2, #4
 8003a00:	4013      	ands	r3, r2
 8003a02:	d009      	beq.n	8003a18 <HAL_RCCEx_PeriphCLKConfig+0x1dc>
  {
    /* Check the parameters */
    assert_param(IS_RCC_USART3CLKSOURCE(PeriphClkInit->Usart3ClockSelection));

    /* Configure the USART3 clock source */
    __HAL_RCC_USART3_CONFIG(PeriphClkInit->Usart3ClockSelection);
 8003a04:	4ba1      	ldr	r3, [pc, #644]	; (8003c8c <HAL_RCCEx_PeriphCLKConfig+0x450>)
 8003a06:	6d5b      	ldr	r3, [r3, #84]	; 0x54
 8003a08:	2230      	movs	r2, #48	; 0x30
 8003a0a:	4393      	bics	r3, r2
 8003a0c:	0019      	movs	r1, r3
 8003a0e:	687b      	ldr	r3, [r7, #4]
 8003a10:	68da      	ldr	r2, [r3, #12]
 8003a12:	4b9e      	ldr	r3, [pc, #632]	; (8003c8c <HAL_RCCEx_PeriphCLKConfig+0x450>)
 8003a14:	430a      	orrs	r2, r1
 8003a16:	655a      	str	r2, [r3, #84]	; 0x54
  }
#endif /* RCC_CCIPR_USART3SEL */

#if defined(LPUART1)
  /*-------------------------- LPUART1 clock source configuration ------------------*/
  if (((PeriphClkInit->PeriphClockSelection) & RCC_PERIPHCLK_LPUART1) == RCC_PERIPHCLK_LPUART1)
 8003a18:	687b      	ldr	r3, [r7, #4]
 8003a1a:	681b      	ldr	r3, [r3, #0]
 8003a1c:	2210      	movs	r2, #16
 8003a1e:	4013      	ands	r3, r2
 8003a20:	d009      	beq.n	8003a36 <HAL_RCCEx_PeriphCLKConfig+0x1fa>
  {
    /* Check the parameters */
    assert_param(IS_RCC_LPUART1CLKSOURCE(PeriphClkInit->Lpuart1ClockSelection));

    /* Configure the LPUART1 clock source */
    __HAL_RCC_LPUART1_CONFIG(PeriphClkInit->Lpuart1ClockSelection);
 8003a22:	4b9a      	ldr	r3, [pc, #616]	; (8003c8c <HAL_RCCEx_PeriphCLKConfig+0x450>)
 8003a24:	6d5b      	ldr	r3, [r3, #84]	; 0x54
 8003a26:	4a9b      	ldr	r2, [pc, #620]	; (8003c94 <HAL_RCCEx_PeriphCLKConfig+0x458>)
 8003a28:	4013      	ands	r3, r2
 8003a2a:	0019      	movs	r1, r3
 8003a2c:	687b      	ldr	r3, [r7, #4]
 8003a2e:	691a      	ldr	r2, [r3, #16]
 8003a30:	4b96      	ldr	r3, [pc, #600]	; (8003c8c <HAL_RCCEx_PeriphCLKConfig+0x450>)
 8003a32:	430a      	orrs	r2, r1
 8003a34:	655a      	str	r2, [r3, #84]	; 0x54
  }
#endif /* LPUART1 */

#if defined(LPUART2)
  /*-------------------------- LPUART2 clock source configuration ------------------*/
  if (((PeriphClkInit->PeriphClockSelection) & RCC_PERIPHCLK_LPUART2) == RCC_PERIPHCLK_LPUART2)
 8003a36:	687b      	ldr	r3, [r7, #4]
 8003a38:	681a      	ldr	r2, [r3, #0]
 8003a3a:	2380      	movs	r3, #128	; 0x80
 8003a3c:	015b      	lsls	r3, r3, #5
 8003a3e:	4013      	ands	r3, r2
 8003a40:	d009      	beq.n	8003a56 <HAL_RCCEx_PeriphCLKConfig+0x21a>
  {
    /* Check the parameters */
    assert_param(IS_RCC_LPUART2CLKSOURCE(PeriphClkInit->Lpuart2ClockSelection));

    /* Configure the LPUART clock source */
    __HAL_RCC_LPUART2_CONFIG(PeriphClkInit->Lpuart2ClockSelection);
 8003a42:	4b92      	ldr	r3, [pc, #584]	; (8003c8c <HAL_RCCEx_PeriphCLKConfig+0x450>)
 8003a44:	6d5b      	ldr	r3, [r3, #84]	; 0x54
 8003a46:	4a94      	ldr	r2, [pc, #592]	; (8003c98 <HAL_RCCEx_PeriphCLKConfig+0x45c>)
 8003a48:	4013      	ands	r3, r2
 8003a4a:	0019      	movs	r1, r3
 8003a4c:	687b      	ldr	r3, [r7, #4]
 8003a4e:	695a      	ldr	r2, [r3, #20]
 8003a50:	4b8e      	ldr	r3, [pc, #568]	; (8003c8c <HAL_RCCEx_PeriphCLKConfig+0x450>)
 8003a52:	430a      	orrs	r2, r1
 8003a54:	655a      	str	r2, [r3, #84]	; 0x54
  }
#endif /* LPUART2 */

#if defined(RCC_CCIPR_LPTIM1SEL)
  /*-------------------------- LPTIM1 clock source configuration -------------------*/
  if (((PeriphClkInit->PeriphClockSelection) & RCC_PERIPHCLK_LPTIM1) == (RCC_PERIPHCLK_LPTIM1))
 8003a56:	687b      	ldr	r3, [r7, #4]
 8003a58:	681a      	ldr	r2, [r3, #0]
 8003a5a:	2380      	movs	r3, #128	; 0x80
 8003a5c:	009b      	lsls	r3, r3, #2
 8003a5e:	4013      	ands	r3, r2
 8003a60:	d009      	beq.n	8003a76 <HAL_RCCEx_PeriphCLKConfig+0x23a>
  {
    assert_param(IS_RCC_LPTIM1CLKSOURCE(PeriphClkInit->Lptim1ClockSelection));
    __HAL_RCC_LPTIM1_CONFIG(PeriphClkInit->Lptim1ClockSelection);
 8003a62:	4b8a      	ldr	r3, [pc, #552]	; (8003c8c <HAL_RCCEx_PeriphCLKConfig+0x450>)
 8003a64:	6d5b      	ldr	r3, [r3, #84]	; 0x54
 8003a66:	4a8d      	ldr	r2, [pc, #564]	; (8003c9c <HAL_RCCEx_PeriphCLKConfig+0x460>)
 8003a68:	4013      	ands	r3, r2
 8003a6a:	0019      	movs	r1, r3
 8003a6c:	687b      	ldr	r3, [r7, #4]
 8003a6e:	6a9a      	ldr	r2, [r3, #40]	; 0x28
 8003a70:	4b86      	ldr	r3, [pc, #536]	; (8003c8c <HAL_RCCEx_PeriphCLKConfig+0x450>)
 8003a72:	430a      	orrs	r2, r1
 8003a74:	655a      	str	r2, [r3, #84]	; 0x54
  }
#endif /* RCC_CCIPR_LPTIM1SEL */

#if defined(RCC_CCIPR_LPTIM2SEL)
  /*-------------------------- LPTIM2 clock source configuration -------------------*/
  if (((PeriphClkInit->PeriphClockSelection) & RCC_PERIPHCLK_LPTIM2) == (RCC_PERIPHCLK_LPTIM2))
 8003a76:	687b      	ldr	r3, [r7, #4]
 8003a78:	681a      	ldr	r2, [r3, #0]
 8003a7a:	2380      	movs	r3, #128	; 0x80
 8003a7c:	00db      	lsls	r3, r3, #3
 8003a7e:	4013      	ands	r3, r2
 8003a80:	d009      	beq.n	8003a96 <HAL_RCCEx_PeriphCLKConfig+0x25a>
  {
    assert_param(IS_RCC_LPTIM2CLKSOURCE(PeriphClkInit->Lptim2ClockSelection));
    __HAL_RCC_LPTIM2_CONFIG(PeriphClkInit->Lptim2ClockSelection);
 8003a82:	4b82      	ldr	r3, [pc, #520]	; (8003c8c <HAL_RCCEx_PeriphCLKConfig+0x450>)
 8003a84:	6d5b      	ldr	r3, [r3, #84]	; 0x54
 8003a86:	4a86      	ldr	r2, [pc, #536]	; (8003ca0 <HAL_RCCEx_PeriphCLKConfig+0x464>)
 8003a88:	4013      	ands	r3, r2
 8003a8a:	0019      	movs	r1, r3
 8003a8c:	687b      	ldr	r3, [r7, #4]
 8003a8e:	6ada      	ldr	r2, [r3, #44]	; 0x2c
 8003a90:	4b7e      	ldr	r3, [pc, #504]	; (8003c8c <HAL_RCCEx_PeriphCLKConfig+0x450>)
 8003a92:	430a      	orrs	r2, r1
 8003a94:	655a      	str	r2, [r3, #84]	; 0x54
  }
#endif /* RCC_CCIPR_LPTIM2SEL */

  /*-------------------------- I2C1 clock source configuration ---------------------*/
  if (((PeriphClkInit->PeriphClockSelection) & RCC_PERIPHCLK_I2C1) == RCC_PERIPHCLK_I2C1)
 8003a96:	687b      	ldr	r3, [r7, #4]
 8003a98:	681b      	ldr	r3, [r3, #0]
 8003a9a:	2220      	movs	r2, #32
 8003a9c:	4013      	ands	r3, r2
 8003a9e:	d009      	beq.n	8003ab4 <HAL_RCCEx_PeriphCLKConfig+0x278>
  {
    /* Check the parameters */
    assert_param(IS_RCC_I2C1CLKSOURCE(PeriphClkInit->I2c1ClockSelection));

    /* Configure the I2C1 clock source */
    __HAL_RCC_I2C1_CONFIG(PeriphClkInit->I2c1ClockSelection);
 8003aa0:	4b7a      	ldr	r3, [pc, #488]	; (8003c8c <HAL_RCCEx_PeriphCLKConfig+0x450>)
 8003aa2:	6d5b      	ldr	r3, [r3, #84]	; 0x54
 8003aa4:	4a7f      	ldr	r2, [pc, #508]	; (8003ca4 <HAL_RCCEx_PeriphCLKConfig+0x468>)
 8003aa6:	4013      	ands	r3, r2
 8003aa8:	0019      	movs	r1, r3
 8003aaa:	687b      	ldr	r3, [r7, #4]
 8003aac:	699a      	ldr	r2, [r3, #24]
 8003aae:	4b77      	ldr	r3, [pc, #476]	; (8003c8c <HAL_RCCEx_PeriphCLKConfig+0x450>)
 8003ab0:	430a      	orrs	r2, r1
 8003ab2:	655a      	str	r2, [r3, #84]	; 0x54
  }

#if defined(RCC_CCIPR_I2C2SEL)
  /*-------------------------- I2C2 clock source configuration ---------------------*/
  if (((PeriphClkInit->PeriphClockSelection) & RCC_PERIPHCLK_I2C2) == RCC_PERIPHCLK_I2C2)
 8003ab4:	687b      	ldr	r3, [r7, #4]
 8003ab6:	681b      	ldr	r3, [r3, #0]
 8003ab8:	2240      	movs	r2, #64	; 0x40
 8003aba:	4013      	ands	r3, r2
 8003abc:	d009      	beq.n	8003ad2 <HAL_RCCEx_PeriphCLKConfig+0x296>
  {
    /* Check the parameters */
    assert_param(IS_RCC_I2C2CLKSOURCE(PeriphClkInit->I2c2ClockSelection));

    /* Configure the I2C2 clock source */
    __HAL_RCC_I2C2_CONFIG(PeriphClkInit->I2c2ClockSelection);
 8003abe:	4b73      	ldr	r3, [pc, #460]	; (8003c8c <HAL_RCCEx_PeriphCLKConfig+0x450>)
 8003ac0:	6d5b      	ldr	r3, [r3, #84]	; 0x54
 8003ac2:	4a79      	ldr	r2, [pc, #484]	; (8003ca8 <HAL_RCCEx_PeriphCLKConfig+0x46c>)
 8003ac4:	4013      	ands	r3, r2
 8003ac6:	0019      	movs	r1, r3
 8003ac8:	687b      	ldr	r3, [r7, #4]
 8003aca:	69da      	ldr	r2, [r3, #28]
 8003acc:	4b6f      	ldr	r3, [pc, #444]	; (8003c8c <HAL_RCCEx_PeriphCLKConfig+0x450>)
 8003ace:	430a      	orrs	r2, r1
 8003ad0:	655a      	str	r2, [r3, #84]	; 0x54
      __HAL_RCC_PLLCLKOUT_ENABLE(RCC_PLLQCLK);
    }
  }
#endif /* RNG */
  /*-------------------------- ADC clock source configuration ----------------------*/
  if (((PeriphClkInit->PeriphClockSelection) & RCC_PERIPHCLK_ADC) == RCC_PERIPHCLK_ADC)
 8003ad2:	687b      	ldr	r3, [r7, #4]
 8003ad4:	681a      	ldr	r2, [r3, #0]
 8003ad6:	2380      	movs	r3, #128	; 0x80
 8003ad8:	01db      	lsls	r3, r3, #7
 8003ada:	4013      	ands	r3, r2
 8003adc:	d015      	beq.n	8003b0a <HAL_RCCEx_PeriphCLKConfig+0x2ce>
  {
    /* Check the parameters */
    assert_param(IS_RCC_ADCCLKSOURCE(PeriphClkInit->AdcClockSelection));

    /* Configure the ADC interface clock source */
    __HAL_RCC_ADC_CONFIG(PeriphClkInit->AdcClockSelection);
 8003ade:	4b6b      	ldr	r3, [pc, #428]	; (8003c8c <HAL_RCCEx_PeriphCLKConfig+0x450>)
 8003ae0:	6d5b      	ldr	r3, [r3, #84]	; 0x54
 8003ae2:	009b      	lsls	r3, r3, #2
 8003ae4:	0899      	lsrs	r1, r3, #2
 8003ae6:	687b      	ldr	r3, [r7, #4]
 8003ae8:	6b1a      	ldr	r2, [r3, #48]	; 0x30
 8003aea:	4b68      	ldr	r3, [pc, #416]	; (8003c8c <HAL_RCCEx_PeriphCLKConfig+0x450>)
 8003aec:	430a      	orrs	r2, r1
 8003aee:	655a      	str	r2, [r3, #84]	; 0x54

    if (PeriphClkInit->AdcClockSelection == RCC_ADCCLKSOURCE_PLLADC)
 8003af0:	687b      	ldr	r3, [r7, #4]
 8003af2:	6b1a      	ldr	r2, [r3, #48]	; 0x30
 8003af4:	2380      	movs	r3, #128	; 0x80
 8003af6:	05db      	lsls	r3, r3, #23
 8003af8:	429a      	cmp	r2, r3
 8003afa:	d106      	bne.n	8003b0a <HAL_RCCEx_PeriphCLKConfig+0x2ce>
    {
      /* Enable PLLPCLK output */
      __HAL_RCC_PLLCLKOUT_ENABLE(RCC_PLLPCLK);
 8003afc:	4b63      	ldr	r3, [pc, #396]	; (8003c8c <HAL_RCCEx_PeriphCLKConfig+0x450>)
 8003afe:	68da      	ldr	r2, [r3, #12]
 8003b00:	4b62      	ldr	r3, [pc, #392]	; (8003c8c <HAL_RCCEx_PeriphCLKConfig+0x450>)
 8003b02:	2180      	movs	r1, #128	; 0x80
 8003b04:	0249      	lsls	r1, r1, #9
 8003b06:	430a      	orrs	r2, r1
 8003b08:	60da      	str	r2, [r3, #12]
    }
  }

#if defined(CEC)
  /*-------------------------- CEC clock source configuration ---------------------*/
  if (((PeriphClkInit->PeriphClockSelection) & RCC_PERIPHCLK_CEC) == RCC_PERIPHCLK_CEC)
 8003b0a:	687b      	ldr	r3, [r7, #4]
 8003b0c:	681a      	ldr	r2, [r3, #0]
 8003b0e:	2380      	movs	r3, #128	; 0x80
 8003b10:	031b      	lsls	r3, r3, #12
 8003b12:	4013      	ands	r3, r2
 8003b14:	d009      	beq.n	8003b2a <HAL_RCCEx_PeriphCLKConfig+0x2ee>
  {
    /* Check the parameters */
    assert_param(IS_RCC_CECCLKSOURCE(PeriphClkInit->CecClockSelection));

    /* Configure the CEC clock source */
    __HAL_RCC_CEC_CONFIG(PeriphClkInit->CecClockSelection);
 8003b16:	4b5d      	ldr	r3, [pc, #372]	; (8003c8c <HAL_RCCEx_PeriphCLKConfig+0x450>)
 8003b18:	6d5b      	ldr	r3, [r3, #84]	; 0x54
 8003b1a:	2240      	movs	r2, #64	; 0x40
 8003b1c:	4393      	bics	r3, r2
 8003b1e:	0019      	movs	r1, r3
 8003b20:	687b      	ldr	r3, [r7, #4]
 8003b22:	6b5a      	ldr	r2, [r3, #52]	; 0x34
 8003b24:	4b59      	ldr	r3, [pc, #356]	; (8003c8c <HAL_RCCEx_PeriphCLKConfig+0x450>)
 8003b26:	430a      	orrs	r2, r1
 8003b28:	655a      	str	r2, [r3, #84]	; 0x54
  }
#endif /* CEC */

#if defined(RCC_CCIPR_TIM1SEL)
  /*-------------------------- TIM1 clock source configuration ---------------------*/
  if (((PeriphClkInit->PeriphClockSelection) & RCC_PERIPHCLK_TIM1) == RCC_PERIPHCLK_TIM1)
 8003b2a:	687b      	ldr	r3, [r7, #4]
 8003b2c:	681a      	ldr	r2, [r3, #0]
 8003b2e:	2380      	movs	r3, #128	; 0x80
 8003b30:	039b      	lsls	r3, r3, #14
 8003b32:	4013      	ands	r3, r2
 8003b34:	d016      	beq.n	8003b64 <HAL_RCCEx_PeriphCLKConfig+0x328>
  {
    /* Check the parameters */
    assert_param(IS_RCC_TIM1CLKSOURCE(PeriphClkInit->Tim1ClockSelection));

    /* Configure the TIM1 clock source */
    __HAL_RCC_TIM1_CONFIG(PeriphClkInit->Tim1ClockSelection);
 8003b36:	4b55      	ldr	r3, [pc, #340]	; (8003c8c <HAL_RCCEx_PeriphCLKConfig+0x450>)
 8003b38:	6d5b      	ldr	r3, [r3, #84]	; 0x54
 8003b3a:	4a5c      	ldr	r2, [pc, #368]	; (8003cac <HAL_RCCEx_PeriphCLKConfig+0x470>)
 8003b3c:	4013      	ands	r3, r2
 8003b3e:	0019      	movs	r1, r3
 8003b40:	687b      	ldr	r3, [r7, #4]
 8003b42:	6b9a      	ldr	r2, [r3, #56]	; 0x38
 8003b44:	4b51      	ldr	r3, [pc, #324]	; (8003c8c <HAL_RCCEx_PeriphCLKConfig+0x450>)
 8003b46:	430a      	orrs	r2, r1
 8003b48:	655a      	str	r2, [r3, #84]	; 0x54

    if (PeriphClkInit->Tim1ClockSelection == RCC_TIM1CLKSOURCE_PLL)
 8003b4a:	687b      	ldr	r3, [r7, #4]
 8003b4c:	6b9a      	ldr	r2, [r3, #56]	; 0x38
 8003b4e:	2380      	movs	r3, #128	; 0x80
 8003b50:	03db      	lsls	r3, r3, #15
 8003b52:	429a      	cmp	r2, r3
 8003b54:	d106      	bne.n	8003b64 <HAL_RCCEx_PeriphCLKConfig+0x328>
    {
      /* Enable PLLQCLK output */
      __HAL_RCC_PLLCLKOUT_ENABLE(RCC_PLLQCLK);
 8003b56:	4b4d      	ldr	r3, [pc, #308]	; (8003c8c <HAL_RCCEx_PeriphCLKConfig+0x450>)
 8003b58:	68da      	ldr	r2, [r3, #12]
 8003b5a:	4b4c      	ldr	r3, [pc, #304]	; (8003c8c <HAL_RCCEx_PeriphCLKConfig+0x450>)
 8003b5c:	2180      	movs	r1, #128	; 0x80
 8003b5e:	0449      	lsls	r1, r1, #17
 8003b60:	430a      	orrs	r2, r1
 8003b62:	60da      	str	r2, [r3, #12]
  }
#endif /* RCC_CCIPR_TIM1SEL */

#if defined(RCC_CCIPR_TIM15SEL)
  /*-------------------------- TIM15 clock source configuration ---------------------*/
  if (((PeriphClkInit->PeriphClockSelection) & RCC_PERIPHCLK_TIM15) == RCC_PERIPHCLK_TIM15)
 8003b64:	687b      	ldr	r3, [r7, #4]
 8003b66:	681a      	ldr	r2, [r3, #0]
 8003b68:	2380      	movs	r3, #128	; 0x80
 8003b6a:	03db      	lsls	r3, r3, #15
 8003b6c:	4013      	ands	r3, r2
 8003b6e:	d016      	beq.n	8003b9e <HAL_RCCEx_PeriphCLKConfig+0x362>
  {
    /* Check the parameters */
    assert_param(IS_RCC_TIM15CLKSOURCE(PeriphClkInit->Tim15ClockSelection));

    /* Configure the TIM15 clock source */
    __HAL_RCC_TIM15_CONFIG(PeriphClkInit->Tim15ClockSelection);
 8003b70:	4b46      	ldr	r3, [pc, #280]	; (8003c8c <HAL_RCCEx_PeriphCLKConfig+0x450>)
 8003b72:	6d5b      	ldr	r3, [r3, #84]	; 0x54
 8003b74:	4a4e      	ldr	r2, [pc, #312]	; (8003cb0 <HAL_RCCEx_PeriphCLKConfig+0x474>)
 8003b76:	4013      	ands	r3, r2
 8003b78:	0019      	movs	r1, r3
 8003b7a:	687b      	ldr	r3, [r7, #4]
 8003b7c:	6bda      	ldr	r2, [r3, #60]	; 0x3c
 8003b7e:	4b43      	ldr	r3, [pc, #268]	; (8003c8c <HAL_RCCEx_PeriphCLKConfig+0x450>)
 8003b80:	430a      	orrs	r2, r1
 8003b82:	655a      	str	r2, [r3, #84]	; 0x54

    if (PeriphClkInit->Tim15ClockSelection == RCC_TIM15CLKSOURCE_PLL)
 8003b84:	687b      	ldr	r3, [r7, #4]
 8003b86:	6bda      	ldr	r2, [r3, #60]	; 0x3c
 8003b88:	2380      	movs	r3, #128	; 0x80
 8003b8a:	045b      	lsls	r3, r3, #17
 8003b8c:	429a      	cmp	r2, r3
 8003b8e:	d106      	bne.n	8003b9e <HAL_RCCEx_PeriphCLKConfig+0x362>
    {
      /* Enable PLLQCLK output */
      __HAL_RCC_PLLCLKOUT_ENABLE(RCC_PLLQCLK);
 8003b90:	4b3e      	ldr	r3, [pc, #248]	; (8003c8c <HAL_RCCEx_PeriphCLKConfig+0x450>)
 8003b92:	68da      	ldr	r2, [r3, #12]
 8003b94:	4b3d      	ldr	r3, [pc, #244]	; (8003c8c <HAL_RCCEx_PeriphCLKConfig+0x450>)
 8003b96:	2180      	movs	r1, #128	; 0x80
 8003b98:	0449      	lsls	r1, r1, #17
 8003b9a:	430a      	orrs	r2, r1
 8003b9c:	60da      	str	r2, [r3, #12]
    }
  }
#endif /* RCC_CCIPR_TIM15SEL */

  /*-------------------------- I2S1 clock source configuration ---------------------*/
  if (((PeriphClkInit->PeriphClockSelection) & RCC_PERIPHCLK_I2S1) == RCC_PERIPHCLK_I2S1)
 8003b9e:	687b      	ldr	r3, [r7, #4]
 8003ba0:	681a      	ldr	r2, [r3, #0]
 8003ba2:	2380      	movs	r3, #128	; 0x80
 8003ba4:	011b      	lsls	r3, r3, #4
 8003ba6:	4013      	ands	r3, r2
 8003ba8:	d014      	beq.n	8003bd4 <HAL_RCCEx_PeriphCLKConfig+0x398>
  {
    /* Check the parameters */
    assert_param(IS_RCC_I2S1CLKSOURCE(PeriphClkInit->I2s1ClockSelection));

    /* Configure the I2S1 clock source */
    __HAL_RCC_I2S1_CONFIG(PeriphClkInit->I2s1ClockSelection);
 8003baa:	4b38      	ldr	r3, [pc, #224]	; (8003c8c <HAL_RCCEx_PeriphCLKConfig+0x450>)
 8003bac:	6d9b      	ldr	r3, [r3, #88]	; 0x58
 8003bae:	2203      	movs	r2, #3
 8003bb0:	4393      	bics	r3, r2
 8003bb2:	0019      	movs	r1, r3
 8003bb4:	687b      	ldr	r3, [r7, #4]
 8003bb6:	6a1a      	ldr	r2, [r3, #32]
 8003bb8:	4b34      	ldr	r3, [pc, #208]	; (8003c8c <HAL_RCCEx_PeriphCLKConfig+0x450>)
 8003bba:	430a      	orrs	r2, r1
 8003bbc:	659a      	str	r2, [r3, #88]	; 0x58

    if (PeriphClkInit->I2s1ClockSelection == RCC_I2S1CLKSOURCE_PLL)
 8003bbe:	687b      	ldr	r3, [r7, #4]
 8003bc0:	6a1b      	ldr	r3, [r3, #32]
 8003bc2:	2b01      	cmp	r3, #1
 8003bc4:	d106      	bne.n	8003bd4 <HAL_RCCEx_PeriphCLKConfig+0x398>
    {
      /* Enable PLLPCLK output */
      __HAL_RCC_PLLCLKOUT_ENABLE(RCC_PLLPCLK);
 8003bc6:	4b31      	ldr	r3, [pc, #196]	; (8003c8c <HAL_RCCEx_PeriphCLKConfig+0x450>)
 8003bc8:	68da      	ldr	r2, [r3, #12]
 8003bca:	4b30      	ldr	r3, [pc, #192]	; (8003c8c <HAL_RCCEx_PeriphCLKConfig+0x450>)
 8003bcc:	2180      	movs	r1, #128	; 0x80
 8003bce:	0249      	lsls	r1, r1, #9
 8003bd0:	430a      	orrs	r2, r1
 8003bd2:	60da      	str	r2, [r3, #12]
    }
  }

#if defined(RCC_CCIPR2_I2S2SEL)
  /*-------------------------- I2S2 clock source configuration ---------------------*/
  if (((PeriphClkInit->PeriphClockSelection) & RCC_PERIPHCLK_I2S2) == RCC_PERIPHCLK_I2S2)
 8003bd4:	687b      	ldr	r3, [r7, #4]
 8003bd6:	681a      	ldr	r2, [r3, #0]
 8003bd8:	2380      	movs	r3, #128	; 0x80
 8003bda:	019b      	lsls	r3, r3, #6
 8003bdc:	4013      	ands	r3, r2
 8003bde:	d014      	beq.n	8003c0a <HAL_RCCEx_PeriphCLKConfig+0x3ce>
  {
    /* Check the parameters */
    assert_param(IS_RCC_I2S2CLKSOURCE(PeriphClkInit->I2s2ClockSelection));

    /* Configure the I2S2 clock source */
    __HAL_RCC_I2S2_CONFIG(PeriphClkInit->I2s2ClockSelection);
 8003be0:	4b2a      	ldr	r3, [pc, #168]	; (8003c8c <HAL_RCCEx_PeriphCLKConfig+0x450>)
 8003be2:	6d9b      	ldr	r3, [r3, #88]	; 0x58
 8003be4:	220c      	movs	r2, #12
 8003be6:	4393      	bics	r3, r2
 8003be8:	0019      	movs	r1, r3
 8003bea:	687b      	ldr	r3, [r7, #4]
 8003bec:	6a5a      	ldr	r2, [r3, #36]	; 0x24
 8003bee:	4b27      	ldr	r3, [pc, #156]	; (8003c8c <HAL_RCCEx_PeriphCLKConfig+0x450>)
 8003bf0:	430a      	orrs	r2, r1
 8003bf2:	659a      	str	r2, [r3, #88]	; 0x58

    if (PeriphClkInit->I2s2ClockSelection == RCC_I2S2CLKSOURCE_PLL)
 8003bf4:	687b      	ldr	r3, [r7, #4]
 8003bf6:	6a5b      	ldr	r3, [r3, #36]	; 0x24
 8003bf8:	2b04      	cmp	r3, #4
 8003bfa:	d106      	bne.n	8003c0a <HAL_RCCEx_PeriphCLKConfig+0x3ce>
    {
      /* Enable PLLPCLK output */
      __HAL_RCC_PLLCLKOUT_ENABLE(RCC_PLLPCLK);
 8003bfc:	4b23      	ldr	r3, [pc, #140]	; (8003c8c <HAL_RCCEx_PeriphCLKConfig+0x450>)
 8003bfe:	68da      	ldr	r2, [r3, #12]
 8003c00:	4b22      	ldr	r3, [pc, #136]	; (8003c8c <HAL_RCCEx_PeriphCLKConfig+0x450>)
 8003c02:	2180      	movs	r1, #128	; 0x80
 8003c04:	0249      	lsls	r1, r1, #9
 8003c06:	430a      	orrs	r2, r1
 8003c08:	60da      	str	r2, [r3, #12]
  }
#endif /* RCC_CCIPR2_I2S2SEL */

#if defined(STM32G0C1xx) || defined(STM32G0B1xx)  || defined(STM32G0B0xx)
  /*-------------------------- USB clock source configuration ---------------------*/
  if (((PeriphClkInit->PeriphClockSelection) & RCC_PERIPHCLK_USB) == RCC_PERIPHCLK_USB)
 8003c0a:	687b      	ldr	r3, [r7, #4]
 8003c0c:	681a      	ldr	r2, [r3, #0]
 8003c0e:	2380      	movs	r3, #128	; 0x80
 8003c10:	045b      	lsls	r3, r3, #17
 8003c12:	4013      	ands	r3, r2
 8003c14:	d016      	beq.n	8003c44 <HAL_RCCEx_PeriphCLKConfig+0x408>
  {
    /* Check the parameters */
    assert_param(IS_RCC_USBCLKSOURCE(PeriphClkInit->UsbClockSelection));

    /* Configure the USB clock source */
    __HAL_RCC_USB_CONFIG(PeriphClkInit->UsbClockSelection);
 8003c16:	4b1d      	ldr	r3, [pc, #116]	; (8003c8c <HAL_RCCEx_PeriphCLKConfig+0x450>)
 8003c18:	6d9b      	ldr	r3, [r3, #88]	; 0x58
 8003c1a:	4a22      	ldr	r2, [pc, #136]	; (8003ca4 <HAL_RCCEx_PeriphCLKConfig+0x468>)
 8003c1c:	4013      	ands	r3, r2
 8003c1e:	0019      	movs	r1, r3
 8003c20:	687b      	ldr	r3, [r7, #4]
 8003c22:	6c5a      	ldr	r2, [r3, #68]	; 0x44
 8003c24:	4b19      	ldr	r3, [pc, #100]	; (8003c8c <HAL_RCCEx_PeriphCLKConfig+0x450>)
 8003c26:	430a      	orrs	r2, r1
 8003c28:	659a      	str	r2, [r3, #88]	; 0x58

    if (PeriphClkInit->UsbClockSelection == RCC_USBCLKSOURCE_PLL)
 8003c2a:	687b      	ldr	r3, [r7, #4]
 8003c2c:	6c5a      	ldr	r2, [r3, #68]	; 0x44
 8003c2e:	2380      	movs	r3, #128	; 0x80
 8003c30:	019b      	lsls	r3, r3, #6
 8003c32:	429a      	cmp	r2, r3
 8003c34:	d106      	bne.n	8003c44 <HAL_RCCEx_PeriphCLKConfig+0x408>
    {
      /* Enable PLLQCLK output */
      __HAL_RCC_PLLCLKOUT_ENABLE(RCC_PLLQCLK);
 8003c36:	4b15      	ldr	r3, [pc, #84]	; (8003c8c <HAL_RCCEx_PeriphCLKConfig+0x450>)
 8003c38:	68da      	ldr	r2, [r3, #12]
 8003c3a:	4b14      	ldr	r3, [pc, #80]	; (8003c8c <HAL_RCCEx_PeriphCLKConfig+0x450>)
 8003c3c:	2180      	movs	r1, #128	; 0x80
 8003c3e:	0449      	lsls	r1, r1, #17
 8003c40:	430a      	orrs	r2, r1
 8003c42:	60da      	str	r2, [r3, #12]
  }
#endif /* STM32G0C1xx || STM32G0B1xx || STM32G0B0xx */

#if defined(FDCAN1) || defined(FDCAN2)
  /*-------------------------- FDCAN clock source configuration ---------------------*/
  if (((PeriphClkInit->PeriphClockSelection) & RCC_PERIPHCLK_FDCAN) == RCC_PERIPHCLK_FDCAN)
 8003c44:	687b      	ldr	r3, [r7, #4]
 8003c46:	681a      	ldr	r2, [r3, #0]
 8003c48:	2380      	movs	r3, #128	; 0x80
 8003c4a:	049b      	lsls	r3, r3, #18
 8003c4c:	4013      	ands	r3, r2
 8003c4e:	d016      	beq.n	8003c7e <HAL_RCCEx_PeriphCLKConfig+0x442>
  {
    /* Check the parameters */
    assert_param(IS_RCC_FDCANCLKSOURCE(PeriphClkInit->FdcanClockSelection));

    /* Configure the FDCAN clock source */
    __HAL_RCC_FDCAN_CONFIG(PeriphClkInit->FdcanClockSelection);
 8003c50:	4b0e      	ldr	r3, [pc, #56]	; (8003c8c <HAL_RCCEx_PeriphCLKConfig+0x450>)
 8003c52:	6d9b      	ldr	r3, [r3, #88]	; 0x58
 8003c54:	4a10      	ldr	r2, [pc, #64]	; (8003c98 <HAL_RCCEx_PeriphCLKConfig+0x45c>)
 8003c56:	4013      	ands	r3, r2
 8003c58:	0019      	movs	r1, r3
 8003c5a:	687b      	ldr	r3, [r7, #4]
 8003c5c:	6c9a      	ldr	r2, [r3, #72]	; 0x48
 8003c5e:	4b0b      	ldr	r3, [pc, #44]	; (8003c8c <HAL_RCCEx_PeriphCLKConfig+0x450>)
 8003c60:	430a      	orrs	r2, r1
 8003c62:	659a      	str	r2, [r3, #88]	; 0x58

    if (PeriphClkInit->FdcanClockSelection == RCC_FDCANCLKSOURCE_PLL)
 8003c64:	687b      	ldr	r3, [r7, #4]
 8003c66:	6c9a      	ldr	r2, [r3, #72]	; 0x48
 8003c68:	2380      	movs	r3, #128	; 0x80
 8003c6a:	005b      	lsls	r3, r3, #1
 8003c6c:	429a      	cmp	r2, r3
 8003c6e:	d106      	bne.n	8003c7e <HAL_RCCEx_PeriphCLKConfig+0x442>
    {
      /* Enable PLLQCLK output */
      __HAL_RCC_PLLCLKOUT_ENABLE(RCC_PLLQCLK);
 8003c70:	4b06      	ldr	r3, [pc, #24]	; (8003c8c <HAL_RCCEx_PeriphCLKConfig+0x450>)
 8003c72:	68da      	ldr	r2, [r3, #12]
 8003c74:	4b05      	ldr	r3, [pc, #20]	; (8003c8c <HAL_RCCEx_PeriphCLKConfig+0x450>)
 8003c76:	2180      	movs	r1, #128	; 0x80
 8003c78:	0449      	lsls	r1, r1, #17
 8003c7a:	430a      	orrs	r2, r1
 8003c7c:	60da      	str	r2, [r3, #12]
    }
  }
#endif /* FDCAN1 || FDCAN2 */

  return status;
 8003c7e:	2312      	movs	r3, #18
 8003c80:	18fb      	adds	r3, r7, r3
 8003c82:	781b      	ldrb	r3, [r3, #0]
}
 8003c84:	0018      	movs	r0, r3
 8003c86:	46bd      	mov	sp, r7
 8003c88:	b006      	add	sp, #24
 8003c8a:	bd80      	pop	{r7, pc}
 8003c8c:	40021000 	.word	0x40021000
 8003c90:	efffffff 	.word	0xefffffff
 8003c94:	fffff3ff 	.word	0xfffff3ff
 8003c98:	fffffcff 	.word	0xfffffcff
 8003c9c:	fff3ffff 	.word	0xfff3ffff
 8003ca0:	ffcfffff 	.word	0xffcfffff
 8003ca4:	ffffcfff 	.word	0xffffcfff
 8003ca8:	ffff3fff 	.word	0xffff3fff
 8003cac:	ffbfffff 	.word	0xffbfffff
 8003cb0:	feffffff 	.word	0xfeffffff

08003cb4 <HAL_TIM_Base_Init>:
  *         Ex: call @ref HAL_TIM_Base_DeInit() before HAL_TIM_Base_Init()
  * @param  htim TIM Base handle
  * @retval HAL status
  */
HAL_StatusTypeDef HAL_TIM_Base_Init(TIM_HandleTypeDef *htim)
{
 8003cb4:	b580      	push	{r7, lr}
 8003cb6:	b082      	sub	sp, #8
 8003cb8:	af00      	add	r7, sp, #0
 8003cba:	6078      	str	r0, [r7, #4]
  /* Check the TIM handle allocation */
  if (htim == NULL)
 8003cbc:	687b      	ldr	r3, [r7, #4]
 8003cbe:	2b00      	cmp	r3, #0
 8003cc0:	d101      	bne.n	8003cc6 <HAL_TIM_Base_Init+0x12>
  {
    return HAL_ERROR;
 8003cc2:	2301      	movs	r3, #1
 8003cc4:	e04a      	b.n	8003d5c <HAL_TIM_Base_Init+0xa8>
  assert_param(IS_TIM_COUNTER_MODE(htim->Init.CounterMode));
  assert_param(IS_TIM_CLOCKDIVISION_DIV(htim->Init.ClockDivision));
  assert_param(IS_TIM_PERIOD(htim, htim->Init.Period));
  assert_param(IS_TIM_AUTORELOAD_PRELOAD(htim->Init.AutoReloadPreload));

  if (htim->State == HAL_TIM_STATE_RESET)
 8003cc6:	687b      	ldr	r3, [r7, #4]
 8003cc8:	223d      	movs	r2, #61	; 0x3d
 8003cca:	5c9b      	ldrb	r3, [r3, r2]
 8003ccc:	b2db      	uxtb	r3, r3
 8003cce:	2b00      	cmp	r3, #0
 8003cd0:	d107      	bne.n	8003ce2 <HAL_TIM_Base_Init+0x2e>
  {
    /* Allocate lock resource and initialize it */
    htim->Lock = HAL_UNLOCKED;
 8003cd2:	687b      	ldr	r3, [r7, #4]
 8003cd4:	223c      	movs	r2, #60	; 0x3c
 8003cd6:	2100      	movs	r1, #0
 8003cd8:	5499      	strb	r1, [r3, r2]
    }
    /* Init the low level hardware : GPIO, CLOCK, NVIC */
    htim->Base_MspInitCallback(htim);
#else
    /* Init the low level hardware : GPIO, CLOCK, NVIC */
    HAL_TIM_Base_MspInit(htim);
 8003cda:	687b      	ldr	r3, [r7, #4]
 8003cdc:	0018      	movs	r0, r3
 8003cde:	f7fd f913 	bl	8000f08 <HAL_TIM_Base_MspInit>
#endif /* USE_HAL_TIM_REGISTER_CALLBACKS */
  }

  /* Set the TIM state */
  htim->State = HAL_TIM_STATE_BUSY;
 8003ce2:	687b      	ldr	r3, [r7, #4]
 8003ce4:	223d      	movs	r2, #61	; 0x3d
 8003ce6:	2102      	movs	r1, #2
 8003ce8:	5499      	strb	r1, [r3, r2]

  /* Set the Time Base configuration */
  TIM_Base_SetConfig(htim->Instance, &htim->Init);
 8003cea:	687b      	ldr	r3, [r7, #4]
 8003cec:	681a      	ldr	r2, [r3, #0]
 8003cee:	687b      	ldr	r3, [r7, #4]
 8003cf0:	3304      	adds	r3, #4
 8003cf2:	0019      	movs	r1, r3
 8003cf4:	0010      	movs	r0, r2
 8003cf6:	f000 f90b 	bl	8003f10 <TIM_Base_SetConfig>

  /* Initialize the DMA burst operation state */
  htim->DMABurstState = HAL_DMA_BURST_STATE_READY;
 8003cfa:	687b      	ldr	r3, [r7, #4]
 8003cfc:	2248      	movs	r2, #72	; 0x48
 8003cfe:	2101      	movs	r1, #1
 8003d00:	5499      	strb	r1, [r3, r2]

  /* Initialize the TIM channels state */
  TIM_CHANNEL_STATE_SET_ALL(htim, HAL_TIM_CHANNEL_STATE_READY);
 8003d02:	687b      	ldr	r3, [r7, #4]
 8003d04:	223e      	movs	r2, #62	; 0x3e
 8003d06:	2101      	movs	r1, #1
 8003d08:	5499      	strb	r1, [r3, r2]
 8003d0a:	687b      	ldr	r3, [r7, #4]
 8003d0c:	223f      	movs	r2, #63	; 0x3f
 8003d0e:	2101      	movs	r1, #1
 8003d10:	5499      	strb	r1, [r3, r2]
 8003d12:	687b      	ldr	r3, [r7, #4]
 8003d14:	2240      	movs	r2, #64	; 0x40
 8003d16:	2101      	movs	r1, #1
 8003d18:	5499      	strb	r1, [r3, r2]
 8003d1a:	687b      	ldr	r3, [r7, #4]
 8003d1c:	2241      	movs	r2, #65	; 0x41
 8003d1e:	2101      	movs	r1, #1
 8003d20:	5499      	strb	r1, [r3, r2]
 8003d22:	687b      	ldr	r3, [r7, #4]
 8003d24:	2242      	movs	r2, #66	; 0x42
 8003d26:	2101      	movs	r1, #1
 8003d28:	5499      	strb	r1, [r3, r2]
 8003d2a:	687b      	ldr	r3, [r7, #4]
 8003d2c:	2243      	movs	r2, #67	; 0x43
 8003d2e:	2101      	movs	r1, #1
 8003d30:	5499      	strb	r1, [r3, r2]
  TIM_CHANNEL_N_STATE_SET_ALL(htim, HAL_TIM_CHANNEL_STATE_READY);
 8003d32:	687b      	ldr	r3, [r7, #4]
 8003d34:	2244      	movs	r2, #68	; 0x44
 8003d36:	2101      	movs	r1, #1
 8003d38:	5499      	strb	r1, [r3, r2]
 8003d3a:	687b      	ldr	r3, [r7, #4]
 8003d3c:	2245      	movs	r2, #69	; 0x45
 8003d3e:	2101      	movs	r1, #1
 8003d40:	5499      	strb	r1, [r3, r2]
 8003d42:	687b      	ldr	r3, [r7, #4]
 8003d44:	2246      	movs	r2, #70	; 0x46
 8003d46:	2101      	movs	r1, #1
 8003d48:	5499      	strb	r1, [r3, r2]
 8003d4a:	687b      	ldr	r3, [r7, #4]
 8003d4c:	2247      	movs	r2, #71	; 0x47
 8003d4e:	2101      	movs	r1, #1
 8003d50:	5499      	strb	r1, [r3, r2]

  /* Initialize the TIM state*/
  htim->State = HAL_TIM_STATE_READY;
 8003d52:	687b      	ldr	r3, [r7, #4]
 8003d54:	223d      	movs	r2, #61	; 0x3d
 8003d56:	2101      	movs	r1, #1
 8003d58:	5499      	strb	r1, [r3, r2]

  return HAL_OK;
 8003d5a:	2300      	movs	r3, #0
}
 8003d5c:	0018      	movs	r0, r3
 8003d5e:	46bd      	mov	sp, r7
 8003d60:	b002      	add	sp, #8
 8003d62:	bd80      	pop	{r7, pc}

08003d64 <HAL_TIM_ConfigClockSource>:
  * @param  sClockSourceConfig pointer to a TIM_ClockConfigTypeDef structure that
  *         contains the clock source information for the TIM peripheral.
  * @retval HAL status
  */
HAL_StatusTypeDef HAL_TIM_ConfigClockSource(TIM_HandleTypeDef *htim, const TIM_ClockConfigTypeDef *sClockSourceConfig)
{
 8003d64:	b580      	push	{r7, lr}
 8003d66:	b084      	sub	sp, #16
 8003d68:	af00      	add	r7, sp, #0
 8003d6a:	6078      	str	r0, [r7, #4]
 8003d6c:	6039      	str	r1, [r7, #0]
  HAL_StatusTypeDef status = HAL_OK;
 8003d6e:	230f      	movs	r3, #15
 8003d70:	18fb      	adds	r3, r7, r3
 8003d72:	2200      	movs	r2, #0
 8003d74:	701a      	strb	r2, [r3, #0]
  uint32_t tmpsmcr;

  /* Process Locked */
  __HAL_LOCK(htim);
 8003d76:	687b      	ldr	r3, [r7, #4]
 8003d78:	223c      	movs	r2, #60	; 0x3c
 8003d7a:	5c9b      	ldrb	r3, [r3, r2]
 8003d7c:	2b01      	cmp	r3, #1
 8003d7e:	d101      	bne.n	8003d84 <HAL_TIM_ConfigClockSource+0x20>
 8003d80:	2302      	movs	r3, #2
 8003d82:	e0bc      	b.n	8003efe <HAL_TIM_ConfigClockSource+0x19a>
 8003d84:	687b      	ldr	r3, [r7, #4]
 8003d86:	223c      	movs	r2, #60	; 0x3c
 8003d88:	2101      	movs	r1, #1
 8003d8a:	5499      	strb	r1, [r3, r2]

  htim->State = HAL_TIM_STATE_BUSY;
 8003d8c:	687b      	ldr	r3, [r7, #4]
 8003d8e:	223d      	movs	r2, #61	; 0x3d
 8003d90:	2102      	movs	r1, #2
 8003d92:	5499      	strb	r1, [r3, r2]

  /* Check the parameters */
  assert_param(IS_TIM_CLOCKSOURCE(sClockSourceConfig->ClockSource));

  /* Reset the SMS, TS, ECE, ETPS and ETRF bits */
  tmpsmcr = htim->Instance->SMCR;
 8003d94:	687b      	ldr	r3, [r7, #4]
 8003d96:	681b      	ldr	r3, [r3, #0]
 8003d98:	689b      	ldr	r3, [r3, #8]
 8003d9a:	60bb      	str	r3, [r7, #8]
  tmpsmcr &= ~(TIM_SMCR_SMS | TIM_SMCR_TS);
 8003d9c:	68bb      	ldr	r3, [r7, #8]
 8003d9e:	4a5a      	ldr	r2, [pc, #360]	; (8003f08 <HAL_TIM_ConfigClockSource+0x1a4>)
 8003da0:	4013      	ands	r3, r2
 8003da2:	60bb      	str	r3, [r7, #8]
  tmpsmcr &= ~(TIM_SMCR_ETF | TIM_SMCR_ETPS | TIM_SMCR_ECE | TIM_SMCR_ETP);
 8003da4:	68bb      	ldr	r3, [r7, #8]
 8003da6:	4a59      	ldr	r2, [pc, #356]	; (8003f0c <HAL_TIM_ConfigClockSource+0x1a8>)
 8003da8:	4013      	ands	r3, r2
 8003daa:	60bb      	str	r3, [r7, #8]
  htim->Instance->SMCR = tmpsmcr;
 8003dac:	687b      	ldr	r3, [r7, #4]
 8003dae:	681b      	ldr	r3, [r3, #0]
 8003db0:	68ba      	ldr	r2, [r7, #8]
 8003db2:	609a      	str	r2, [r3, #8]

  switch (sClockSourceConfig->ClockSource)
 8003db4:	683b      	ldr	r3, [r7, #0]
 8003db6:	681b      	ldr	r3, [r3, #0]
 8003db8:	2280      	movs	r2, #128	; 0x80
 8003dba:	0192      	lsls	r2, r2, #6
 8003dbc:	4293      	cmp	r3, r2
 8003dbe:	d040      	beq.n	8003e42 <HAL_TIM_ConfigClockSource+0xde>
 8003dc0:	2280      	movs	r2, #128	; 0x80
 8003dc2:	0192      	lsls	r2, r2, #6
 8003dc4:	4293      	cmp	r3, r2
 8003dc6:	d900      	bls.n	8003dca <HAL_TIM_ConfigClockSource+0x66>
 8003dc8:	e088      	b.n	8003edc <HAL_TIM_ConfigClockSource+0x178>
 8003dca:	2280      	movs	r2, #128	; 0x80
 8003dcc:	0152      	lsls	r2, r2, #5
 8003dce:	4293      	cmp	r3, r2
 8003dd0:	d100      	bne.n	8003dd4 <HAL_TIM_ConfigClockSource+0x70>
 8003dd2:	e088      	b.n	8003ee6 <HAL_TIM_ConfigClockSource+0x182>
 8003dd4:	2280      	movs	r2, #128	; 0x80
 8003dd6:	0152      	lsls	r2, r2, #5
 8003dd8:	4293      	cmp	r3, r2
 8003dda:	d900      	bls.n	8003dde <HAL_TIM_ConfigClockSource+0x7a>
 8003ddc:	e07e      	b.n	8003edc <HAL_TIM_ConfigClockSource+0x178>
 8003dde:	2b70      	cmp	r3, #112	; 0x70
 8003de0:	d018      	beq.n	8003e14 <HAL_TIM_ConfigClockSource+0xb0>
 8003de2:	d900      	bls.n	8003de6 <HAL_TIM_ConfigClockSource+0x82>
 8003de4:	e07a      	b.n	8003edc <HAL_TIM_ConfigClockSource+0x178>
 8003de6:	2b60      	cmp	r3, #96	; 0x60
 8003de8:	d04f      	beq.n	8003e8a <HAL_TIM_ConfigClockSource+0x126>
 8003dea:	d900      	bls.n	8003dee <HAL_TIM_ConfigClockSource+0x8a>
 8003dec:	e076      	b.n	8003edc <HAL_TIM_ConfigClockSource+0x178>
 8003dee:	2b50      	cmp	r3, #80	; 0x50
 8003df0:	d03b      	beq.n	8003e6a <HAL_TIM_ConfigClockSource+0x106>
 8003df2:	d900      	bls.n	8003df6 <HAL_TIM_ConfigClockSource+0x92>
 8003df4:	e072      	b.n	8003edc <HAL_TIM_ConfigClockSource+0x178>
 8003df6:	2b40      	cmp	r3, #64	; 0x40
 8003df8:	d057      	beq.n	8003eaa <HAL_TIM_ConfigClockSource+0x146>
 8003dfa:	d900      	bls.n	8003dfe <HAL_TIM_ConfigClockSource+0x9a>
 8003dfc:	e06e      	b.n	8003edc <HAL_TIM_ConfigClockSource+0x178>
 8003dfe:	2b30      	cmp	r3, #48	; 0x30
 8003e00:	d063      	beq.n	8003eca <HAL_TIM_ConfigClockSource+0x166>
 8003e02:	d86b      	bhi.n	8003edc <HAL_TIM_ConfigClockSource+0x178>
 8003e04:	2b20      	cmp	r3, #32
 8003e06:	d060      	beq.n	8003eca <HAL_TIM_ConfigClockSource+0x166>
 8003e08:	d868      	bhi.n	8003edc <HAL_TIM_ConfigClockSource+0x178>
 8003e0a:	2b00      	cmp	r3, #0
 8003e0c:	d05d      	beq.n	8003eca <HAL_TIM_ConfigClockSource+0x166>
 8003e0e:	2b10      	cmp	r3, #16
 8003e10:	d05b      	beq.n	8003eca <HAL_TIM_ConfigClockSource+0x166>
 8003e12:	e063      	b.n	8003edc <HAL_TIM_ConfigClockSource+0x178>
      assert_param(IS_TIM_CLOCKPRESCALER(sClockSourceConfig->ClockPrescaler));
      assert_param(IS_TIM_CLOCKPOLARITY(sClockSourceConfig->ClockPolarity));
      assert_param(IS_TIM_CLOCKFILTER(sClockSourceConfig->ClockFilter));

      /* Configure the ETR Clock source */
      TIM_ETR_SetConfig(htim->Instance,
 8003e14:	687b      	ldr	r3, [r7, #4]
 8003e16:	6818      	ldr	r0, [r3, #0]
 8003e18:	683b      	ldr	r3, [r7, #0]
 8003e1a:	6899      	ldr	r1, [r3, #8]
 8003e1c:	683b      	ldr	r3, [r7, #0]
 8003e1e:	685a      	ldr	r2, [r3, #4]
 8003e20:	683b      	ldr	r3, [r7, #0]
 8003e22:	68db      	ldr	r3, [r3, #12]
 8003e24:	f000 f97a 	bl	800411c <TIM_ETR_SetConfig>
                        sClockSourceConfig->ClockPrescaler,
                        sClockSourceConfig->ClockPolarity,
                        sClockSourceConfig->ClockFilter);

      /* Select the External clock mode1 and the ETRF trigger */
      tmpsmcr = htim->Instance->SMCR;
 8003e28:	687b      	ldr	r3, [r7, #4]
 8003e2a:	681b      	ldr	r3, [r3, #0]
 8003e2c:	689b      	ldr	r3, [r3, #8]
 8003e2e:	60bb      	str	r3, [r7, #8]
      tmpsmcr |= (TIM_SLAVEMODE_EXTERNAL1 | TIM_CLOCKSOURCE_ETRMODE1);
 8003e30:	68bb      	ldr	r3, [r7, #8]
 8003e32:	2277      	movs	r2, #119	; 0x77
 8003e34:	4313      	orrs	r3, r2
 8003e36:	60bb      	str	r3, [r7, #8]
      /* Write to TIMx SMCR */
      htim->Instance->SMCR = tmpsmcr;
 8003e38:	687b      	ldr	r3, [r7, #4]
 8003e3a:	681b      	ldr	r3, [r3, #0]
 8003e3c:	68ba      	ldr	r2, [r7, #8]
 8003e3e:	609a      	str	r2, [r3, #8]
      break;
 8003e40:	e052      	b.n	8003ee8 <HAL_TIM_ConfigClockSource+0x184>
      assert_param(IS_TIM_CLOCKPRESCALER(sClockSourceConfig->ClockPrescaler));
      assert_param(IS_TIM_CLOCKPOLARITY(sClockSourceConfig->ClockPolarity));
      assert_param(IS_TIM_CLOCKFILTER(sClockSourceConfig->ClockFilter));

      /* Configure the ETR Clock source */
      TIM_ETR_SetConfig(htim->Instance,
 8003e42:	687b      	ldr	r3, [r7, #4]
 8003e44:	6818      	ldr	r0, [r3, #0]
 8003e46:	683b      	ldr	r3, [r7, #0]
 8003e48:	6899      	ldr	r1, [r3, #8]
 8003e4a:	683b      	ldr	r3, [r7, #0]
 8003e4c:	685a      	ldr	r2, [r3, #4]
 8003e4e:	683b      	ldr	r3, [r7, #0]
 8003e50:	68db      	ldr	r3, [r3, #12]
 8003e52:	f000 f963 	bl	800411c <TIM_ETR_SetConfig>
                        sClockSourceConfig->ClockPrescaler,
                        sClockSourceConfig->ClockPolarity,
                        sClockSourceConfig->ClockFilter);
      /* Enable the External clock mode2 */
      htim->Instance->SMCR |= TIM_SMCR_ECE;
 8003e56:	687b      	ldr	r3, [r7, #4]
 8003e58:	681b      	ldr	r3, [r3, #0]
 8003e5a:	689a      	ldr	r2, [r3, #8]
 8003e5c:	687b      	ldr	r3, [r7, #4]
 8003e5e:	681b      	ldr	r3, [r3, #0]
 8003e60:	2180      	movs	r1, #128	; 0x80
 8003e62:	01c9      	lsls	r1, r1, #7
 8003e64:	430a      	orrs	r2, r1
 8003e66:	609a      	str	r2, [r3, #8]
      break;
 8003e68:	e03e      	b.n	8003ee8 <HAL_TIM_ConfigClockSource+0x184>

      /* Check TI1 input conditioning related parameters */
      assert_param(IS_TIM_CLOCKPOLARITY(sClockSourceConfig->ClockPolarity));
      assert_param(IS_TIM_CLOCKFILTER(sClockSourceConfig->ClockFilter));

      TIM_TI1_ConfigInputStage(htim->Instance,
 8003e6a:	687b      	ldr	r3, [r7, #4]
 8003e6c:	6818      	ldr	r0, [r3, #0]
 8003e6e:	683b      	ldr	r3, [r7, #0]
 8003e70:	6859      	ldr	r1, [r3, #4]
 8003e72:	683b      	ldr	r3, [r7, #0]
 8003e74:	68db      	ldr	r3, [r3, #12]
 8003e76:	001a      	movs	r2, r3
 8003e78:	f000 f8d4 	bl	8004024 <TIM_TI1_ConfigInputStage>
                               sClockSourceConfig->ClockPolarity,
                               sClockSourceConfig->ClockFilter);
      TIM_ITRx_SetConfig(htim->Instance, TIM_CLOCKSOURCE_TI1);
 8003e7c:	687b      	ldr	r3, [r7, #4]
 8003e7e:	681b      	ldr	r3, [r3, #0]
 8003e80:	2150      	movs	r1, #80	; 0x50
 8003e82:	0018      	movs	r0, r3
 8003e84:	f000 f92e 	bl	80040e4 <TIM_ITRx_SetConfig>
      break;
 8003e88:	e02e      	b.n	8003ee8 <HAL_TIM_ConfigClockSource+0x184>

      /* Check TI2 input conditioning related parameters */
      assert_param(IS_TIM_CLOCKPOLARITY(sClockSourceConfig->ClockPolarity));
      assert_param(IS_TIM_CLOCKFILTER(sClockSourceConfig->ClockFilter));

      TIM_TI2_ConfigInputStage(htim->Instance,
 8003e8a:	687b      	ldr	r3, [r7, #4]
 8003e8c:	6818      	ldr	r0, [r3, #0]
 8003e8e:	683b      	ldr	r3, [r7, #0]
 8003e90:	6859      	ldr	r1, [r3, #4]
 8003e92:	683b      	ldr	r3, [r7, #0]
 8003e94:	68db      	ldr	r3, [r3, #12]
 8003e96:	001a      	movs	r2, r3
 8003e98:	f000 f8f2 	bl	8004080 <TIM_TI2_ConfigInputStage>
                               sClockSourceConfig->ClockPolarity,
                               sClockSourceConfig->ClockFilter);
      TIM_ITRx_SetConfig(htim->Instance, TIM_CLOCKSOURCE_TI2);
 8003e9c:	687b      	ldr	r3, [r7, #4]
 8003e9e:	681b      	ldr	r3, [r3, #0]
 8003ea0:	2160      	movs	r1, #96	; 0x60
 8003ea2:	0018      	movs	r0, r3
 8003ea4:	f000 f91e 	bl	80040e4 <TIM_ITRx_SetConfig>
      break;
 8003ea8:	e01e      	b.n	8003ee8 <HAL_TIM_ConfigClockSource+0x184>

      /* Check TI1 input conditioning related parameters */
      assert_param(IS_TIM_CLOCKPOLARITY(sClockSourceConfig->ClockPolarity));
      assert_param(IS_TIM_CLOCKFILTER(sClockSourceConfig->ClockFilter));

      TIM_TI1_ConfigInputStage(htim->Instance,
 8003eaa:	687b      	ldr	r3, [r7, #4]
 8003eac:	6818      	ldr	r0, [r3, #0]
 8003eae:	683b      	ldr	r3, [r7, #0]
 8003eb0:	6859      	ldr	r1, [r3, #4]
 8003eb2:	683b      	ldr	r3, [r7, #0]
 8003eb4:	68db      	ldr	r3, [r3, #12]
 8003eb6:	001a      	movs	r2, r3
 8003eb8:	f000 f8b4 	bl	8004024 <TIM_TI1_ConfigInputStage>
                               sClockSourceConfig->ClockPolarity,
                               sClockSourceConfig->ClockFilter);
      TIM_ITRx_SetConfig(htim->Instance, TIM_CLOCKSOURCE_TI1ED);
 8003ebc:	687b      	ldr	r3, [r7, #4]
 8003ebe:	681b      	ldr	r3, [r3, #0]
 8003ec0:	2140      	movs	r1, #64	; 0x40
 8003ec2:	0018      	movs	r0, r3
 8003ec4:	f000 f90e 	bl	80040e4 <TIM_ITRx_SetConfig>
      break;
 8003ec8:	e00e      	b.n	8003ee8 <HAL_TIM_ConfigClockSource+0x184>
    case TIM_CLOCKSOURCE_ITR3:
    {
      /* Check whether or not the timer instance supports internal trigger input */
      assert_param(IS_TIM_CLOCKSOURCE_ITRX_INSTANCE(htim->Instance));

      TIM_ITRx_SetConfig(htim->Instance, sClockSourceConfig->ClockSource);
 8003eca:	687b      	ldr	r3, [r7, #4]
 8003ecc:	681a      	ldr	r2, [r3, #0]
 8003ece:	683b      	ldr	r3, [r7, #0]
 8003ed0:	681b      	ldr	r3, [r3, #0]
 8003ed2:	0019      	movs	r1, r3
 8003ed4:	0010      	movs	r0, r2
 8003ed6:	f000 f905 	bl	80040e4 <TIM_ITRx_SetConfig>
      break;
 8003eda:	e005      	b.n	8003ee8 <HAL_TIM_ConfigClockSource+0x184>
    }

    default:
      status = HAL_ERROR;
 8003edc:	230f      	movs	r3, #15
 8003ede:	18fb      	adds	r3, r7, r3
 8003ee0:	2201      	movs	r2, #1
 8003ee2:	701a      	strb	r2, [r3, #0]
      break;
 8003ee4:	e000      	b.n	8003ee8 <HAL_TIM_ConfigClockSource+0x184>
      break;
 8003ee6:	46c0      	nop			; (mov r8, r8)
  }
  htim->State = HAL_TIM_STATE_READY;
 8003ee8:	687b      	ldr	r3, [r7, #4]
 8003eea:	223d      	movs	r2, #61	; 0x3d
 8003eec:	2101      	movs	r1, #1
 8003eee:	5499      	strb	r1, [r3, r2]

  __HAL_UNLOCK(htim);
 8003ef0:	687b      	ldr	r3, [r7, #4]
 8003ef2:	223c      	movs	r2, #60	; 0x3c
 8003ef4:	2100      	movs	r1, #0
 8003ef6:	5499      	strb	r1, [r3, r2]

  return status;
 8003ef8:	230f      	movs	r3, #15
 8003efa:	18fb      	adds	r3, r7, r3
 8003efc:	781b      	ldrb	r3, [r3, #0]
}
 8003efe:	0018      	movs	r0, r3
 8003f00:	46bd      	mov	sp, r7
 8003f02:	b004      	add	sp, #16
 8003f04:	bd80      	pop	{r7, pc}
 8003f06:	46c0      	nop			; (mov r8, r8)
 8003f08:	ffceff88 	.word	0xffceff88
 8003f0c:	ffff00ff 	.word	0xffff00ff

08003f10 <TIM_Base_SetConfig>:
  * @param  TIMx TIM peripheral
  * @param  Structure TIM Base configuration structure
  * @retval None
  */
void TIM_Base_SetConfig(TIM_TypeDef *TIMx, const TIM_Base_InitTypeDef *Structure)
{
 8003f10:	b580      	push	{r7, lr}
 8003f12:	b084      	sub	sp, #16
 8003f14:	af00      	add	r7, sp, #0
 8003f16:	6078      	str	r0, [r7, #4]
 8003f18:	6039      	str	r1, [r7, #0]
  uint32_t tmpcr1;
  tmpcr1 = TIMx->CR1;
 8003f1a:	687b      	ldr	r3, [r7, #4]
 8003f1c:	681b      	ldr	r3, [r3, #0]
 8003f1e:	60fb      	str	r3, [r7, #12]

  /* Set TIM Time Base Unit parameters ---------------------------------------*/
  if (IS_TIM_COUNTER_MODE_SELECT_INSTANCE(TIMx))
 8003f20:	687b      	ldr	r3, [r7, #4]
 8003f22:	4a38      	ldr	r2, [pc, #224]	; (8004004 <TIM_Base_SetConfig+0xf4>)
 8003f24:	4293      	cmp	r3, r2
 8003f26:	d00c      	beq.n	8003f42 <TIM_Base_SetConfig+0x32>
 8003f28:	687a      	ldr	r2, [r7, #4]
 8003f2a:	2380      	movs	r3, #128	; 0x80
 8003f2c:	05db      	lsls	r3, r3, #23
 8003f2e:	429a      	cmp	r2, r3
 8003f30:	d007      	beq.n	8003f42 <TIM_Base_SetConfig+0x32>
 8003f32:	687b      	ldr	r3, [r7, #4]
 8003f34:	4a34      	ldr	r2, [pc, #208]	; (8004008 <TIM_Base_SetConfig+0xf8>)
 8003f36:	4293      	cmp	r3, r2
 8003f38:	d003      	beq.n	8003f42 <TIM_Base_SetConfig+0x32>
 8003f3a:	687b      	ldr	r3, [r7, #4]
 8003f3c:	4a33      	ldr	r2, [pc, #204]	; (800400c <TIM_Base_SetConfig+0xfc>)
 8003f3e:	4293      	cmp	r3, r2
 8003f40:	d108      	bne.n	8003f54 <TIM_Base_SetConfig+0x44>
  {
    /* Select the Counter Mode */
    tmpcr1 &= ~(TIM_CR1_DIR | TIM_CR1_CMS);
 8003f42:	68fb      	ldr	r3, [r7, #12]
 8003f44:	2270      	movs	r2, #112	; 0x70
 8003f46:	4393      	bics	r3, r2
 8003f48:	60fb      	str	r3, [r7, #12]
    tmpcr1 |= Structure->CounterMode;
 8003f4a:	683b      	ldr	r3, [r7, #0]
 8003f4c:	685b      	ldr	r3, [r3, #4]
 8003f4e:	68fa      	ldr	r2, [r7, #12]
 8003f50:	4313      	orrs	r3, r2
 8003f52:	60fb      	str	r3, [r7, #12]
  }

  if (IS_TIM_CLOCK_DIVISION_INSTANCE(TIMx))
 8003f54:	687b      	ldr	r3, [r7, #4]
 8003f56:	4a2b      	ldr	r2, [pc, #172]	; (8004004 <TIM_Base_SetConfig+0xf4>)
 8003f58:	4293      	cmp	r3, r2
 8003f5a:	d01c      	beq.n	8003f96 <TIM_Base_SetConfig+0x86>
 8003f5c:	687a      	ldr	r2, [r7, #4]
 8003f5e:	2380      	movs	r3, #128	; 0x80
 8003f60:	05db      	lsls	r3, r3, #23
 8003f62:	429a      	cmp	r2, r3
 8003f64:	d017      	beq.n	8003f96 <TIM_Base_SetConfig+0x86>
 8003f66:	687b      	ldr	r3, [r7, #4]
 8003f68:	4a27      	ldr	r2, [pc, #156]	; (8004008 <TIM_Base_SetConfig+0xf8>)
 8003f6a:	4293      	cmp	r3, r2
 8003f6c:	d013      	beq.n	8003f96 <TIM_Base_SetConfig+0x86>
 8003f6e:	687b      	ldr	r3, [r7, #4]
 8003f70:	4a26      	ldr	r2, [pc, #152]	; (800400c <TIM_Base_SetConfig+0xfc>)
 8003f72:	4293      	cmp	r3, r2
 8003f74:	d00f      	beq.n	8003f96 <TIM_Base_SetConfig+0x86>
 8003f76:	687b      	ldr	r3, [r7, #4]
 8003f78:	4a25      	ldr	r2, [pc, #148]	; (8004010 <TIM_Base_SetConfig+0x100>)
 8003f7a:	4293      	cmp	r3, r2
 8003f7c:	d00b      	beq.n	8003f96 <TIM_Base_SetConfig+0x86>
 8003f7e:	687b      	ldr	r3, [r7, #4]
 8003f80:	4a24      	ldr	r2, [pc, #144]	; (8004014 <TIM_Base_SetConfig+0x104>)
 8003f82:	4293      	cmp	r3, r2
 8003f84:	d007      	beq.n	8003f96 <TIM_Base_SetConfig+0x86>
 8003f86:	687b      	ldr	r3, [r7, #4]
 8003f88:	4a23      	ldr	r2, [pc, #140]	; (8004018 <TIM_Base_SetConfig+0x108>)
 8003f8a:	4293      	cmp	r3, r2
 8003f8c:	d003      	beq.n	8003f96 <TIM_Base_SetConfig+0x86>
 8003f8e:	687b      	ldr	r3, [r7, #4]
 8003f90:	4a22      	ldr	r2, [pc, #136]	; (800401c <TIM_Base_SetConfig+0x10c>)
 8003f92:	4293      	cmp	r3, r2
 8003f94:	d108      	bne.n	8003fa8 <TIM_Base_SetConfig+0x98>
  {
    /* Set the clock division */
    tmpcr1 &= ~TIM_CR1_CKD;
 8003f96:	68fb      	ldr	r3, [r7, #12]
 8003f98:	4a21      	ldr	r2, [pc, #132]	; (8004020 <TIM_Base_SetConfig+0x110>)
 8003f9a:	4013      	ands	r3, r2
 8003f9c:	60fb      	str	r3, [r7, #12]
    tmpcr1 |= (uint32_t)Structure->ClockDivision;
 8003f9e:	683b      	ldr	r3, [r7, #0]
 8003fa0:	68db      	ldr	r3, [r3, #12]
 8003fa2:	68fa      	ldr	r2, [r7, #12]
 8003fa4:	4313      	orrs	r3, r2
 8003fa6:	60fb      	str	r3, [r7, #12]
  }

  /* Set the auto-reload preload */
  MODIFY_REG(tmpcr1, TIM_CR1_ARPE, Structure->AutoReloadPreload);
 8003fa8:	68fb      	ldr	r3, [r7, #12]
 8003faa:	2280      	movs	r2, #128	; 0x80
 8003fac:	4393      	bics	r3, r2
 8003fae:	001a      	movs	r2, r3
 8003fb0:	683b      	ldr	r3, [r7, #0]
 8003fb2:	695b      	ldr	r3, [r3, #20]
 8003fb4:	4313      	orrs	r3, r2
 8003fb6:	60fb      	str	r3, [r7, #12]

  TIMx->CR1 = tmpcr1;
 8003fb8:	687b      	ldr	r3, [r7, #4]
 8003fba:	68fa      	ldr	r2, [r7, #12]
 8003fbc:	601a      	str	r2, [r3, #0]

  /* Set the Autoreload value */
  TIMx->ARR = (uint32_t)Structure->Period ;
 8003fbe:	683b      	ldr	r3, [r7, #0]
 8003fc0:	689a      	ldr	r2, [r3, #8]
 8003fc2:	687b      	ldr	r3, [r7, #4]
 8003fc4:	62da      	str	r2, [r3, #44]	; 0x2c

  /* Set the Prescaler value */
  TIMx->PSC = Structure->Prescaler;
 8003fc6:	683b      	ldr	r3, [r7, #0]
 8003fc8:	681a      	ldr	r2, [r3, #0]
 8003fca:	687b      	ldr	r3, [r7, #4]
 8003fcc:	629a      	str	r2, [r3, #40]	; 0x28

  if (IS_TIM_REPETITION_COUNTER_INSTANCE(TIMx))
 8003fce:	687b      	ldr	r3, [r7, #4]
 8003fd0:	4a0c      	ldr	r2, [pc, #48]	; (8004004 <TIM_Base_SetConfig+0xf4>)
 8003fd2:	4293      	cmp	r3, r2
 8003fd4:	d00b      	beq.n	8003fee <TIM_Base_SetConfig+0xde>
 8003fd6:	687b      	ldr	r3, [r7, #4]
 8003fd8:	4a0e      	ldr	r2, [pc, #56]	; (8004014 <TIM_Base_SetConfig+0x104>)
 8003fda:	4293      	cmp	r3, r2
 8003fdc:	d007      	beq.n	8003fee <TIM_Base_SetConfig+0xde>
 8003fde:	687b      	ldr	r3, [r7, #4]
 8003fe0:	4a0d      	ldr	r2, [pc, #52]	; (8004018 <TIM_Base_SetConfig+0x108>)
 8003fe2:	4293      	cmp	r3, r2
 8003fe4:	d003      	beq.n	8003fee <TIM_Base_SetConfig+0xde>
 8003fe6:	687b      	ldr	r3, [r7, #4]
 8003fe8:	4a0c      	ldr	r2, [pc, #48]	; (800401c <TIM_Base_SetConfig+0x10c>)
 8003fea:	4293      	cmp	r3, r2
 8003fec:	d103      	bne.n	8003ff6 <TIM_Base_SetConfig+0xe6>
  {
    /* Set the Repetition Counter value */
    TIMx->RCR = Structure->RepetitionCounter;
 8003fee:	683b      	ldr	r3, [r7, #0]
 8003ff0:	691a      	ldr	r2, [r3, #16]
 8003ff2:	687b      	ldr	r3, [r7, #4]
 8003ff4:	631a      	str	r2, [r3, #48]	; 0x30
  }

  /* Generate an update event to reload the Prescaler
     and the repetition counter (only for advanced timer) value immediately */
  TIMx->EGR = TIM_EGR_UG;
 8003ff6:	687b      	ldr	r3, [r7, #4]
 8003ff8:	2201      	movs	r2, #1
 8003ffa:	615a      	str	r2, [r3, #20]
}
 8003ffc:	46c0      	nop			; (mov r8, r8)
 8003ffe:	46bd      	mov	sp, r7
 8004000:	b004      	add	sp, #16
 8004002:	bd80      	pop	{r7, pc}
 8004004:	40012c00 	.word	0x40012c00
 8004008:	40000400 	.word	0x40000400
 800400c:	40000800 	.word	0x40000800
 8004010:	40002000 	.word	0x40002000
 8004014:	40014000 	.word	0x40014000
 8004018:	40014400 	.word	0x40014400
 800401c:	40014800 	.word	0x40014800
 8004020:	fffffcff 	.word	0xfffffcff

08004024 <TIM_TI1_ConfigInputStage>:
  * @param  TIM_ICFilter Specifies the Input Capture Filter.
  *          This parameter must be a value between 0x00 and 0x0F.
  * @retval None
  */
static void TIM_TI1_ConfigInputStage(TIM_TypeDef *TIMx, uint32_t TIM_ICPolarity, uint32_t TIM_ICFilter)
{
 8004024:	b580      	push	{r7, lr}
 8004026:	b086      	sub	sp, #24
 8004028:	af00      	add	r7, sp, #0
 800402a:	60f8      	str	r0, [r7, #12]
 800402c:	60b9      	str	r1, [r7, #8]
 800402e:	607a      	str	r2, [r7, #4]
  uint32_t tmpccmr1;
  uint32_t tmpccer;

  /* Disable the Channel 1: Reset the CC1E Bit */
  tmpccer = TIMx->CCER;
 8004030:	68fb      	ldr	r3, [r7, #12]
 8004032:	6a1b      	ldr	r3, [r3, #32]
 8004034:	617b      	str	r3, [r7, #20]
  TIMx->CCER &= ~TIM_CCER_CC1E;
 8004036:	68fb      	ldr	r3, [r7, #12]
 8004038:	6a1b      	ldr	r3, [r3, #32]
 800403a:	2201      	movs	r2, #1
 800403c:	4393      	bics	r3, r2
 800403e:	001a      	movs	r2, r3
 8004040:	68fb      	ldr	r3, [r7, #12]
 8004042:	621a      	str	r2, [r3, #32]
  tmpccmr1 = TIMx->CCMR1;
 8004044:	68fb      	ldr	r3, [r7, #12]
 8004046:	699b      	ldr	r3, [r3, #24]
 8004048:	613b      	str	r3, [r7, #16]

  /* Set the filter */
  tmpccmr1 &= ~TIM_CCMR1_IC1F;
 800404a:	693b      	ldr	r3, [r7, #16]
 800404c:	22f0      	movs	r2, #240	; 0xf0
 800404e:	4393      	bics	r3, r2
 8004050:	613b      	str	r3, [r7, #16]
  tmpccmr1 |= (TIM_ICFilter << 4U);
 8004052:	687b      	ldr	r3, [r7, #4]
 8004054:	011b      	lsls	r3, r3, #4
 8004056:	693a      	ldr	r2, [r7, #16]
 8004058:	4313      	orrs	r3, r2
 800405a:	613b      	str	r3, [r7, #16]

  /* Select the Polarity and set the CC1E Bit */
  tmpccer &= ~(TIM_CCER_CC1P | TIM_CCER_CC1NP);
 800405c:	697b      	ldr	r3, [r7, #20]
 800405e:	220a      	movs	r2, #10
 8004060:	4393      	bics	r3, r2
 8004062:	617b      	str	r3, [r7, #20]
  tmpccer |= TIM_ICPolarity;
 8004064:	697a      	ldr	r2, [r7, #20]
 8004066:	68bb      	ldr	r3, [r7, #8]
 8004068:	4313      	orrs	r3, r2
 800406a:	617b      	str	r3, [r7, #20]

  /* Write to TIMx CCMR1 and CCER registers */
  TIMx->CCMR1 = tmpccmr1;
 800406c:	68fb      	ldr	r3, [r7, #12]
 800406e:	693a      	ldr	r2, [r7, #16]
 8004070:	619a      	str	r2, [r3, #24]
  TIMx->CCER = tmpccer;
 8004072:	68fb      	ldr	r3, [r7, #12]
 8004074:	697a      	ldr	r2, [r7, #20]
 8004076:	621a      	str	r2, [r3, #32]
}
 8004078:	46c0      	nop			; (mov r8, r8)
 800407a:	46bd      	mov	sp, r7
 800407c:	b006      	add	sp, #24
 800407e:	bd80      	pop	{r7, pc}

08004080 <TIM_TI2_ConfigInputStage>:
  * @param  TIM_ICFilter Specifies the Input Capture Filter.
  *          This parameter must be a value between 0x00 and 0x0F.
  * @retval None
  */
static void TIM_TI2_ConfigInputStage(TIM_TypeDef *TIMx, uint32_t TIM_ICPolarity, uint32_t TIM_ICFilter)
{
 8004080:	b580      	push	{r7, lr}
 8004082:	b086      	sub	sp, #24
 8004084:	af00      	add	r7, sp, #0
 8004086:	60f8      	str	r0, [r7, #12]
 8004088:	60b9      	str	r1, [r7, #8]
 800408a:	607a      	str	r2, [r7, #4]
  uint32_t tmpccmr1;
  uint32_t tmpccer;

  /* Disable the Channel 2: Reset the CC2E Bit */
  TIMx->CCER &= ~TIM_CCER_CC2E;
 800408c:	68fb      	ldr	r3, [r7, #12]
 800408e:	6a1b      	ldr	r3, [r3, #32]
 8004090:	2210      	movs	r2, #16
 8004092:	4393      	bics	r3, r2
 8004094:	001a      	movs	r2, r3
 8004096:	68fb      	ldr	r3, [r7, #12]
 8004098:	621a      	str	r2, [r3, #32]
  tmpccmr1 = TIMx->CCMR1;
 800409a:	68fb      	ldr	r3, [r7, #12]
 800409c:	699b      	ldr	r3, [r3, #24]
 800409e:	617b      	str	r3, [r7, #20]
  tmpccer = TIMx->CCER;
 80040a0:	68fb      	ldr	r3, [r7, #12]
 80040a2:	6a1b      	ldr	r3, [r3, #32]
 80040a4:	613b      	str	r3, [r7, #16]

  /* Set the filter */
  tmpccmr1 &= ~TIM_CCMR1_IC2F;
 80040a6:	697b      	ldr	r3, [r7, #20]
 80040a8:	4a0d      	ldr	r2, [pc, #52]	; (80040e0 <TIM_TI2_ConfigInputStage+0x60>)
 80040aa:	4013      	ands	r3, r2
 80040ac:	617b      	str	r3, [r7, #20]
  tmpccmr1 |= (TIM_ICFilter << 12U);
 80040ae:	687b      	ldr	r3, [r7, #4]
 80040b0:	031b      	lsls	r3, r3, #12
 80040b2:	697a      	ldr	r2, [r7, #20]
 80040b4:	4313      	orrs	r3, r2
 80040b6:	617b      	str	r3, [r7, #20]

  /* Select the Polarity and set the CC2E Bit */
  tmpccer &= ~(TIM_CCER_CC2P | TIM_CCER_CC2NP);
 80040b8:	693b      	ldr	r3, [r7, #16]
 80040ba:	22a0      	movs	r2, #160	; 0xa0
 80040bc:	4393      	bics	r3, r2
 80040be:	613b      	str	r3, [r7, #16]
  tmpccer |= (TIM_ICPolarity << 4U);
 80040c0:	68bb      	ldr	r3, [r7, #8]
 80040c2:	011b      	lsls	r3, r3, #4
 80040c4:	693a      	ldr	r2, [r7, #16]
 80040c6:	4313      	orrs	r3, r2
 80040c8:	613b      	str	r3, [r7, #16]

  /* Write to TIMx CCMR1 and CCER registers */
  TIMx->CCMR1 = tmpccmr1 ;
 80040ca:	68fb      	ldr	r3, [r7, #12]
 80040cc:	697a      	ldr	r2, [r7, #20]
 80040ce:	619a      	str	r2, [r3, #24]
  TIMx->CCER = tmpccer;
 80040d0:	68fb      	ldr	r3, [r7, #12]
 80040d2:	693a      	ldr	r2, [r7, #16]
 80040d4:	621a      	str	r2, [r3, #32]
}
 80040d6:	46c0      	nop			; (mov r8, r8)
 80040d8:	46bd      	mov	sp, r7
 80040da:	b006      	add	sp, #24
 80040dc:	bd80      	pop	{r7, pc}
 80040de:	46c0      	nop			; (mov r8, r8)
 80040e0:	ffff0fff 	.word	0xffff0fff

080040e4 <TIM_ITRx_SetConfig>:
  *            @arg TIM_TS_TI2FP2: Filtered Timer Input 2
  *            @arg TIM_TS_ETRF: External Trigger input
  * @retval None
  */
static void TIM_ITRx_SetConfig(TIM_TypeDef *TIMx, uint32_t InputTriggerSource)
{
 80040e4:	b580      	push	{r7, lr}
 80040e6:	b084      	sub	sp, #16
 80040e8:	af00      	add	r7, sp, #0
 80040ea:	6078      	str	r0, [r7, #4]
 80040ec:	6039      	str	r1, [r7, #0]
  uint32_t tmpsmcr;

  /* Get the TIMx SMCR register value */
  tmpsmcr = TIMx->SMCR;
 80040ee:	687b      	ldr	r3, [r7, #4]
 80040f0:	689b      	ldr	r3, [r3, #8]
 80040f2:	60fb      	str	r3, [r7, #12]
  /* Reset the TS Bits */
  tmpsmcr &= ~TIM_SMCR_TS;
 80040f4:	68fb      	ldr	r3, [r7, #12]
 80040f6:	4a08      	ldr	r2, [pc, #32]	; (8004118 <TIM_ITRx_SetConfig+0x34>)
 80040f8:	4013      	ands	r3, r2
 80040fa:	60fb      	str	r3, [r7, #12]
  /* Set the Input Trigger source and the slave mode*/
  tmpsmcr |= (InputTriggerSource | TIM_SLAVEMODE_EXTERNAL1);
 80040fc:	683a      	ldr	r2, [r7, #0]
 80040fe:	68fb      	ldr	r3, [r7, #12]
 8004100:	4313      	orrs	r3, r2
 8004102:	2207      	movs	r2, #7
 8004104:	4313      	orrs	r3, r2
 8004106:	60fb      	str	r3, [r7, #12]
  /* Write to TIMx SMCR */
  TIMx->SMCR = tmpsmcr;
 8004108:	687b      	ldr	r3, [r7, #4]
 800410a:	68fa      	ldr	r2, [r7, #12]
 800410c:	609a      	str	r2, [r3, #8]
}
 800410e:	46c0      	nop			; (mov r8, r8)
 8004110:	46bd      	mov	sp, r7
 8004112:	b004      	add	sp, #16
 8004114:	bd80      	pop	{r7, pc}
 8004116:	46c0      	nop			; (mov r8, r8)
 8004118:	ffcfff8f 	.word	0xffcfff8f

0800411c <TIM_ETR_SetConfig>:
  *          This parameter must be a value between 0x00 and 0x0F
  * @retval None
  */
void TIM_ETR_SetConfig(TIM_TypeDef *TIMx, uint32_t TIM_ExtTRGPrescaler,
                       uint32_t TIM_ExtTRGPolarity, uint32_t ExtTRGFilter)
{
 800411c:	b580      	push	{r7, lr}
 800411e:	b086      	sub	sp, #24
 8004120:	af00      	add	r7, sp, #0
 8004122:	60f8      	str	r0, [r7, #12]
 8004124:	60b9      	str	r1, [r7, #8]
 8004126:	607a      	str	r2, [r7, #4]
 8004128:	603b      	str	r3, [r7, #0]
  uint32_t tmpsmcr;

  tmpsmcr = TIMx->SMCR;
 800412a:	68fb      	ldr	r3, [r7, #12]
 800412c:	689b      	ldr	r3, [r3, #8]
 800412e:	617b      	str	r3, [r7, #20]

  /* Reset the ETR Bits */
  tmpsmcr &= ~(TIM_SMCR_ETF | TIM_SMCR_ETPS | TIM_SMCR_ECE | TIM_SMCR_ETP);
 8004130:	697b      	ldr	r3, [r7, #20]
 8004132:	4a09      	ldr	r2, [pc, #36]	; (8004158 <TIM_ETR_SetConfig+0x3c>)
 8004134:	4013      	ands	r3, r2
 8004136:	617b      	str	r3, [r7, #20]

  /* Set the Prescaler, the Filter value and the Polarity */
  tmpsmcr |= (uint32_t)(TIM_ExtTRGPrescaler | (TIM_ExtTRGPolarity | (ExtTRGFilter << 8U)));
 8004138:	683b      	ldr	r3, [r7, #0]
 800413a:	021a      	lsls	r2, r3, #8
 800413c:	687b      	ldr	r3, [r7, #4]
 800413e:	431a      	orrs	r2, r3
 8004140:	68bb      	ldr	r3, [r7, #8]
 8004142:	4313      	orrs	r3, r2
 8004144:	697a      	ldr	r2, [r7, #20]
 8004146:	4313      	orrs	r3, r2
 8004148:	617b      	str	r3, [r7, #20]

  /* Write to TIMx SMCR */
  TIMx->SMCR = tmpsmcr;
 800414a:	68fb      	ldr	r3, [r7, #12]
 800414c:	697a      	ldr	r2, [r7, #20]
 800414e:	609a      	str	r2, [r3, #8]
}
 8004150:	46c0      	nop			; (mov r8, r8)
 8004152:	46bd      	mov	sp, r7
 8004154:	b006      	add	sp, #24
 8004156:	bd80      	pop	{r7, pc}
 8004158:	ffff00ff 	.word	0xffff00ff

0800415c <HAL_TIMEx_MasterConfigSynchronization>:
  *         mode.
  * @retval HAL status
  */
HAL_StatusTypeDef HAL_TIMEx_MasterConfigSynchronization(TIM_HandleTypeDef *htim,
                                                        const TIM_MasterConfigTypeDef *sMasterConfig)
{
 800415c:	b580      	push	{r7, lr}
 800415e:	b084      	sub	sp, #16
 8004160:	af00      	add	r7, sp, #0
 8004162:	6078      	str	r0, [r7, #4]
 8004164:	6039      	str	r1, [r7, #0]
  assert_param(IS_TIM_MASTER_INSTANCE(htim->Instance));
  assert_param(IS_TIM_TRGO_SOURCE(sMasterConfig->MasterOutputTrigger));
  assert_param(IS_TIM_MSM_STATE(sMasterConfig->MasterSlaveMode));

  /* Check input state */
  __HAL_LOCK(htim);
 8004166:	687b      	ldr	r3, [r7, #4]
 8004168:	223c      	movs	r2, #60	; 0x3c
 800416a:	5c9b      	ldrb	r3, [r3, r2]
 800416c:	2b01      	cmp	r3, #1
 800416e:	d101      	bne.n	8004174 <HAL_TIMEx_MasterConfigSynchronization+0x18>
 8004170:	2302      	movs	r3, #2
 8004172:	e05a      	b.n	800422a <HAL_TIMEx_MasterConfigSynchronization+0xce>
 8004174:	687b      	ldr	r3, [r7, #4]
 8004176:	223c      	movs	r2, #60	; 0x3c
 8004178:	2101      	movs	r1, #1
 800417a:	5499      	strb	r1, [r3, r2]

  /* Change the handler state */
  htim->State = HAL_TIM_STATE_BUSY;
 800417c:	687b      	ldr	r3, [r7, #4]
 800417e:	223d      	movs	r2, #61	; 0x3d
 8004180:	2102      	movs	r1, #2
 8004182:	5499      	strb	r1, [r3, r2]

  /* Get the TIMx CR2 register value */
  tmpcr2 = htim->Instance->CR2;
 8004184:	687b      	ldr	r3, [r7, #4]
 8004186:	681b      	ldr	r3, [r3, #0]
 8004188:	685b      	ldr	r3, [r3, #4]
 800418a:	60fb      	str	r3, [r7, #12]

  /* Get the TIMx SMCR register value */
  tmpsmcr = htim->Instance->SMCR;
 800418c:	687b      	ldr	r3, [r7, #4]
 800418e:	681b      	ldr	r3, [r3, #0]
 8004190:	689b      	ldr	r3, [r3, #8]
 8004192:	60bb      	str	r3, [r7, #8]

  /* If the timer supports ADC synchronization through TRGO2, set the master mode selection 2 */
  if (IS_TIM_TRGO2_INSTANCE(htim->Instance))
 8004194:	687b      	ldr	r3, [r7, #4]
 8004196:	681b      	ldr	r3, [r3, #0]
 8004198:	4a26      	ldr	r2, [pc, #152]	; (8004234 <HAL_TIMEx_MasterConfigSynchronization+0xd8>)
 800419a:	4293      	cmp	r3, r2
 800419c:	d108      	bne.n	80041b0 <HAL_TIMEx_MasterConfigSynchronization+0x54>
  {
    /* Check the parameters */
    assert_param(IS_TIM_TRGO2_SOURCE(sMasterConfig->MasterOutputTrigger2));

    /* Clear the MMS2 bits */
    tmpcr2 &= ~TIM_CR2_MMS2;
 800419e:	68fb      	ldr	r3, [r7, #12]
 80041a0:	4a25      	ldr	r2, [pc, #148]	; (8004238 <HAL_TIMEx_MasterConfigSynchronization+0xdc>)
 80041a2:	4013      	ands	r3, r2
 80041a4:	60fb      	str	r3, [r7, #12]
    /* Select the TRGO2 source*/
    tmpcr2 |= sMasterConfig->MasterOutputTrigger2;
 80041a6:	683b      	ldr	r3, [r7, #0]
 80041a8:	685b      	ldr	r3, [r3, #4]
 80041aa:	68fa      	ldr	r2, [r7, #12]
 80041ac:	4313      	orrs	r3, r2
 80041ae:	60fb      	str	r3, [r7, #12]
  }

  /* Reset the MMS Bits */
  tmpcr2 &= ~TIM_CR2_MMS;
 80041b0:	68fb      	ldr	r3, [r7, #12]
 80041b2:	2270      	movs	r2, #112	; 0x70
 80041b4:	4393      	bics	r3, r2
 80041b6:	60fb      	str	r3, [r7, #12]
  /* Select the TRGO source */
  tmpcr2 |=  sMasterConfig->MasterOutputTrigger;
 80041b8:	683b      	ldr	r3, [r7, #0]
 80041ba:	681b      	ldr	r3, [r3, #0]
 80041bc:	68fa      	ldr	r2, [r7, #12]
 80041be:	4313      	orrs	r3, r2
 80041c0:	60fb      	str	r3, [r7, #12]

  /* Update TIMx CR2 */
  htim->Instance->CR2 = tmpcr2;
 80041c2:	687b      	ldr	r3, [r7, #4]
 80041c4:	681b      	ldr	r3, [r3, #0]
 80041c6:	68fa      	ldr	r2, [r7, #12]
 80041c8:	605a      	str	r2, [r3, #4]

  if (IS_TIM_SLAVE_INSTANCE(htim->Instance))
 80041ca:	687b      	ldr	r3, [r7, #4]
 80041cc:	681b      	ldr	r3, [r3, #0]
 80041ce:	4a19      	ldr	r2, [pc, #100]	; (8004234 <HAL_TIMEx_MasterConfigSynchronization+0xd8>)
 80041d0:	4293      	cmp	r3, r2
 80041d2:	d014      	beq.n	80041fe <HAL_TIMEx_MasterConfigSynchronization+0xa2>
 80041d4:	687b      	ldr	r3, [r7, #4]
 80041d6:	681a      	ldr	r2, [r3, #0]
 80041d8:	2380      	movs	r3, #128	; 0x80
 80041da:	05db      	lsls	r3, r3, #23
 80041dc:	429a      	cmp	r2, r3
 80041de:	d00e      	beq.n	80041fe <HAL_TIMEx_MasterConfigSynchronization+0xa2>
 80041e0:	687b      	ldr	r3, [r7, #4]
 80041e2:	681b      	ldr	r3, [r3, #0]
 80041e4:	4a15      	ldr	r2, [pc, #84]	; (800423c <HAL_TIMEx_MasterConfigSynchronization+0xe0>)
 80041e6:	4293      	cmp	r3, r2
 80041e8:	d009      	beq.n	80041fe <HAL_TIMEx_MasterConfigSynchronization+0xa2>
 80041ea:	687b      	ldr	r3, [r7, #4]
 80041ec:	681b      	ldr	r3, [r3, #0]
 80041ee:	4a14      	ldr	r2, [pc, #80]	; (8004240 <HAL_TIMEx_MasterConfigSynchronization+0xe4>)
 80041f0:	4293      	cmp	r3, r2
 80041f2:	d004      	beq.n	80041fe <HAL_TIMEx_MasterConfigSynchronization+0xa2>
 80041f4:	687b      	ldr	r3, [r7, #4]
 80041f6:	681b      	ldr	r3, [r3, #0]
 80041f8:	4a12      	ldr	r2, [pc, #72]	; (8004244 <HAL_TIMEx_MasterConfigSynchronization+0xe8>)
 80041fa:	4293      	cmp	r3, r2
 80041fc:	d10c      	bne.n	8004218 <HAL_TIMEx_MasterConfigSynchronization+0xbc>
  {
    /* Reset the MSM Bit */
    tmpsmcr &= ~TIM_SMCR_MSM;
 80041fe:	68bb      	ldr	r3, [r7, #8]
 8004200:	2280      	movs	r2, #128	; 0x80
 8004202:	4393      	bics	r3, r2
 8004204:	60bb      	str	r3, [r7, #8]
    /* Set master mode */
    tmpsmcr |= sMasterConfig->MasterSlaveMode;
 8004206:	683b      	ldr	r3, [r7, #0]
 8004208:	689b      	ldr	r3, [r3, #8]
 800420a:	68ba      	ldr	r2, [r7, #8]
 800420c:	4313      	orrs	r3, r2
 800420e:	60bb      	str	r3, [r7, #8]

    /* Update TIMx SMCR */
    htim->Instance->SMCR = tmpsmcr;
 8004210:	687b      	ldr	r3, [r7, #4]
 8004212:	681b      	ldr	r3, [r3, #0]
 8004214:	68ba      	ldr	r2, [r7, #8]
 8004216:	609a      	str	r2, [r3, #8]
  }

  /* Change the htim state */
  htim->State = HAL_TIM_STATE_READY;
 8004218:	687b      	ldr	r3, [r7, #4]
 800421a:	223d      	movs	r2, #61	; 0x3d
 800421c:	2101      	movs	r1, #1
 800421e:	5499      	strb	r1, [r3, r2]

  __HAL_UNLOCK(htim);
 8004220:	687b      	ldr	r3, [r7, #4]
 8004222:	223c      	movs	r2, #60	; 0x3c
 8004224:	2100      	movs	r1, #0
 8004226:	5499      	strb	r1, [r3, r2]

  return HAL_OK;
 8004228:	2300      	movs	r3, #0
}
 800422a:	0018      	movs	r0, r3
 800422c:	46bd      	mov	sp, r7
 800422e:	b004      	add	sp, #16
 8004230:	bd80      	pop	{r7, pc}
 8004232:	46c0      	nop			; (mov r8, r8)
 8004234:	40012c00 	.word	0x40012c00
 8004238:	ff0fffff 	.word	0xff0fffff
 800423c:	40000400 	.word	0x40000400
 8004240:	40000800 	.word	0x40000800
 8004244:	40014000 	.word	0x40014000

08004248 <HAL_UART_Init>:
  *        parameters in the UART_InitTypeDef and initialize the associated handle.
  * @param huart UART handle.
  * @retval HAL status
  */
HAL_StatusTypeDef HAL_UART_Init(UART_HandleTypeDef *huart)
{
 8004248:	b580      	push	{r7, lr}
 800424a:	b082      	sub	sp, #8
 800424c:	af00      	add	r7, sp, #0
 800424e:	6078      	str	r0, [r7, #4]
  /* Check the UART handle allocation */
  if (huart == NULL)
 8004250:	687b      	ldr	r3, [r7, #4]
 8004252:	2b00      	cmp	r3, #0
 8004254:	d101      	bne.n	800425a <HAL_UART_Init+0x12>
  {
    return HAL_ERROR;
 8004256:	2301      	movs	r3, #1
 8004258:	e046      	b.n	80042e8 <HAL_UART_Init+0xa0>
  {
    /* Check the parameters */
    assert_param((IS_UART_INSTANCE(huart->Instance)) || (IS_LPUART_INSTANCE(huart->Instance)));
  }

  if (huart->gState == HAL_UART_STATE_RESET)
 800425a:	687b      	ldr	r3, [r7, #4]
 800425c:	2288      	movs	r2, #136	; 0x88
 800425e:	589b      	ldr	r3, [r3, r2]
 8004260:	2b00      	cmp	r3, #0
 8004262:	d107      	bne.n	8004274 <HAL_UART_Init+0x2c>
  {
    /* Allocate lock resource and initialize it */
    huart->Lock = HAL_UNLOCKED;
 8004264:	687b      	ldr	r3, [r7, #4]
 8004266:	2284      	movs	r2, #132	; 0x84
 8004268:	2100      	movs	r1, #0
 800426a:	5499      	strb	r1, [r3, r2]

    /* Init the low level hardware */
    huart->MspInitCallback(huart);
#else
    /* Init the low level hardware : GPIO, CLOCK */
    HAL_UART_MspInit(huart);
 800426c:	687b      	ldr	r3, [r7, #4]
 800426e:	0018      	movs	r0, r3
 8004270:	f7fc fe7a 	bl	8000f68 <HAL_UART_MspInit>
#endif /* (USE_HAL_UART_REGISTER_CALLBACKS) */
  }

  huart->gState = HAL_UART_STATE_BUSY;
 8004274:	687b      	ldr	r3, [r7, #4]
 8004276:	2288      	movs	r2, #136	; 0x88
 8004278:	2124      	movs	r1, #36	; 0x24
 800427a:	5099      	str	r1, [r3, r2]

  __HAL_UART_DISABLE(huart);
 800427c:	687b      	ldr	r3, [r7, #4]
 800427e:	681b      	ldr	r3, [r3, #0]
 8004280:	681a      	ldr	r2, [r3, #0]
 8004282:	687b      	ldr	r3, [r7, #4]
 8004284:	681b      	ldr	r3, [r3, #0]
 8004286:	2101      	movs	r1, #1
 8004288:	438a      	bics	r2, r1
 800428a:	601a      	str	r2, [r3, #0]

  /* Set the UART Communication parameters */
  if (UART_SetConfig(huart) == HAL_ERROR)
 800428c:	687b      	ldr	r3, [r7, #4]
 800428e:	0018      	movs	r0, r3
 8004290:	f000 f830 	bl	80042f4 <UART_SetConfig>
 8004294:	0003      	movs	r3, r0
 8004296:	2b01      	cmp	r3, #1
 8004298:	d101      	bne.n	800429e <HAL_UART_Init+0x56>
  {
    return HAL_ERROR;
 800429a:	2301      	movs	r3, #1
 800429c:	e024      	b.n	80042e8 <HAL_UART_Init+0xa0>
  }

  if (huart->AdvancedInit.AdvFeatureInit != UART_ADVFEATURE_NO_INIT)
 800429e:	687b      	ldr	r3, [r7, #4]
 80042a0:	6a9b      	ldr	r3, [r3, #40]	; 0x28
 80042a2:	2b00      	cmp	r3, #0
 80042a4:	d003      	beq.n	80042ae <HAL_UART_Init+0x66>
  {
    UART_AdvFeatureConfig(huart);
 80042a6:	687b      	ldr	r3, [r7, #4]
 80042a8:	0018      	movs	r0, r3
 80042aa:	f000 fb79 	bl	80049a0 <UART_AdvFeatureConfig>
  }

  /* In asynchronous mode, the following bits must be kept cleared:
  - LINEN and CLKEN bits in the USART_CR2 register,
  - SCEN, HDSEL and IREN  bits in the USART_CR3 register.*/
  CLEAR_BIT(huart->Instance->CR2, (USART_CR2_LINEN | USART_CR2_CLKEN));
 80042ae:	687b      	ldr	r3, [r7, #4]
 80042b0:	681b      	ldr	r3, [r3, #0]
 80042b2:	685a      	ldr	r2, [r3, #4]
 80042b4:	687b      	ldr	r3, [r7, #4]
 80042b6:	681b      	ldr	r3, [r3, #0]
 80042b8:	490d      	ldr	r1, [pc, #52]	; (80042f0 <HAL_UART_Init+0xa8>)
 80042ba:	400a      	ands	r2, r1
 80042bc:	605a      	str	r2, [r3, #4]
  CLEAR_BIT(huart->Instance->CR3, (USART_CR3_SCEN | USART_CR3_HDSEL | USART_CR3_IREN));
 80042be:	687b      	ldr	r3, [r7, #4]
 80042c0:	681b      	ldr	r3, [r3, #0]
 80042c2:	689a      	ldr	r2, [r3, #8]
 80042c4:	687b      	ldr	r3, [r7, #4]
 80042c6:	681b      	ldr	r3, [r3, #0]
 80042c8:	212a      	movs	r1, #42	; 0x2a
 80042ca:	438a      	bics	r2, r1
 80042cc:	609a      	str	r2, [r3, #8]

  __HAL_UART_ENABLE(huart);
 80042ce:	687b      	ldr	r3, [r7, #4]
 80042d0:	681b      	ldr	r3, [r3, #0]
 80042d2:	681a      	ldr	r2, [r3, #0]
 80042d4:	687b      	ldr	r3, [r7, #4]
 80042d6:	681b      	ldr	r3, [r3, #0]
 80042d8:	2101      	movs	r1, #1
 80042da:	430a      	orrs	r2, r1
 80042dc:	601a      	str	r2, [r3, #0]

  /* TEACK and/or REACK to check before moving huart->gState and huart->RxState to Ready */
  return (UART_CheckIdleState(huart));
 80042de:	687b      	ldr	r3, [r7, #4]
 80042e0:	0018      	movs	r0, r3
 80042e2:	f000 fc11 	bl	8004b08 <UART_CheckIdleState>
 80042e6:	0003      	movs	r3, r0
}
 80042e8:	0018      	movs	r0, r3
 80042ea:	46bd      	mov	sp, r7
 80042ec:	b002      	add	sp, #8
 80042ee:	bd80      	pop	{r7, pc}
 80042f0:	ffffb7ff 	.word	0xffffb7ff

080042f4 <UART_SetConfig>:
  * @brief Configure the UART peripheral.
  * @param huart UART handle.
  * @retval HAL status
  */
HAL_StatusTypeDef UART_SetConfig(UART_HandleTypeDef *huart)
{
 80042f4:	b5b0      	push	{r4, r5, r7, lr}
 80042f6:	b090      	sub	sp, #64	; 0x40
 80042f8:	af00      	add	r7, sp, #0
 80042fa:	6278      	str	r0, [r7, #36]	; 0x24
  uint32_t tmpreg;
  uint16_t brrtemp;
  UART_ClockSourceTypeDef clocksource;
  uint32_t usartdiv;
  HAL_StatusTypeDef ret               = HAL_OK;
 80042fc:	231a      	movs	r3, #26
 80042fe:	2220      	movs	r2, #32
 8004300:	189b      	adds	r3, r3, r2
 8004302:	19db      	adds	r3, r3, r7
 8004304:	2200      	movs	r2, #0
 8004306:	701a      	strb	r2, [r3, #0]
  *  the UART Word Length, Parity, Mode and oversampling:
  *  set the M bits according to huart->Init.WordLength value
  *  set PCE and PS bits according to huart->Init.Parity value
  *  set TE and RE bits according to huart->Init.Mode value
  *  set OVER8 bit according to huart->Init.OverSampling value */
  tmpreg = (uint32_t)huart->Init.WordLength | huart->Init.Parity | huart->Init.Mode | huart->Init.OverSampling ;
 8004308:	6a7b      	ldr	r3, [r7, #36]	; 0x24
 800430a:	689a      	ldr	r2, [r3, #8]
 800430c:	6a7b      	ldr	r3, [r7, #36]	; 0x24
 800430e:	691b      	ldr	r3, [r3, #16]
 8004310:	431a      	orrs	r2, r3
 8004312:	6a7b      	ldr	r3, [r7, #36]	; 0x24
 8004314:	695b      	ldr	r3, [r3, #20]
 8004316:	431a      	orrs	r2, r3
 8004318:	6a7b      	ldr	r3, [r7, #36]	; 0x24
 800431a:	69db      	ldr	r3, [r3, #28]
 800431c:	4313      	orrs	r3, r2
 800431e:	63fb      	str	r3, [r7, #60]	; 0x3c
  MODIFY_REG(huart->Instance->CR1, USART_CR1_FIELDS, tmpreg);
 8004320:	6a7b      	ldr	r3, [r7, #36]	; 0x24
 8004322:	681b      	ldr	r3, [r3, #0]
 8004324:	681b      	ldr	r3, [r3, #0]
 8004326:	4ac1      	ldr	r2, [pc, #772]	; (800462c <UART_SetConfig+0x338>)
 8004328:	4013      	ands	r3, r2
 800432a:	0019      	movs	r1, r3
 800432c:	6a7b      	ldr	r3, [r7, #36]	; 0x24
 800432e:	681a      	ldr	r2, [r3, #0]
 8004330:	6bfb      	ldr	r3, [r7, #60]	; 0x3c
 8004332:	430b      	orrs	r3, r1
 8004334:	6013      	str	r3, [r2, #0]

  /*-------------------------- USART CR2 Configuration -----------------------*/
  /* Configure the UART Stop Bits: Set STOP[13:12] bits according
  * to huart->Init.StopBits value */
  MODIFY_REG(huart->Instance->CR2, USART_CR2_STOP, huart->Init.StopBits);
 8004336:	6a7b      	ldr	r3, [r7, #36]	; 0x24
 8004338:	681b      	ldr	r3, [r3, #0]
 800433a:	685b      	ldr	r3, [r3, #4]
 800433c:	4abc      	ldr	r2, [pc, #752]	; (8004630 <UART_SetConfig+0x33c>)
 800433e:	4013      	ands	r3, r2
 8004340:	0018      	movs	r0, r3
 8004342:	6a7b      	ldr	r3, [r7, #36]	; 0x24
 8004344:	68d9      	ldr	r1, [r3, #12]
 8004346:	6a7b      	ldr	r3, [r7, #36]	; 0x24
 8004348:	681a      	ldr	r2, [r3, #0]
 800434a:	0003      	movs	r3, r0
 800434c:	430b      	orrs	r3, r1
 800434e:	6053      	str	r3, [r2, #4]
  /* Configure
  * - UART HardWare Flow Control: set CTSE and RTSE bits according
  *   to huart->Init.HwFlowCtl value
  * - one-bit sampling method versus three samples' majority rule according
  *   to huart->Init.OneBitSampling (not applicable to LPUART) */
  tmpreg = (uint32_t)huart->Init.HwFlowCtl;
 8004350:	6a7b      	ldr	r3, [r7, #36]	; 0x24
 8004352:	699b      	ldr	r3, [r3, #24]
 8004354:	63fb      	str	r3, [r7, #60]	; 0x3c

  if (!(UART_INSTANCE_LOWPOWER(huart)))
 8004356:	6a7b      	ldr	r3, [r7, #36]	; 0x24
 8004358:	681b      	ldr	r3, [r3, #0]
 800435a:	4ab6      	ldr	r2, [pc, #728]	; (8004634 <UART_SetConfig+0x340>)
 800435c:	4293      	cmp	r3, r2
 800435e:	d009      	beq.n	8004374 <UART_SetConfig+0x80>
 8004360:	6a7b      	ldr	r3, [r7, #36]	; 0x24
 8004362:	681b      	ldr	r3, [r3, #0]
 8004364:	4ab4      	ldr	r2, [pc, #720]	; (8004638 <UART_SetConfig+0x344>)
 8004366:	4293      	cmp	r3, r2
 8004368:	d004      	beq.n	8004374 <UART_SetConfig+0x80>
  {
    tmpreg |= huart->Init.OneBitSampling;
 800436a:	6a7b      	ldr	r3, [r7, #36]	; 0x24
 800436c:	6a1b      	ldr	r3, [r3, #32]
 800436e:	6bfa      	ldr	r2, [r7, #60]	; 0x3c
 8004370:	4313      	orrs	r3, r2
 8004372:	63fb      	str	r3, [r7, #60]	; 0x3c
  }
  MODIFY_REG(huart->Instance->CR3, USART_CR3_FIELDS, tmpreg);
 8004374:	6a7b      	ldr	r3, [r7, #36]	; 0x24
 8004376:	681b      	ldr	r3, [r3, #0]
 8004378:	689b      	ldr	r3, [r3, #8]
 800437a:	4ab0      	ldr	r2, [pc, #704]	; (800463c <UART_SetConfig+0x348>)
 800437c:	4013      	ands	r3, r2
 800437e:	0019      	movs	r1, r3
 8004380:	6a7b      	ldr	r3, [r7, #36]	; 0x24
 8004382:	681a      	ldr	r2, [r3, #0]
 8004384:	6bfb      	ldr	r3, [r7, #60]	; 0x3c
 8004386:	430b      	orrs	r3, r1
 8004388:	6093      	str	r3, [r2, #8]

  /*-------------------------- USART PRESC Configuration -----------------------*/
  /* Configure
  * - UART Clock Prescaler : set PRESCALER according to huart->Init.ClockPrescaler value */
  MODIFY_REG(huart->Instance->PRESC, USART_PRESC_PRESCALER, huart->Init.ClockPrescaler);
 800438a:	6a7b      	ldr	r3, [r7, #36]	; 0x24
 800438c:	681b      	ldr	r3, [r3, #0]
 800438e:	6adb      	ldr	r3, [r3, #44]	; 0x2c
 8004390:	220f      	movs	r2, #15
 8004392:	4393      	bics	r3, r2
 8004394:	0018      	movs	r0, r3
 8004396:	6a7b      	ldr	r3, [r7, #36]	; 0x24
 8004398:	6a59      	ldr	r1, [r3, #36]	; 0x24
 800439a:	6a7b      	ldr	r3, [r7, #36]	; 0x24
 800439c:	681a      	ldr	r2, [r3, #0]
 800439e:	0003      	movs	r3, r0
 80043a0:	430b      	orrs	r3, r1
 80043a2:	62d3      	str	r3, [r2, #44]	; 0x2c

  /*-------------------------- USART BRR Configuration -----------------------*/
  UART_GETCLOCKSOURCE(huart, clocksource);
 80043a4:	6a7b      	ldr	r3, [r7, #36]	; 0x24
 80043a6:	681b      	ldr	r3, [r3, #0]
 80043a8:	4aa5      	ldr	r2, [pc, #660]	; (8004640 <UART_SetConfig+0x34c>)
 80043aa:	4293      	cmp	r3, r2
 80043ac:	d131      	bne.n	8004412 <UART_SetConfig+0x11e>
 80043ae:	4ba5      	ldr	r3, [pc, #660]	; (8004644 <UART_SetConfig+0x350>)
 80043b0:	6d5b      	ldr	r3, [r3, #84]	; 0x54
 80043b2:	2203      	movs	r2, #3
 80043b4:	4013      	ands	r3, r2
 80043b6:	2b03      	cmp	r3, #3
 80043b8:	d01d      	beq.n	80043f6 <UART_SetConfig+0x102>
 80043ba:	d823      	bhi.n	8004404 <UART_SetConfig+0x110>
 80043bc:	2b02      	cmp	r3, #2
 80043be:	d00c      	beq.n	80043da <UART_SetConfig+0xe6>
 80043c0:	d820      	bhi.n	8004404 <UART_SetConfig+0x110>
 80043c2:	2b00      	cmp	r3, #0
 80043c4:	d002      	beq.n	80043cc <UART_SetConfig+0xd8>
 80043c6:	2b01      	cmp	r3, #1
 80043c8:	d00e      	beq.n	80043e8 <UART_SetConfig+0xf4>
 80043ca:	e01b      	b.n	8004404 <UART_SetConfig+0x110>
 80043cc:	231b      	movs	r3, #27
 80043ce:	2220      	movs	r2, #32
 80043d0:	189b      	adds	r3, r3, r2
 80043d2:	19db      	adds	r3, r3, r7
 80043d4:	2200      	movs	r2, #0
 80043d6:	701a      	strb	r2, [r3, #0]
 80043d8:	e154      	b.n	8004684 <UART_SetConfig+0x390>
 80043da:	231b      	movs	r3, #27
 80043dc:	2220      	movs	r2, #32
 80043de:	189b      	adds	r3, r3, r2
 80043e0:	19db      	adds	r3, r3, r7
 80043e2:	2202      	movs	r2, #2
 80043e4:	701a      	strb	r2, [r3, #0]
 80043e6:	e14d      	b.n	8004684 <UART_SetConfig+0x390>
 80043e8:	231b      	movs	r3, #27
 80043ea:	2220      	movs	r2, #32
 80043ec:	189b      	adds	r3, r3, r2
 80043ee:	19db      	adds	r3, r3, r7
 80043f0:	2204      	movs	r2, #4
 80043f2:	701a      	strb	r2, [r3, #0]
 80043f4:	e146      	b.n	8004684 <UART_SetConfig+0x390>
 80043f6:	231b      	movs	r3, #27
 80043f8:	2220      	movs	r2, #32
 80043fa:	189b      	adds	r3, r3, r2
 80043fc:	19db      	adds	r3, r3, r7
 80043fe:	2208      	movs	r2, #8
 8004400:	701a      	strb	r2, [r3, #0]
 8004402:	e13f      	b.n	8004684 <UART_SetConfig+0x390>
 8004404:	231b      	movs	r3, #27
 8004406:	2220      	movs	r2, #32
 8004408:	189b      	adds	r3, r3, r2
 800440a:	19db      	adds	r3, r3, r7
 800440c:	2210      	movs	r2, #16
 800440e:	701a      	strb	r2, [r3, #0]
 8004410:	e138      	b.n	8004684 <UART_SetConfig+0x390>
 8004412:	6a7b      	ldr	r3, [r7, #36]	; 0x24
 8004414:	681b      	ldr	r3, [r3, #0]
 8004416:	4a8c      	ldr	r2, [pc, #560]	; (8004648 <UART_SetConfig+0x354>)
 8004418:	4293      	cmp	r3, r2
 800441a:	d131      	bne.n	8004480 <UART_SetConfig+0x18c>
 800441c:	4b89      	ldr	r3, [pc, #548]	; (8004644 <UART_SetConfig+0x350>)
 800441e:	6d5b      	ldr	r3, [r3, #84]	; 0x54
 8004420:	220c      	movs	r2, #12
 8004422:	4013      	ands	r3, r2
 8004424:	2b0c      	cmp	r3, #12
 8004426:	d01d      	beq.n	8004464 <UART_SetConfig+0x170>
 8004428:	d823      	bhi.n	8004472 <UART_SetConfig+0x17e>
 800442a:	2b08      	cmp	r3, #8
 800442c:	d00c      	beq.n	8004448 <UART_SetConfig+0x154>
 800442e:	d820      	bhi.n	8004472 <UART_SetConfig+0x17e>
 8004430:	2b00      	cmp	r3, #0
 8004432:	d002      	beq.n	800443a <UART_SetConfig+0x146>
 8004434:	2b04      	cmp	r3, #4
 8004436:	d00e      	beq.n	8004456 <UART_SetConfig+0x162>
 8004438:	e01b      	b.n	8004472 <UART_SetConfig+0x17e>
 800443a:	231b      	movs	r3, #27
 800443c:	2220      	movs	r2, #32
 800443e:	189b      	adds	r3, r3, r2
 8004440:	19db      	adds	r3, r3, r7
 8004442:	2200      	movs	r2, #0
 8004444:	701a      	strb	r2, [r3, #0]
 8004446:	e11d      	b.n	8004684 <UART_SetConfig+0x390>
 8004448:	231b      	movs	r3, #27
 800444a:	2220      	movs	r2, #32
 800444c:	189b      	adds	r3, r3, r2
 800444e:	19db      	adds	r3, r3, r7
 8004450:	2202      	movs	r2, #2
 8004452:	701a      	strb	r2, [r3, #0]
 8004454:	e116      	b.n	8004684 <UART_SetConfig+0x390>
 8004456:	231b      	movs	r3, #27
 8004458:	2220      	movs	r2, #32
 800445a:	189b      	adds	r3, r3, r2
 800445c:	19db      	adds	r3, r3, r7
 800445e:	2204      	movs	r2, #4
 8004460:	701a      	strb	r2, [r3, #0]
 8004462:	e10f      	b.n	8004684 <UART_SetConfig+0x390>
 8004464:	231b      	movs	r3, #27
 8004466:	2220      	movs	r2, #32
 8004468:	189b      	adds	r3, r3, r2
 800446a:	19db      	adds	r3, r3, r7
 800446c:	2208      	movs	r2, #8
 800446e:	701a      	strb	r2, [r3, #0]
 8004470:	e108      	b.n	8004684 <UART_SetConfig+0x390>
 8004472:	231b      	movs	r3, #27
 8004474:	2220      	movs	r2, #32
 8004476:	189b      	adds	r3, r3, r2
 8004478:	19db      	adds	r3, r3, r7
 800447a:	2210      	movs	r2, #16
 800447c:	701a      	strb	r2, [r3, #0]
 800447e:	e101      	b.n	8004684 <UART_SetConfig+0x390>
 8004480:	6a7b      	ldr	r3, [r7, #36]	; 0x24
 8004482:	681b      	ldr	r3, [r3, #0]
 8004484:	4a71      	ldr	r2, [pc, #452]	; (800464c <UART_SetConfig+0x358>)
 8004486:	4293      	cmp	r3, r2
 8004488:	d131      	bne.n	80044ee <UART_SetConfig+0x1fa>
 800448a:	4b6e      	ldr	r3, [pc, #440]	; (8004644 <UART_SetConfig+0x350>)
 800448c:	6d5b      	ldr	r3, [r3, #84]	; 0x54
 800448e:	2230      	movs	r2, #48	; 0x30
 8004490:	4013      	ands	r3, r2
 8004492:	2b30      	cmp	r3, #48	; 0x30
 8004494:	d01d      	beq.n	80044d2 <UART_SetConfig+0x1de>
 8004496:	d823      	bhi.n	80044e0 <UART_SetConfig+0x1ec>
 8004498:	2b20      	cmp	r3, #32
 800449a:	d00c      	beq.n	80044b6 <UART_SetConfig+0x1c2>
 800449c:	d820      	bhi.n	80044e0 <UART_SetConfig+0x1ec>
 800449e:	2b00      	cmp	r3, #0
 80044a0:	d002      	beq.n	80044a8 <UART_SetConfig+0x1b4>
 80044a2:	2b10      	cmp	r3, #16
 80044a4:	d00e      	beq.n	80044c4 <UART_SetConfig+0x1d0>
 80044a6:	e01b      	b.n	80044e0 <UART_SetConfig+0x1ec>
 80044a8:	231b      	movs	r3, #27
 80044aa:	2220      	movs	r2, #32
 80044ac:	189b      	adds	r3, r3, r2
 80044ae:	19db      	adds	r3, r3, r7
 80044b0:	2200      	movs	r2, #0
 80044b2:	701a      	strb	r2, [r3, #0]
 80044b4:	e0e6      	b.n	8004684 <UART_SetConfig+0x390>
 80044b6:	231b      	movs	r3, #27
 80044b8:	2220      	movs	r2, #32
 80044ba:	189b      	adds	r3, r3, r2
 80044bc:	19db      	adds	r3, r3, r7
 80044be:	2202      	movs	r2, #2
 80044c0:	701a      	strb	r2, [r3, #0]
 80044c2:	e0df      	b.n	8004684 <UART_SetConfig+0x390>
 80044c4:	231b      	movs	r3, #27
 80044c6:	2220      	movs	r2, #32
 80044c8:	189b      	adds	r3, r3, r2
 80044ca:	19db      	adds	r3, r3, r7
 80044cc:	2204      	movs	r2, #4
 80044ce:	701a      	strb	r2, [r3, #0]
 80044d0:	e0d8      	b.n	8004684 <UART_SetConfig+0x390>
 80044d2:	231b      	movs	r3, #27
 80044d4:	2220      	movs	r2, #32
 80044d6:	189b      	adds	r3, r3, r2
 80044d8:	19db      	adds	r3, r3, r7
 80044da:	2208      	movs	r2, #8
 80044dc:	701a      	strb	r2, [r3, #0]
 80044de:	e0d1      	b.n	8004684 <UART_SetConfig+0x390>
 80044e0:	231b      	movs	r3, #27
 80044e2:	2220      	movs	r2, #32
 80044e4:	189b      	adds	r3, r3, r2
 80044e6:	19db      	adds	r3, r3, r7
 80044e8:	2210      	movs	r2, #16
 80044ea:	701a      	strb	r2, [r3, #0]
 80044ec:	e0ca      	b.n	8004684 <UART_SetConfig+0x390>
 80044ee:	6a7b      	ldr	r3, [r7, #36]	; 0x24
 80044f0:	681b      	ldr	r3, [r3, #0]
 80044f2:	4a57      	ldr	r2, [pc, #348]	; (8004650 <UART_SetConfig+0x35c>)
 80044f4:	4293      	cmp	r3, r2
 80044f6:	d106      	bne.n	8004506 <UART_SetConfig+0x212>
 80044f8:	231b      	movs	r3, #27
 80044fa:	2220      	movs	r2, #32
 80044fc:	189b      	adds	r3, r3, r2
 80044fe:	19db      	adds	r3, r3, r7
 8004500:	2200      	movs	r2, #0
 8004502:	701a      	strb	r2, [r3, #0]
 8004504:	e0be      	b.n	8004684 <UART_SetConfig+0x390>
 8004506:	6a7b      	ldr	r3, [r7, #36]	; 0x24
 8004508:	681b      	ldr	r3, [r3, #0]
 800450a:	4a52      	ldr	r2, [pc, #328]	; (8004654 <UART_SetConfig+0x360>)
 800450c:	4293      	cmp	r3, r2
 800450e:	d106      	bne.n	800451e <UART_SetConfig+0x22a>
 8004510:	231b      	movs	r3, #27
 8004512:	2220      	movs	r2, #32
 8004514:	189b      	adds	r3, r3, r2
 8004516:	19db      	adds	r3, r3, r7
 8004518:	2200      	movs	r2, #0
 800451a:	701a      	strb	r2, [r3, #0]
 800451c:	e0b2      	b.n	8004684 <UART_SetConfig+0x390>
 800451e:	6a7b      	ldr	r3, [r7, #36]	; 0x24
 8004520:	681b      	ldr	r3, [r3, #0]
 8004522:	4a4d      	ldr	r2, [pc, #308]	; (8004658 <UART_SetConfig+0x364>)
 8004524:	4293      	cmp	r3, r2
 8004526:	d106      	bne.n	8004536 <UART_SetConfig+0x242>
 8004528:	231b      	movs	r3, #27
 800452a:	2220      	movs	r2, #32
 800452c:	189b      	adds	r3, r3, r2
 800452e:	19db      	adds	r3, r3, r7
 8004530:	2200      	movs	r2, #0
 8004532:	701a      	strb	r2, [r3, #0]
 8004534:	e0a6      	b.n	8004684 <UART_SetConfig+0x390>
 8004536:	6a7b      	ldr	r3, [r7, #36]	; 0x24
 8004538:	681b      	ldr	r3, [r3, #0]
 800453a:	4a3e      	ldr	r2, [pc, #248]	; (8004634 <UART_SetConfig+0x340>)
 800453c:	4293      	cmp	r3, r2
 800453e:	d13e      	bne.n	80045be <UART_SetConfig+0x2ca>
 8004540:	4b40      	ldr	r3, [pc, #256]	; (8004644 <UART_SetConfig+0x350>)
 8004542:	6d5a      	ldr	r2, [r3, #84]	; 0x54
 8004544:	23c0      	movs	r3, #192	; 0xc0
 8004546:	011b      	lsls	r3, r3, #4
 8004548:	4013      	ands	r3, r2
 800454a:	22c0      	movs	r2, #192	; 0xc0
 800454c:	0112      	lsls	r2, r2, #4
 800454e:	4293      	cmp	r3, r2
 8004550:	d027      	beq.n	80045a2 <UART_SetConfig+0x2ae>
 8004552:	22c0      	movs	r2, #192	; 0xc0
 8004554:	0112      	lsls	r2, r2, #4
 8004556:	4293      	cmp	r3, r2
 8004558:	d82a      	bhi.n	80045b0 <UART_SetConfig+0x2bc>
 800455a:	2280      	movs	r2, #128	; 0x80
 800455c:	0112      	lsls	r2, r2, #4
 800455e:	4293      	cmp	r3, r2
 8004560:	d011      	beq.n	8004586 <UART_SetConfig+0x292>
 8004562:	2280      	movs	r2, #128	; 0x80
 8004564:	0112      	lsls	r2, r2, #4
 8004566:	4293      	cmp	r3, r2
 8004568:	d822      	bhi.n	80045b0 <UART_SetConfig+0x2bc>
 800456a:	2b00      	cmp	r3, #0
 800456c:	d004      	beq.n	8004578 <UART_SetConfig+0x284>
 800456e:	2280      	movs	r2, #128	; 0x80
 8004570:	00d2      	lsls	r2, r2, #3
 8004572:	4293      	cmp	r3, r2
 8004574:	d00e      	beq.n	8004594 <UART_SetConfig+0x2a0>
 8004576:	e01b      	b.n	80045b0 <UART_SetConfig+0x2bc>
 8004578:	231b      	movs	r3, #27
 800457a:	2220      	movs	r2, #32
 800457c:	189b      	adds	r3, r3, r2
 800457e:	19db      	adds	r3, r3, r7
 8004580:	2200      	movs	r2, #0
 8004582:	701a      	strb	r2, [r3, #0]
 8004584:	e07e      	b.n	8004684 <UART_SetConfig+0x390>
 8004586:	231b      	movs	r3, #27
 8004588:	2220      	movs	r2, #32
 800458a:	189b      	adds	r3, r3, r2
 800458c:	19db      	adds	r3, r3, r7
 800458e:	2202      	movs	r2, #2
 8004590:	701a      	strb	r2, [r3, #0]
 8004592:	e077      	b.n	8004684 <UART_SetConfig+0x390>
 8004594:	231b      	movs	r3, #27
 8004596:	2220      	movs	r2, #32
 8004598:	189b      	adds	r3, r3, r2
 800459a:	19db      	adds	r3, r3, r7
 800459c:	2204      	movs	r2, #4
 800459e:	701a      	strb	r2, [r3, #0]
 80045a0:	e070      	b.n	8004684 <UART_SetConfig+0x390>
 80045a2:	231b      	movs	r3, #27
 80045a4:	2220      	movs	r2, #32
 80045a6:	189b      	adds	r3, r3, r2
 80045a8:	19db      	adds	r3, r3, r7
 80045aa:	2208      	movs	r2, #8
 80045ac:	701a      	strb	r2, [r3, #0]
 80045ae:	e069      	b.n	8004684 <UART_SetConfig+0x390>
 80045b0:	231b      	movs	r3, #27
 80045b2:	2220      	movs	r2, #32
 80045b4:	189b      	adds	r3, r3, r2
 80045b6:	19db      	adds	r3, r3, r7
 80045b8:	2210      	movs	r2, #16
 80045ba:	701a      	strb	r2, [r3, #0]
 80045bc:	e062      	b.n	8004684 <UART_SetConfig+0x390>
 80045be:	6a7b      	ldr	r3, [r7, #36]	; 0x24
 80045c0:	681b      	ldr	r3, [r3, #0]
 80045c2:	4a1d      	ldr	r2, [pc, #116]	; (8004638 <UART_SetConfig+0x344>)
 80045c4:	4293      	cmp	r3, r2
 80045c6:	d157      	bne.n	8004678 <UART_SetConfig+0x384>
 80045c8:	4b1e      	ldr	r3, [pc, #120]	; (8004644 <UART_SetConfig+0x350>)
 80045ca:	6d5a      	ldr	r2, [r3, #84]	; 0x54
 80045cc:	23c0      	movs	r3, #192	; 0xc0
 80045ce:	009b      	lsls	r3, r3, #2
 80045d0:	4013      	ands	r3, r2
 80045d2:	22c0      	movs	r2, #192	; 0xc0
 80045d4:	0092      	lsls	r2, r2, #2
 80045d6:	4293      	cmp	r3, r2
 80045d8:	d040      	beq.n	800465c <UART_SetConfig+0x368>
 80045da:	22c0      	movs	r2, #192	; 0xc0
 80045dc:	0092      	lsls	r2, r2, #2
 80045de:	4293      	cmp	r3, r2
 80045e0:	d843      	bhi.n	800466a <UART_SetConfig+0x376>
 80045e2:	2280      	movs	r2, #128	; 0x80
 80045e4:	0092      	lsls	r2, r2, #2
 80045e6:	4293      	cmp	r3, r2
 80045e8:	d011      	beq.n	800460e <UART_SetConfig+0x31a>
 80045ea:	2280      	movs	r2, #128	; 0x80
 80045ec:	0092      	lsls	r2, r2, #2
 80045ee:	4293      	cmp	r3, r2
 80045f0:	d83b      	bhi.n	800466a <UART_SetConfig+0x376>
 80045f2:	2b00      	cmp	r3, #0
 80045f4:	d004      	beq.n	8004600 <UART_SetConfig+0x30c>
 80045f6:	2280      	movs	r2, #128	; 0x80
 80045f8:	0052      	lsls	r2, r2, #1
 80045fa:	4293      	cmp	r3, r2
 80045fc:	d00e      	beq.n	800461c <UART_SetConfig+0x328>
 80045fe:	e034      	b.n	800466a <UART_SetConfig+0x376>
 8004600:	231b      	movs	r3, #27
 8004602:	2220      	movs	r2, #32
 8004604:	189b      	adds	r3, r3, r2
 8004606:	19db      	adds	r3, r3, r7
 8004608:	2200      	movs	r2, #0
 800460a:	701a      	strb	r2, [r3, #0]
 800460c:	e03a      	b.n	8004684 <UART_SetConfig+0x390>
 800460e:	231b      	movs	r3, #27
 8004610:	2220      	movs	r2, #32
 8004612:	189b      	adds	r3, r3, r2
 8004614:	19db      	adds	r3, r3, r7
 8004616:	2202      	movs	r2, #2
 8004618:	701a      	strb	r2, [r3, #0]
 800461a:	e033      	b.n	8004684 <UART_SetConfig+0x390>
 800461c:	231b      	movs	r3, #27
 800461e:	2220      	movs	r2, #32
 8004620:	189b      	adds	r3, r3, r2
 8004622:	19db      	adds	r3, r3, r7
 8004624:	2204      	movs	r2, #4
 8004626:	701a      	strb	r2, [r3, #0]
 8004628:	e02c      	b.n	8004684 <UART_SetConfig+0x390>
 800462a:	46c0      	nop			; (mov r8, r8)
 800462c:	cfff69f3 	.word	0xcfff69f3
 8004630:	ffffcfff 	.word	0xffffcfff
 8004634:	40008000 	.word	0x40008000
 8004638:	40008400 	.word	0x40008400
 800463c:	11fff4ff 	.word	0x11fff4ff
 8004640:	40013800 	.word	0x40013800
 8004644:	40021000 	.word	0x40021000
 8004648:	40004400 	.word	0x40004400
 800464c:	40004800 	.word	0x40004800
 8004650:	40004c00 	.word	0x40004c00
 8004654:	40005000 	.word	0x40005000
 8004658:	40013c00 	.word	0x40013c00
 800465c:	231b      	movs	r3, #27
 800465e:	2220      	movs	r2, #32
 8004660:	189b      	adds	r3, r3, r2
 8004662:	19db      	adds	r3, r3, r7
 8004664:	2208      	movs	r2, #8
 8004666:	701a      	strb	r2, [r3, #0]
 8004668:	e00c      	b.n	8004684 <UART_SetConfig+0x390>
 800466a:	231b      	movs	r3, #27
 800466c:	2220      	movs	r2, #32
 800466e:	189b      	adds	r3, r3, r2
 8004670:	19db      	adds	r3, r3, r7
 8004672:	2210      	movs	r2, #16
 8004674:	701a      	strb	r2, [r3, #0]
 8004676:	e005      	b.n	8004684 <UART_SetConfig+0x390>
 8004678:	231b      	movs	r3, #27
 800467a:	2220      	movs	r2, #32
 800467c:	189b      	adds	r3, r3, r2
 800467e:	19db      	adds	r3, r3, r7
 8004680:	2210      	movs	r2, #16
 8004682:	701a      	strb	r2, [r3, #0]

  /* Check LPUART instance */
  if (UART_INSTANCE_LOWPOWER(huart))
 8004684:	6a7b      	ldr	r3, [r7, #36]	; 0x24
 8004686:	681b      	ldr	r3, [r3, #0]
 8004688:	4ac1      	ldr	r2, [pc, #772]	; (8004990 <UART_SetConfig+0x69c>)
 800468a:	4293      	cmp	r3, r2
 800468c:	d005      	beq.n	800469a <UART_SetConfig+0x3a6>
 800468e:	6a7b      	ldr	r3, [r7, #36]	; 0x24
 8004690:	681b      	ldr	r3, [r3, #0]
 8004692:	4ac0      	ldr	r2, [pc, #768]	; (8004994 <UART_SetConfig+0x6a0>)
 8004694:	4293      	cmp	r3, r2
 8004696:	d000      	beq.n	800469a <UART_SetConfig+0x3a6>
 8004698:	e093      	b.n	80047c2 <UART_SetConfig+0x4ce>
  {
    /* Retrieve frequency clock */
    switch (clocksource)
 800469a:	231b      	movs	r3, #27
 800469c:	2220      	movs	r2, #32
 800469e:	189b      	adds	r3, r3, r2
 80046a0:	19db      	adds	r3, r3, r7
 80046a2:	781b      	ldrb	r3, [r3, #0]
 80046a4:	2b08      	cmp	r3, #8
 80046a6:	d015      	beq.n	80046d4 <UART_SetConfig+0x3e0>
 80046a8:	dc18      	bgt.n	80046dc <UART_SetConfig+0x3e8>
 80046aa:	2b04      	cmp	r3, #4
 80046ac:	d00d      	beq.n	80046ca <UART_SetConfig+0x3d6>
 80046ae:	dc15      	bgt.n	80046dc <UART_SetConfig+0x3e8>
 80046b0:	2b00      	cmp	r3, #0
 80046b2:	d002      	beq.n	80046ba <UART_SetConfig+0x3c6>
 80046b4:	2b02      	cmp	r3, #2
 80046b6:	d005      	beq.n	80046c4 <UART_SetConfig+0x3d0>
 80046b8:	e010      	b.n	80046dc <UART_SetConfig+0x3e8>
    {
      case UART_CLOCKSOURCE_PCLK1:
        pclk = HAL_RCC_GetPCLK1Freq();
 80046ba:	f7ff f8a9 	bl	8003810 <HAL_RCC_GetPCLK1Freq>
 80046be:	0003      	movs	r3, r0
 80046c0:	637b      	str	r3, [r7, #52]	; 0x34
        break;
 80046c2:	e014      	b.n	80046ee <UART_SetConfig+0x3fa>
      case UART_CLOCKSOURCE_HSI:
        pclk = (uint32_t) HSI_VALUE;
 80046c4:	4bb4      	ldr	r3, [pc, #720]	; (8004998 <UART_SetConfig+0x6a4>)
 80046c6:	637b      	str	r3, [r7, #52]	; 0x34
        break;
 80046c8:	e011      	b.n	80046ee <UART_SetConfig+0x3fa>
      case UART_CLOCKSOURCE_SYSCLK:
        pclk = HAL_RCC_GetSysClockFreq();
 80046ca:	f7ff f815 	bl	80036f8 <HAL_RCC_GetSysClockFreq>
 80046ce:	0003      	movs	r3, r0
 80046d0:	637b      	str	r3, [r7, #52]	; 0x34
        break;
 80046d2:	e00c      	b.n	80046ee <UART_SetConfig+0x3fa>
      case UART_CLOCKSOURCE_LSE:
        pclk = (uint32_t) LSE_VALUE;
 80046d4:	2380      	movs	r3, #128	; 0x80
 80046d6:	021b      	lsls	r3, r3, #8
 80046d8:	637b      	str	r3, [r7, #52]	; 0x34
        break;
 80046da:	e008      	b.n	80046ee <UART_SetConfig+0x3fa>
      default:
        pclk = 0U;
 80046dc:	2300      	movs	r3, #0
 80046de:	637b      	str	r3, [r7, #52]	; 0x34
        ret = HAL_ERROR;
 80046e0:	231a      	movs	r3, #26
 80046e2:	2220      	movs	r2, #32
 80046e4:	189b      	adds	r3, r3, r2
 80046e6:	19db      	adds	r3, r3, r7
 80046e8:	2201      	movs	r2, #1
 80046ea:	701a      	strb	r2, [r3, #0]
        break;
 80046ec:	46c0      	nop			; (mov r8, r8)
    }

    /* If proper clock source reported */
    if (pclk != 0U)
 80046ee:	6b7b      	ldr	r3, [r7, #52]	; 0x34
 80046f0:	2b00      	cmp	r3, #0
 80046f2:	d100      	bne.n	80046f6 <UART_SetConfig+0x402>
 80046f4:	e135      	b.n	8004962 <UART_SetConfig+0x66e>
    {
      /* Compute clock after Prescaler */
      lpuart_ker_ck_pres = (pclk / UARTPrescTable[huart->Init.ClockPrescaler]);
 80046f6:	6a7b      	ldr	r3, [r7, #36]	; 0x24
 80046f8:	6a5a      	ldr	r2, [r3, #36]	; 0x24
 80046fa:	4ba8      	ldr	r3, [pc, #672]	; (800499c <UART_SetConfig+0x6a8>)
 80046fc:	0052      	lsls	r2, r2, #1
 80046fe:	5ad3      	ldrh	r3, [r2, r3]
 8004700:	0019      	movs	r1, r3
 8004702:	6b78      	ldr	r0, [r7, #52]	; 0x34
 8004704:	f7fb fcfe 	bl	8000104 <__udivsi3>
 8004708:	0003      	movs	r3, r0
 800470a:	62bb      	str	r3, [r7, #40]	; 0x28

      /* Ensure that Frequency clock is in the range [3 * baudrate, 4096 * baudrate] */
      if ((lpuart_ker_ck_pres < (3U * huart->Init.BaudRate)) ||
 800470c:	6a7b      	ldr	r3, [r7, #36]	; 0x24
 800470e:	685a      	ldr	r2, [r3, #4]
 8004710:	0013      	movs	r3, r2
 8004712:	005b      	lsls	r3, r3, #1
 8004714:	189b      	adds	r3, r3, r2
 8004716:	6aba      	ldr	r2, [r7, #40]	; 0x28
 8004718:	429a      	cmp	r2, r3
 800471a:	d305      	bcc.n	8004728 <UART_SetConfig+0x434>
          (lpuart_ker_ck_pres > (4096U * huart->Init.BaudRate)))
 800471c:	6a7b      	ldr	r3, [r7, #36]	; 0x24
 800471e:	685b      	ldr	r3, [r3, #4]
 8004720:	031b      	lsls	r3, r3, #12
      if ((lpuart_ker_ck_pres < (3U * huart->Init.BaudRate)) ||
 8004722:	6aba      	ldr	r2, [r7, #40]	; 0x28
 8004724:	429a      	cmp	r2, r3
 8004726:	d906      	bls.n	8004736 <UART_SetConfig+0x442>
      {
        ret = HAL_ERROR;
 8004728:	231a      	movs	r3, #26
 800472a:	2220      	movs	r2, #32
 800472c:	189b      	adds	r3, r3, r2
 800472e:	19db      	adds	r3, r3, r7
 8004730:	2201      	movs	r2, #1
 8004732:	701a      	strb	r2, [r3, #0]
 8004734:	e044      	b.n	80047c0 <UART_SetConfig+0x4cc>
      }
      else
      {
        /* Check computed UsartDiv value is in allocated range
           (it is forbidden to write values lower than 0x300 in the LPUART_BRR register) */
        usartdiv = (uint32_t)(UART_DIV_LPUART(pclk, huart->Init.BaudRate, huart->Init.ClockPrescaler));
 8004736:	6b7b      	ldr	r3, [r7, #52]	; 0x34
 8004738:	61bb      	str	r3, [r7, #24]
 800473a:	2300      	movs	r3, #0
 800473c:	61fb      	str	r3, [r7, #28]
 800473e:	6a7b      	ldr	r3, [r7, #36]	; 0x24
 8004740:	6a5a      	ldr	r2, [r3, #36]	; 0x24
 8004742:	4b96      	ldr	r3, [pc, #600]	; (800499c <UART_SetConfig+0x6a8>)
 8004744:	0052      	lsls	r2, r2, #1
 8004746:	5ad3      	ldrh	r3, [r2, r3]
 8004748:	613b      	str	r3, [r7, #16]
 800474a:	2300      	movs	r3, #0
 800474c:	617b      	str	r3, [r7, #20]
 800474e:	693a      	ldr	r2, [r7, #16]
 8004750:	697b      	ldr	r3, [r7, #20]
 8004752:	69b8      	ldr	r0, [r7, #24]
 8004754:	69f9      	ldr	r1, [r7, #28]
 8004756:	f7fb fe4b 	bl	80003f0 <__aeabi_uldivmod>
 800475a:	0002      	movs	r2, r0
 800475c:	000b      	movs	r3, r1
 800475e:	0e11      	lsrs	r1, r2, #24
 8004760:	021d      	lsls	r5, r3, #8
 8004762:	430d      	orrs	r5, r1
 8004764:	0214      	lsls	r4, r2, #8
 8004766:	6a7b      	ldr	r3, [r7, #36]	; 0x24
 8004768:	685b      	ldr	r3, [r3, #4]
 800476a:	085b      	lsrs	r3, r3, #1
 800476c:	60bb      	str	r3, [r7, #8]
 800476e:	2300      	movs	r3, #0
 8004770:	60fb      	str	r3, [r7, #12]
 8004772:	68b8      	ldr	r0, [r7, #8]
 8004774:	68f9      	ldr	r1, [r7, #12]
 8004776:	1900      	adds	r0, r0, r4
 8004778:	4169      	adcs	r1, r5
 800477a:	6a7b      	ldr	r3, [r7, #36]	; 0x24
 800477c:	685b      	ldr	r3, [r3, #4]
 800477e:	603b      	str	r3, [r7, #0]
 8004780:	2300      	movs	r3, #0
 8004782:	607b      	str	r3, [r7, #4]
 8004784:	683a      	ldr	r2, [r7, #0]
 8004786:	687b      	ldr	r3, [r7, #4]
 8004788:	f7fb fe32 	bl	80003f0 <__aeabi_uldivmod>
 800478c:	0002      	movs	r2, r0
 800478e:	000b      	movs	r3, r1
 8004790:	0013      	movs	r3, r2
 8004792:	633b      	str	r3, [r7, #48]	; 0x30
        if ((usartdiv >= LPUART_BRR_MIN) && (usartdiv <= LPUART_BRR_MAX))
 8004794:	6b3a      	ldr	r2, [r7, #48]	; 0x30
 8004796:	23c0      	movs	r3, #192	; 0xc0
 8004798:	009b      	lsls	r3, r3, #2
 800479a:	429a      	cmp	r2, r3
 800479c:	d309      	bcc.n	80047b2 <UART_SetConfig+0x4be>
 800479e:	6b3a      	ldr	r2, [r7, #48]	; 0x30
 80047a0:	2380      	movs	r3, #128	; 0x80
 80047a2:	035b      	lsls	r3, r3, #13
 80047a4:	429a      	cmp	r2, r3
 80047a6:	d204      	bcs.n	80047b2 <UART_SetConfig+0x4be>
        {
          huart->Instance->BRR = usartdiv;
 80047a8:	6a7b      	ldr	r3, [r7, #36]	; 0x24
 80047aa:	681b      	ldr	r3, [r3, #0]
 80047ac:	6b3a      	ldr	r2, [r7, #48]	; 0x30
 80047ae:	60da      	str	r2, [r3, #12]
 80047b0:	e006      	b.n	80047c0 <UART_SetConfig+0x4cc>
        }
        else
        {
          ret = HAL_ERROR;
 80047b2:	231a      	movs	r3, #26
 80047b4:	2220      	movs	r2, #32
 80047b6:	189b      	adds	r3, r3, r2
 80047b8:	19db      	adds	r3, r3, r7
 80047ba:	2201      	movs	r2, #1
 80047bc:	701a      	strb	r2, [r3, #0]
    if (pclk != 0U)
 80047be:	e0d0      	b.n	8004962 <UART_SetConfig+0x66e>
 80047c0:	e0cf      	b.n	8004962 <UART_SetConfig+0x66e>
      } /* if ( (lpuart_ker_ck_pres < (3 * huart->Init.BaudRate) ) ||
                (lpuart_ker_ck_pres > (4096 * huart->Init.BaudRate) )) */
    } /* if (pclk != 0) */
  }
  /* Check UART Over Sampling to set Baud Rate Register */
  else if (huart->Init.OverSampling == UART_OVERSAMPLING_8)
 80047c2:	6a7b      	ldr	r3, [r7, #36]	; 0x24
 80047c4:	69da      	ldr	r2, [r3, #28]
 80047c6:	2380      	movs	r3, #128	; 0x80
 80047c8:	021b      	lsls	r3, r3, #8
 80047ca:	429a      	cmp	r2, r3
 80047cc:	d000      	beq.n	80047d0 <UART_SetConfig+0x4dc>
 80047ce:	e070      	b.n	80048b2 <UART_SetConfig+0x5be>
  {
    switch (clocksource)
 80047d0:	231b      	movs	r3, #27
 80047d2:	2220      	movs	r2, #32
 80047d4:	189b      	adds	r3, r3, r2
 80047d6:	19db      	adds	r3, r3, r7
 80047d8:	781b      	ldrb	r3, [r3, #0]
 80047da:	2b08      	cmp	r3, #8
 80047dc:	d015      	beq.n	800480a <UART_SetConfig+0x516>
 80047de:	dc18      	bgt.n	8004812 <UART_SetConfig+0x51e>
 80047e0:	2b04      	cmp	r3, #4
 80047e2:	d00d      	beq.n	8004800 <UART_SetConfig+0x50c>
 80047e4:	dc15      	bgt.n	8004812 <UART_SetConfig+0x51e>
 80047e6:	2b00      	cmp	r3, #0
 80047e8:	d002      	beq.n	80047f0 <UART_SetConfig+0x4fc>
 80047ea:	2b02      	cmp	r3, #2
 80047ec:	d005      	beq.n	80047fa <UART_SetConfig+0x506>
 80047ee:	e010      	b.n	8004812 <UART_SetConfig+0x51e>
    {
      case UART_CLOCKSOURCE_PCLK1:
        pclk = HAL_RCC_GetPCLK1Freq();
 80047f0:	f7ff f80e 	bl	8003810 <HAL_RCC_GetPCLK1Freq>
 80047f4:	0003      	movs	r3, r0
 80047f6:	637b      	str	r3, [r7, #52]	; 0x34
        break;
 80047f8:	e014      	b.n	8004824 <UART_SetConfig+0x530>
      case UART_CLOCKSOURCE_HSI:
        pclk = (uint32_t) HSI_VALUE;
 80047fa:	4b67      	ldr	r3, [pc, #412]	; (8004998 <UART_SetConfig+0x6a4>)
 80047fc:	637b      	str	r3, [r7, #52]	; 0x34
        break;
 80047fe:	e011      	b.n	8004824 <UART_SetConfig+0x530>
      case UART_CLOCKSOURCE_SYSCLK:
        pclk = HAL_RCC_GetSysClockFreq();
 8004800:	f7fe ff7a 	bl	80036f8 <HAL_RCC_GetSysClockFreq>
 8004804:	0003      	movs	r3, r0
 8004806:	637b      	str	r3, [r7, #52]	; 0x34
        break;
 8004808:	e00c      	b.n	8004824 <UART_SetConfig+0x530>
      case UART_CLOCKSOURCE_LSE:
        pclk = (uint32_t) LSE_VALUE;
 800480a:	2380      	movs	r3, #128	; 0x80
 800480c:	021b      	lsls	r3, r3, #8
 800480e:	637b      	str	r3, [r7, #52]	; 0x34
        break;
 8004810:	e008      	b.n	8004824 <UART_SetConfig+0x530>
      default:
        pclk = 0U;
 8004812:	2300      	movs	r3, #0
 8004814:	637b      	str	r3, [r7, #52]	; 0x34
        ret = HAL_ERROR;
 8004816:	231a      	movs	r3, #26
 8004818:	2220      	movs	r2, #32
 800481a:	189b      	adds	r3, r3, r2
 800481c:	19db      	adds	r3, r3, r7
 800481e:	2201      	movs	r2, #1
 8004820:	701a      	strb	r2, [r3, #0]
        break;
 8004822:	46c0      	nop			; (mov r8, r8)
    }

    /* USARTDIV must be greater than or equal to 0d16 */
    if (pclk != 0U)
 8004824:	6b7b      	ldr	r3, [r7, #52]	; 0x34
 8004826:	2b00      	cmp	r3, #0
 8004828:	d100      	bne.n	800482c <UART_SetConfig+0x538>
 800482a:	e09a      	b.n	8004962 <UART_SetConfig+0x66e>
    {
      usartdiv = (uint32_t)(UART_DIV_SAMPLING8(pclk, huart->Init.BaudRate, huart->Init.ClockPrescaler));
 800482c:	6a7b      	ldr	r3, [r7, #36]	; 0x24
 800482e:	6a5a      	ldr	r2, [r3, #36]	; 0x24
 8004830:	4b5a      	ldr	r3, [pc, #360]	; (800499c <UART_SetConfig+0x6a8>)
 8004832:	0052      	lsls	r2, r2, #1
 8004834:	5ad3      	ldrh	r3, [r2, r3]
 8004836:	0019      	movs	r1, r3
 8004838:	6b78      	ldr	r0, [r7, #52]	; 0x34
 800483a:	f7fb fc63 	bl	8000104 <__udivsi3>
 800483e:	0003      	movs	r3, r0
 8004840:	005a      	lsls	r2, r3, #1
 8004842:	6a7b      	ldr	r3, [r7, #36]	; 0x24
 8004844:	685b      	ldr	r3, [r3, #4]
 8004846:	085b      	lsrs	r3, r3, #1
 8004848:	18d2      	adds	r2, r2, r3
 800484a:	6a7b      	ldr	r3, [r7, #36]	; 0x24
 800484c:	685b      	ldr	r3, [r3, #4]
 800484e:	0019      	movs	r1, r3
 8004850:	0010      	movs	r0, r2
 8004852:	f7fb fc57 	bl	8000104 <__udivsi3>
 8004856:	0003      	movs	r3, r0
 8004858:	633b      	str	r3, [r7, #48]	; 0x30
      if ((usartdiv >= UART_BRR_MIN) && (usartdiv <= UART_BRR_MAX))
 800485a:	6b3b      	ldr	r3, [r7, #48]	; 0x30
 800485c:	2b0f      	cmp	r3, #15
 800485e:	d921      	bls.n	80048a4 <UART_SetConfig+0x5b0>
 8004860:	6b3a      	ldr	r2, [r7, #48]	; 0x30
 8004862:	2380      	movs	r3, #128	; 0x80
 8004864:	025b      	lsls	r3, r3, #9
 8004866:	429a      	cmp	r2, r3
 8004868:	d21c      	bcs.n	80048a4 <UART_SetConfig+0x5b0>
      {
        brrtemp = (uint16_t)(usartdiv & 0xFFF0U);
 800486a:	6b3b      	ldr	r3, [r7, #48]	; 0x30
 800486c:	b29a      	uxth	r2, r3
 800486e:	200e      	movs	r0, #14
 8004870:	2420      	movs	r4, #32
 8004872:	1903      	adds	r3, r0, r4
 8004874:	19db      	adds	r3, r3, r7
 8004876:	210f      	movs	r1, #15
 8004878:	438a      	bics	r2, r1
 800487a:	801a      	strh	r2, [r3, #0]
        brrtemp |= (uint16_t)((usartdiv & (uint16_t)0x000FU) >> 1U);
 800487c:	6b3b      	ldr	r3, [r7, #48]	; 0x30
 800487e:	085b      	lsrs	r3, r3, #1
 8004880:	b29b      	uxth	r3, r3
 8004882:	2207      	movs	r2, #7
 8004884:	4013      	ands	r3, r2
 8004886:	b299      	uxth	r1, r3
 8004888:	1903      	adds	r3, r0, r4
 800488a:	19db      	adds	r3, r3, r7
 800488c:	1902      	adds	r2, r0, r4
 800488e:	19d2      	adds	r2, r2, r7
 8004890:	8812      	ldrh	r2, [r2, #0]
 8004892:	430a      	orrs	r2, r1
 8004894:	801a      	strh	r2, [r3, #0]
        huart->Instance->BRR = brrtemp;
 8004896:	6a7b      	ldr	r3, [r7, #36]	; 0x24
 8004898:	681b      	ldr	r3, [r3, #0]
 800489a:	1902      	adds	r2, r0, r4
 800489c:	19d2      	adds	r2, r2, r7
 800489e:	8812      	ldrh	r2, [r2, #0]
 80048a0:	60da      	str	r2, [r3, #12]
 80048a2:	e05e      	b.n	8004962 <UART_SetConfig+0x66e>
      }
      else
      {
        ret = HAL_ERROR;
 80048a4:	231a      	movs	r3, #26
 80048a6:	2220      	movs	r2, #32
 80048a8:	189b      	adds	r3, r3, r2
 80048aa:	19db      	adds	r3, r3, r7
 80048ac:	2201      	movs	r2, #1
 80048ae:	701a      	strb	r2, [r3, #0]
 80048b0:	e057      	b.n	8004962 <UART_SetConfig+0x66e>
      }
    }
  }
  else
  {
    switch (clocksource)
 80048b2:	231b      	movs	r3, #27
 80048b4:	2220      	movs	r2, #32
 80048b6:	189b      	adds	r3, r3, r2
 80048b8:	19db      	adds	r3, r3, r7
 80048ba:	781b      	ldrb	r3, [r3, #0]
 80048bc:	2b08      	cmp	r3, #8
 80048be:	d015      	beq.n	80048ec <UART_SetConfig+0x5f8>
 80048c0:	dc18      	bgt.n	80048f4 <UART_SetConfig+0x600>
 80048c2:	2b04      	cmp	r3, #4
 80048c4:	d00d      	beq.n	80048e2 <UART_SetConfig+0x5ee>
 80048c6:	dc15      	bgt.n	80048f4 <UART_SetConfig+0x600>
 80048c8:	2b00      	cmp	r3, #0
 80048ca:	d002      	beq.n	80048d2 <UART_SetConfig+0x5de>
 80048cc:	2b02      	cmp	r3, #2
 80048ce:	d005      	beq.n	80048dc <UART_SetConfig+0x5e8>
 80048d0:	e010      	b.n	80048f4 <UART_SetConfig+0x600>
    {
      case UART_CLOCKSOURCE_PCLK1:
        pclk = HAL_RCC_GetPCLK1Freq();
 80048d2:	f7fe ff9d 	bl	8003810 <HAL_RCC_GetPCLK1Freq>
 80048d6:	0003      	movs	r3, r0
 80048d8:	637b      	str	r3, [r7, #52]	; 0x34
        break;
 80048da:	e014      	b.n	8004906 <UART_SetConfig+0x612>
      case UART_CLOCKSOURCE_HSI:
        pclk = (uint32_t) HSI_VALUE;
 80048dc:	4b2e      	ldr	r3, [pc, #184]	; (8004998 <UART_SetConfig+0x6a4>)
 80048de:	637b      	str	r3, [r7, #52]	; 0x34
        break;
 80048e0:	e011      	b.n	8004906 <UART_SetConfig+0x612>
      case UART_CLOCKSOURCE_SYSCLK:
        pclk = HAL_RCC_GetSysClockFreq();
 80048e2:	f7fe ff09 	bl	80036f8 <HAL_RCC_GetSysClockFreq>
 80048e6:	0003      	movs	r3, r0
 80048e8:	637b      	str	r3, [r7, #52]	; 0x34
        break;
 80048ea:	e00c      	b.n	8004906 <UART_SetConfig+0x612>
      case UART_CLOCKSOURCE_LSE:
        pclk = (uint32_t) LSE_VALUE;
 80048ec:	2380      	movs	r3, #128	; 0x80
 80048ee:	021b      	lsls	r3, r3, #8
 80048f0:	637b      	str	r3, [r7, #52]	; 0x34
        break;
 80048f2:	e008      	b.n	8004906 <UART_SetConfig+0x612>
      default:
        pclk = 0U;
 80048f4:	2300      	movs	r3, #0
 80048f6:	637b      	str	r3, [r7, #52]	; 0x34
        ret = HAL_ERROR;
 80048f8:	231a      	movs	r3, #26
 80048fa:	2220      	movs	r2, #32
 80048fc:	189b      	adds	r3, r3, r2
 80048fe:	19db      	adds	r3, r3, r7
 8004900:	2201      	movs	r2, #1
 8004902:	701a      	strb	r2, [r3, #0]
        break;
 8004904:	46c0      	nop			; (mov r8, r8)
    }

    if (pclk != 0U)
 8004906:	6b7b      	ldr	r3, [r7, #52]	; 0x34
 8004908:	2b00      	cmp	r3, #0
 800490a:	d02a      	beq.n	8004962 <UART_SetConfig+0x66e>
    {
      /* USARTDIV must be greater than or equal to 0d16 */
      usartdiv = (uint32_t)(UART_DIV_SAMPLING16(pclk, huart->Init.BaudRate, huart->Init.ClockPrescaler));
 800490c:	6a7b      	ldr	r3, [r7, #36]	; 0x24
 800490e:	6a5a      	ldr	r2, [r3, #36]	; 0x24
 8004910:	4b22      	ldr	r3, [pc, #136]	; (800499c <UART_SetConfig+0x6a8>)
 8004912:	0052      	lsls	r2, r2, #1
 8004914:	5ad3      	ldrh	r3, [r2, r3]
 8004916:	0019      	movs	r1, r3
 8004918:	6b78      	ldr	r0, [r7, #52]	; 0x34
 800491a:	f7fb fbf3 	bl	8000104 <__udivsi3>
 800491e:	0003      	movs	r3, r0
 8004920:	001a      	movs	r2, r3
 8004922:	6a7b      	ldr	r3, [r7, #36]	; 0x24
 8004924:	685b      	ldr	r3, [r3, #4]
 8004926:	085b      	lsrs	r3, r3, #1
 8004928:	18d2      	adds	r2, r2, r3
 800492a:	6a7b      	ldr	r3, [r7, #36]	; 0x24
 800492c:	685b      	ldr	r3, [r3, #4]
 800492e:	0019      	movs	r1, r3
 8004930:	0010      	movs	r0, r2
 8004932:	f7fb fbe7 	bl	8000104 <__udivsi3>
 8004936:	0003      	movs	r3, r0
 8004938:	633b      	str	r3, [r7, #48]	; 0x30
      if ((usartdiv >= UART_BRR_MIN) && (usartdiv <= UART_BRR_MAX))
 800493a:	6b3b      	ldr	r3, [r7, #48]	; 0x30
 800493c:	2b0f      	cmp	r3, #15
 800493e:	d90a      	bls.n	8004956 <UART_SetConfig+0x662>
 8004940:	6b3a      	ldr	r2, [r7, #48]	; 0x30
 8004942:	2380      	movs	r3, #128	; 0x80
 8004944:	025b      	lsls	r3, r3, #9
 8004946:	429a      	cmp	r2, r3
 8004948:	d205      	bcs.n	8004956 <UART_SetConfig+0x662>
      {
        huart->Instance->BRR = (uint16_t)usartdiv;
 800494a:	6b3b      	ldr	r3, [r7, #48]	; 0x30
 800494c:	b29a      	uxth	r2, r3
 800494e:	6a7b      	ldr	r3, [r7, #36]	; 0x24
 8004950:	681b      	ldr	r3, [r3, #0]
 8004952:	60da      	str	r2, [r3, #12]
 8004954:	e005      	b.n	8004962 <UART_SetConfig+0x66e>
      }
      else
      {
        ret = HAL_ERROR;
 8004956:	231a      	movs	r3, #26
 8004958:	2220      	movs	r2, #32
 800495a:	189b      	adds	r3, r3, r2
 800495c:	19db      	adds	r3, r3, r7
 800495e:	2201      	movs	r2, #1
 8004960:	701a      	strb	r2, [r3, #0]
      }
    }
  }

  /* Initialize the number of data to process during RX/TX ISR execution */
  huart->NbTxDataToProcess = 1;
 8004962:	6a7b      	ldr	r3, [r7, #36]	; 0x24
 8004964:	226a      	movs	r2, #106	; 0x6a
 8004966:	2101      	movs	r1, #1
 8004968:	5299      	strh	r1, [r3, r2]
  huart->NbRxDataToProcess = 1;
 800496a:	6a7b      	ldr	r3, [r7, #36]	; 0x24
 800496c:	2268      	movs	r2, #104	; 0x68
 800496e:	2101      	movs	r1, #1
 8004970:	5299      	strh	r1, [r3, r2]

  /* Clear ISR function pointers */
  huart->RxISR = NULL;
 8004972:	6a7b      	ldr	r3, [r7, #36]	; 0x24
 8004974:	2200      	movs	r2, #0
 8004976:	675a      	str	r2, [r3, #116]	; 0x74
  huart->TxISR = NULL;
 8004978:	6a7b      	ldr	r3, [r7, #36]	; 0x24
 800497a:	2200      	movs	r2, #0
 800497c:	679a      	str	r2, [r3, #120]	; 0x78

  return ret;
 800497e:	231a      	movs	r3, #26
 8004980:	2220      	movs	r2, #32
 8004982:	189b      	adds	r3, r3, r2
 8004984:	19db      	adds	r3, r3, r7
 8004986:	781b      	ldrb	r3, [r3, #0]
}
 8004988:	0018      	movs	r0, r3
 800498a:	46bd      	mov	sp, r7
 800498c:	b010      	add	sp, #64	; 0x40
 800498e:	bdb0      	pop	{r4, r5, r7, pc}
 8004990:	40008000 	.word	0x40008000
 8004994:	40008400 	.word	0x40008400
 8004998:	00f42400 	.word	0x00f42400
 800499c:	08005060 	.word	0x08005060

080049a0 <UART_AdvFeatureConfig>:
  * @brief Configure the UART peripheral advanced features.
  * @param huart UART handle.
  * @retval None
  */
void UART_AdvFeatureConfig(UART_HandleTypeDef *huart)
{
 80049a0:	b580      	push	{r7, lr}
 80049a2:	b082      	sub	sp, #8
 80049a4:	af00      	add	r7, sp, #0
 80049a6:	6078      	str	r0, [r7, #4]
  /* Check whether the set of advanced features to configure is properly set */
  assert_param(IS_UART_ADVFEATURE_INIT(huart->AdvancedInit.AdvFeatureInit));

  /* if required, configure TX pin active level inversion */
  if (HAL_IS_BIT_SET(huart->AdvancedInit.AdvFeatureInit, UART_ADVFEATURE_TXINVERT_INIT))
 80049a8:	687b      	ldr	r3, [r7, #4]
 80049aa:	6a9b      	ldr	r3, [r3, #40]	; 0x28
 80049ac:	2201      	movs	r2, #1
 80049ae:	4013      	ands	r3, r2
 80049b0:	d00b      	beq.n	80049ca <UART_AdvFeatureConfig+0x2a>
  {
    assert_param(IS_UART_ADVFEATURE_TXINV(huart->AdvancedInit.TxPinLevelInvert));
    MODIFY_REG(huart->Instance->CR2, USART_CR2_TXINV, huart->AdvancedInit.TxPinLevelInvert);
 80049b2:	687b      	ldr	r3, [r7, #4]
 80049b4:	681b      	ldr	r3, [r3, #0]
 80049b6:	685b      	ldr	r3, [r3, #4]
 80049b8:	4a4a      	ldr	r2, [pc, #296]	; (8004ae4 <UART_AdvFeatureConfig+0x144>)
 80049ba:	4013      	ands	r3, r2
 80049bc:	0019      	movs	r1, r3
 80049be:	687b      	ldr	r3, [r7, #4]
 80049c0:	6ada      	ldr	r2, [r3, #44]	; 0x2c
 80049c2:	687b      	ldr	r3, [r7, #4]
 80049c4:	681b      	ldr	r3, [r3, #0]
 80049c6:	430a      	orrs	r2, r1
 80049c8:	605a      	str	r2, [r3, #4]
  }

  /* if required, configure RX pin active level inversion */
  if (HAL_IS_BIT_SET(huart->AdvancedInit.AdvFeatureInit, UART_ADVFEATURE_RXINVERT_INIT))
 80049ca:	687b      	ldr	r3, [r7, #4]
 80049cc:	6a9b      	ldr	r3, [r3, #40]	; 0x28
 80049ce:	2202      	movs	r2, #2
 80049d0:	4013      	ands	r3, r2
 80049d2:	d00b      	beq.n	80049ec <UART_AdvFeatureConfig+0x4c>
  {
    assert_param(IS_UART_ADVFEATURE_RXINV(huart->AdvancedInit.RxPinLevelInvert));
    MODIFY_REG(huart->Instance->CR2, USART_CR2_RXINV, huart->AdvancedInit.RxPinLevelInvert);
 80049d4:	687b      	ldr	r3, [r7, #4]
 80049d6:	681b      	ldr	r3, [r3, #0]
 80049d8:	685b      	ldr	r3, [r3, #4]
 80049da:	4a43      	ldr	r2, [pc, #268]	; (8004ae8 <UART_AdvFeatureConfig+0x148>)
 80049dc:	4013      	ands	r3, r2
 80049de:	0019      	movs	r1, r3
 80049e0:	687b      	ldr	r3, [r7, #4]
 80049e2:	6b1a      	ldr	r2, [r3, #48]	; 0x30
 80049e4:	687b      	ldr	r3, [r7, #4]
 80049e6:	681b      	ldr	r3, [r3, #0]
 80049e8:	430a      	orrs	r2, r1
 80049ea:	605a      	str	r2, [r3, #4]
  }

  /* if required, configure data inversion */
  if (HAL_IS_BIT_SET(huart->AdvancedInit.AdvFeatureInit, UART_ADVFEATURE_DATAINVERT_INIT))
 80049ec:	687b      	ldr	r3, [r7, #4]
 80049ee:	6a9b      	ldr	r3, [r3, #40]	; 0x28
 80049f0:	2204      	movs	r2, #4
 80049f2:	4013      	ands	r3, r2
 80049f4:	d00b      	beq.n	8004a0e <UART_AdvFeatureConfig+0x6e>
  {
    assert_param(IS_UART_ADVFEATURE_DATAINV(huart->AdvancedInit.DataInvert));
    MODIFY_REG(huart->Instance->CR2, USART_CR2_DATAINV, huart->AdvancedInit.DataInvert);
 80049f6:	687b      	ldr	r3, [r7, #4]
 80049f8:	681b      	ldr	r3, [r3, #0]
 80049fa:	685b      	ldr	r3, [r3, #4]
 80049fc:	4a3b      	ldr	r2, [pc, #236]	; (8004aec <UART_AdvFeatureConfig+0x14c>)
 80049fe:	4013      	ands	r3, r2
 8004a00:	0019      	movs	r1, r3
 8004a02:	687b      	ldr	r3, [r7, #4]
 8004a04:	6b5a      	ldr	r2, [r3, #52]	; 0x34
 8004a06:	687b      	ldr	r3, [r7, #4]
 8004a08:	681b      	ldr	r3, [r3, #0]
 8004a0a:	430a      	orrs	r2, r1
 8004a0c:	605a      	str	r2, [r3, #4]
  }

  /* if required, configure RX/TX pins swap */
  if (HAL_IS_BIT_SET(huart->AdvancedInit.AdvFeatureInit, UART_ADVFEATURE_SWAP_INIT))
 8004a0e:	687b      	ldr	r3, [r7, #4]
 8004a10:	6a9b      	ldr	r3, [r3, #40]	; 0x28
 8004a12:	2208      	movs	r2, #8
 8004a14:	4013      	ands	r3, r2
 8004a16:	d00b      	beq.n	8004a30 <UART_AdvFeatureConfig+0x90>
  {
    assert_param(IS_UART_ADVFEATURE_SWAP(huart->AdvancedInit.Swap));
    MODIFY_REG(huart->Instance->CR2, USART_CR2_SWAP, huart->AdvancedInit.Swap);
 8004a18:	687b      	ldr	r3, [r7, #4]
 8004a1a:	681b      	ldr	r3, [r3, #0]
 8004a1c:	685b      	ldr	r3, [r3, #4]
 8004a1e:	4a34      	ldr	r2, [pc, #208]	; (8004af0 <UART_AdvFeatureConfig+0x150>)
 8004a20:	4013      	ands	r3, r2
 8004a22:	0019      	movs	r1, r3
 8004a24:	687b      	ldr	r3, [r7, #4]
 8004a26:	6b9a      	ldr	r2, [r3, #56]	; 0x38
 8004a28:	687b      	ldr	r3, [r7, #4]
 8004a2a:	681b      	ldr	r3, [r3, #0]
 8004a2c:	430a      	orrs	r2, r1
 8004a2e:	605a      	str	r2, [r3, #4]
  }

  /* if required, configure RX overrun detection disabling */
  if (HAL_IS_BIT_SET(huart->AdvancedInit.AdvFeatureInit, UART_ADVFEATURE_RXOVERRUNDISABLE_INIT))
 8004a30:	687b      	ldr	r3, [r7, #4]
 8004a32:	6a9b      	ldr	r3, [r3, #40]	; 0x28
 8004a34:	2210      	movs	r2, #16
 8004a36:	4013      	ands	r3, r2
 8004a38:	d00b      	beq.n	8004a52 <UART_AdvFeatureConfig+0xb2>
  {
    assert_param(IS_UART_OVERRUN(huart->AdvancedInit.OverrunDisable));
    MODIFY_REG(huart->Instance->CR3, USART_CR3_OVRDIS, huart->AdvancedInit.OverrunDisable);
 8004a3a:	687b      	ldr	r3, [r7, #4]
 8004a3c:	681b      	ldr	r3, [r3, #0]
 8004a3e:	689b      	ldr	r3, [r3, #8]
 8004a40:	4a2c      	ldr	r2, [pc, #176]	; (8004af4 <UART_AdvFeatureConfig+0x154>)
 8004a42:	4013      	ands	r3, r2
 8004a44:	0019      	movs	r1, r3
 8004a46:	687b      	ldr	r3, [r7, #4]
 8004a48:	6bda      	ldr	r2, [r3, #60]	; 0x3c
 8004a4a:	687b      	ldr	r3, [r7, #4]
 8004a4c:	681b      	ldr	r3, [r3, #0]
 8004a4e:	430a      	orrs	r2, r1
 8004a50:	609a      	str	r2, [r3, #8]
  }

  /* if required, configure DMA disabling on reception error */
  if (HAL_IS_BIT_SET(huart->AdvancedInit.AdvFeatureInit, UART_ADVFEATURE_DMADISABLEONERROR_INIT))
 8004a52:	687b      	ldr	r3, [r7, #4]
 8004a54:	6a9b      	ldr	r3, [r3, #40]	; 0x28
 8004a56:	2220      	movs	r2, #32
 8004a58:	4013      	ands	r3, r2
 8004a5a:	d00b      	beq.n	8004a74 <UART_AdvFeatureConfig+0xd4>
  {
    assert_param(IS_UART_ADVFEATURE_DMAONRXERROR(huart->AdvancedInit.DMADisableonRxError));
    MODIFY_REG(huart->Instance->CR3, USART_CR3_DDRE, huart->AdvancedInit.DMADisableonRxError);
 8004a5c:	687b      	ldr	r3, [r7, #4]
 8004a5e:	681b      	ldr	r3, [r3, #0]
 8004a60:	689b      	ldr	r3, [r3, #8]
 8004a62:	4a25      	ldr	r2, [pc, #148]	; (8004af8 <UART_AdvFeatureConfig+0x158>)
 8004a64:	4013      	ands	r3, r2
 8004a66:	0019      	movs	r1, r3
 8004a68:	687b      	ldr	r3, [r7, #4]
 8004a6a:	6c1a      	ldr	r2, [r3, #64]	; 0x40
 8004a6c:	687b      	ldr	r3, [r7, #4]
 8004a6e:	681b      	ldr	r3, [r3, #0]
 8004a70:	430a      	orrs	r2, r1
 8004a72:	609a      	str	r2, [r3, #8]
  }

  /* if required, configure auto Baud rate detection scheme */
  if (HAL_IS_BIT_SET(huart->AdvancedInit.AdvFeatureInit, UART_ADVFEATURE_AUTOBAUDRATE_INIT))
 8004a74:	687b      	ldr	r3, [r7, #4]
 8004a76:	6a9b      	ldr	r3, [r3, #40]	; 0x28
 8004a78:	2240      	movs	r2, #64	; 0x40
 8004a7a:	4013      	ands	r3, r2
 8004a7c:	d01d      	beq.n	8004aba <UART_AdvFeatureConfig+0x11a>
  {
    assert_param(IS_USART_AUTOBAUDRATE_DETECTION_INSTANCE(huart->Instance));
    assert_param(IS_UART_ADVFEATURE_AUTOBAUDRATE(huart->AdvancedInit.AutoBaudRateEnable));
    MODIFY_REG(huart->Instance->CR2, USART_CR2_ABREN, huart->AdvancedInit.AutoBaudRateEnable);
 8004a7e:	687b      	ldr	r3, [r7, #4]
 8004a80:	681b      	ldr	r3, [r3, #0]
 8004a82:	685b      	ldr	r3, [r3, #4]
 8004a84:	4a1d      	ldr	r2, [pc, #116]	; (8004afc <UART_AdvFeatureConfig+0x15c>)
 8004a86:	4013      	ands	r3, r2
 8004a88:	0019      	movs	r1, r3
 8004a8a:	687b      	ldr	r3, [r7, #4]
 8004a8c:	6c5a      	ldr	r2, [r3, #68]	; 0x44
 8004a8e:	687b      	ldr	r3, [r7, #4]
 8004a90:	681b      	ldr	r3, [r3, #0]
 8004a92:	430a      	orrs	r2, r1
 8004a94:	605a      	str	r2, [r3, #4]
    /* set auto Baudrate detection parameters if detection is enabled */
    if (huart->AdvancedInit.AutoBaudRateEnable == UART_ADVFEATURE_AUTOBAUDRATE_ENABLE)
 8004a96:	687b      	ldr	r3, [r7, #4]
 8004a98:	6c5a      	ldr	r2, [r3, #68]	; 0x44
 8004a9a:	2380      	movs	r3, #128	; 0x80
 8004a9c:	035b      	lsls	r3, r3, #13
 8004a9e:	429a      	cmp	r2, r3
 8004aa0:	d10b      	bne.n	8004aba <UART_AdvFeatureConfig+0x11a>
    {
      assert_param(IS_UART_ADVFEATURE_AUTOBAUDRATEMODE(huart->AdvancedInit.AutoBaudRateMode));
      MODIFY_REG(huart->Instance->CR2, USART_CR2_ABRMODE, huart->AdvancedInit.AutoBaudRateMode);
 8004aa2:	687b      	ldr	r3, [r7, #4]
 8004aa4:	681b      	ldr	r3, [r3, #0]
 8004aa6:	685b      	ldr	r3, [r3, #4]
 8004aa8:	4a15      	ldr	r2, [pc, #84]	; (8004b00 <UART_AdvFeatureConfig+0x160>)
 8004aaa:	4013      	ands	r3, r2
 8004aac:	0019      	movs	r1, r3
 8004aae:	687b      	ldr	r3, [r7, #4]
 8004ab0:	6c9a      	ldr	r2, [r3, #72]	; 0x48
 8004ab2:	687b      	ldr	r3, [r7, #4]
 8004ab4:	681b      	ldr	r3, [r3, #0]
 8004ab6:	430a      	orrs	r2, r1
 8004ab8:	605a      	str	r2, [r3, #4]
    }
  }

  /* if required, configure MSB first on communication line */
  if (HAL_IS_BIT_SET(huart->AdvancedInit.AdvFeatureInit, UART_ADVFEATURE_MSBFIRST_INIT))
 8004aba:	687b      	ldr	r3, [r7, #4]
 8004abc:	6a9b      	ldr	r3, [r3, #40]	; 0x28
 8004abe:	2280      	movs	r2, #128	; 0x80
 8004ac0:	4013      	ands	r3, r2
 8004ac2:	d00b      	beq.n	8004adc <UART_AdvFeatureConfig+0x13c>
  {
    assert_param(IS_UART_ADVFEATURE_MSBFIRST(huart->AdvancedInit.MSBFirst));
    MODIFY_REG(huart->Instance->CR2, USART_CR2_MSBFIRST, huart->AdvancedInit.MSBFirst);
 8004ac4:	687b      	ldr	r3, [r7, #4]
 8004ac6:	681b      	ldr	r3, [r3, #0]
 8004ac8:	685b      	ldr	r3, [r3, #4]
 8004aca:	4a0e      	ldr	r2, [pc, #56]	; (8004b04 <UART_AdvFeatureConfig+0x164>)
 8004acc:	4013      	ands	r3, r2
 8004ace:	0019      	movs	r1, r3
 8004ad0:	687b      	ldr	r3, [r7, #4]
 8004ad2:	6cda      	ldr	r2, [r3, #76]	; 0x4c
 8004ad4:	687b      	ldr	r3, [r7, #4]
 8004ad6:	681b      	ldr	r3, [r3, #0]
 8004ad8:	430a      	orrs	r2, r1
 8004ada:	605a      	str	r2, [r3, #4]
  }
}
 8004adc:	46c0      	nop			; (mov r8, r8)
 8004ade:	46bd      	mov	sp, r7
 8004ae0:	b002      	add	sp, #8
 8004ae2:	bd80      	pop	{r7, pc}
 8004ae4:	fffdffff 	.word	0xfffdffff
 8004ae8:	fffeffff 	.word	0xfffeffff
 8004aec:	fffbffff 	.word	0xfffbffff
 8004af0:	ffff7fff 	.word	0xffff7fff
 8004af4:	ffffefff 	.word	0xffffefff
 8004af8:	ffffdfff 	.word	0xffffdfff
 8004afc:	ffefffff 	.word	0xffefffff
 8004b00:	ff9fffff 	.word	0xff9fffff
 8004b04:	fff7ffff 	.word	0xfff7ffff

08004b08 <UART_CheckIdleState>:
  * @brief Check the UART Idle State.
  * @param huart UART handle.
  * @retval HAL status
  */
HAL_StatusTypeDef UART_CheckIdleState(UART_HandleTypeDef *huart)
{
 8004b08:	b580      	push	{r7, lr}
 8004b0a:	b086      	sub	sp, #24
 8004b0c:	af02      	add	r7, sp, #8
 8004b0e:	6078      	str	r0, [r7, #4]
  uint32_t tickstart;

  /* Initialize the UART ErrorCode */
  huart->ErrorCode = HAL_UART_ERROR_NONE;
 8004b10:	687b      	ldr	r3, [r7, #4]
 8004b12:	2290      	movs	r2, #144	; 0x90
 8004b14:	2100      	movs	r1, #0
 8004b16:	5099      	str	r1, [r3, r2]

  /* Init tickstart for timeout management */
  tickstart = HAL_GetTick();
 8004b18:	f7fc ff5a 	bl	80019d0 <HAL_GetTick>
 8004b1c:	0003      	movs	r3, r0
 8004b1e:	60fb      	str	r3, [r7, #12]

  /* Check if the Transmitter is enabled */
  if ((huart->Instance->CR1 & USART_CR1_TE) == USART_CR1_TE)
 8004b20:	687b      	ldr	r3, [r7, #4]
 8004b22:	681b      	ldr	r3, [r3, #0]
 8004b24:	681b      	ldr	r3, [r3, #0]
 8004b26:	2208      	movs	r2, #8
 8004b28:	4013      	ands	r3, r2
 8004b2a:	2b08      	cmp	r3, #8
 8004b2c:	d10c      	bne.n	8004b48 <UART_CheckIdleState+0x40>
  {
    /* Wait until TEACK flag is set */
    if (UART_WaitOnFlagUntilTimeout(huart, USART_ISR_TEACK, RESET, tickstart, HAL_UART_TIMEOUT_VALUE) != HAL_OK)
 8004b2e:	68fb      	ldr	r3, [r7, #12]
 8004b30:	2280      	movs	r2, #128	; 0x80
 8004b32:	0391      	lsls	r1, r2, #14
 8004b34:	6878      	ldr	r0, [r7, #4]
 8004b36:	4a1a      	ldr	r2, [pc, #104]	; (8004ba0 <UART_CheckIdleState+0x98>)
 8004b38:	9200      	str	r2, [sp, #0]
 8004b3a:	2200      	movs	r2, #0
 8004b3c:	f000 f832 	bl	8004ba4 <UART_WaitOnFlagUntilTimeout>
 8004b40:	1e03      	subs	r3, r0, #0
 8004b42:	d001      	beq.n	8004b48 <UART_CheckIdleState+0x40>
    {
      /* Timeout occurred */
      return HAL_TIMEOUT;
 8004b44:	2303      	movs	r3, #3
 8004b46:	e026      	b.n	8004b96 <UART_CheckIdleState+0x8e>
    }
  }

  /* Check if the Receiver is enabled */
  if ((huart->Instance->CR1 & USART_CR1_RE) == USART_CR1_RE)
 8004b48:	687b      	ldr	r3, [r7, #4]
 8004b4a:	681b      	ldr	r3, [r3, #0]
 8004b4c:	681b      	ldr	r3, [r3, #0]
 8004b4e:	2204      	movs	r2, #4
 8004b50:	4013      	ands	r3, r2
 8004b52:	2b04      	cmp	r3, #4
 8004b54:	d10c      	bne.n	8004b70 <UART_CheckIdleState+0x68>
  {
    /* Wait until REACK flag is set */
    if (UART_WaitOnFlagUntilTimeout(huart, USART_ISR_REACK, RESET, tickstart, HAL_UART_TIMEOUT_VALUE) != HAL_OK)
 8004b56:	68fb      	ldr	r3, [r7, #12]
 8004b58:	2280      	movs	r2, #128	; 0x80
 8004b5a:	03d1      	lsls	r1, r2, #15
 8004b5c:	6878      	ldr	r0, [r7, #4]
 8004b5e:	4a10      	ldr	r2, [pc, #64]	; (8004ba0 <UART_CheckIdleState+0x98>)
 8004b60:	9200      	str	r2, [sp, #0]
 8004b62:	2200      	movs	r2, #0
 8004b64:	f000 f81e 	bl	8004ba4 <UART_WaitOnFlagUntilTimeout>
 8004b68:	1e03      	subs	r3, r0, #0
 8004b6a:	d001      	beq.n	8004b70 <UART_CheckIdleState+0x68>
    {
      /* Timeout occurred */
      return HAL_TIMEOUT;
 8004b6c:	2303      	movs	r3, #3
 8004b6e:	e012      	b.n	8004b96 <UART_CheckIdleState+0x8e>
    }
  }

  /* Initialize the UART State */
  huart->gState = HAL_UART_STATE_READY;
 8004b70:	687b      	ldr	r3, [r7, #4]
 8004b72:	2288      	movs	r2, #136	; 0x88
 8004b74:	2120      	movs	r1, #32
 8004b76:	5099      	str	r1, [r3, r2]
  huart->RxState = HAL_UART_STATE_READY;
 8004b78:	687b      	ldr	r3, [r7, #4]
 8004b7a:	228c      	movs	r2, #140	; 0x8c
 8004b7c:	2120      	movs	r1, #32
 8004b7e:	5099      	str	r1, [r3, r2]
  huart->ReceptionType = HAL_UART_RECEPTION_STANDARD;
 8004b80:	687b      	ldr	r3, [r7, #4]
 8004b82:	2200      	movs	r2, #0
 8004b84:	66da      	str	r2, [r3, #108]	; 0x6c
  huart->RxEventType = HAL_UART_RXEVENT_TC;
 8004b86:	687b      	ldr	r3, [r7, #4]
 8004b88:	2200      	movs	r2, #0
 8004b8a:	671a      	str	r2, [r3, #112]	; 0x70

  __HAL_UNLOCK(huart);
 8004b8c:	687b      	ldr	r3, [r7, #4]
 8004b8e:	2284      	movs	r2, #132	; 0x84
 8004b90:	2100      	movs	r1, #0
 8004b92:	5499      	strb	r1, [r3, r2]

  return HAL_OK;
 8004b94:	2300      	movs	r3, #0
}
 8004b96:	0018      	movs	r0, r3
 8004b98:	46bd      	mov	sp, r7
 8004b9a:	b004      	add	sp, #16
 8004b9c:	bd80      	pop	{r7, pc}
 8004b9e:	46c0      	nop			; (mov r8, r8)
 8004ba0:	01ffffff 	.word	0x01ffffff

08004ba4 <UART_WaitOnFlagUntilTimeout>:
  * @param Timeout   Timeout duration
  * @retval HAL status
  */
HAL_StatusTypeDef UART_WaitOnFlagUntilTimeout(UART_HandleTypeDef *huart, uint32_t Flag, FlagStatus Status,
                                              uint32_t Tickstart, uint32_t Timeout)
{
 8004ba4:	b580      	push	{r7, lr}
 8004ba6:	b094      	sub	sp, #80	; 0x50
 8004ba8:	af00      	add	r7, sp, #0
 8004baa:	60f8      	str	r0, [r7, #12]
 8004bac:	60b9      	str	r1, [r7, #8]
 8004bae:	603b      	str	r3, [r7, #0]
 8004bb0:	1dfb      	adds	r3, r7, #7
 8004bb2:	701a      	strb	r2, [r3, #0]
  /* Wait until flag is set */
  while ((__HAL_UART_GET_FLAG(huart, Flag) ? SET : RESET) == Status)
 8004bb4:	e0a7      	b.n	8004d06 <UART_WaitOnFlagUntilTimeout+0x162>
  {
    /* Check for the Timeout */
    if (Timeout != HAL_MAX_DELAY)
 8004bb6:	6dbb      	ldr	r3, [r7, #88]	; 0x58
 8004bb8:	3301      	adds	r3, #1
 8004bba:	d100      	bne.n	8004bbe <UART_WaitOnFlagUntilTimeout+0x1a>
 8004bbc:	e0a3      	b.n	8004d06 <UART_WaitOnFlagUntilTimeout+0x162>
    {
      if (((HAL_GetTick() - Tickstart) > Timeout) || (Timeout == 0U))
 8004bbe:	f7fc ff07 	bl	80019d0 <HAL_GetTick>
 8004bc2:	0002      	movs	r2, r0
 8004bc4:	683b      	ldr	r3, [r7, #0]
 8004bc6:	1ad3      	subs	r3, r2, r3
 8004bc8:	6dba      	ldr	r2, [r7, #88]	; 0x58
 8004bca:	429a      	cmp	r2, r3
 8004bcc:	d302      	bcc.n	8004bd4 <UART_WaitOnFlagUntilTimeout+0x30>
 8004bce:	6dbb      	ldr	r3, [r7, #88]	; 0x58
 8004bd0:	2b00      	cmp	r3, #0
 8004bd2:	d13f      	bne.n	8004c54 <UART_WaitOnFlagUntilTimeout+0xb0>
 */
__STATIC_FORCEINLINE uint32_t __get_PRIMASK(void)
{
  uint32_t result;

  __ASM volatile ("MRS %0, primask" : "=r" (result) :: "memory");
 8004bd4:	f3ef 8310 	mrs	r3, PRIMASK
 8004bd8:	62bb      	str	r3, [r7, #40]	; 0x28
  return(result);
 8004bda:	6abb      	ldr	r3, [r7, #40]	; 0x28
      {
        /* Disable TXE, RXNE, PE and ERR (Frame error, noise error, overrun error)
           interrupts for the interrupt process */
        ATOMIC_CLEAR_BIT(huart->Instance->CR1, (USART_CR1_RXNEIE_RXFNEIE | USART_CR1_PEIE |
 8004bdc:	647b      	str	r3, [r7, #68]	; 0x44
 8004bde:	2301      	movs	r3, #1
 8004be0:	62fb      	str	r3, [r7, #44]	; 0x2c
  \details Assigns the given value to the Priority Mask Register.
  \param [in]    priMask  Priority Mask
 */
__STATIC_FORCEINLINE void __set_PRIMASK(uint32_t priMask)
{
  __ASM volatile ("MSR primask, %0" : : "r" (priMask) : "memory");
 8004be2:	6afb      	ldr	r3, [r7, #44]	; 0x2c
 8004be4:	f383 8810 	msr	PRIMASK, r3
}
 8004be8:	46c0      	nop			; (mov r8, r8)
 8004bea:	68fb      	ldr	r3, [r7, #12]
 8004bec:	681b      	ldr	r3, [r3, #0]
 8004bee:	681a      	ldr	r2, [r3, #0]
 8004bf0:	68fb      	ldr	r3, [r7, #12]
 8004bf2:	681b      	ldr	r3, [r3, #0]
 8004bf4:	494e      	ldr	r1, [pc, #312]	; (8004d30 <UART_WaitOnFlagUntilTimeout+0x18c>)
 8004bf6:	400a      	ands	r2, r1
 8004bf8:	601a      	str	r2, [r3, #0]
 8004bfa:	6c7b      	ldr	r3, [r7, #68]	; 0x44
 8004bfc:	633b      	str	r3, [r7, #48]	; 0x30
  __ASM volatile ("MSR primask, %0" : : "r" (priMask) : "memory");
 8004bfe:	6b3b      	ldr	r3, [r7, #48]	; 0x30
 8004c00:	f383 8810 	msr	PRIMASK, r3
}
 8004c04:	46c0      	nop			; (mov r8, r8)
  __ASM volatile ("MRS %0, primask" : "=r" (result) :: "memory");
 8004c06:	f3ef 8310 	mrs	r3, PRIMASK
 8004c0a:	637b      	str	r3, [r7, #52]	; 0x34
  return(result);
 8004c0c:	6b7b      	ldr	r3, [r7, #52]	; 0x34
                                                USART_CR1_TXEIE_TXFNFIE));
        ATOMIC_CLEAR_BIT(huart->Instance->CR3, USART_CR3_EIE);
 8004c0e:	643b      	str	r3, [r7, #64]	; 0x40
 8004c10:	2301      	movs	r3, #1
 8004c12:	63bb      	str	r3, [r7, #56]	; 0x38
  __ASM volatile ("MSR primask, %0" : : "r" (priMask) : "memory");
 8004c14:	6bbb      	ldr	r3, [r7, #56]	; 0x38
 8004c16:	f383 8810 	msr	PRIMASK, r3
}
 8004c1a:	46c0      	nop			; (mov r8, r8)
 8004c1c:	68fb      	ldr	r3, [r7, #12]
 8004c1e:	681b      	ldr	r3, [r3, #0]
 8004c20:	689a      	ldr	r2, [r3, #8]
 8004c22:	68fb      	ldr	r3, [r7, #12]
 8004c24:	681b      	ldr	r3, [r3, #0]
 8004c26:	2101      	movs	r1, #1
 8004c28:	438a      	bics	r2, r1
 8004c2a:	609a      	str	r2, [r3, #8]
 8004c2c:	6c3b      	ldr	r3, [r7, #64]	; 0x40
 8004c2e:	63fb      	str	r3, [r7, #60]	; 0x3c
  __ASM volatile ("MSR primask, %0" : : "r" (priMask) : "memory");
 8004c30:	6bfb      	ldr	r3, [r7, #60]	; 0x3c
 8004c32:	f383 8810 	msr	PRIMASK, r3
}
 8004c36:	46c0      	nop			; (mov r8, r8)

        huart->gState = HAL_UART_STATE_READY;
 8004c38:	68fb      	ldr	r3, [r7, #12]
 8004c3a:	2288      	movs	r2, #136	; 0x88
 8004c3c:	2120      	movs	r1, #32
 8004c3e:	5099      	str	r1, [r3, r2]
        huart->RxState = HAL_UART_STATE_READY;
 8004c40:	68fb      	ldr	r3, [r7, #12]
 8004c42:	228c      	movs	r2, #140	; 0x8c
 8004c44:	2120      	movs	r1, #32
 8004c46:	5099      	str	r1, [r3, r2]

        __HAL_UNLOCK(huart);
 8004c48:	68fb      	ldr	r3, [r7, #12]
 8004c4a:	2284      	movs	r2, #132	; 0x84
 8004c4c:	2100      	movs	r1, #0
 8004c4e:	5499      	strb	r1, [r3, r2]

        return HAL_TIMEOUT;
 8004c50:	2303      	movs	r3, #3
 8004c52:	e069      	b.n	8004d28 <UART_WaitOnFlagUntilTimeout+0x184>
      }

      if (READ_BIT(huart->Instance->CR1, USART_CR1_RE) != 0U)
 8004c54:	68fb      	ldr	r3, [r7, #12]
 8004c56:	681b      	ldr	r3, [r3, #0]
 8004c58:	681b      	ldr	r3, [r3, #0]
 8004c5a:	2204      	movs	r2, #4
 8004c5c:	4013      	ands	r3, r2
 8004c5e:	d052      	beq.n	8004d06 <UART_WaitOnFlagUntilTimeout+0x162>
      {
        if (__HAL_UART_GET_FLAG(huart, UART_FLAG_RTOF) == SET)
 8004c60:	68fb      	ldr	r3, [r7, #12]
 8004c62:	681b      	ldr	r3, [r3, #0]
 8004c64:	69da      	ldr	r2, [r3, #28]
 8004c66:	2380      	movs	r3, #128	; 0x80
 8004c68:	011b      	lsls	r3, r3, #4
 8004c6a:	401a      	ands	r2, r3
 8004c6c:	2380      	movs	r3, #128	; 0x80
 8004c6e:	011b      	lsls	r3, r3, #4
 8004c70:	429a      	cmp	r2, r3
 8004c72:	d148      	bne.n	8004d06 <UART_WaitOnFlagUntilTimeout+0x162>
        {
          /* Clear Receiver Timeout flag*/
          __HAL_UART_CLEAR_FLAG(huart, UART_CLEAR_RTOF);
 8004c74:	68fb      	ldr	r3, [r7, #12]
 8004c76:	681b      	ldr	r3, [r3, #0]
 8004c78:	2280      	movs	r2, #128	; 0x80
 8004c7a:	0112      	lsls	r2, r2, #4
 8004c7c:	621a      	str	r2, [r3, #32]
  __ASM volatile ("MRS %0, primask" : "=r" (result) :: "memory");
 8004c7e:	f3ef 8310 	mrs	r3, PRIMASK
 8004c82:	613b      	str	r3, [r7, #16]
  return(result);
 8004c84:	693b      	ldr	r3, [r7, #16]

          /* Disable TXE, RXNE, PE and ERR (Frame error, noise error, overrun error)
             interrupts for the interrupt process */
          ATOMIC_CLEAR_BIT(huart->Instance->CR1, (USART_CR1_RXNEIE_RXFNEIE | USART_CR1_PEIE |
 8004c86:	64fb      	str	r3, [r7, #76]	; 0x4c
 8004c88:	2301      	movs	r3, #1
 8004c8a:	617b      	str	r3, [r7, #20]
  __ASM volatile ("MSR primask, %0" : : "r" (priMask) : "memory");
 8004c8c:	697b      	ldr	r3, [r7, #20]
 8004c8e:	f383 8810 	msr	PRIMASK, r3
}
 8004c92:	46c0      	nop			; (mov r8, r8)
 8004c94:	68fb      	ldr	r3, [r7, #12]
 8004c96:	681b      	ldr	r3, [r3, #0]
 8004c98:	681a      	ldr	r2, [r3, #0]
 8004c9a:	68fb      	ldr	r3, [r7, #12]
 8004c9c:	681b      	ldr	r3, [r3, #0]
 8004c9e:	4924      	ldr	r1, [pc, #144]	; (8004d30 <UART_WaitOnFlagUntilTimeout+0x18c>)
 8004ca0:	400a      	ands	r2, r1
 8004ca2:	601a      	str	r2, [r3, #0]
 8004ca4:	6cfb      	ldr	r3, [r7, #76]	; 0x4c
 8004ca6:	61bb      	str	r3, [r7, #24]
  __ASM volatile ("MSR primask, %0" : : "r" (priMask) : "memory");
 8004ca8:	69bb      	ldr	r3, [r7, #24]
 8004caa:	f383 8810 	msr	PRIMASK, r3
}
 8004cae:	46c0      	nop			; (mov r8, r8)
  __ASM volatile ("MRS %0, primask" : "=r" (result) :: "memory");
 8004cb0:	f3ef 8310 	mrs	r3, PRIMASK
 8004cb4:	61fb      	str	r3, [r7, #28]
  return(result);
 8004cb6:	69fb      	ldr	r3, [r7, #28]
                                                  USART_CR1_TXEIE_TXFNFIE));
          ATOMIC_CLEAR_BIT(huart->Instance->CR3, USART_CR3_EIE);
 8004cb8:	64bb      	str	r3, [r7, #72]	; 0x48
 8004cba:	2301      	movs	r3, #1
 8004cbc:	623b      	str	r3, [r7, #32]
  __ASM volatile ("MSR primask, %0" : : "r" (priMask) : "memory");
 8004cbe:	6a3b      	ldr	r3, [r7, #32]
 8004cc0:	f383 8810 	msr	PRIMASK, r3
}
 8004cc4:	46c0      	nop			; (mov r8, r8)
 8004cc6:	68fb      	ldr	r3, [r7, #12]
 8004cc8:	681b      	ldr	r3, [r3, #0]
 8004cca:	689a      	ldr	r2, [r3, #8]
 8004ccc:	68fb      	ldr	r3, [r7, #12]
 8004cce:	681b      	ldr	r3, [r3, #0]
 8004cd0:	2101      	movs	r1, #1
 8004cd2:	438a      	bics	r2, r1
 8004cd4:	609a      	str	r2, [r3, #8]
 8004cd6:	6cbb      	ldr	r3, [r7, #72]	; 0x48
 8004cd8:	627b      	str	r3, [r7, #36]	; 0x24
  __ASM volatile ("MSR primask, %0" : : "r" (priMask) : "memory");
 8004cda:	6a7b      	ldr	r3, [r7, #36]	; 0x24
 8004cdc:	f383 8810 	msr	PRIMASK, r3
}
 8004ce0:	46c0      	nop			; (mov r8, r8)

          huart->gState = HAL_UART_STATE_READY;
 8004ce2:	68fb      	ldr	r3, [r7, #12]
 8004ce4:	2288      	movs	r2, #136	; 0x88
 8004ce6:	2120      	movs	r1, #32
 8004ce8:	5099      	str	r1, [r3, r2]
          huart->RxState = HAL_UART_STATE_READY;
 8004cea:	68fb      	ldr	r3, [r7, #12]
 8004cec:	228c      	movs	r2, #140	; 0x8c
 8004cee:	2120      	movs	r1, #32
 8004cf0:	5099      	str	r1, [r3, r2]
          huart->ErrorCode = HAL_UART_ERROR_RTO;
 8004cf2:	68fb      	ldr	r3, [r7, #12]
 8004cf4:	2290      	movs	r2, #144	; 0x90
 8004cf6:	2120      	movs	r1, #32
 8004cf8:	5099      	str	r1, [r3, r2]

          /* Process Unlocked */
          __HAL_UNLOCK(huart);
 8004cfa:	68fb      	ldr	r3, [r7, #12]
 8004cfc:	2284      	movs	r2, #132	; 0x84
 8004cfe:	2100      	movs	r1, #0
 8004d00:	5499      	strb	r1, [r3, r2]

          return HAL_TIMEOUT;
 8004d02:	2303      	movs	r3, #3
 8004d04:	e010      	b.n	8004d28 <UART_WaitOnFlagUntilTimeout+0x184>
  while ((__HAL_UART_GET_FLAG(huart, Flag) ? SET : RESET) == Status)
 8004d06:	68fb      	ldr	r3, [r7, #12]
 8004d08:	681b      	ldr	r3, [r3, #0]
 8004d0a:	69db      	ldr	r3, [r3, #28]
 8004d0c:	68ba      	ldr	r2, [r7, #8]
 8004d0e:	4013      	ands	r3, r2
 8004d10:	68ba      	ldr	r2, [r7, #8]
 8004d12:	1ad3      	subs	r3, r2, r3
 8004d14:	425a      	negs	r2, r3
 8004d16:	4153      	adcs	r3, r2
 8004d18:	b2db      	uxtb	r3, r3
 8004d1a:	001a      	movs	r2, r3
 8004d1c:	1dfb      	adds	r3, r7, #7
 8004d1e:	781b      	ldrb	r3, [r3, #0]
 8004d20:	429a      	cmp	r2, r3
 8004d22:	d100      	bne.n	8004d26 <UART_WaitOnFlagUntilTimeout+0x182>
 8004d24:	e747      	b.n	8004bb6 <UART_WaitOnFlagUntilTimeout+0x12>
        }
      }
    }
  }
  return HAL_OK;
 8004d26:	2300      	movs	r3, #0
}
 8004d28:	0018      	movs	r0, r3
 8004d2a:	46bd      	mov	sp, r7
 8004d2c:	b014      	add	sp, #80	; 0x50
 8004d2e:	bd80      	pop	{r7, pc}
 8004d30:	fffffe5f 	.word	0xfffffe5f

08004d34 <HAL_UARTEx_DisableFifoMode>:
  * @brief  Disable the FIFO mode.
  * @param huart      UART handle.
  * @retval HAL status
  */
HAL_StatusTypeDef HAL_UARTEx_DisableFifoMode(UART_HandleTypeDef *huart)
{
 8004d34:	b580      	push	{r7, lr}
 8004d36:	b084      	sub	sp, #16
 8004d38:	af00      	add	r7, sp, #0
 8004d3a:	6078      	str	r0, [r7, #4]

  /* Check parameters */
  assert_param(IS_UART_FIFO_INSTANCE(huart->Instance));

  /* Process Locked */
  __HAL_LOCK(huart);
 8004d3c:	687b      	ldr	r3, [r7, #4]
 8004d3e:	2284      	movs	r2, #132	; 0x84
 8004d40:	5c9b      	ldrb	r3, [r3, r2]
 8004d42:	2b01      	cmp	r3, #1
 8004d44:	d101      	bne.n	8004d4a <HAL_UARTEx_DisableFifoMode+0x16>
 8004d46:	2302      	movs	r3, #2
 8004d48:	e027      	b.n	8004d9a <HAL_UARTEx_DisableFifoMode+0x66>
 8004d4a:	687b      	ldr	r3, [r7, #4]
 8004d4c:	2284      	movs	r2, #132	; 0x84
 8004d4e:	2101      	movs	r1, #1
 8004d50:	5499      	strb	r1, [r3, r2]

  huart->gState = HAL_UART_STATE_BUSY;
 8004d52:	687b      	ldr	r3, [r7, #4]
 8004d54:	2288      	movs	r2, #136	; 0x88
 8004d56:	2124      	movs	r1, #36	; 0x24
 8004d58:	5099      	str	r1, [r3, r2]

  /* Save actual UART configuration */
  tmpcr1 = READ_REG(huart->Instance->CR1);
 8004d5a:	687b      	ldr	r3, [r7, #4]
 8004d5c:	681b      	ldr	r3, [r3, #0]
 8004d5e:	681b      	ldr	r3, [r3, #0]
 8004d60:	60fb      	str	r3, [r7, #12]

  /* Disable UART */
  __HAL_UART_DISABLE(huart);
 8004d62:	687b      	ldr	r3, [r7, #4]
 8004d64:	681b      	ldr	r3, [r3, #0]
 8004d66:	681a      	ldr	r2, [r3, #0]
 8004d68:	687b      	ldr	r3, [r7, #4]
 8004d6a:	681b      	ldr	r3, [r3, #0]
 8004d6c:	2101      	movs	r1, #1
 8004d6e:	438a      	bics	r2, r1
 8004d70:	601a      	str	r2, [r3, #0]

  /* Enable FIFO mode */
  CLEAR_BIT(tmpcr1, USART_CR1_FIFOEN);
 8004d72:	68fb      	ldr	r3, [r7, #12]
 8004d74:	4a0b      	ldr	r2, [pc, #44]	; (8004da4 <HAL_UARTEx_DisableFifoMode+0x70>)
 8004d76:	4013      	ands	r3, r2
 8004d78:	60fb      	str	r3, [r7, #12]
  huart->FifoMode = UART_FIFOMODE_DISABLE;
 8004d7a:	687b      	ldr	r3, [r7, #4]
 8004d7c:	2200      	movs	r2, #0
 8004d7e:	665a      	str	r2, [r3, #100]	; 0x64

  /* Restore UART configuration */
  WRITE_REG(huart->Instance->CR1, tmpcr1);
 8004d80:	687b      	ldr	r3, [r7, #4]
 8004d82:	681b      	ldr	r3, [r3, #0]
 8004d84:	68fa      	ldr	r2, [r7, #12]
 8004d86:	601a      	str	r2, [r3, #0]

  huart->gState = HAL_UART_STATE_READY;
 8004d88:	687b      	ldr	r3, [r7, #4]
 8004d8a:	2288      	movs	r2, #136	; 0x88
 8004d8c:	2120      	movs	r1, #32
 8004d8e:	5099      	str	r1, [r3, r2]

  /* Process Unlocked */
  __HAL_UNLOCK(huart);
 8004d90:	687b      	ldr	r3, [r7, #4]
 8004d92:	2284      	movs	r2, #132	; 0x84
 8004d94:	2100      	movs	r1, #0
 8004d96:	5499      	strb	r1, [r3, r2]

  return HAL_OK;
 8004d98:	2300      	movs	r3, #0
}
 8004d9a:	0018      	movs	r0, r3
 8004d9c:	46bd      	mov	sp, r7
 8004d9e:	b004      	add	sp, #16
 8004da0:	bd80      	pop	{r7, pc}
 8004da2:	46c0      	nop			; (mov r8, r8)
 8004da4:	dfffffff 	.word	0xdfffffff

08004da8 <HAL_UARTEx_SetTxFifoThreshold>:
  *            @arg @ref UART_TXFIFO_THRESHOLD_7_8
  *            @arg @ref UART_TXFIFO_THRESHOLD_8_8
  * @retval HAL status
  */
HAL_StatusTypeDef HAL_UARTEx_SetTxFifoThreshold(UART_HandleTypeDef *huart, uint32_t Threshold)
{
 8004da8:	b580      	push	{r7, lr}
 8004daa:	b084      	sub	sp, #16
 8004dac:	af00      	add	r7, sp, #0
 8004dae:	6078      	str	r0, [r7, #4]
 8004db0:	6039      	str	r1, [r7, #0]
  /* Check parameters */
  assert_param(IS_UART_FIFO_INSTANCE(huart->Instance));
  assert_param(IS_UART_TXFIFO_THRESHOLD(Threshold));

  /* Process Locked */
  __HAL_LOCK(huart);
 8004db2:	687b      	ldr	r3, [r7, #4]
 8004db4:	2284      	movs	r2, #132	; 0x84
 8004db6:	5c9b      	ldrb	r3, [r3, r2]
 8004db8:	2b01      	cmp	r3, #1
 8004dba:	d101      	bne.n	8004dc0 <HAL_UARTEx_SetTxFifoThreshold+0x18>
 8004dbc:	2302      	movs	r3, #2
 8004dbe:	e02e      	b.n	8004e1e <HAL_UARTEx_SetTxFifoThreshold+0x76>
 8004dc0:	687b      	ldr	r3, [r7, #4]
 8004dc2:	2284      	movs	r2, #132	; 0x84
 8004dc4:	2101      	movs	r1, #1
 8004dc6:	5499      	strb	r1, [r3, r2]

  huart->gState = HAL_UART_STATE_BUSY;
 8004dc8:	687b      	ldr	r3, [r7, #4]
 8004dca:	2288      	movs	r2, #136	; 0x88
 8004dcc:	2124      	movs	r1, #36	; 0x24
 8004dce:	5099      	str	r1, [r3, r2]

  /* Save actual UART configuration */
  tmpcr1 = READ_REG(huart->Instance->CR1);
 8004dd0:	687b      	ldr	r3, [r7, #4]
 8004dd2:	681b      	ldr	r3, [r3, #0]
 8004dd4:	681b      	ldr	r3, [r3, #0]
 8004dd6:	60fb      	str	r3, [r7, #12]

  /* Disable UART */
  __HAL_UART_DISABLE(huart);
 8004dd8:	687b      	ldr	r3, [r7, #4]
 8004dda:	681b      	ldr	r3, [r3, #0]
 8004ddc:	681a      	ldr	r2, [r3, #0]
 8004dde:	687b      	ldr	r3, [r7, #4]
 8004de0:	681b      	ldr	r3, [r3, #0]
 8004de2:	2101      	movs	r1, #1
 8004de4:	438a      	bics	r2, r1
 8004de6:	601a      	str	r2, [r3, #0]

  /* Update TX threshold configuration */
  MODIFY_REG(huart->Instance->CR3, USART_CR3_TXFTCFG, Threshold);
 8004de8:	687b      	ldr	r3, [r7, #4]
 8004dea:	681b      	ldr	r3, [r3, #0]
 8004dec:	689b      	ldr	r3, [r3, #8]
 8004dee:	00db      	lsls	r3, r3, #3
 8004df0:	08d9      	lsrs	r1, r3, #3
 8004df2:	687b      	ldr	r3, [r7, #4]
 8004df4:	681b      	ldr	r3, [r3, #0]
 8004df6:	683a      	ldr	r2, [r7, #0]
 8004df8:	430a      	orrs	r2, r1
 8004dfa:	609a      	str	r2, [r3, #8]

  /* Determine the number of data to process during RX/TX ISR execution */
  UARTEx_SetNbDataToProcess(huart);
 8004dfc:	687b      	ldr	r3, [r7, #4]
 8004dfe:	0018      	movs	r0, r3
 8004e00:	f000 f854 	bl	8004eac <UARTEx_SetNbDataToProcess>

  /* Restore UART configuration */
  WRITE_REG(huart->Instance->CR1, tmpcr1);
 8004e04:	687b      	ldr	r3, [r7, #4]
 8004e06:	681b      	ldr	r3, [r3, #0]
 8004e08:	68fa      	ldr	r2, [r7, #12]
 8004e0a:	601a      	str	r2, [r3, #0]

  huart->gState = HAL_UART_STATE_READY;
 8004e0c:	687b      	ldr	r3, [r7, #4]
 8004e0e:	2288      	movs	r2, #136	; 0x88
 8004e10:	2120      	movs	r1, #32
 8004e12:	5099      	str	r1, [r3, r2]

  /* Process Unlocked */
  __HAL_UNLOCK(huart);
 8004e14:	687b      	ldr	r3, [r7, #4]
 8004e16:	2284      	movs	r2, #132	; 0x84
 8004e18:	2100      	movs	r1, #0
 8004e1a:	5499      	strb	r1, [r3, r2]

  return HAL_OK;
 8004e1c:	2300      	movs	r3, #0
}
 8004e1e:	0018      	movs	r0, r3
 8004e20:	46bd      	mov	sp, r7
 8004e22:	b004      	add	sp, #16
 8004e24:	bd80      	pop	{r7, pc}
	...

08004e28 <HAL_UARTEx_SetRxFifoThreshold>:
  *            @arg @ref UART_RXFIFO_THRESHOLD_7_8
  *            @arg @ref UART_RXFIFO_THRESHOLD_8_8
  * @retval HAL status
  */
HAL_StatusTypeDef HAL_UARTEx_SetRxFifoThreshold(UART_HandleTypeDef *huart, uint32_t Threshold)
{
 8004e28:	b580      	push	{r7, lr}
 8004e2a:	b084      	sub	sp, #16
 8004e2c:	af00      	add	r7, sp, #0
 8004e2e:	6078      	str	r0, [r7, #4]
 8004e30:	6039      	str	r1, [r7, #0]
  /* Check the parameters */
  assert_param(IS_UART_FIFO_INSTANCE(huart->Instance));
  assert_param(IS_UART_RXFIFO_THRESHOLD(Threshold));

  /* Process Locked */
  __HAL_LOCK(huart);
 8004e32:	687b      	ldr	r3, [r7, #4]
 8004e34:	2284      	movs	r2, #132	; 0x84
 8004e36:	5c9b      	ldrb	r3, [r3, r2]
 8004e38:	2b01      	cmp	r3, #1
 8004e3a:	d101      	bne.n	8004e40 <HAL_UARTEx_SetRxFifoThreshold+0x18>
 8004e3c:	2302      	movs	r3, #2
 8004e3e:	e02f      	b.n	8004ea0 <HAL_UARTEx_SetRxFifoThreshold+0x78>
 8004e40:	687b      	ldr	r3, [r7, #4]
 8004e42:	2284      	movs	r2, #132	; 0x84
 8004e44:	2101      	movs	r1, #1
 8004e46:	5499      	strb	r1, [r3, r2]

  huart->gState = HAL_UART_STATE_BUSY;
 8004e48:	687b      	ldr	r3, [r7, #4]
 8004e4a:	2288      	movs	r2, #136	; 0x88
 8004e4c:	2124      	movs	r1, #36	; 0x24
 8004e4e:	5099      	str	r1, [r3, r2]

  /* Save actual UART configuration */
  tmpcr1 = READ_REG(huart->Instance->CR1);
 8004e50:	687b      	ldr	r3, [r7, #4]
 8004e52:	681b      	ldr	r3, [r3, #0]
 8004e54:	681b      	ldr	r3, [r3, #0]
 8004e56:	60fb      	str	r3, [r7, #12]

  /* Disable UART */
  __HAL_UART_DISABLE(huart);
 8004e58:	687b      	ldr	r3, [r7, #4]
 8004e5a:	681b      	ldr	r3, [r3, #0]
 8004e5c:	681a      	ldr	r2, [r3, #0]
 8004e5e:	687b      	ldr	r3, [r7, #4]
 8004e60:	681b      	ldr	r3, [r3, #0]
 8004e62:	2101      	movs	r1, #1
 8004e64:	438a      	bics	r2, r1
 8004e66:	601a      	str	r2, [r3, #0]

  /* Update RX threshold configuration */
  MODIFY_REG(huart->Instance->CR3, USART_CR3_RXFTCFG, Threshold);
 8004e68:	687b      	ldr	r3, [r7, #4]
 8004e6a:	681b      	ldr	r3, [r3, #0]
 8004e6c:	689b      	ldr	r3, [r3, #8]
 8004e6e:	4a0e      	ldr	r2, [pc, #56]	; (8004ea8 <HAL_UARTEx_SetRxFifoThreshold+0x80>)
 8004e70:	4013      	ands	r3, r2
 8004e72:	0019      	movs	r1, r3
 8004e74:	687b      	ldr	r3, [r7, #4]
 8004e76:	681b      	ldr	r3, [r3, #0]
 8004e78:	683a      	ldr	r2, [r7, #0]
 8004e7a:	430a      	orrs	r2, r1
 8004e7c:	609a      	str	r2, [r3, #8]

  /* Determine the number of data to process during RX/TX ISR execution */
  UARTEx_SetNbDataToProcess(huart);
 8004e7e:	687b      	ldr	r3, [r7, #4]
 8004e80:	0018      	movs	r0, r3
 8004e82:	f000 f813 	bl	8004eac <UARTEx_SetNbDataToProcess>

  /* Restore UART configuration */
  WRITE_REG(huart->Instance->CR1, tmpcr1);
 8004e86:	687b      	ldr	r3, [r7, #4]
 8004e88:	681b      	ldr	r3, [r3, #0]
 8004e8a:	68fa      	ldr	r2, [r7, #12]
 8004e8c:	601a      	str	r2, [r3, #0]

  huart->gState = HAL_UART_STATE_READY;
 8004e8e:	687b      	ldr	r3, [r7, #4]
 8004e90:	2288      	movs	r2, #136	; 0x88
 8004e92:	2120      	movs	r1, #32
 8004e94:	5099      	str	r1, [r3, r2]

  /* Process Unlocked */
  __HAL_UNLOCK(huart);
 8004e96:	687b      	ldr	r3, [r7, #4]
 8004e98:	2284      	movs	r2, #132	; 0x84
 8004e9a:	2100      	movs	r1, #0
 8004e9c:	5499      	strb	r1, [r3, r2]

  return HAL_OK;
 8004e9e:	2300      	movs	r3, #0
}
 8004ea0:	0018      	movs	r0, r3
 8004ea2:	46bd      	mov	sp, r7
 8004ea4:	b004      	add	sp, #16
 8004ea6:	bd80      	pop	{r7, pc}
 8004ea8:	f1ffffff 	.word	0xf1ffffff

08004eac <UARTEx_SetNbDataToProcess>:
  *       the UART configuration registers.
  * @param huart UART handle.
  * @retval None
  */
static void UARTEx_SetNbDataToProcess(UART_HandleTypeDef *huart)
{
 8004eac:	b5f0      	push	{r4, r5, r6, r7, lr}
 8004eae:	b085      	sub	sp, #20
 8004eb0:	af00      	add	r7, sp, #0
 8004eb2:	6078      	str	r0, [r7, #4]
  uint8_t rx_fifo_threshold;
  uint8_t tx_fifo_threshold;
  static const uint8_t numerator[] = {1U, 1U, 1U, 3U, 7U, 1U, 0U, 0U};
  static const uint8_t denominator[] = {8U, 4U, 2U, 4U, 8U, 1U, 1U, 1U};

  if (huart->FifoMode == UART_FIFOMODE_DISABLE)
 8004eb4:	687b      	ldr	r3, [r7, #4]
 8004eb6:	6e5b      	ldr	r3, [r3, #100]	; 0x64
 8004eb8:	2b00      	cmp	r3, #0
 8004eba:	d108      	bne.n	8004ece <UARTEx_SetNbDataToProcess+0x22>
  {
    huart->NbTxDataToProcess = 1U;
 8004ebc:	687b      	ldr	r3, [r7, #4]
 8004ebe:	226a      	movs	r2, #106	; 0x6a
 8004ec0:	2101      	movs	r1, #1
 8004ec2:	5299      	strh	r1, [r3, r2]
    huart->NbRxDataToProcess = 1U;
 8004ec4:	687b      	ldr	r3, [r7, #4]
 8004ec6:	2268      	movs	r2, #104	; 0x68
 8004ec8:	2101      	movs	r1, #1
 8004eca:	5299      	strh	r1, [r3, r2]
    huart->NbTxDataToProcess = ((uint16_t)tx_fifo_depth * numerator[tx_fifo_threshold]) /
                               (uint16_t)denominator[tx_fifo_threshold];
    huart->NbRxDataToProcess = ((uint16_t)rx_fifo_depth * numerator[rx_fifo_threshold]) /
                               (uint16_t)denominator[rx_fifo_threshold];
  }
}
 8004ecc:	e043      	b.n	8004f56 <UARTEx_SetNbDataToProcess+0xaa>
    rx_fifo_depth = RX_FIFO_DEPTH;
 8004ece:	260f      	movs	r6, #15
 8004ed0:	19bb      	adds	r3, r7, r6
 8004ed2:	2208      	movs	r2, #8
 8004ed4:	701a      	strb	r2, [r3, #0]
    tx_fifo_depth = TX_FIFO_DEPTH;
 8004ed6:	200e      	movs	r0, #14
 8004ed8:	183b      	adds	r3, r7, r0
 8004eda:	2208      	movs	r2, #8
 8004edc:	701a      	strb	r2, [r3, #0]
    rx_fifo_threshold = (uint8_t)(READ_BIT(huart->Instance->CR3, USART_CR3_RXFTCFG) >> USART_CR3_RXFTCFG_Pos);
 8004ede:	687b      	ldr	r3, [r7, #4]
 8004ee0:	681b      	ldr	r3, [r3, #0]
 8004ee2:	689b      	ldr	r3, [r3, #8]
 8004ee4:	0e5b      	lsrs	r3, r3, #25
 8004ee6:	b2da      	uxtb	r2, r3
 8004ee8:	240d      	movs	r4, #13
 8004eea:	193b      	adds	r3, r7, r4
 8004eec:	2107      	movs	r1, #7
 8004eee:	400a      	ands	r2, r1
 8004ef0:	701a      	strb	r2, [r3, #0]
    tx_fifo_threshold = (uint8_t)(READ_BIT(huart->Instance->CR3, USART_CR3_TXFTCFG) >> USART_CR3_TXFTCFG_Pos);
 8004ef2:	687b      	ldr	r3, [r7, #4]
 8004ef4:	681b      	ldr	r3, [r3, #0]
 8004ef6:	689b      	ldr	r3, [r3, #8]
 8004ef8:	0f5b      	lsrs	r3, r3, #29
 8004efa:	b2da      	uxtb	r2, r3
 8004efc:	250c      	movs	r5, #12
 8004efe:	197b      	adds	r3, r7, r5
 8004f00:	2107      	movs	r1, #7
 8004f02:	400a      	ands	r2, r1
 8004f04:	701a      	strb	r2, [r3, #0]
    huart->NbTxDataToProcess = ((uint16_t)tx_fifo_depth * numerator[tx_fifo_threshold]) /
 8004f06:	183b      	adds	r3, r7, r0
 8004f08:	781b      	ldrb	r3, [r3, #0]
 8004f0a:	197a      	adds	r2, r7, r5
 8004f0c:	7812      	ldrb	r2, [r2, #0]
 8004f0e:	4914      	ldr	r1, [pc, #80]	; (8004f60 <UARTEx_SetNbDataToProcess+0xb4>)
 8004f10:	5c8a      	ldrb	r2, [r1, r2]
 8004f12:	435a      	muls	r2, r3
 8004f14:	0010      	movs	r0, r2
                               (uint16_t)denominator[tx_fifo_threshold];
 8004f16:	197b      	adds	r3, r7, r5
 8004f18:	781b      	ldrb	r3, [r3, #0]
 8004f1a:	4a12      	ldr	r2, [pc, #72]	; (8004f64 <UARTEx_SetNbDataToProcess+0xb8>)
 8004f1c:	5cd3      	ldrb	r3, [r2, r3]
    huart->NbTxDataToProcess = ((uint16_t)tx_fifo_depth * numerator[tx_fifo_threshold]) /
 8004f1e:	0019      	movs	r1, r3
 8004f20:	f7fb f97a 	bl	8000218 <__divsi3>
 8004f24:	0003      	movs	r3, r0
 8004f26:	b299      	uxth	r1, r3
 8004f28:	687b      	ldr	r3, [r7, #4]
 8004f2a:	226a      	movs	r2, #106	; 0x6a
 8004f2c:	5299      	strh	r1, [r3, r2]
    huart->NbRxDataToProcess = ((uint16_t)rx_fifo_depth * numerator[rx_fifo_threshold]) /
 8004f2e:	19bb      	adds	r3, r7, r6
 8004f30:	781b      	ldrb	r3, [r3, #0]
 8004f32:	193a      	adds	r2, r7, r4
 8004f34:	7812      	ldrb	r2, [r2, #0]
 8004f36:	490a      	ldr	r1, [pc, #40]	; (8004f60 <UARTEx_SetNbDataToProcess+0xb4>)
 8004f38:	5c8a      	ldrb	r2, [r1, r2]
 8004f3a:	435a      	muls	r2, r3
 8004f3c:	0010      	movs	r0, r2
                               (uint16_t)denominator[rx_fifo_threshold];
 8004f3e:	193b      	adds	r3, r7, r4
 8004f40:	781b      	ldrb	r3, [r3, #0]
 8004f42:	4a08      	ldr	r2, [pc, #32]	; (8004f64 <UARTEx_SetNbDataToProcess+0xb8>)
 8004f44:	5cd3      	ldrb	r3, [r2, r3]
    huart->NbRxDataToProcess = ((uint16_t)rx_fifo_depth * numerator[rx_fifo_threshold]) /
 8004f46:	0019      	movs	r1, r3
 8004f48:	f7fb f966 	bl	8000218 <__divsi3>
 8004f4c:	0003      	movs	r3, r0
 8004f4e:	b299      	uxth	r1, r3
 8004f50:	687b      	ldr	r3, [r7, #4]
 8004f52:	2268      	movs	r2, #104	; 0x68
 8004f54:	5299      	strh	r1, [r3, r2]
}
 8004f56:	46c0      	nop			; (mov r8, r8)
 8004f58:	46bd      	mov	sp, r7
 8004f5a:	b005      	add	sp, #20
 8004f5c:	bdf0      	pop	{r4, r5, r6, r7, pc}
 8004f5e:	46c0      	nop			; (mov r8, r8)
 8004f60:	08005078 	.word	0x08005078
 8004f64:	08005080 	.word	0x08005080

08004f68 <__libc_init_array>:
 8004f68:	b570      	push	{r4, r5, r6, lr}
 8004f6a:	2600      	movs	r6, #0
 8004f6c:	4d0c      	ldr	r5, [pc, #48]	; (8004fa0 <__libc_init_array+0x38>)
 8004f6e:	4c0d      	ldr	r4, [pc, #52]	; (8004fa4 <__libc_init_array+0x3c>)
 8004f70:	1b64      	subs	r4, r4, r5
 8004f72:	10a4      	asrs	r4, r4, #2
 8004f74:	42a6      	cmp	r6, r4
 8004f76:	d109      	bne.n	8004f8c <__libc_init_array+0x24>
 8004f78:	2600      	movs	r6, #0
 8004f7a:	f000 f821 	bl	8004fc0 <_init>
 8004f7e:	4d0a      	ldr	r5, [pc, #40]	; (8004fa8 <__libc_init_array+0x40>)
 8004f80:	4c0a      	ldr	r4, [pc, #40]	; (8004fac <__libc_init_array+0x44>)
 8004f82:	1b64      	subs	r4, r4, r5
 8004f84:	10a4      	asrs	r4, r4, #2
 8004f86:	42a6      	cmp	r6, r4
 8004f88:	d105      	bne.n	8004f96 <__libc_init_array+0x2e>
 8004f8a:	bd70      	pop	{r4, r5, r6, pc}
 8004f8c:	00b3      	lsls	r3, r6, #2
 8004f8e:	58eb      	ldr	r3, [r5, r3]
 8004f90:	4798      	blx	r3
 8004f92:	3601      	adds	r6, #1
 8004f94:	e7ee      	b.n	8004f74 <__libc_init_array+0xc>
 8004f96:	00b3      	lsls	r3, r6, #2
 8004f98:	58eb      	ldr	r3, [r5, r3]
 8004f9a:	4798      	blx	r3
 8004f9c:	3601      	adds	r6, #1
 8004f9e:	e7f2      	b.n	8004f86 <__libc_init_array+0x1e>
 8004fa0:	08005090 	.word	0x08005090
 8004fa4:	08005090 	.word	0x08005090
 8004fa8:	08005090 	.word	0x08005090
 8004fac:	08005094 	.word	0x08005094

08004fb0 <memset>:
 8004fb0:	0003      	movs	r3, r0
 8004fb2:	1882      	adds	r2, r0, r2
 8004fb4:	4293      	cmp	r3, r2
 8004fb6:	d100      	bne.n	8004fba <memset+0xa>
 8004fb8:	4770      	bx	lr
 8004fba:	7019      	strb	r1, [r3, #0]
 8004fbc:	3301      	adds	r3, #1
 8004fbe:	e7f9      	b.n	8004fb4 <memset+0x4>

08004fc0 <_init>:
 8004fc0:	b5f8      	push	{r3, r4, r5, r6, r7, lr}
 8004fc2:	46c0      	nop			; (mov r8, r8)
 8004fc4:	bcf8      	pop	{r3, r4, r5, r6, r7}
 8004fc6:	bc08      	pop	{r3}
 8004fc8:	469e      	mov	lr, r3
 8004fca:	4770      	bx	lr

08004fcc <_fini>:
 8004fcc:	b5f8      	push	{r3, r4, r5, r6, r7, lr}
 8004fce:	46c0      	nop			; (mov r8, r8)
 8004fd0:	bcf8      	pop	{r3, r4, r5, r6, r7}
 8004fd2:	bc08      	pop	{r3}
 8004fd4:	469e      	mov	lr, r3
 8004fd6:	4770      	bx	lr
