
HackKosice2023.elf:     file format elf32-littlearm

Sections:
Idx Name          Size      VMA       LMA       File off  Algn
  0 .isr_vector   000000bc  08000000  08000000  00010000  2**0
                  CONTENTS, ALLOC, LOAD, READONLY, DATA
  1 .text         00004efc  080000bc  080000bc  000100bc  2**2
                  CONTENTS, ALLOC, LOAD, READONLY, CODE
  2 .rodata       000000b0  08004fb8  08004fb8  00014fb8  2**2
                  CONTENTS, ALLOC, LOAD, READONLY, DATA
  3 .ARM.extab    00000000  08005068  08005068  0002000c  2**0
                  CONTENTS
  4 .ARM          00000008  08005068  08005068  00015068  2**2
                  CONTENTS, ALLOC, LOAD, READONLY, DATA
  5 .preinit_array 00000000  08005070  08005070  0002000c  2**0
                  CONTENTS, ALLOC, LOAD, DATA
  6 .init_array   00000004  08005070  08005070  00015070  2**2
                  CONTENTS, ALLOC, LOAD, DATA
  7 .fini_array   00000004  08005074  08005074  00015074  2**2
                  CONTENTS, ALLOC, LOAD, DATA
  8 .data         0000000c  20000000  08005078  00020000  2**2
                  CONTENTS, ALLOC, LOAD, DATA
  9 .bss          00000260  2000000c  08005084  0002000c  2**2
                  ALLOC
 10 ._user_heap_stack 00000604  2000026c  08005084  0002026c  2**0
                  ALLOC
 11 .ARM.attributes 00000028  00000000  00000000  0002000c  2**0
                  CONTENTS, READONLY
 12 .debug_info   00017977  00000000  00000000  00020034  2**0
                  CONTENTS, READONLY, DEBUGGING, OCTETS
 13 .debug_abbrev 00002d24  00000000  00000000  000379ab  2**0
                  CONTENTS, READONLY, DEBUGGING, OCTETS
 14 .debug_aranges 00001300  00000000  00000000  0003a6d0  2**3
                  CONTENTS, READONLY, DEBUGGING, OCTETS
 15 .debug_ranges 000011d8  00000000  00000000  0003b9d0  2**3
                  CONTENTS, READONLY, DEBUGGING, OCTETS
 16 .debug_macro  0001d939  00000000  00000000  0003cba8  2**0
                  CONTENTS, READONLY, DEBUGGING, OCTETS
 17 .debug_line   00017f13  00000000  00000000  0005a4e1  2**0
                  CONTENTS, READONLY, DEBUGGING, OCTETS
 18 .debug_str    000c0908  00000000  00000000  000723f4  2**0
                  CONTENTS, READONLY, DEBUGGING, OCTETS
 19 .comment      00000050  00000000  00000000  00132cfc  2**0
                  CONTENTS, READONLY
 20 .debug_frame  000044fc  00000000  00000000  00132d4c  2**2
                  CONTENTS, READONLY, DEBUGGING, OCTETS

Disassembly of section .text:

080000bc <__do_global_dtors_aux>:
 80000bc:	b510      	push	{r4, lr}
 80000be:	4c06      	ldr	r4, [pc, #24]	; (80000d8 <__do_global_dtors_aux+0x1c>)
 80000c0:	7823      	ldrb	r3, [r4, #0]
 80000c2:	2b00      	cmp	r3, #0
 80000c4:	d107      	bne.n	80000d6 <__do_global_dtors_aux+0x1a>
 80000c6:	4b05      	ldr	r3, [pc, #20]	; (80000dc <__do_global_dtors_aux+0x20>)
 80000c8:	2b00      	cmp	r3, #0
 80000ca:	d002      	beq.n	80000d2 <__do_global_dtors_aux+0x16>
 80000cc:	4804      	ldr	r0, [pc, #16]	; (80000e0 <__do_global_dtors_aux+0x24>)
 80000ce:	e000      	b.n	80000d2 <__do_global_dtors_aux+0x16>
 80000d0:	bf00      	nop
 80000d2:	2301      	movs	r3, #1
 80000d4:	7023      	strb	r3, [r4, #0]
 80000d6:	bd10      	pop	{r4, pc}
 80000d8:	2000000c 	.word	0x2000000c
 80000dc:	00000000 	.word	0x00000000
 80000e0:	08004fa0 	.word	0x08004fa0

080000e4 <frame_dummy>:
 80000e4:	4b04      	ldr	r3, [pc, #16]	; (80000f8 <frame_dummy+0x14>)
 80000e6:	b510      	push	{r4, lr}
 80000e8:	2b00      	cmp	r3, #0
 80000ea:	d003      	beq.n	80000f4 <frame_dummy+0x10>
 80000ec:	4903      	ldr	r1, [pc, #12]	; (80000fc <frame_dummy+0x18>)
 80000ee:	4804      	ldr	r0, [pc, #16]	; (8000100 <frame_dummy+0x1c>)
 80000f0:	e000      	b.n	80000f4 <frame_dummy+0x10>
 80000f2:	bf00      	nop
 80000f4:	bd10      	pop	{r4, pc}
 80000f6:	46c0      	nop			; (mov r8, r8)
 80000f8:	00000000 	.word	0x00000000
 80000fc:	20000010 	.word	0x20000010
 8000100:	08004fa0 	.word	0x08004fa0

08000104 <__udivsi3>:
 8000104:	2200      	movs	r2, #0
 8000106:	0843      	lsrs	r3, r0, #1
 8000108:	428b      	cmp	r3, r1
 800010a:	d374      	bcc.n	80001f6 <__udivsi3+0xf2>
 800010c:	0903      	lsrs	r3, r0, #4
 800010e:	428b      	cmp	r3, r1
 8000110:	d35f      	bcc.n	80001d2 <__udivsi3+0xce>
 8000112:	0a03      	lsrs	r3, r0, #8
 8000114:	428b      	cmp	r3, r1
 8000116:	d344      	bcc.n	80001a2 <__udivsi3+0x9e>
 8000118:	0b03      	lsrs	r3, r0, #12
 800011a:	428b      	cmp	r3, r1
 800011c:	d328      	bcc.n	8000170 <__udivsi3+0x6c>
 800011e:	0c03      	lsrs	r3, r0, #16
 8000120:	428b      	cmp	r3, r1
 8000122:	d30d      	bcc.n	8000140 <__udivsi3+0x3c>
 8000124:	22ff      	movs	r2, #255	; 0xff
 8000126:	0209      	lsls	r1, r1, #8
 8000128:	ba12      	rev	r2, r2
 800012a:	0c03      	lsrs	r3, r0, #16
 800012c:	428b      	cmp	r3, r1
 800012e:	d302      	bcc.n	8000136 <__udivsi3+0x32>
 8000130:	1212      	asrs	r2, r2, #8
 8000132:	0209      	lsls	r1, r1, #8
 8000134:	d065      	beq.n	8000202 <__udivsi3+0xfe>
 8000136:	0b03      	lsrs	r3, r0, #12
 8000138:	428b      	cmp	r3, r1
 800013a:	d319      	bcc.n	8000170 <__udivsi3+0x6c>
 800013c:	e000      	b.n	8000140 <__udivsi3+0x3c>
 800013e:	0a09      	lsrs	r1, r1, #8
 8000140:	0bc3      	lsrs	r3, r0, #15
 8000142:	428b      	cmp	r3, r1
 8000144:	d301      	bcc.n	800014a <__udivsi3+0x46>
 8000146:	03cb      	lsls	r3, r1, #15
 8000148:	1ac0      	subs	r0, r0, r3
 800014a:	4152      	adcs	r2, r2
 800014c:	0b83      	lsrs	r3, r0, #14
 800014e:	428b      	cmp	r3, r1
 8000150:	d301      	bcc.n	8000156 <__udivsi3+0x52>
 8000152:	038b      	lsls	r3, r1, #14
 8000154:	1ac0      	subs	r0, r0, r3
 8000156:	4152      	adcs	r2, r2
 8000158:	0b43      	lsrs	r3, r0, #13
 800015a:	428b      	cmp	r3, r1
 800015c:	d301      	bcc.n	8000162 <__udivsi3+0x5e>
 800015e:	034b      	lsls	r3, r1, #13
 8000160:	1ac0      	subs	r0, r0, r3
 8000162:	4152      	adcs	r2, r2
 8000164:	0b03      	lsrs	r3, r0, #12
 8000166:	428b      	cmp	r3, r1
 8000168:	d301      	bcc.n	800016e <__udivsi3+0x6a>
 800016a:	030b      	lsls	r3, r1, #12
 800016c:	1ac0      	subs	r0, r0, r3
 800016e:	4152      	adcs	r2, r2
 8000170:	0ac3      	lsrs	r3, r0, #11
 8000172:	428b      	cmp	r3, r1
 8000174:	d301      	bcc.n	800017a <__udivsi3+0x76>
 8000176:	02cb      	lsls	r3, r1, #11
 8000178:	1ac0      	subs	r0, r0, r3
 800017a:	4152      	adcs	r2, r2
 800017c:	0a83      	lsrs	r3, r0, #10
 800017e:	428b      	cmp	r3, r1
 8000180:	d301      	bcc.n	8000186 <__udivsi3+0x82>
 8000182:	028b      	lsls	r3, r1, #10
 8000184:	1ac0      	subs	r0, r0, r3
 8000186:	4152      	adcs	r2, r2
 8000188:	0a43      	lsrs	r3, r0, #9
 800018a:	428b      	cmp	r3, r1
 800018c:	d301      	bcc.n	8000192 <__udivsi3+0x8e>
 800018e:	024b      	lsls	r3, r1, #9
 8000190:	1ac0      	subs	r0, r0, r3
 8000192:	4152      	adcs	r2, r2
 8000194:	0a03      	lsrs	r3, r0, #8
 8000196:	428b      	cmp	r3, r1
 8000198:	d301      	bcc.n	800019e <__udivsi3+0x9a>
 800019a:	020b      	lsls	r3, r1, #8
 800019c:	1ac0      	subs	r0, r0, r3
 800019e:	4152      	adcs	r2, r2
 80001a0:	d2cd      	bcs.n	800013e <__udivsi3+0x3a>
 80001a2:	09c3      	lsrs	r3, r0, #7
 80001a4:	428b      	cmp	r3, r1
 80001a6:	d301      	bcc.n	80001ac <__udivsi3+0xa8>
 80001a8:	01cb      	lsls	r3, r1, #7
 80001aa:	1ac0      	subs	r0, r0, r3
 80001ac:	4152      	adcs	r2, r2
 80001ae:	0983      	lsrs	r3, r0, #6
 80001b0:	428b      	cmp	r3, r1
 80001b2:	d301      	bcc.n	80001b8 <__udivsi3+0xb4>
 80001b4:	018b      	lsls	r3, r1, #6
 80001b6:	1ac0      	subs	r0, r0, r3
 80001b8:	4152      	adcs	r2, r2
 80001ba:	0943      	lsrs	r3, r0, #5
 80001bc:	428b      	cmp	r3, r1
 80001be:	d301      	bcc.n	80001c4 <__udivsi3+0xc0>
 80001c0:	014b      	lsls	r3, r1, #5
 80001c2:	1ac0      	subs	r0, r0, r3
 80001c4:	4152      	adcs	r2, r2
 80001c6:	0903      	lsrs	r3, r0, #4
 80001c8:	428b      	cmp	r3, r1
 80001ca:	d301      	bcc.n	80001d0 <__udivsi3+0xcc>
 80001cc:	010b      	lsls	r3, r1, #4
 80001ce:	1ac0      	subs	r0, r0, r3
 80001d0:	4152      	adcs	r2, r2
 80001d2:	08c3      	lsrs	r3, r0, #3
 80001d4:	428b      	cmp	r3, r1
 80001d6:	d301      	bcc.n	80001dc <__udivsi3+0xd8>
 80001d8:	00cb      	lsls	r3, r1, #3
 80001da:	1ac0      	subs	r0, r0, r3
 80001dc:	4152      	adcs	r2, r2
 80001de:	0883      	lsrs	r3, r0, #2
 80001e0:	428b      	cmp	r3, r1
 80001e2:	d301      	bcc.n	80001e8 <__udivsi3+0xe4>
 80001e4:	008b      	lsls	r3, r1, #2
 80001e6:	1ac0      	subs	r0, r0, r3
 80001e8:	4152      	adcs	r2, r2
 80001ea:	0843      	lsrs	r3, r0, #1
 80001ec:	428b      	cmp	r3, r1
 80001ee:	d301      	bcc.n	80001f4 <__udivsi3+0xf0>
 80001f0:	004b      	lsls	r3, r1, #1
 80001f2:	1ac0      	subs	r0, r0, r3
 80001f4:	4152      	adcs	r2, r2
 80001f6:	1a41      	subs	r1, r0, r1
 80001f8:	d200      	bcs.n	80001fc <__udivsi3+0xf8>
 80001fa:	4601      	mov	r1, r0
 80001fc:	4152      	adcs	r2, r2
 80001fe:	4610      	mov	r0, r2
 8000200:	4770      	bx	lr
 8000202:	e7ff      	b.n	8000204 <__udivsi3+0x100>
 8000204:	b501      	push	{r0, lr}
 8000206:	2000      	movs	r0, #0
 8000208:	f000 f8f0 	bl	80003ec <__aeabi_idiv0>
 800020c:	bd02      	pop	{r1, pc}
 800020e:	46c0      	nop			; (mov r8, r8)

08000210 <__aeabi_uidivmod>:
 8000210:	2900      	cmp	r1, #0
 8000212:	d0f7      	beq.n	8000204 <__udivsi3+0x100>
 8000214:	e776      	b.n	8000104 <__udivsi3>
 8000216:	4770      	bx	lr

08000218 <__divsi3>:
 8000218:	4603      	mov	r3, r0
 800021a:	430b      	orrs	r3, r1
 800021c:	d47f      	bmi.n	800031e <__divsi3+0x106>
 800021e:	2200      	movs	r2, #0
 8000220:	0843      	lsrs	r3, r0, #1
 8000222:	428b      	cmp	r3, r1
 8000224:	d374      	bcc.n	8000310 <__divsi3+0xf8>
 8000226:	0903      	lsrs	r3, r0, #4
 8000228:	428b      	cmp	r3, r1
 800022a:	d35f      	bcc.n	80002ec <__divsi3+0xd4>
 800022c:	0a03      	lsrs	r3, r0, #8
 800022e:	428b      	cmp	r3, r1
 8000230:	d344      	bcc.n	80002bc <__divsi3+0xa4>
 8000232:	0b03      	lsrs	r3, r0, #12
 8000234:	428b      	cmp	r3, r1
 8000236:	d328      	bcc.n	800028a <__divsi3+0x72>
 8000238:	0c03      	lsrs	r3, r0, #16
 800023a:	428b      	cmp	r3, r1
 800023c:	d30d      	bcc.n	800025a <__divsi3+0x42>
 800023e:	22ff      	movs	r2, #255	; 0xff
 8000240:	0209      	lsls	r1, r1, #8
 8000242:	ba12      	rev	r2, r2
 8000244:	0c03      	lsrs	r3, r0, #16
 8000246:	428b      	cmp	r3, r1
 8000248:	d302      	bcc.n	8000250 <__divsi3+0x38>
 800024a:	1212      	asrs	r2, r2, #8
 800024c:	0209      	lsls	r1, r1, #8
 800024e:	d065      	beq.n	800031c <__divsi3+0x104>
 8000250:	0b03      	lsrs	r3, r0, #12
 8000252:	428b      	cmp	r3, r1
 8000254:	d319      	bcc.n	800028a <__divsi3+0x72>
 8000256:	e000      	b.n	800025a <__divsi3+0x42>
 8000258:	0a09      	lsrs	r1, r1, #8
 800025a:	0bc3      	lsrs	r3, r0, #15
 800025c:	428b      	cmp	r3, r1
 800025e:	d301      	bcc.n	8000264 <__divsi3+0x4c>
 8000260:	03cb      	lsls	r3, r1, #15
 8000262:	1ac0      	subs	r0, r0, r3
 8000264:	4152      	adcs	r2, r2
 8000266:	0b83      	lsrs	r3, r0, #14
 8000268:	428b      	cmp	r3, r1
 800026a:	d301      	bcc.n	8000270 <__divsi3+0x58>
 800026c:	038b      	lsls	r3, r1, #14
 800026e:	1ac0      	subs	r0, r0, r3
 8000270:	4152      	adcs	r2, r2
 8000272:	0b43      	lsrs	r3, r0, #13
 8000274:	428b      	cmp	r3, r1
 8000276:	d301      	bcc.n	800027c <__divsi3+0x64>
 8000278:	034b      	lsls	r3, r1, #13
 800027a:	1ac0      	subs	r0, r0, r3
 800027c:	4152      	adcs	r2, r2
 800027e:	0b03      	lsrs	r3, r0, #12
 8000280:	428b      	cmp	r3, r1
 8000282:	d301      	bcc.n	8000288 <__divsi3+0x70>
 8000284:	030b      	lsls	r3, r1, #12
 8000286:	1ac0      	subs	r0, r0, r3
 8000288:	4152      	adcs	r2, r2
 800028a:	0ac3      	lsrs	r3, r0, #11
 800028c:	428b      	cmp	r3, r1
 800028e:	d301      	bcc.n	8000294 <__divsi3+0x7c>
 8000290:	02cb      	lsls	r3, r1, #11
 8000292:	1ac0      	subs	r0, r0, r3
 8000294:	4152      	adcs	r2, r2
 8000296:	0a83      	lsrs	r3, r0, #10
 8000298:	428b      	cmp	r3, r1
 800029a:	d301      	bcc.n	80002a0 <__divsi3+0x88>
 800029c:	028b      	lsls	r3, r1, #10
 800029e:	1ac0      	subs	r0, r0, r3
 80002a0:	4152      	adcs	r2, r2
 80002a2:	0a43      	lsrs	r3, r0, #9
 80002a4:	428b      	cmp	r3, r1
 80002a6:	d301      	bcc.n	80002ac <__divsi3+0x94>
 80002a8:	024b      	lsls	r3, r1, #9
 80002aa:	1ac0      	subs	r0, r0, r3
 80002ac:	4152      	adcs	r2, r2
 80002ae:	0a03      	lsrs	r3, r0, #8
 80002b0:	428b      	cmp	r3, r1
 80002b2:	d301      	bcc.n	80002b8 <__divsi3+0xa0>
 80002b4:	020b      	lsls	r3, r1, #8
 80002b6:	1ac0      	subs	r0, r0, r3
 80002b8:	4152      	adcs	r2, r2
 80002ba:	d2cd      	bcs.n	8000258 <__divsi3+0x40>
 80002bc:	09c3      	lsrs	r3, r0, #7
 80002be:	428b      	cmp	r3, r1
 80002c0:	d301      	bcc.n	80002c6 <__divsi3+0xae>
 80002c2:	01cb      	lsls	r3, r1, #7
 80002c4:	1ac0      	subs	r0, r0, r3
 80002c6:	4152      	adcs	r2, r2
 80002c8:	0983      	lsrs	r3, r0, #6
 80002ca:	428b      	cmp	r3, r1
 80002cc:	d301      	bcc.n	80002d2 <__divsi3+0xba>
 80002ce:	018b      	lsls	r3, r1, #6
 80002d0:	1ac0      	subs	r0, r0, r3
 80002d2:	4152      	adcs	r2, r2
 80002d4:	0943      	lsrs	r3, r0, #5
 80002d6:	428b      	cmp	r3, r1
 80002d8:	d301      	bcc.n	80002de <__divsi3+0xc6>
 80002da:	014b      	lsls	r3, r1, #5
 80002dc:	1ac0      	subs	r0, r0, r3
 80002de:	4152      	adcs	r2, r2
 80002e0:	0903      	lsrs	r3, r0, #4
 80002e2:	428b      	cmp	r3, r1
 80002e4:	d301      	bcc.n	80002ea <__divsi3+0xd2>
 80002e6:	010b      	lsls	r3, r1, #4
 80002e8:	1ac0      	subs	r0, r0, r3
 80002ea:	4152      	adcs	r2, r2
 80002ec:	08c3      	lsrs	r3, r0, #3
 80002ee:	428b      	cmp	r3, r1
 80002f0:	d301      	bcc.n	80002f6 <__divsi3+0xde>
 80002f2:	00cb      	lsls	r3, r1, #3
 80002f4:	1ac0      	subs	r0, r0, r3
 80002f6:	4152      	adcs	r2, r2
 80002f8:	0883      	lsrs	r3, r0, #2
 80002fa:	428b      	cmp	r3, r1
 80002fc:	d301      	bcc.n	8000302 <__divsi3+0xea>
 80002fe:	008b      	lsls	r3, r1, #2
 8000300:	1ac0      	subs	r0, r0, r3
 8000302:	4152      	adcs	r2, r2
 8000304:	0843      	lsrs	r3, r0, #1
 8000306:	428b      	cmp	r3, r1
 8000308:	d301      	bcc.n	800030e <__divsi3+0xf6>
 800030a:	004b      	lsls	r3, r1, #1
 800030c:	1ac0      	subs	r0, r0, r3
 800030e:	4152      	adcs	r2, r2
 8000310:	1a41      	subs	r1, r0, r1
 8000312:	d200      	bcs.n	8000316 <__divsi3+0xfe>
 8000314:	4601      	mov	r1, r0
 8000316:	4152      	adcs	r2, r2
 8000318:	4610      	mov	r0, r2
 800031a:	4770      	bx	lr
 800031c:	e05d      	b.n	80003da <__divsi3+0x1c2>
 800031e:	0fca      	lsrs	r2, r1, #31
 8000320:	d000      	beq.n	8000324 <__divsi3+0x10c>
 8000322:	4249      	negs	r1, r1
 8000324:	1003      	asrs	r3, r0, #32
 8000326:	d300      	bcc.n	800032a <__divsi3+0x112>
 8000328:	4240      	negs	r0, r0
 800032a:	4053      	eors	r3, r2
 800032c:	2200      	movs	r2, #0
 800032e:	469c      	mov	ip, r3
 8000330:	0903      	lsrs	r3, r0, #4
 8000332:	428b      	cmp	r3, r1
 8000334:	d32d      	bcc.n	8000392 <__divsi3+0x17a>
 8000336:	0a03      	lsrs	r3, r0, #8
 8000338:	428b      	cmp	r3, r1
 800033a:	d312      	bcc.n	8000362 <__divsi3+0x14a>
 800033c:	22fc      	movs	r2, #252	; 0xfc
 800033e:	0189      	lsls	r1, r1, #6
 8000340:	ba12      	rev	r2, r2
 8000342:	0a03      	lsrs	r3, r0, #8
 8000344:	428b      	cmp	r3, r1
 8000346:	d30c      	bcc.n	8000362 <__divsi3+0x14a>
 8000348:	0189      	lsls	r1, r1, #6
 800034a:	1192      	asrs	r2, r2, #6
 800034c:	428b      	cmp	r3, r1
 800034e:	d308      	bcc.n	8000362 <__divsi3+0x14a>
 8000350:	0189      	lsls	r1, r1, #6
 8000352:	1192      	asrs	r2, r2, #6
 8000354:	428b      	cmp	r3, r1
 8000356:	d304      	bcc.n	8000362 <__divsi3+0x14a>
 8000358:	0189      	lsls	r1, r1, #6
 800035a:	d03a      	beq.n	80003d2 <__divsi3+0x1ba>
 800035c:	1192      	asrs	r2, r2, #6
 800035e:	e000      	b.n	8000362 <__divsi3+0x14a>
 8000360:	0989      	lsrs	r1, r1, #6
 8000362:	09c3      	lsrs	r3, r0, #7
 8000364:	428b      	cmp	r3, r1
 8000366:	d301      	bcc.n	800036c <__divsi3+0x154>
 8000368:	01cb      	lsls	r3, r1, #7
 800036a:	1ac0      	subs	r0, r0, r3
 800036c:	4152      	adcs	r2, r2
 800036e:	0983      	lsrs	r3, r0, #6
 8000370:	428b      	cmp	r3, r1
 8000372:	d301      	bcc.n	8000378 <__divsi3+0x160>
 8000374:	018b      	lsls	r3, r1, #6
 8000376:	1ac0      	subs	r0, r0, r3
 8000378:	4152      	adcs	r2, r2
 800037a:	0943      	lsrs	r3, r0, #5
 800037c:	428b      	cmp	r3, r1
 800037e:	d301      	bcc.n	8000384 <__divsi3+0x16c>
 8000380:	014b      	lsls	r3, r1, #5
 8000382:	1ac0      	subs	r0, r0, r3
 8000384:	4152      	adcs	r2, r2
 8000386:	0903      	lsrs	r3, r0, #4
 8000388:	428b      	cmp	r3, r1
 800038a:	d301      	bcc.n	8000390 <__divsi3+0x178>
 800038c:	010b      	lsls	r3, r1, #4
 800038e:	1ac0      	subs	r0, r0, r3
 8000390:	4152      	adcs	r2, r2
 8000392:	08c3      	lsrs	r3, r0, #3
 8000394:	428b      	cmp	r3, r1
 8000396:	d301      	bcc.n	800039c <__divsi3+0x184>
 8000398:	00cb      	lsls	r3, r1, #3
 800039a:	1ac0      	subs	r0, r0, r3
 800039c:	4152      	adcs	r2, r2
 800039e:	0883      	lsrs	r3, r0, #2
 80003a0:	428b      	cmp	r3, r1
 80003a2:	d301      	bcc.n	80003a8 <__divsi3+0x190>
 80003a4:	008b      	lsls	r3, r1, #2
 80003a6:	1ac0      	subs	r0, r0, r3
 80003a8:	4152      	adcs	r2, r2
 80003aa:	d2d9      	bcs.n	8000360 <__divsi3+0x148>
 80003ac:	0843      	lsrs	r3, r0, #1
 80003ae:	428b      	cmp	r3, r1
 80003b0:	d301      	bcc.n	80003b6 <__divsi3+0x19e>
 80003b2:	004b      	lsls	r3, r1, #1
 80003b4:	1ac0      	subs	r0, r0, r3
 80003b6:	4152      	adcs	r2, r2
 80003b8:	1a41      	subs	r1, r0, r1
 80003ba:	d200      	bcs.n	80003be <__divsi3+0x1a6>
 80003bc:	4601      	mov	r1, r0
 80003be:	4663      	mov	r3, ip
 80003c0:	4152      	adcs	r2, r2
 80003c2:	105b      	asrs	r3, r3, #1
 80003c4:	4610      	mov	r0, r2
 80003c6:	d301      	bcc.n	80003cc <__divsi3+0x1b4>
 80003c8:	4240      	negs	r0, r0
 80003ca:	2b00      	cmp	r3, #0
 80003cc:	d500      	bpl.n	80003d0 <__divsi3+0x1b8>
 80003ce:	4249      	negs	r1, r1
 80003d0:	4770      	bx	lr
 80003d2:	4663      	mov	r3, ip
 80003d4:	105b      	asrs	r3, r3, #1
 80003d6:	d300      	bcc.n	80003da <__divsi3+0x1c2>
 80003d8:	4240      	negs	r0, r0
 80003da:	b501      	push	{r0, lr}
 80003dc:	2000      	movs	r0, #0
 80003de:	f000 f805 	bl	80003ec <__aeabi_idiv0>
 80003e2:	bd02      	pop	{r1, pc}

080003e4 <__aeabi_idivmod>:
 80003e4:	2900      	cmp	r1, #0
 80003e6:	d0f8      	beq.n	80003da <__divsi3+0x1c2>
 80003e8:	e716      	b.n	8000218 <__divsi3>
 80003ea:	4770      	bx	lr

080003ec <__aeabi_idiv0>:
 80003ec:	4770      	bx	lr
 80003ee:	46c0      	nop			; (mov r8, r8)

080003f0 <__aeabi_uldivmod>:
 80003f0:	2b00      	cmp	r3, #0
 80003f2:	d111      	bne.n	8000418 <__aeabi_uldivmod+0x28>
 80003f4:	2a00      	cmp	r2, #0
 80003f6:	d10f      	bne.n	8000418 <__aeabi_uldivmod+0x28>
 80003f8:	2900      	cmp	r1, #0
 80003fa:	d100      	bne.n	80003fe <__aeabi_uldivmod+0xe>
 80003fc:	2800      	cmp	r0, #0
 80003fe:	d002      	beq.n	8000406 <__aeabi_uldivmod+0x16>
 8000400:	2100      	movs	r1, #0
 8000402:	43c9      	mvns	r1, r1
 8000404:	0008      	movs	r0, r1
 8000406:	b407      	push	{r0, r1, r2}
 8000408:	4802      	ldr	r0, [pc, #8]	; (8000414 <__aeabi_uldivmod+0x24>)
 800040a:	a102      	add	r1, pc, #8	; (adr r1, 8000414 <__aeabi_uldivmod+0x24>)
 800040c:	1840      	adds	r0, r0, r1
 800040e:	9002      	str	r0, [sp, #8]
 8000410:	bd03      	pop	{r0, r1, pc}
 8000412:	46c0      	nop			; (mov r8, r8)
 8000414:	ffffffd9 	.word	0xffffffd9
 8000418:	b403      	push	{r0, r1}
 800041a:	4668      	mov	r0, sp
 800041c:	b501      	push	{r0, lr}
 800041e:	9802      	ldr	r0, [sp, #8]
 8000420:	f000 f806 	bl	8000430 <__udivmoddi4>
 8000424:	9b01      	ldr	r3, [sp, #4]
 8000426:	469e      	mov	lr, r3
 8000428:	b002      	add	sp, #8
 800042a:	bc0c      	pop	{r2, r3}
 800042c:	4770      	bx	lr
 800042e:	46c0      	nop			; (mov r8, r8)

08000430 <__udivmoddi4>:
 8000430:	b5f0      	push	{r4, r5, r6, r7, lr}
 8000432:	4657      	mov	r7, sl
 8000434:	464e      	mov	r6, r9
 8000436:	4645      	mov	r5, r8
 8000438:	46de      	mov	lr, fp
 800043a:	b5e0      	push	{r5, r6, r7, lr}
 800043c:	0004      	movs	r4, r0
 800043e:	000d      	movs	r5, r1
 8000440:	4692      	mov	sl, r2
 8000442:	4699      	mov	r9, r3
 8000444:	b083      	sub	sp, #12
 8000446:	428b      	cmp	r3, r1
 8000448:	d830      	bhi.n	80004ac <__udivmoddi4+0x7c>
 800044a:	d02d      	beq.n	80004a8 <__udivmoddi4+0x78>
 800044c:	4649      	mov	r1, r9
 800044e:	4650      	mov	r0, sl
 8000450:	f000 f8ba 	bl	80005c8 <__clzdi2>
 8000454:	0029      	movs	r1, r5
 8000456:	0006      	movs	r6, r0
 8000458:	0020      	movs	r0, r4
 800045a:	f000 f8b5 	bl	80005c8 <__clzdi2>
 800045e:	1a33      	subs	r3, r6, r0
 8000460:	4698      	mov	r8, r3
 8000462:	3b20      	subs	r3, #32
 8000464:	469b      	mov	fp, r3
 8000466:	d433      	bmi.n	80004d0 <__udivmoddi4+0xa0>
 8000468:	465a      	mov	r2, fp
 800046a:	4653      	mov	r3, sl
 800046c:	4093      	lsls	r3, r2
 800046e:	4642      	mov	r2, r8
 8000470:	001f      	movs	r7, r3
 8000472:	4653      	mov	r3, sl
 8000474:	4093      	lsls	r3, r2
 8000476:	001e      	movs	r6, r3
 8000478:	42af      	cmp	r7, r5
 800047a:	d83a      	bhi.n	80004f2 <__udivmoddi4+0xc2>
 800047c:	42af      	cmp	r7, r5
 800047e:	d100      	bne.n	8000482 <__udivmoddi4+0x52>
 8000480:	e078      	b.n	8000574 <__udivmoddi4+0x144>
 8000482:	465b      	mov	r3, fp
 8000484:	1ba4      	subs	r4, r4, r6
 8000486:	41bd      	sbcs	r5, r7
 8000488:	2b00      	cmp	r3, #0
 800048a:	da00      	bge.n	800048e <__udivmoddi4+0x5e>
 800048c:	e075      	b.n	800057a <__udivmoddi4+0x14a>
 800048e:	2200      	movs	r2, #0
 8000490:	2300      	movs	r3, #0
 8000492:	9200      	str	r2, [sp, #0]
 8000494:	9301      	str	r3, [sp, #4]
 8000496:	2301      	movs	r3, #1
 8000498:	465a      	mov	r2, fp
 800049a:	4093      	lsls	r3, r2
 800049c:	9301      	str	r3, [sp, #4]
 800049e:	2301      	movs	r3, #1
 80004a0:	4642      	mov	r2, r8
 80004a2:	4093      	lsls	r3, r2
 80004a4:	9300      	str	r3, [sp, #0]
 80004a6:	e028      	b.n	80004fa <__udivmoddi4+0xca>
 80004a8:	4282      	cmp	r2, r0
 80004aa:	d9cf      	bls.n	800044c <__udivmoddi4+0x1c>
 80004ac:	2200      	movs	r2, #0
 80004ae:	2300      	movs	r3, #0
 80004b0:	9200      	str	r2, [sp, #0]
 80004b2:	9301      	str	r3, [sp, #4]
 80004b4:	9b0c      	ldr	r3, [sp, #48]	; 0x30
 80004b6:	2b00      	cmp	r3, #0
 80004b8:	d001      	beq.n	80004be <__udivmoddi4+0x8e>
 80004ba:	601c      	str	r4, [r3, #0]
 80004bc:	605d      	str	r5, [r3, #4]
 80004be:	9800      	ldr	r0, [sp, #0]
 80004c0:	9901      	ldr	r1, [sp, #4]
 80004c2:	b003      	add	sp, #12
 80004c4:	bcf0      	pop	{r4, r5, r6, r7}
 80004c6:	46bb      	mov	fp, r7
 80004c8:	46b2      	mov	sl, r6
 80004ca:	46a9      	mov	r9, r5
 80004cc:	46a0      	mov	r8, r4
 80004ce:	bdf0      	pop	{r4, r5, r6, r7, pc}
 80004d0:	4642      	mov	r2, r8
 80004d2:	2320      	movs	r3, #32
 80004d4:	1a9b      	subs	r3, r3, r2
 80004d6:	4652      	mov	r2, sl
 80004d8:	40da      	lsrs	r2, r3
 80004da:	4641      	mov	r1, r8
 80004dc:	0013      	movs	r3, r2
 80004de:	464a      	mov	r2, r9
 80004e0:	408a      	lsls	r2, r1
 80004e2:	0017      	movs	r7, r2
 80004e4:	4642      	mov	r2, r8
 80004e6:	431f      	orrs	r7, r3
 80004e8:	4653      	mov	r3, sl
 80004ea:	4093      	lsls	r3, r2
 80004ec:	001e      	movs	r6, r3
 80004ee:	42af      	cmp	r7, r5
 80004f0:	d9c4      	bls.n	800047c <__udivmoddi4+0x4c>
 80004f2:	2200      	movs	r2, #0
 80004f4:	2300      	movs	r3, #0
 80004f6:	9200      	str	r2, [sp, #0]
 80004f8:	9301      	str	r3, [sp, #4]
 80004fa:	4643      	mov	r3, r8
 80004fc:	2b00      	cmp	r3, #0
 80004fe:	d0d9      	beq.n	80004b4 <__udivmoddi4+0x84>
 8000500:	07fb      	lsls	r3, r7, #31
 8000502:	0872      	lsrs	r2, r6, #1
 8000504:	431a      	orrs	r2, r3
 8000506:	4646      	mov	r6, r8
 8000508:	087b      	lsrs	r3, r7, #1
 800050a:	e00e      	b.n	800052a <__udivmoddi4+0xfa>
 800050c:	42ab      	cmp	r3, r5
 800050e:	d101      	bne.n	8000514 <__udivmoddi4+0xe4>
 8000510:	42a2      	cmp	r2, r4
 8000512:	d80c      	bhi.n	800052e <__udivmoddi4+0xfe>
 8000514:	1aa4      	subs	r4, r4, r2
 8000516:	419d      	sbcs	r5, r3
 8000518:	2001      	movs	r0, #1
 800051a:	1924      	adds	r4, r4, r4
 800051c:	416d      	adcs	r5, r5
 800051e:	2100      	movs	r1, #0
 8000520:	3e01      	subs	r6, #1
 8000522:	1824      	adds	r4, r4, r0
 8000524:	414d      	adcs	r5, r1
 8000526:	2e00      	cmp	r6, #0
 8000528:	d006      	beq.n	8000538 <__udivmoddi4+0x108>
 800052a:	42ab      	cmp	r3, r5
 800052c:	d9ee      	bls.n	800050c <__udivmoddi4+0xdc>
 800052e:	3e01      	subs	r6, #1
 8000530:	1924      	adds	r4, r4, r4
 8000532:	416d      	adcs	r5, r5
 8000534:	2e00      	cmp	r6, #0
 8000536:	d1f8      	bne.n	800052a <__udivmoddi4+0xfa>
 8000538:	9800      	ldr	r0, [sp, #0]
 800053a:	9901      	ldr	r1, [sp, #4]
 800053c:	465b      	mov	r3, fp
 800053e:	1900      	adds	r0, r0, r4
 8000540:	4169      	adcs	r1, r5
 8000542:	2b00      	cmp	r3, #0
 8000544:	db24      	blt.n	8000590 <__udivmoddi4+0x160>
 8000546:	002b      	movs	r3, r5
 8000548:	465a      	mov	r2, fp
 800054a:	4644      	mov	r4, r8
 800054c:	40d3      	lsrs	r3, r2
 800054e:	002a      	movs	r2, r5
 8000550:	40e2      	lsrs	r2, r4
 8000552:	001c      	movs	r4, r3
 8000554:	465b      	mov	r3, fp
 8000556:	0015      	movs	r5, r2
 8000558:	2b00      	cmp	r3, #0
 800055a:	db2a      	blt.n	80005b2 <__udivmoddi4+0x182>
 800055c:	0026      	movs	r6, r4
 800055e:	409e      	lsls	r6, r3
 8000560:	0033      	movs	r3, r6
 8000562:	0026      	movs	r6, r4
 8000564:	4647      	mov	r7, r8
 8000566:	40be      	lsls	r6, r7
 8000568:	0032      	movs	r2, r6
 800056a:	1a80      	subs	r0, r0, r2
 800056c:	4199      	sbcs	r1, r3
 800056e:	9000      	str	r0, [sp, #0]
 8000570:	9101      	str	r1, [sp, #4]
 8000572:	e79f      	b.n	80004b4 <__udivmoddi4+0x84>
 8000574:	42a3      	cmp	r3, r4
 8000576:	d8bc      	bhi.n	80004f2 <__udivmoddi4+0xc2>
 8000578:	e783      	b.n	8000482 <__udivmoddi4+0x52>
 800057a:	4642      	mov	r2, r8
 800057c:	2320      	movs	r3, #32
 800057e:	2100      	movs	r1, #0
 8000580:	1a9b      	subs	r3, r3, r2
 8000582:	2200      	movs	r2, #0
 8000584:	9100      	str	r1, [sp, #0]
 8000586:	9201      	str	r2, [sp, #4]
 8000588:	2201      	movs	r2, #1
 800058a:	40da      	lsrs	r2, r3
 800058c:	9201      	str	r2, [sp, #4]
 800058e:	e786      	b.n	800049e <__udivmoddi4+0x6e>
 8000590:	4642      	mov	r2, r8
 8000592:	2320      	movs	r3, #32
 8000594:	1a9b      	subs	r3, r3, r2
 8000596:	002a      	movs	r2, r5
 8000598:	4646      	mov	r6, r8
 800059a:	409a      	lsls	r2, r3
 800059c:	0023      	movs	r3, r4
 800059e:	40f3      	lsrs	r3, r6
 80005a0:	4644      	mov	r4, r8
 80005a2:	4313      	orrs	r3, r2
 80005a4:	002a      	movs	r2, r5
 80005a6:	40e2      	lsrs	r2, r4
 80005a8:	001c      	movs	r4, r3
 80005aa:	465b      	mov	r3, fp
 80005ac:	0015      	movs	r5, r2
 80005ae:	2b00      	cmp	r3, #0
 80005b0:	dad4      	bge.n	800055c <__udivmoddi4+0x12c>
 80005b2:	4642      	mov	r2, r8
 80005b4:	002f      	movs	r7, r5
 80005b6:	2320      	movs	r3, #32
 80005b8:	0026      	movs	r6, r4
 80005ba:	4097      	lsls	r7, r2
 80005bc:	1a9b      	subs	r3, r3, r2
 80005be:	40de      	lsrs	r6, r3
 80005c0:	003b      	movs	r3, r7
 80005c2:	4333      	orrs	r3, r6
 80005c4:	e7cd      	b.n	8000562 <__udivmoddi4+0x132>
 80005c6:	46c0      	nop			; (mov r8, r8)

080005c8 <__clzdi2>:
 80005c8:	b510      	push	{r4, lr}
 80005ca:	2900      	cmp	r1, #0
 80005cc:	d103      	bne.n	80005d6 <__clzdi2+0xe>
 80005ce:	f000 f807 	bl	80005e0 <__clzsi2>
 80005d2:	3020      	adds	r0, #32
 80005d4:	e002      	b.n	80005dc <__clzdi2+0x14>
 80005d6:	0008      	movs	r0, r1
 80005d8:	f000 f802 	bl	80005e0 <__clzsi2>
 80005dc:	bd10      	pop	{r4, pc}
 80005de:	46c0      	nop			; (mov r8, r8)

080005e0 <__clzsi2>:
 80005e0:	211c      	movs	r1, #28
 80005e2:	2301      	movs	r3, #1
 80005e4:	041b      	lsls	r3, r3, #16
 80005e6:	4298      	cmp	r0, r3
 80005e8:	d301      	bcc.n	80005ee <__clzsi2+0xe>
 80005ea:	0c00      	lsrs	r0, r0, #16
 80005ec:	3910      	subs	r1, #16
 80005ee:	0a1b      	lsrs	r3, r3, #8
 80005f0:	4298      	cmp	r0, r3
 80005f2:	d301      	bcc.n	80005f8 <__clzsi2+0x18>
 80005f4:	0a00      	lsrs	r0, r0, #8
 80005f6:	3908      	subs	r1, #8
 80005f8:	091b      	lsrs	r3, r3, #4
 80005fa:	4298      	cmp	r0, r3
 80005fc:	d301      	bcc.n	8000602 <__clzsi2+0x22>
 80005fe:	0900      	lsrs	r0, r0, #4
 8000600:	3904      	subs	r1, #4
 8000602:	a202      	add	r2, pc, #8	; (adr r2, 800060c <__clzsi2+0x2c>)
 8000604:	5c10      	ldrb	r0, [r2, r0]
 8000606:	1840      	adds	r0, r0, r1
 8000608:	4770      	bx	lr
 800060a:	46c0      	nop			; (mov r8, r8)
 800060c:	02020304 	.word	0x02020304
 8000610:	01010101 	.word	0x01010101
	...

0800061c <setup>:
extern  uint8_t bridge_IN_buffer[];
extern  uint8_t bridge_OUT_buffer[];
extern volatile uint8_t command_triggered;
extern   LED1202_Object_TypeDef LED1202Obj;

void setup() {
 800061c:	b580      	push	{r7, lr}
 800061e:	b082      	sub	sp, #8
 8000620:	af00      	add	r7, sp, #0

  /*Wait Time assuring a properly steady state condition */
  HAL_Delay(100);
 8000622:	2064      	movs	r0, #100	; 0x64
 8000624:	f001 f9ce 	bl	80019c4 <HAL_Delay>

  interface_mode = UART_MODE;	/*Set a known condition */
 8000628:	4b19      	ldr	r3, [pc, #100]	; (8000690 <setup+0x74>)
 800062a:	2200      	movs	r2, #0
 800062c:	701a      	strb	r2, [r3, #0]

  /*Clear Buffer*/
  ClearBuffers();
 800062e:	f000 f981 	bl	8000934 <ClearBuffers>

  /*LED12A1 Initialization*/
  LED12A1_Init();
 8000632:	f000 fed9 	bl	80013e8 <LED12A1_Init>

  /*Scan for Number of available LED1202 ICs*/
  NumOfDev =  LED12A1_ScanAvailDevice( &LED1202Obj ,DevAddrArray);
 8000636:	4a17      	ldr	r2, [pc, #92]	; (8000694 <setup+0x78>)
 8000638:	4b17      	ldr	r3, [pc, #92]	; (8000698 <setup+0x7c>)
 800063a:	0011      	movs	r1, r2
 800063c:	0018      	movs	r0, r3
 800063e:	f001 f851 	bl	80016e4 <LED12A1_ScanAvailDevice>
 8000642:	0003      	movs	r3, r0
 8000644:	b2da      	uxtb	r2, r3
 8000646:	4b15      	ldr	r3, [pc, #84]	; (800069c <setup+0x80>)
 8000648:	701a      	strb	r2, [r3, #0]
#ifdef GUI_MODE
  HAL_UART_Receive_IT(&huart2,&bridge_OUT_buffer[0],64);
#else
  /*Enable available LED1202 ICs*/
  for (uint8_t dev = 0;dev<NumOfDev;dev++)
 800064a:	1dfb      	adds	r3, r7, #7
 800064c:	2200      	movs	r2, #0
 800064e:	701a      	strb	r2, [r3, #0]
 8000650:	e012      	b.n	8000678 <setup+0x5c>
  {
	LED12A1_DeviceEnable(&LED1202Obj , (TypedefEnumDevAddr)(LED_DEVICE1 + dev));
 8000652:	1dfb      	adds	r3, r7, #7
 8000654:	781a      	ldrb	r2, [r3, #0]
 8000656:	4b10      	ldr	r3, [pc, #64]	; (8000698 <setup+0x7c>)
 8000658:	0011      	movs	r1, r2
 800065a:	0018      	movs	r0, r3
 800065c:	f000 ffb8 	bl	80015d0 <LED12A1_DeviceEnable>
	LED12A1_ChannelDisable( &LED1202Obj , LED_CHANNEL_ALL , (TypedefEnumDevAddr)( LED_DEVICE1 + dev));
 8000660:	1dfb      	adds	r3, r7, #7
 8000662:	781a      	ldrb	r2, [r3, #0]
 8000664:	490e      	ldr	r1, [pc, #56]	; (80006a0 <setup+0x84>)
 8000666:	4b0c      	ldr	r3, [pc, #48]	; (8000698 <setup+0x7c>)
 8000668:	0018      	movs	r0, r3
 800066a:	f001 f8fe 	bl	800186a <LED12A1_ChannelDisable>
  for (uint8_t dev = 0;dev<NumOfDev;dev++)
 800066e:	1dfb      	adds	r3, r7, #7
 8000670:	781a      	ldrb	r2, [r3, #0]
 8000672:	1dfb      	adds	r3, r7, #7
 8000674:	3201      	adds	r2, #1
 8000676:	701a      	strb	r2, [r3, #0]
 8000678:	4b08      	ldr	r3, [pc, #32]	; (800069c <setup+0x80>)
 800067a:	781b      	ldrb	r3, [r3, #0]
 800067c:	1dfa      	adds	r2, r7, #7
 800067e:	7812      	ldrb	r2, [r2, #0]
 8000680:	429a      	cmp	r2, r3
 8000682:	d3e6      	bcc.n	8000652 <setup+0x36>

  }
#endif

}
 8000684:	46c0      	nop			; (mov r8, r8)
 8000686:	46c0      	nop			; (mov r8, r8)
 8000688:	46bd      	mov	sp, r7
 800068a:	b002      	add	sp, #8
 800068c:	bd80      	pop	{r7, pc}
 800068e:	46c0      	nop			; (mov r8, r8)
 8000690:	200000b4 	.word	0x200000b4
 8000694:	20000028 	.word	0x20000028
 8000698:	2000023c 	.word	0x2000023c
 800069c:	20000032 	.word	0x20000032
 80006a0:	00000fff 	.word	0x00000fff

080006a4 <mainLoop>:

void mainLoop() {
 80006a4:	b580      	push	{r7, lr}
 80006a6:	b084      	sub	sp, #16
 80006a8:	af02      	add	r7, sp, #8

  uint16_t  digCurrReg = 0;
 80006aa:	003b      	movs	r3, r7
 80006ac:	2200      	movs	r2, #0
 80006ae:	801a      	strh	r2, [r3, #0]
  uint8_t dev = 0;
 80006b0:	1dfb      	adds	r3, r7, #7
 80006b2:	2200      	movs	r2, #0
 80006b4:	701a      	strb	r2, [r3, #0]
  uint8_t cnt;

	/*** Turn ON LED one by one ****/
	for (dev = 0;dev<NumOfDev;dev++)
 80006b6:	1dfb      	adds	r3, r7, #7
 80006b8:	2200      	movs	r2, #0
 80006ba:	701a      	strb	r2, [r3, #0]
 80006bc:	e00b      	b.n	80006d6 <mainLoop+0x32>
	{
	  LED12A1_ChannelDisable( &LED1202Obj , LED_CHANNEL_ALL , (TypedefEnumDevAddr)( LED_DEVICE1 + dev));
 80006be:	1dfb      	adds	r3, r7, #7
 80006c0:	781a      	ldrb	r2, [r3, #0]
 80006c2:	4999      	ldr	r1, [pc, #612]	; (8000928 <mainLoop+0x284>)
 80006c4:	4b99      	ldr	r3, [pc, #612]	; (800092c <mainLoop+0x288>)
 80006c6:	0018      	movs	r0, r3
 80006c8:	f001 f8cf 	bl	800186a <LED12A1_ChannelDisable>
	for (dev = 0;dev<NumOfDev;dev++)
 80006cc:	1dfb      	adds	r3, r7, #7
 80006ce:	781a      	ldrb	r2, [r3, #0]
 80006d0:	1dfb      	adds	r3, r7, #7
 80006d2:	3201      	adds	r2, #1
 80006d4:	701a      	strb	r2, [r3, #0]
 80006d6:	4b96      	ldr	r3, [pc, #600]	; (8000930 <mainLoop+0x28c>)
 80006d8:	781b      	ldrb	r3, [r3, #0]
 80006da:	1dfa      	adds	r2, r7, #7
 80006dc:	7812      	ldrb	r2, [r2, #0]
 80006de:	429a      	cmp	r2, r3
 80006e0:	d3ed      	bcc.n	80006be <mainLoop+0x1a>
	}

	for (dev = 0;dev<NumOfDev;dev++)
 80006e2:	1dfb      	adds	r3, r7, #7
 80006e4:	2200      	movs	r2, #0
 80006e6:	701a      	strb	r2, [r3, #0]
 80006e8:	e045      	b.n	8000776 <mainLoop+0xd2>
	{
	  for (uint8_t channel = 0;channel<=11;channel++)
 80006ea:	1d7b      	adds	r3, r7, #5
 80006ec:	2200      	movs	r2, #0
 80006ee:	701a      	strb	r2, [r3, #0]
 80006f0:	e035      	b.n	800075e <mainLoop+0xba>
	  {
		digCurrReg =  4095;
 80006f2:	003b      	movs	r3, r7
 80006f4:	4a8c      	ldr	r2, [pc, #560]	; (8000928 <mainLoop+0x284>)
 80006f6:	801a      	strh	r2, [r3, #0]
		LED12A1_ChannelEnable( &LED1202Obj , (TypeDefChannel)(LED_CHANNEL_0<<channel),  (TypedefEnumDevAddr)(LED_DEVICE1+dev));
 80006f8:	1d7b      	adds	r3, r7, #5
 80006fa:	781b      	ldrb	r3, [r3, #0]
 80006fc:	2201      	movs	r2, #1
 80006fe:	409a      	lsls	r2, r3
 8000700:	0013      	movs	r3, r2
 8000702:	b299      	uxth	r1, r3
 8000704:	1dfb      	adds	r3, r7, #7
 8000706:	781a      	ldrb	r2, [r3, #0]
 8000708:	4b88      	ldr	r3, [pc, #544]	; (800092c <mainLoop+0x288>)
 800070a:	0018      	movs	r0, r3
 800070c:	f001 f886 	bl	800181c <LED12A1_ChannelEnable>
		LED12A1_AnalogDimming( &LED1202Obj , MAX_CH_CURRENT, channel,  (TypedefEnumDevAddr)(LED_DEVICE1+dev));
 8000710:	1dfb      	adds	r3, r7, #7
 8000712:	7819      	ldrb	r1, [r3, #0]
 8000714:	1d7b      	adds	r3, r7, #5
 8000716:	781a      	ldrb	r2, [r3, #0]
 8000718:	4884      	ldr	r0, [pc, #528]	; (800092c <mainLoop+0x288>)
 800071a:	000b      	movs	r3, r1
 800071c:	2114      	movs	r1, #20
 800071e:	f001 f826 	bl	800176e <LED12A1_AnalogDimming>
		LED12A1_DigitalDimming( &LED1202Obj ,&digCurrReg,channel,0,  (TypedefEnumDevAddr)(LED_DEVICE1+dev));
 8000722:	1d7b      	adds	r3, r7, #5
 8000724:	781a      	ldrb	r2, [r3, #0]
 8000726:	0039      	movs	r1, r7
 8000728:	4880      	ldr	r0, [pc, #512]	; (800092c <mainLoop+0x288>)
 800072a:	1dfb      	adds	r3, r7, #7
 800072c:	781b      	ldrb	r3, [r3, #0]
 800072e:	9300      	str	r3, [sp, #0]
 8000730:	2300      	movs	r3, #0
 8000732:	f001 f849 	bl	80017c8 <LED12A1_DigitalDimming>
		HAL_Delay(200);
 8000736:	20c8      	movs	r0, #200	; 0xc8
 8000738:	f001 f944 	bl	80019c4 <HAL_Delay>
		LED12A1_ChannelDisable( &LED1202Obj , (TypeDefChannel)(LED_CHANNEL_0<<channel),  (TypedefEnumDevAddr)(LED_DEVICE1+dev));
 800073c:	1d7b      	adds	r3, r7, #5
 800073e:	781b      	ldrb	r3, [r3, #0]
 8000740:	2201      	movs	r2, #1
 8000742:	409a      	lsls	r2, r3
 8000744:	0013      	movs	r3, r2
 8000746:	b299      	uxth	r1, r3
 8000748:	1dfb      	adds	r3, r7, #7
 800074a:	781a      	ldrb	r2, [r3, #0]
 800074c:	4b77      	ldr	r3, [pc, #476]	; (800092c <mainLoop+0x288>)
 800074e:	0018      	movs	r0, r3
 8000750:	f001 f88b 	bl	800186a <LED12A1_ChannelDisable>
	  for (uint8_t channel = 0;channel<=11;channel++)
 8000754:	1d7b      	adds	r3, r7, #5
 8000756:	781a      	ldrb	r2, [r3, #0]
 8000758:	1d7b      	adds	r3, r7, #5
 800075a:	3201      	adds	r2, #1
 800075c:	701a      	strb	r2, [r3, #0]
 800075e:	1d7b      	adds	r3, r7, #5
 8000760:	781b      	ldrb	r3, [r3, #0]
 8000762:	2b0b      	cmp	r3, #11
 8000764:	d9c5      	bls.n	80006f2 <mainLoop+0x4e>
	  }

	  HAL_Delay(200);
 8000766:	20c8      	movs	r0, #200	; 0xc8
 8000768:	f001 f92c 	bl	80019c4 <HAL_Delay>
	for (dev = 0;dev<NumOfDev;dev++)
 800076c:	1dfb      	adds	r3, r7, #7
 800076e:	781a      	ldrb	r2, [r3, #0]
 8000770:	1dfb      	adds	r3, r7, #7
 8000772:	3201      	adds	r2, #1
 8000774:	701a      	strb	r2, [r3, #0]
 8000776:	4b6e      	ldr	r3, [pc, #440]	; (8000930 <mainLoop+0x28c>)
 8000778:	781b      	ldrb	r3, [r3, #0]
 800077a:	1dfa      	adds	r2, r7, #7
 800077c:	7812      	ldrb	r2, [r2, #0]
 800077e:	429a      	cmp	r2, r3
 8000780:	d3b3      	bcc.n	80006ea <mainLoop+0x46>
	}

	for(cnt = 0;cnt<4;cnt++)
 8000782:	1dbb      	adds	r3, r7, #6
 8000784:	2200      	movs	r2, #0
 8000786:	701a      	strb	r2, [r3, #0]
 8000788:	e055      	b.n	8000836 <mainLoop+0x192>
	{

	/*** Turn ON/OFF All LED at once in Toggling Mode ****/
	for (dev = 0;dev<NumOfDev;dev++)
 800078a:	1dfb      	adds	r3, r7, #7
 800078c:	2200      	movs	r2, #0
 800078e:	701a      	strb	r2, [r3, #0]
 8000790:	e00b      	b.n	80007aa <mainLoop+0x106>
	{
	  LED12A1_ChannelDisable( &LED1202Obj , LED_CHANNEL_ALL , (TypedefEnumDevAddr)( LED_DEVICE1 + dev));
 8000792:	1dfb      	adds	r3, r7, #7
 8000794:	781a      	ldrb	r2, [r3, #0]
 8000796:	4964      	ldr	r1, [pc, #400]	; (8000928 <mainLoop+0x284>)
 8000798:	4b64      	ldr	r3, [pc, #400]	; (800092c <mainLoop+0x288>)
 800079a:	0018      	movs	r0, r3
 800079c:	f001 f865 	bl	800186a <LED12A1_ChannelDisable>
	for (dev = 0;dev<NumOfDev;dev++)
 80007a0:	1dfb      	adds	r3, r7, #7
 80007a2:	781a      	ldrb	r2, [r3, #0]
 80007a4:	1dfb      	adds	r3, r7, #7
 80007a6:	3201      	adds	r2, #1
 80007a8:	701a      	strb	r2, [r3, #0]
 80007aa:	4b61      	ldr	r3, [pc, #388]	; (8000930 <mainLoop+0x28c>)
 80007ac:	781b      	ldrb	r3, [r3, #0]
 80007ae:	1dfa      	adds	r2, r7, #7
 80007b0:	7812      	ldrb	r2, [r2, #0]
 80007b2:	429a      	cmp	r2, r3
 80007b4:	d3ed      	bcc.n	8000792 <mainLoop+0xee>
	}
	HAL_Delay(300);
 80007b6:	2396      	movs	r3, #150	; 0x96
 80007b8:	005b      	lsls	r3, r3, #1
 80007ba:	0018      	movs	r0, r3
 80007bc:	f001 f902 	bl	80019c4 <HAL_Delay>
	for (dev = 0;dev<NumOfDev;dev++)
 80007c0:	1dfb      	adds	r3, r7, #7
 80007c2:	2200      	movs	r2, #0
 80007c4:	701a      	strb	r2, [r3, #0]
 80007c6:	e026      	b.n	8000816 <mainLoop+0x172>
	{
	  for (uint8_t channel = 0;channel<=11;channel++)
 80007c8:	1d3b      	adds	r3, r7, #4
 80007ca:	2200      	movs	r2, #0
 80007cc:	701a      	strb	r2, [r3, #0]
 80007ce:	e019      	b.n	8000804 <mainLoop+0x160>
	  {
		LED12A1_ChannelEnable( &LED1202Obj , (TypeDefChannel)(LED_CHANNEL_0<<channel),  (TypedefEnumDevAddr)(LED_DEVICE1+dev));
 80007d0:	1d3b      	adds	r3, r7, #4
 80007d2:	781b      	ldrb	r3, [r3, #0]
 80007d4:	2201      	movs	r2, #1
 80007d6:	409a      	lsls	r2, r3
 80007d8:	0013      	movs	r3, r2
 80007da:	b299      	uxth	r1, r3
 80007dc:	1dfb      	adds	r3, r7, #7
 80007de:	781a      	ldrb	r2, [r3, #0]
 80007e0:	4b52      	ldr	r3, [pc, #328]	; (800092c <mainLoop+0x288>)
 80007e2:	0018      	movs	r0, r3
 80007e4:	f001 f81a 	bl	800181c <LED12A1_ChannelEnable>
		LED12A1_AnalogDimming( &LED1202Obj , MAX_CH_CURRENT, channel,  (TypedefEnumDevAddr)(LED_DEVICE1+dev));
 80007e8:	1dfb      	adds	r3, r7, #7
 80007ea:	7819      	ldrb	r1, [r3, #0]
 80007ec:	1d3b      	adds	r3, r7, #4
 80007ee:	781a      	ldrb	r2, [r3, #0]
 80007f0:	484e      	ldr	r0, [pc, #312]	; (800092c <mainLoop+0x288>)
 80007f2:	000b      	movs	r3, r1
 80007f4:	2114      	movs	r1, #20
 80007f6:	f000 ffba 	bl	800176e <LED12A1_AnalogDimming>
	  for (uint8_t channel = 0;channel<=11;channel++)
 80007fa:	1d3b      	adds	r3, r7, #4
 80007fc:	781a      	ldrb	r2, [r3, #0]
 80007fe:	1d3b      	adds	r3, r7, #4
 8000800:	3201      	adds	r2, #1
 8000802:	701a      	strb	r2, [r3, #0]
 8000804:	1d3b      	adds	r3, r7, #4
 8000806:	781b      	ldrb	r3, [r3, #0]
 8000808:	2b0b      	cmp	r3, #11
 800080a:	d9e1      	bls.n	80007d0 <mainLoop+0x12c>
	for (dev = 0;dev<NumOfDev;dev++)
 800080c:	1dfb      	adds	r3, r7, #7
 800080e:	781a      	ldrb	r2, [r3, #0]
 8000810:	1dfb      	adds	r3, r7, #7
 8000812:	3201      	adds	r2, #1
 8000814:	701a      	strb	r2, [r3, #0]
 8000816:	4b46      	ldr	r3, [pc, #280]	; (8000930 <mainLoop+0x28c>)
 8000818:	781b      	ldrb	r3, [r3, #0]
 800081a:	1dfa      	adds	r2, r7, #7
 800081c:	7812      	ldrb	r2, [r2, #0]
 800081e:	429a      	cmp	r2, r3
 8000820:	d3d2      	bcc.n	80007c8 <mainLoop+0x124>
	  }
	}
	HAL_Delay(300);
 8000822:	2396      	movs	r3, #150	; 0x96
 8000824:	005b      	lsls	r3, r3, #1
 8000826:	0018      	movs	r0, r3
 8000828:	f001 f8cc 	bl	80019c4 <HAL_Delay>
	for(cnt = 0;cnt<4;cnt++)
 800082c:	1dbb      	adds	r3, r7, #6
 800082e:	781a      	ldrb	r2, [r3, #0]
 8000830:	1dbb      	adds	r3, r7, #6
 8000832:	3201      	adds	r2, #1
 8000834:	701a      	strb	r2, [r3, #0]
 8000836:	1dbb      	adds	r3, r7, #6
 8000838:	781b      	ldrb	r3, [r3, #0]
 800083a:	2b03      	cmp	r3, #3
 800083c:	d9a5      	bls.n	800078a <mainLoop+0xe6>
	}

	/*** Start LED from minimum intensity to maximum intensity one by one ****/
	for (dev = 0;dev<NumOfDev;dev++)
 800083e:	1dfb      	adds	r3, r7, #7
 8000840:	2200      	movs	r2, #0
 8000842:	701a      	strb	r2, [r3, #0]
 8000844:	e00b      	b.n	800085e <mainLoop+0x1ba>
	{
	  LED12A1_ChannelDisable( &LED1202Obj , LED_CHANNEL_ALL , (TypedefEnumDevAddr)( LED_DEVICE1 + dev));
 8000846:	1dfb      	adds	r3, r7, #7
 8000848:	781a      	ldrb	r2, [r3, #0]
 800084a:	4937      	ldr	r1, [pc, #220]	; (8000928 <mainLoop+0x284>)
 800084c:	4b37      	ldr	r3, [pc, #220]	; (800092c <mainLoop+0x288>)
 800084e:	0018      	movs	r0, r3
 8000850:	f001 f80b 	bl	800186a <LED12A1_ChannelDisable>
	for (dev = 0;dev<NumOfDev;dev++)
 8000854:	1dfb      	adds	r3, r7, #7
 8000856:	781a      	ldrb	r2, [r3, #0]
 8000858:	1dfb      	adds	r3, r7, #7
 800085a:	3201      	adds	r2, #1
 800085c:	701a      	strb	r2, [r3, #0]
 800085e:	4b34      	ldr	r3, [pc, #208]	; (8000930 <mainLoop+0x28c>)
 8000860:	781b      	ldrb	r3, [r3, #0]
 8000862:	1dfa      	adds	r2, r7, #7
 8000864:	7812      	ldrb	r2, [r2, #0]
 8000866:	429a      	cmp	r2, r3
 8000868:	d3ed      	bcc.n	8000846 <mainLoop+0x1a2>
	}

	for (dev = 0;dev<NumOfDev;dev++)
 800086a:	1dfb      	adds	r3, r7, #7
 800086c:	2200      	movs	r2, #0
 800086e:	701a      	strb	r2, [r3, #0]
 8000870:	e04e      	b.n	8000910 <mainLoop+0x26c>
	{
	  for (uint8_t channel = 0;channel<=11;channel++)
 8000872:	1cfb      	adds	r3, r7, #3
 8000874:	2200      	movs	r2, #0
 8000876:	701a      	strb	r2, [r3, #0]
 8000878:	e03c      	b.n	80008f4 <mainLoop+0x250>
	  {
		LED12A1_ChannelEnable( &LED1202Obj , (TypeDefChannel)(LED_CHANNEL_0<<channel),  (TypedefEnumDevAddr)(LED_DEVICE1+dev));
 800087a:	1cfb      	adds	r3, r7, #3
 800087c:	781b      	ldrb	r3, [r3, #0]
 800087e:	2201      	movs	r2, #1
 8000880:	409a      	lsls	r2, r3
 8000882:	0013      	movs	r3, r2
 8000884:	b299      	uxth	r1, r3
 8000886:	1dfb      	adds	r3, r7, #7
 8000888:	781a      	ldrb	r2, [r3, #0]
 800088a:	4b28      	ldr	r3, [pc, #160]	; (800092c <mainLoop+0x288>)
 800088c:	0018      	movs	r0, r3
 800088e:	f000 ffc5 	bl	800181c <LED12A1_ChannelEnable>
		LED12A1_AnalogDimming( &LED1202Obj , MAX_CH_CURRENT, channel,  (TypedefEnumDevAddr)(LED_DEVICE1+dev));
 8000892:	1dfb      	adds	r3, r7, #7
 8000894:	7819      	ldrb	r1, [r3, #0]
 8000896:	1cfb      	adds	r3, r7, #3
 8000898:	781a      	ldrb	r2, [r3, #0]
 800089a:	4824      	ldr	r0, [pc, #144]	; (800092c <mainLoop+0x288>)
 800089c:	000b      	movs	r3, r1
 800089e:	2114      	movs	r1, #20
 80008a0:	f000 ff65 	bl	800176e <LED12A1_AnalogDimming>
		for(uint8_t cnt = 0;cnt<10;cnt++)
 80008a4:	1cbb      	adds	r3, r7, #2
 80008a6:	2200      	movs	r2, #0
 80008a8:	701a      	strb	r2, [r3, #0]
 80008aa:	e01a      	b.n	80008e2 <mainLoop+0x23e>
		{
		  digCurrReg =  400*cnt;
 80008ac:	1cbb      	adds	r3, r7, #2
 80008ae:	781b      	ldrb	r3, [r3, #0]
 80008b0:	b29b      	uxth	r3, r3
 80008b2:	22c8      	movs	r2, #200	; 0xc8
 80008b4:	0052      	lsls	r2, r2, #1
 80008b6:	4353      	muls	r3, r2
 80008b8:	b29a      	uxth	r2, r3
 80008ba:	003b      	movs	r3, r7
 80008bc:	801a      	strh	r2, [r3, #0]
		  LED12A1_DigitalDimming( &LED1202Obj ,&digCurrReg,channel,0,  (TypedefEnumDevAddr)(LED_DEVICE1+dev));
 80008be:	1cfb      	adds	r3, r7, #3
 80008c0:	781a      	ldrb	r2, [r3, #0]
 80008c2:	0039      	movs	r1, r7
 80008c4:	4819      	ldr	r0, [pc, #100]	; (800092c <mainLoop+0x288>)
 80008c6:	1dfb      	adds	r3, r7, #7
 80008c8:	781b      	ldrb	r3, [r3, #0]
 80008ca:	9300      	str	r3, [sp, #0]
 80008cc:	2300      	movs	r3, #0
 80008ce:	f000 ff7b 	bl	80017c8 <LED12A1_DigitalDimming>
		  HAL_Delay(100);
 80008d2:	2064      	movs	r0, #100	; 0x64
 80008d4:	f001 f876 	bl	80019c4 <HAL_Delay>
		for(uint8_t cnt = 0;cnt<10;cnt++)
 80008d8:	1cbb      	adds	r3, r7, #2
 80008da:	781a      	ldrb	r2, [r3, #0]
 80008dc:	1cbb      	adds	r3, r7, #2
 80008de:	3201      	adds	r2, #1
 80008e0:	701a      	strb	r2, [r3, #0]
 80008e2:	1cbb      	adds	r3, r7, #2
 80008e4:	781b      	ldrb	r3, [r3, #0]
 80008e6:	2b09      	cmp	r3, #9
 80008e8:	d9e0      	bls.n	80008ac <mainLoop+0x208>
	  for (uint8_t channel = 0;channel<=11;channel++)
 80008ea:	1cfb      	adds	r3, r7, #3
 80008ec:	781a      	ldrb	r2, [r3, #0]
 80008ee:	1cfb      	adds	r3, r7, #3
 80008f0:	3201      	adds	r2, #1
 80008f2:	701a      	strb	r2, [r3, #0]
 80008f4:	1cfb      	adds	r3, r7, #3
 80008f6:	781b      	ldrb	r3, [r3, #0]
 80008f8:	2b0b      	cmp	r3, #11
 80008fa:	d9be      	bls.n	800087a <mainLoop+0x1d6>
		}
	  }

	  HAL_Delay(300);
 80008fc:	2396      	movs	r3, #150	; 0x96
 80008fe:	005b      	lsls	r3, r3, #1
 8000900:	0018      	movs	r0, r3
 8000902:	f001 f85f 	bl	80019c4 <HAL_Delay>
	for (dev = 0;dev<NumOfDev;dev++)
 8000906:	1dfb      	adds	r3, r7, #7
 8000908:	781a      	ldrb	r2, [r3, #0]
 800090a:	1dfb      	adds	r3, r7, #7
 800090c:	3201      	adds	r2, #1
 800090e:	701a      	strb	r2, [r3, #0]
 8000910:	4b07      	ldr	r3, [pc, #28]	; (8000930 <mainLoop+0x28c>)
 8000912:	781b      	ldrb	r3, [r3, #0]
 8000914:	1dfa      	adds	r2, r7, #7
 8000916:	7812      	ldrb	r2, [r2, #0]
 8000918:	429a      	cmp	r2, r3
 800091a:	d3aa      	bcc.n	8000872 <mainLoop+0x1ce>
	}
}
 800091c:	46c0      	nop			; (mov r8, r8)
 800091e:	46c0      	nop			; (mov r8, r8)
 8000920:	46bd      	mov	sp, r7
 8000922:	b002      	add	sp, #8
 8000924:	bd80      	pop	{r7, pc}
 8000926:	46c0      	nop			; (mov r8, r8)
 8000928:	00000fff 	.word	0x00000fff
 800092c:	2000023c 	.word	0x2000023c
 8000930:	20000032 	.word	0x20000032

08000934 <ClearBuffers>:
 * @brief  Clear the buffers
 * @param  None
 * @retval None
 */
void ClearBuffers(void)
{
 8000934:	b580      	push	{r7, lr}
 8000936:	b082      	sub	sp, #8
 8000938:	af00      	add	r7, sp, #0
  uint8_t count;
  for(count=0;count<BUFFER_SIZE;count++)
 800093a:	1dfb      	adds	r3, r7, #7
 800093c:	2200      	movs	r2, #0
 800093e:	701a      	strb	r2, [r3, #0]
 8000940:	e00e      	b.n	8000960 <ClearBuffers+0x2c>
  {
    bridge_IN_buffer[count]=0x0;
 8000942:	1dfb      	adds	r3, r7, #7
 8000944:	781b      	ldrb	r3, [r3, #0]
 8000946:	4a0b      	ldr	r2, [pc, #44]	; (8000974 <ClearBuffers+0x40>)
 8000948:	2100      	movs	r1, #0
 800094a:	54d1      	strb	r1, [r2, r3]
    bridge_OUT_buffer[count]=0x0;
 800094c:	1dfb      	adds	r3, r7, #7
 800094e:	781b      	ldrb	r3, [r3, #0]
 8000950:	4a09      	ldr	r2, [pc, #36]	; (8000978 <ClearBuffers+0x44>)
 8000952:	2100      	movs	r1, #0
 8000954:	54d1      	strb	r1, [r2, r3]
  for(count=0;count<BUFFER_SIZE;count++)
 8000956:	1dfb      	adds	r3, r7, #7
 8000958:	781a      	ldrb	r2, [r3, #0]
 800095a:	1dfb      	adds	r3, r7, #7
 800095c:	3201      	adds	r2, #1
 800095e:	701a      	strb	r2, [r3, #0]
 8000960:	1dfb      	adds	r3, r7, #7
 8000962:	781b      	ldrb	r3, [r3, #0]
 8000964:	2b3f      	cmp	r3, #63	; 0x3f
 8000966:	d9ec      	bls.n	8000942 <ClearBuffers+0xe>
  }
}
 8000968:	46c0      	nop			; (mov r8, r8)
 800096a:	46c0      	nop			; (mov r8, r8)
 800096c:	46bd      	mov	sp, r7
 800096e:	b002      	add	sp, #8
 8000970:	bd80      	pop	{r7, pc}
 8000972:	46c0      	nop			; (mov r8, r8)
 8000974:	20000034 	.word	0x20000034
 8000978:	20000074 	.word	0x20000074

0800097c <main>:
/**
  * @brief  The application entry point.
  * @retval int
  */
int main(void)
{
 800097c:	b580      	push	{r7, lr}
 800097e:	af00      	add	r7, sp, #0
  /* USER CODE END 1 */

  /* MCU Configuration--------------------------------------------------------*/

  /* Reset of all peripherals, Initializes the Flash interface and the Systick. */
  HAL_Init();
 8000980:	f000 ff9a 	bl	80018b8 <HAL_Init>
  /* USER CODE BEGIN Init */

  /* USER CODE END Init */

  /* Configure the system clock */
  SystemClock_Config();
 8000984:	f000 f81e 	bl	80009c4 <SystemClock_Config>
  /* USER CODE BEGIN SysInit */

  /* USER CODE END SysInit */

  /* Initialize all configured peripherals */
  MX_GPIO_Init();
 8000988:	f000 f99c 	bl	8000cc4 <MX_GPIO_Init>
  MX_USART2_UART_Init();
 800098c:	f000 f94c 	bl	8000c28 <MX_USART2_UART_Init>
  MX_I2C1_Init();
 8000990:	f000 f860 	bl	8000a54 <MX_I2C1_Init>
  MX_TIM2_Init();
 8000994:	f000 f89e 	bl	8000ad4 <MX_TIM2_Init>
  MX_TIM3_Init();
 8000998:	f000 f8f0 	bl	8000b7c <MX_TIM3_Init>
  /* USER CODE BEGIN 2 */

  // mainApp.c

  __HAL_TIM_CLEAR_IT(&htim2,TIM_SR_UIF);
 800099c:	4b07      	ldr	r3, [pc, #28]	; (80009bc <main+0x40>)
 800099e:	681b      	ldr	r3, [r3, #0]
 80009a0:	2202      	movs	r2, #2
 80009a2:	4252      	negs	r2, r2
 80009a4:	611a      	str	r2, [r3, #16]
  __HAL_TIM_CLEAR_IT(&htim3,TIM_SR_UIF);
 80009a6:	4b06      	ldr	r3, [pc, #24]	; (80009c0 <main+0x44>)
 80009a8:	681b      	ldr	r3, [r3, #0]
 80009aa:	2202      	movs	r2, #2
 80009ac:	4252      	negs	r2, r2
 80009ae:	611a      	str	r2, [r3, #16]
  setup();
 80009b0:	f7ff fe34 	bl	800061c <setup>
  {
    /* USER CODE END WHILE */

    /* USER CODE BEGIN 3 */
	// run mainApp
	mainLoop();
 80009b4:	f7ff fe76 	bl	80006a4 <mainLoop>
 80009b8:	e7fc      	b.n	80009b4 <main+0x38>
 80009ba:	46c0      	nop			; (mov r8, r8)
 80009bc:	2000010c 	.word	0x2000010c
 80009c0:	20000158 	.word	0x20000158

080009c4 <SystemClock_Config>:
/**
  * @brief System Clock Configuration
  * @retval None
  */
void SystemClock_Config(void)
{
 80009c4:	b590      	push	{r4, r7, lr}
 80009c6:	b095      	sub	sp, #84	; 0x54
 80009c8:	af00      	add	r7, sp, #0
  RCC_OscInitTypeDef RCC_OscInitStruct = {0};
 80009ca:	2414      	movs	r4, #20
 80009cc:	193b      	adds	r3, r7, r4
 80009ce:	0018      	movs	r0, r3
 80009d0:	233c      	movs	r3, #60	; 0x3c
 80009d2:	001a      	movs	r2, r3
 80009d4:	2100      	movs	r1, #0
 80009d6:	f004 fadb 	bl	8004f90 <memset>
  RCC_ClkInitTypeDef RCC_ClkInitStruct = {0};
 80009da:	1d3b      	adds	r3, r7, #4
 80009dc:	0018      	movs	r0, r3
 80009de:	2310      	movs	r3, #16
 80009e0:	001a      	movs	r2, r3
 80009e2:	2100      	movs	r1, #0
 80009e4:	f004 fad4 	bl	8004f90 <memset>

  /** Configure the main internal regulator output voltage
  */
  HAL_PWREx_ControlVoltageScaling(PWR_REGULATOR_VOLTAGE_SCALE1);
 80009e8:	2380      	movs	r3, #128	; 0x80
 80009ea:	009b      	lsls	r3, r3, #2
 80009ec:	0018      	movs	r0, r3
 80009ee:	f002 f9bf 	bl	8002d70 <HAL_PWREx_ControlVoltageScaling>

  /** Initializes the RCC Oscillators according to the specified parameters
  * in the RCC_OscInitTypeDef structure.
  */
  RCC_OscInitStruct.OscillatorType = RCC_OSCILLATORTYPE_HSI;
 80009f2:	193b      	adds	r3, r7, r4
 80009f4:	2202      	movs	r2, #2
 80009f6:	601a      	str	r2, [r3, #0]
  RCC_OscInitStruct.HSIState = RCC_HSI_ON;
 80009f8:	193b      	adds	r3, r7, r4
 80009fa:	2280      	movs	r2, #128	; 0x80
 80009fc:	0052      	lsls	r2, r2, #1
 80009fe:	60da      	str	r2, [r3, #12]
  RCC_OscInitStruct.HSIDiv = RCC_HSI_DIV1;
 8000a00:	193b      	adds	r3, r7, r4
 8000a02:	2200      	movs	r2, #0
 8000a04:	611a      	str	r2, [r3, #16]
  RCC_OscInitStruct.HSICalibrationValue = RCC_HSICALIBRATION_DEFAULT;
 8000a06:	193b      	adds	r3, r7, r4
 8000a08:	2240      	movs	r2, #64	; 0x40
 8000a0a:	615a      	str	r2, [r3, #20]
  RCC_OscInitStruct.PLL.PLLState = RCC_PLL_NONE;
 8000a0c:	193b      	adds	r3, r7, r4
 8000a0e:	2200      	movs	r2, #0
 8000a10:	621a      	str	r2, [r3, #32]
  if (HAL_RCC_OscConfig(&RCC_OscInitStruct) != HAL_OK)
 8000a12:	193b      	adds	r3, r7, r4
 8000a14:	0018      	movs	r0, r3
 8000a16:	f002 f9f7 	bl	8002e08 <HAL_RCC_OscConfig>
 8000a1a:	1e03      	subs	r3, r0, #0
 8000a1c:	d001      	beq.n	8000a22 <SystemClock_Config+0x5e>
  {
    Error_Handler();
 8000a1e:	f000 f9ad 	bl	8000d7c <Error_Handler>
  }

  /** Initializes the CPU, AHB and APB buses clocks
  */
  RCC_ClkInitStruct.ClockType = RCC_CLOCKTYPE_HCLK|RCC_CLOCKTYPE_SYSCLK
 8000a22:	1d3b      	adds	r3, r7, #4
 8000a24:	2207      	movs	r2, #7
 8000a26:	601a      	str	r2, [r3, #0]
                              |RCC_CLOCKTYPE_PCLK1;
  RCC_ClkInitStruct.SYSCLKSource = RCC_SYSCLKSOURCE_HSI;
 8000a28:	1d3b      	adds	r3, r7, #4
 8000a2a:	2200      	movs	r2, #0
 8000a2c:	605a      	str	r2, [r3, #4]
  RCC_ClkInitStruct.AHBCLKDivider = RCC_SYSCLK_DIV1;
 8000a2e:	1d3b      	adds	r3, r7, #4
 8000a30:	2200      	movs	r2, #0
 8000a32:	609a      	str	r2, [r3, #8]
  RCC_ClkInitStruct.APB1CLKDivider = RCC_HCLK_DIV1;
 8000a34:	1d3b      	adds	r3, r7, #4
 8000a36:	2200      	movs	r2, #0
 8000a38:	60da      	str	r2, [r3, #12]

  if (HAL_RCC_ClockConfig(&RCC_ClkInitStruct, FLASH_LATENCY_0) != HAL_OK)
 8000a3a:	1d3b      	adds	r3, r7, #4
 8000a3c:	2100      	movs	r1, #0
 8000a3e:	0018      	movs	r0, r3
 8000a40:	f002 fd42 	bl	80034c8 <HAL_RCC_ClockConfig>
 8000a44:	1e03      	subs	r3, r0, #0
 8000a46:	d001      	beq.n	8000a4c <SystemClock_Config+0x88>
  {
    Error_Handler();
 8000a48:	f000 f998 	bl	8000d7c <Error_Handler>
  }
}
 8000a4c:	46c0      	nop			; (mov r8, r8)
 8000a4e:	46bd      	mov	sp, r7
 8000a50:	b015      	add	sp, #84	; 0x54
 8000a52:	bd90      	pop	{r4, r7, pc}

08000a54 <MX_I2C1_Init>:
  * @brief I2C1 Initialization Function
  * @param None
  * @retval None
  */
void MX_I2C1_Init(void)
{
 8000a54:	b580      	push	{r7, lr}
 8000a56:	af00      	add	r7, sp, #0
  /* USER CODE END I2C1_Init 0 */

  /* USER CODE BEGIN I2C1_Init 1 */

  /* USER CODE END I2C1_Init 1 */
  hi2c1.Instance = I2C1;
 8000a58:	4b1b      	ldr	r3, [pc, #108]	; (8000ac8 <MX_I2C1_Init+0x74>)
 8000a5a:	4a1c      	ldr	r2, [pc, #112]	; (8000acc <MX_I2C1_Init+0x78>)
 8000a5c:	601a      	str	r2, [r3, #0]
  hi2c1.Init.Timing = 0x00303D5B;
 8000a5e:	4b1a      	ldr	r3, [pc, #104]	; (8000ac8 <MX_I2C1_Init+0x74>)
 8000a60:	4a1b      	ldr	r2, [pc, #108]	; (8000ad0 <MX_I2C1_Init+0x7c>)
 8000a62:	605a      	str	r2, [r3, #4]
  hi2c1.Init.OwnAddress1 = 0;
 8000a64:	4b18      	ldr	r3, [pc, #96]	; (8000ac8 <MX_I2C1_Init+0x74>)
 8000a66:	2200      	movs	r2, #0
 8000a68:	609a      	str	r2, [r3, #8]
  hi2c1.Init.AddressingMode = I2C_ADDRESSINGMODE_7BIT;
 8000a6a:	4b17      	ldr	r3, [pc, #92]	; (8000ac8 <MX_I2C1_Init+0x74>)
 8000a6c:	2201      	movs	r2, #1
 8000a6e:	60da      	str	r2, [r3, #12]
  hi2c1.Init.DualAddressMode = I2C_DUALADDRESS_DISABLE;
 8000a70:	4b15      	ldr	r3, [pc, #84]	; (8000ac8 <MX_I2C1_Init+0x74>)
 8000a72:	2200      	movs	r2, #0
 8000a74:	611a      	str	r2, [r3, #16]
  hi2c1.Init.OwnAddress2 = 0;
 8000a76:	4b14      	ldr	r3, [pc, #80]	; (8000ac8 <MX_I2C1_Init+0x74>)
 8000a78:	2200      	movs	r2, #0
 8000a7a:	615a      	str	r2, [r3, #20]
  hi2c1.Init.OwnAddress2Masks = I2C_OA2_NOMASK;
 8000a7c:	4b12      	ldr	r3, [pc, #72]	; (8000ac8 <MX_I2C1_Init+0x74>)
 8000a7e:	2200      	movs	r2, #0
 8000a80:	619a      	str	r2, [r3, #24]
  hi2c1.Init.GeneralCallMode = I2C_GENERALCALL_DISABLE;
 8000a82:	4b11      	ldr	r3, [pc, #68]	; (8000ac8 <MX_I2C1_Init+0x74>)
 8000a84:	2200      	movs	r2, #0
 8000a86:	61da      	str	r2, [r3, #28]
  hi2c1.Init.NoStretchMode = I2C_NOSTRETCH_DISABLE;
 8000a88:	4b0f      	ldr	r3, [pc, #60]	; (8000ac8 <MX_I2C1_Init+0x74>)
 8000a8a:	2200      	movs	r2, #0
 8000a8c:	621a      	str	r2, [r3, #32]
  if (HAL_I2C_Init(&hi2c1) != HAL_OK)
 8000a8e:	4b0e      	ldr	r3, [pc, #56]	; (8000ac8 <MX_I2C1_Init+0x74>)
 8000a90:	0018      	movs	r0, r3
 8000a92:	f001 fad1 	bl	8002038 <HAL_I2C_Init>
 8000a96:	1e03      	subs	r3, r0, #0
 8000a98:	d001      	beq.n	8000a9e <MX_I2C1_Init+0x4a>
  {
    Error_Handler();
 8000a9a:	f000 f96f 	bl	8000d7c <Error_Handler>
  }

  /** Configure Analogue filter
  */
  if (HAL_I2CEx_ConfigAnalogFilter(&hi2c1, I2C_ANALOGFILTER_ENABLE) != HAL_OK)
 8000a9e:	4b0a      	ldr	r3, [pc, #40]	; (8000ac8 <MX_I2C1_Init+0x74>)
 8000aa0:	2100      	movs	r1, #0
 8000aa2:	0018      	movs	r0, r3
 8000aa4:	f002 f8cc 	bl	8002c40 <HAL_I2CEx_ConfigAnalogFilter>
 8000aa8:	1e03      	subs	r3, r0, #0
 8000aaa:	d001      	beq.n	8000ab0 <MX_I2C1_Init+0x5c>
  {
    Error_Handler();
 8000aac:	f000 f966 	bl	8000d7c <Error_Handler>
  }

  /** Configure Digital filter
  */
  if (HAL_I2CEx_ConfigDigitalFilter(&hi2c1, 0) != HAL_OK)
 8000ab0:	4b05      	ldr	r3, [pc, #20]	; (8000ac8 <MX_I2C1_Init+0x74>)
 8000ab2:	2100      	movs	r1, #0
 8000ab4:	0018      	movs	r0, r3
 8000ab6:	f002 f90f 	bl	8002cd8 <HAL_I2CEx_ConfigDigitalFilter>
 8000aba:	1e03      	subs	r3, r0, #0
 8000abc:	d001      	beq.n	8000ac2 <MX_I2C1_Init+0x6e>
  {
    Error_Handler();
 8000abe:	f000 f95d 	bl	8000d7c <Error_Handler>
  }
  /* USER CODE BEGIN I2C1_Init 2 */

  /* USER CODE END I2C1_Init 2 */

}
 8000ac2:	46c0      	nop			; (mov r8, r8)
 8000ac4:	46bd      	mov	sp, r7
 8000ac6:	bd80      	pop	{r7, pc}
 8000ac8:	200000b8 	.word	0x200000b8
 8000acc:	40005400 	.word	0x40005400
 8000ad0:	00303d5b 	.word	0x00303d5b

08000ad4 <MX_TIM2_Init>:
  * @brief TIM2 Initialization Function
  * @param None
  * @retval None
  */
static void MX_TIM2_Init(void)
{
 8000ad4:	b580      	push	{r7, lr}
 8000ad6:	b088      	sub	sp, #32
 8000ad8:	af00      	add	r7, sp, #0

  /* USER CODE BEGIN TIM2_Init 0 */

  /* USER CODE END TIM2_Init 0 */

  TIM_ClockConfigTypeDef sClockSourceConfig = {0};
 8000ada:	2310      	movs	r3, #16
 8000adc:	18fb      	adds	r3, r7, r3
 8000ade:	0018      	movs	r0, r3
 8000ae0:	2310      	movs	r3, #16
 8000ae2:	001a      	movs	r2, r3
 8000ae4:	2100      	movs	r1, #0
 8000ae6:	f004 fa53 	bl	8004f90 <memset>
  TIM_MasterConfigTypeDef sMasterConfig = {0};
 8000aea:	1d3b      	adds	r3, r7, #4
 8000aec:	0018      	movs	r0, r3
 8000aee:	230c      	movs	r3, #12
 8000af0:	001a      	movs	r2, r3
 8000af2:	2100      	movs	r1, #0
 8000af4:	f004 fa4c 	bl	8004f90 <memset>

  /* USER CODE BEGIN TIM2_Init 1 */

  /* USER CODE END TIM2_Init 1 */
  htim2.Instance = TIM2;
 8000af8:	4b1f      	ldr	r3, [pc, #124]	; (8000b78 <MX_TIM2_Init+0xa4>)
 8000afa:	2280      	movs	r2, #128	; 0x80
 8000afc:	05d2      	lsls	r2, r2, #23
 8000afe:	601a      	str	r2, [r3, #0]
  htim2.Init.Prescaler = 0;
 8000b00:	4b1d      	ldr	r3, [pc, #116]	; (8000b78 <MX_TIM2_Init+0xa4>)
 8000b02:	2200      	movs	r2, #0
 8000b04:	605a      	str	r2, [r3, #4]
  htim2.Init.CounterMode = TIM_COUNTERMODE_UP;
 8000b06:	4b1c      	ldr	r3, [pc, #112]	; (8000b78 <MX_TIM2_Init+0xa4>)
 8000b08:	2200      	movs	r2, #0
 8000b0a:	609a      	str	r2, [r3, #8]
  htim2.Init.Period = 4294967295;
 8000b0c:	4b1a      	ldr	r3, [pc, #104]	; (8000b78 <MX_TIM2_Init+0xa4>)
 8000b0e:	2201      	movs	r2, #1
 8000b10:	4252      	negs	r2, r2
 8000b12:	60da      	str	r2, [r3, #12]
  htim2.Init.ClockDivision = TIM_CLOCKDIVISION_DIV1;
 8000b14:	4b18      	ldr	r3, [pc, #96]	; (8000b78 <MX_TIM2_Init+0xa4>)
 8000b16:	2200      	movs	r2, #0
 8000b18:	611a      	str	r2, [r3, #16]
  htim2.Init.AutoReloadPreload = TIM_AUTORELOAD_PRELOAD_DISABLE;
 8000b1a:	4b17      	ldr	r3, [pc, #92]	; (8000b78 <MX_TIM2_Init+0xa4>)
 8000b1c:	2200      	movs	r2, #0
 8000b1e:	619a      	str	r2, [r3, #24]
  if (HAL_TIM_Base_Init(&htim2) != HAL_OK)
 8000b20:	4b15      	ldr	r3, [pc, #84]	; (8000b78 <MX_TIM2_Init+0xa4>)
 8000b22:	0018      	movs	r0, r3
 8000b24:	f003 f8b6 	bl	8003c94 <HAL_TIM_Base_Init>
 8000b28:	1e03      	subs	r3, r0, #0
 8000b2a:	d001      	beq.n	8000b30 <MX_TIM2_Init+0x5c>
  {
    Error_Handler();
 8000b2c:	f000 f926 	bl	8000d7c <Error_Handler>
  }
  sClockSourceConfig.ClockSource = TIM_CLOCKSOURCE_INTERNAL;
 8000b30:	2110      	movs	r1, #16
 8000b32:	187b      	adds	r3, r7, r1
 8000b34:	2280      	movs	r2, #128	; 0x80
 8000b36:	0152      	lsls	r2, r2, #5
 8000b38:	601a      	str	r2, [r3, #0]
  if (HAL_TIM_ConfigClockSource(&htim2, &sClockSourceConfig) != HAL_OK)
 8000b3a:	187a      	adds	r2, r7, r1
 8000b3c:	4b0e      	ldr	r3, [pc, #56]	; (8000b78 <MX_TIM2_Init+0xa4>)
 8000b3e:	0011      	movs	r1, r2
 8000b40:	0018      	movs	r0, r3
 8000b42:	f003 f8ff 	bl	8003d44 <HAL_TIM_ConfigClockSource>
 8000b46:	1e03      	subs	r3, r0, #0
 8000b48:	d001      	beq.n	8000b4e <MX_TIM2_Init+0x7a>
  {
    Error_Handler();
 8000b4a:	f000 f917 	bl	8000d7c <Error_Handler>
  }
  sMasterConfig.MasterOutputTrigger = TIM_TRGO_RESET;
 8000b4e:	1d3b      	adds	r3, r7, #4
 8000b50:	2200      	movs	r2, #0
 8000b52:	601a      	str	r2, [r3, #0]
  sMasterConfig.MasterSlaveMode = TIM_MASTERSLAVEMODE_DISABLE;
 8000b54:	1d3b      	adds	r3, r7, #4
 8000b56:	2200      	movs	r2, #0
 8000b58:	609a      	str	r2, [r3, #8]
  if (HAL_TIMEx_MasterConfigSynchronization(&htim2, &sMasterConfig) != HAL_OK)
 8000b5a:	1d3a      	adds	r2, r7, #4
 8000b5c:	4b06      	ldr	r3, [pc, #24]	; (8000b78 <MX_TIM2_Init+0xa4>)
 8000b5e:	0011      	movs	r1, r2
 8000b60:	0018      	movs	r0, r3
 8000b62:	f003 faeb 	bl	800413c <HAL_TIMEx_MasterConfigSynchronization>
 8000b66:	1e03      	subs	r3, r0, #0
 8000b68:	d001      	beq.n	8000b6e <MX_TIM2_Init+0x9a>
  {
    Error_Handler();
 8000b6a:	f000 f907 	bl	8000d7c <Error_Handler>
  }
  /* USER CODE BEGIN TIM2_Init 2 */

  /* USER CODE END TIM2_Init 2 */

}
 8000b6e:	46c0      	nop			; (mov r8, r8)
 8000b70:	46bd      	mov	sp, r7
 8000b72:	b008      	add	sp, #32
 8000b74:	bd80      	pop	{r7, pc}
 8000b76:	46c0      	nop			; (mov r8, r8)
 8000b78:	2000010c 	.word	0x2000010c

08000b7c <MX_TIM3_Init>:
  * @brief TIM3 Initialization Function
  * @param None
  * @retval None
  */
static void MX_TIM3_Init(void)
{
 8000b7c:	b580      	push	{r7, lr}
 8000b7e:	b088      	sub	sp, #32
 8000b80:	af00      	add	r7, sp, #0

  /* USER CODE BEGIN TIM3_Init 0 */

  /* USER CODE END TIM3_Init 0 */

  TIM_ClockConfigTypeDef sClockSourceConfig = {0};
 8000b82:	2310      	movs	r3, #16
 8000b84:	18fb      	adds	r3, r7, r3
 8000b86:	0018      	movs	r0, r3
 8000b88:	2310      	movs	r3, #16
 8000b8a:	001a      	movs	r2, r3
 8000b8c:	2100      	movs	r1, #0
 8000b8e:	f004 f9ff 	bl	8004f90 <memset>
  TIM_MasterConfigTypeDef sMasterConfig = {0};
 8000b92:	1d3b      	adds	r3, r7, #4
 8000b94:	0018      	movs	r0, r3
 8000b96:	230c      	movs	r3, #12
 8000b98:	001a      	movs	r2, r3
 8000b9a:	2100      	movs	r1, #0
 8000b9c:	f004 f9f8 	bl	8004f90 <memset>

  /* USER CODE BEGIN TIM3_Init 1 */

  /* USER CODE END TIM3_Init 1 */
  htim3.Instance = TIM3;
 8000ba0:	4b1e      	ldr	r3, [pc, #120]	; (8000c1c <MX_TIM3_Init+0xa0>)
 8000ba2:	4a1f      	ldr	r2, [pc, #124]	; (8000c20 <MX_TIM3_Init+0xa4>)
 8000ba4:	601a      	str	r2, [r3, #0]
  htim3.Init.Prescaler = 0;
 8000ba6:	4b1d      	ldr	r3, [pc, #116]	; (8000c1c <MX_TIM3_Init+0xa0>)
 8000ba8:	2200      	movs	r2, #0
 8000baa:	605a      	str	r2, [r3, #4]
  htim3.Init.CounterMode = TIM_COUNTERMODE_UP;
 8000bac:	4b1b      	ldr	r3, [pc, #108]	; (8000c1c <MX_TIM3_Init+0xa0>)
 8000bae:	2200      	movs	r2, #0
 8000bb0:	609a      	str	r2, [r3, #8]
  htim3.Init.Period = 65535;
 8000bb2:	4b1a      	ldr	r3, [pc, #104]	; (8000c1c <MX_TIM3_Init+0xa0>)
 8000bb4:	4a1b      	ldr	r2, [pc, #108]	; (8000c24 <MX_TIM3_Init+0xa8>)
 8000bb6:	60da      	str	r2, [r3, #12]
  htim3.Init.ClockDivision = TIM_CLOCKDIVISION_DIV1;
 8000bb8:	4b18      	ldr	r3, [pc, #96]	; (8000c1c <MX_TIM3_Init+0xa0>)
 8000bba:	2200      	movs	r2, #0
 8000bbc:	611a      	str	r2, [r3, #16]
  htim3.Init.AutoReloadPreload = TIM_AUTORELOAD_PRELOAD_DISABLE;
 8000bbe:	4b17      	ldr	r3, [pc, #92]	; (8000c1c <MX_TIM3_Init+0xa0>)
 8000bc0:	2200      	movs	r2, #0
 8000bc2:	619a      	str	r2, [r3, #24]
  if (HAL_TIM_Base_Init(&htim3) != HAL_OK)
 8000bc4:	4b15      	ldr	r3, [pc, #84]	; (8000c1c <MX_TIM3_Init+0xa0>)
 8000bc6:	0018      	movs	r0, r3
 8000bc8:	f003 f864 	bl	8003c94 <HAL_TIM_Base_Init>
 8000bcc:	1e03      	subs	r3, r0, #0
 8000bce:	d001      	beq.n	8000bd4 <MX_TIM3_Init+0x58>
  {
    Error_Handler();
 8000bd0:	f000 f8d4 	bl	8000d7c <Error_Handler>
  }
  sClockSourceConfig.ClockSource = TIM_CLOCKSOURCE_INTERNAL;
 8000bd4:	2110      	movs	r1, #16
 8000bd6:	187b      	adds	r3, r7, r1
 8000bd8:	2280      	movs	r2, #128	; 0x80
 8000bda:	0152      	lsls	r2, r2, #5
 8000bdc:	601a      	str	r2, [r3, #0]
  if (HAL_TIM_ConfigClockSource(&htim3, &sClockSourceConfig) != HAL_OK)
 8000bde:	187a      	adds	r2, r7, r1
 8000be0:	4b0e      	ldr	r3, [pc, #56]	; (8000c1c <MX_TIM3_Init+0xa0>)
 8000be2:	0011      	movs	r1, r2
 8000be4:	0018      	movs	r0, r3
 8000be6:	f003 f8ad 	bl	8003d44 <HAL_TIM_ConfigClockSource>
 8000bea:	1e03      	subs	r3, r0, #0
 8000bec:	d001      	beq.n	8000bf2 <MX_TIM3_Init+0x76>
  {
    Error_Handler();
 8000bee:	f000 f8c5 	bl	8000d7c <Error_Handler>
  }
  sMasterConfig.MasterOutputTrigger = TIM_TRGO_RESET;
 8000bf2:	1d3b      	adds	r3, r7, #4
 8000bf4:	2200      	movs	r2, #0
 8000bf6:	601a      	str	r2, [r3, #0]
  sMasterConfig.MasterSlaveMode = TIM_MASTERSLAVEMODE_DISABLE;
 8000bf8:	1d3b      	adds	r3, r7, #4
 8000bfa:	2200      	movs	r2, #0
 8000bfc:	609a      	str	r2, [r3, #8]
  if (HAL_TIMEx_MasterConfigSynchronization(&htim3, &sMasterConfig) != HAL_OK)
 8000bfe:	1d3a      	adds	r2, r7, #4
 8000c00:	4b06      	ldr	r3, [pc, #24]	; (8000c1c <MX_TIM3_Init+0xa0>)
 8000c02:	0011      	movs	r1, r2
 8000c04:	0018      	movs	r0, r3
 8000c06:	f003 fa99 	bl	800413c <HAL_TIMEx_MasterConfigSynchronization>
 8000c0a:	1e03      	subs	r3, r0, #0
 8000c0c:	d001      	beq.n	8000c12 <MX_TIM3_Init+0x96>
  {
    Error_Handler();
 8000c0e:	f000 f8b5 	bl	8000d7c <Error_Handler>
  }
  /* USER CODE BEGIN TIM3_Init 2 */

  /* USER CODE END TIM3_Init 2 */

}
 8000c12:	46c0      	nop			; (mov r8, r8)
 8000c14:	46bd      	mov	sp, r7
 8000c16:	b008      	add	sp, #32
 8000c18:	bd80      	pop	{r7, pc}
 8000c1a:	46c0      	nop			; (mov r8, r8)
 8000c1c:	20000158 	.word	0x20000158
 8000c20:	40000400 	.word	0x40000400
 8000c24:	0000ffff 	.word	0x0000ffff

08000c28 <MX_USART2_UART_Init>:
  * @brief USART2 Initialization Function
  * @param None
  * @retval None
  */
static void MX_USART2_UART_Init(void)
{
 8000c28:	b580      	push	{r7, lr}
 8000c2a:	af00      	add	r7, sp, #0
  /* USER CODE END USART2_Init 0 */

  /* USER CODE BEGIN USART2_Init 1 */

  /* USER CODE END USART2_Init 1 */
  huart2.Instance = USART2;
 8000c2c:	4b23      	ldr	r3, [pc, #140]	; (8000cbc <MX_USART2_UART_Init+0x94>)
 8000c2e:	4a24      	ldr	r2, [pc, #144]	; (8000cc0 <MX_USART2_UART_Init+0x98>)
 8000c30:	601a      	str	r2, [r3, #0]
  huart2.Init.BaudRate = 115200;
 8000c32:	4b22      	ldr	r3, [pc, #136]	; (8000cbc <MX_USART2_UART_Init+0x94>)
 8000c34:	22e1      	movs	r2, #225	; 0xe1
 8000c36:	0252      	lsls	r2, r2, #9
 8000c38:	605a      	str	r2, [r3, #4]
  huart2.Init.WordLength = UART_WORDLENGTH_8B;
 8000c3a:	4b20      	ldr	r3, [pc, #128]	; (8000cbc <MX_USART2_UART_Init+0x94>)
 8000c3c:	2200      	movs	r2, #0
 8000c3e:	609a      	str	r2, [r3, #8]
  huart2.Init.StopBits = UART_STOPBITS_1;
 8000c40:	4b1e      	ldr	r3, [pc, #120]	; (8000cbc <MX_USART2_UART_Init+0x94>)
 8000c42:	2200      	movs	r2, #0
 8000c44:	60da      	str	r2, [r3, #12]
  huart2.Init.Parity = UART_PARITY_NONE;
 8000c46:	4b1d      	ldr	r3, [pc, #116]	; (8000cbc <MX_USART2_UART_Init+0x94>)
 8000c48:	2200      	movs	r2, #0
 8000c4a:	611a      	str	r2, [r3, #16]
  huart2.Init.Mode = UART_MODE_TX_RX;
 8000c4c:	4b1b      	ldr	r3, [pc, #108]	; (8000cbc <MX_USART2_UART_Init+0x94>)
 8000c4e:	220c      	movs	r2, #12
 8000c50:	615a      	str	r2, [r3, #20]
  huart2.Init.HwFlowCtl = UART_HWCONTROL_NONE;
 8000c52:	4b1a      	ldr	r3, [pc, #104]	; (8000cbc <MX_USART2_UART_Init+0x94>)
 8000c54:	2200      	movs	r2, #0
 8000c56:	619a      	str	r2, [r3, #24]
  huart2.Init.OverSampling = UART_OVERSAMPLING_16;
 8000c58:	4b18      	ldr	r3, [pc, #96]	; (8000cbc <MX_USART2_UART_Init+0x94>)
 8000c5a:	2200      	movs	r2, #0
 8000c5c:	61da      	str	r2, [r3, #28]
  huart2.Init.OneBitSampling = UART_ONE_BIT_SAMPLE_DISABLE;
 8000c5e:	4b17      	ldr	r3, [pc, #92]	; (8000cbc <MX_USART2_UART_Init+0x94>)
 8000c60:	2200      	movs	r2, #0
 8000c62:	621a      	str	r2, [r3, #32]
  huart2.Init.ClockPrescaler = UART_PRESCALER_DIV1;
 8000c64:	4b15      	ldr	r3, [pc, #84]	; (8000cbc <MX_USART2_UART_Init+0x94>)
 8000c66:	2200      	movs	r2, #0
 8000c68:	625a      	str	r2, [r3, #36]	; 0x24
  huart2.AdvancedInit.AdvFeatureInit = UART_ADVFEATURE_NO_INIT;
 8000c6a:	4b14      	ldr	r3, [pc, #80]	; (8000cbc <MX_USART2_UART_Init+0x94>)
 8000c6c:	2200      	movs	r2, #0
 8000c6e:	629a      	str	r2, [r3, #40]	; 0x28
  if (HAL_UART_Init(&huart2) != HAL_OK)
 8000c70:	4b12      	ldr	r3, [pc, #72]	; (8000cbc <MX_USART2_UART_Init+0x94>)
 8000c72:	0018      	movs	r0, r3
 8000c74:	f003 fad8 	bl	8004228 <HAL_UART_Init>
 8000c78:	1e03      	subs	r3, r0, #0
 8000c7a:	d001      	beq.n	8000c80 <MX_USART2_UART_Init+0x58>
  {
    Error_Handler();
 8000c7c:	f000 f87e 	bl	8000d7c <Error_Handler>
  }
  if (HAL_UARTEx_SetTxFifoThreshold(&huart2, UART_TXFIFO_THRESHOLD_1_8) != HAL_OK)
 8000c80:	4b0e      	ldr	r3, [pc, #56]	; (8000cbc <MX_USART2_UART_Init+0x94>)
 8000c82:	2100      	movs	r1, #0
 8000c84:	0018      	movs	r0, r3
 8000c86:	f004 f87f 	bl	8004d88 <HAL_UARTEx_SetTxFifoThreshold>
 8000c8a:	1e03      	subs	r3, r0, #0
 8000c8c:	d001      	beq.n	8000c92 <MX_USART2_UART_Init+0x6a>
  {
    Error_Handler();
 8000c8e:	f000 f875 	bl	8000d7c <Error_Handler>
  }
  if (HAL_UARTEx_SetRxFifoThreshold(&huart2, UART_RXFIFO_THRESHOLD_1_8) != HAL_OK)
 8000c92:	4b0a      	ldr	r3, [pc, #40]	; (8000cbc <MX_USART2_UART_Init+0x94>)
 8000c94:	2100      	movs	r1, #0
 8000c96:	0018      	movs	r0, r3
 8000c98:	f004 f8b6 	bl	8004e08 <HAL_UARTEx_SetRxFifoThreshold>
 8000c9c:	1e03      	subs	r3, r0, #0
 8000c9e:	d001      	beq.n	8000ca4 <MX_USART2_UART_Init+0x7c>
  {
    Error_Handler();
 8000ca0:	f000 f86c 	bl	8000d7c <Error_Handler>
  }
  if (HAL_UARTEx_DisableFifoMode(&huart2) != HAL_OK)
 8000ca4:	4b05      	ldr	r3, [pc, #20]	; (8000cbc <MX_USART2_UART_Init+0x94>)
 8000ca6:	0018      	movs	r0, r3
 8000ca8:	f004 f834 	bl	8004d14 <HAL_UARTEx_DisableFifoMode>
 8000cac:	1e03      	subs	r3, r0, #0
 8000cae:	d001      	beq.n	8000cb4 <MX_USART2_UART_Init+0x8c>
  {
    Error_Handler();
 8000cb0:	f000 f864 	bl	8000d7c <Error_Handler>
  }
  /* USER CODE BEGIN USART2_Init 2 */

  /* USER CODE END USART2_Init 2 */

}
 8000cb4:	46c0      	nop			; (mov r8, r8)
 8000cb6:	46bd      	mov	sp, r7
 8000cb8:	bd80      	pop	{r7, pc}
 8000cba:	46c0      	nop			; (mov r8, r8)
 8000cbc:	200001a4 	.word	0x200001a4
 8000cc0:	40004400 	.word	0x40004400

08000cc4 <MX_GPIO_Init>:
  * @brief GPIO Initialization Function
  * @param None
  * @retval None
  */
static void MX_GPIO_Init(void)
{
 8000cc4:	b590      	push	{r4, r7, lr}
 8000cc6:	b08b      	sub	sp, #44	; 0x2c
 8000cc8:	af00      	add	r7, sp, #0
  GPIO_InitTypeDef GPIO_InitStruct = {0};
 8000cca:	2414      	movs	r4, #20
 8000ccc:	193b      	adds	r3, r7, r4
 8000cce:	0018      	movs	r0, r3
 8000cd0:	2314      	movs	r3, #20
 8000cd2:	001a      	movs	r2, r3
 8000cd4:	2100      	movs	r1, #0
 8000cd6:	f004 f95b 	bl	8004f90 <memset>
/* USER CODE BEGIN MX_GPIO_Init_1 */
/* USER CODE END MX_GPIO_Init_1 */

  /* GPIO Ports Clock Enable */
  __HAL_RCC_GPIOC_CLK_ENABLE();
 8000cda:	4b27      	ldr	r3, [pc, #156]	; (8000d78 <MX_GPIO_Init+0xb4>)
 8000cdc:	6b5a      	ldr	r2, [r3, #52]	; 0x34
 8000cde:	4b26      	ldr	r3, [pc, #152]	; (8000d78 <MX_GPIO_Init+0xb4>)
 8000ce0:	2104      	movs	r1, #4
 8000ce2:	430a      	orrs	r2, r1
 8000ce4:	635a      	str	r2, [r3, #52]	; 0x34
 8000ce6:	4b24      	ldr	r3, [pc, #144]	; (8000d78 <MX_GPIO_Init+0xb4>)
 8000ce8:	6b5b      	ldr	r3, [r3, #52]	; 0x34
 8000cea:	2204      	movs	r2, #4
 8000cec:	4013      	ands	r3, r2
 8000cee:	613b      	str	r3, [r7, #16]
 8000cf0:	693b      	ldr	r3, [r7, #16]
  __HAL_RCC_GPIOF_CLK_ENABLE();
 8000cf2:	4b21      	ldr	r3, [pc, #132]	; (8000d78 <MX_GPIO_Init+0xb4>)
 8000cf4:	6b5a      	ldr	r2, [r3, #52]	; 0x34
 8000cf6:	4b20      	ldr	r3, [pc, #128]	; (8000d78 <MX_GPIO_Init+0xb4>)
 8000cf8:	2120      	movs	r1, #32
 8000cfa:	430a      	orrs	r2, r1
 8000cfc:	635a      	str	r2, [r3, #52]	; 0x34
 8000cfe:	4b1e      	ldr	r3, [pc, #120]	; (8000d78 <MX_GPIO_Init+0xb4>)
 8000d00:	6b5b      	ldr	r3, [r3, #52]	; 0x34
 8000d02:	2220      	movs	r2, #32
 8000d04:	4013      	ands	r3, r2
 8000d06:	60fb      	str	r3, [r7, #12]
 8000d08:	68fb      	ldr	r3, [r7, #12]
  __HAL_RCC_GPIOA_CLK_ENABLE();
 8000d0a:	4b1b      	ldr	r3, [pc, #108]	; (8000d78 <MX_GPIO_Init+0xb4>)
 8000d0c:	6b5a      	ldr	r2, [r3, #52]	; 0x34
 8000d0e:	4b1a      	ldr	r3, [pc, #104]	; (8000d78 <MX_GPIO_Init+0xb4>)
 8000d10:	2101      	movs	r1, #1
 8000d12:	430a      	orrs	r2, r1
 8000d14:	635a      	str	r2, [r3, #52]	; 0x34
 8000d16:	4b18      	ldr	r3, [pc, #96]	; (8000d78 <MX_GPIO_Init+0xb4>)
 8000d18:	6b5b      	ldr	r3, [r3, #52]	; 0x34
 8000d1a:	2201      	movs	r2, #1
 8000d1c:	4013      	ands	r3, r2
 8000d1e:	60bb      	str	r3, [r7, #8]
 8000d20:	68bb      	ldr	r3, [r7, #8]
  __HAL_RCC_GPIOB_CLK_ENABLE();
 8000d22:	4b15      	ldr	r3, [pc, #84]	; (8000d78 <MX_GPIO_Init+0xb4>)
 8000d24:	6b5a      	ldr	r2, [r3, #52]	; 0x34
 8000d26:	4b14      	ldr	r3, [pc, #80]	; (8000d78 <MX_GPIO_Init+0xb4>)
 8000d28:	2102      	movs	r1, #2
 8000d2a:	430a      	orrs	r2, r1
 8000d2c:	635a      	str	r2, [r3, #52]	; 0x34
 8000d2e:	4b12      	ldr	r3, [pc, #72]	; (8000d78 <MX_GPIO_Init+0xb4>)
 8000d30:	6b5b      	ldr	r3, [r3, #52]	; 0x34
 8000d32:	2202      	movs	r2, #2
 8000d34:	4013      	ands	r3, r2
 8000d36:	607b      	str	r3, [r7, #4]
 8000d38:	687b      	ldr	r3, [r7, #4]

  /*Configure GPIO pin Output Level */
  HAL_GPIO_WritePin(LED_GREEN_GPIO_Port, LED_GREEN_Pin, GPIO_PIN_RESET);
 8000d3a:	23a0      	movs	r3, #160	; 0xa0
 8000d3c:	05db      	lsls	r3, r3, #23
 8000d3e:	2200      	movs	r2, #0
 8000d40:	2120      	movs	r1, #32
 8000d42:	0018      	movs	r0, r3
 8000d44:	f001 f95a 	bl	8001ffc <HAL_GPIO_WritePin>

  /*Configure GPIO pin : LED_GREEN_Pin */
  GPIO_InitStruct.Pin = LED_GREEN_Pin;
 8000d48:	0021      	movs	r1, r4
 8000d4a:	187b      	adds	r3, r7, r1
 8000d4c:	2220      	movs	r2, #32
 8000d4e:	601a      	str	r2, [r3, #0]
  GPIO_InitStruct.Mode = GPIO_MODE_OUTPUT_PP;
 8000d50:	187b      	adds	r3, r7, r1
 8000d52:	2201      	movs	r2, #1
 8000d54:	605a      	str	r2, [r3, #4]
  GPIO_InitStruct.Pull = GPIO_NOPULL;
 8000d56:	187b      	adds	r3, r7, r1
 8000d58:	2200      	movs	r2, #0
 8000d5a:	609a      	str	r2, [r3, #8]
  GPIO_InitStruct.Speed = GPIO_SPEED_FREQ_HIGH;
 8000d5c:	187b      	adds	r3, r7, r1
 8000d5e:	2202      	movs	r2, #2
 8000d60:	60da      	str	r2, [r3, #12]
  HAL_GPIO_Init(LED_GREEN_GPIO_Port, &GPIO_InitStruct);
 8000d62:	187a      	adds	r2, r7, r1
 8000d64:	23a0      	movs	r3, #160	; 0xa0
 8000d66:	05db      	lsls	r3, r3, #23
 8000d68:	0011      	movs	r1, r2
 8000d6a:	0018      	movs	r0, r3
 8000d6c:	f000 ff02 	bl	8001b74 <HAL_GPIO_Init>

/* USER CODE BEGIN MX_GPIO_Init_2 */
/* USER CODE END MX_GPIO_Init_2 */
}
 8000d70:	46c0      	nop			; (mov r8, r8)
 8000d72:	46bd      	mov	sp, r7
 8000d74:	b00b      	add	sp, #44	; 0x2c
 8000d76:	bd90      	pop	{r4, r7, pc}
 8000d78:	40021000 	.word	0x40021000

08000d7c <Error_Handler>:
/**
  * @brief  This function is executed in case of error occurrence.
  * @retval None
  */
void Error_Handler(void)
{
 8000d7c:	b580      	push	{r7, lr}
 8000d7e:	af00      	add	r7, sp, #0
  \details Disables IRQ interrupts by setting the I-bit in the CPSR.
           Can only be executed in Privileged modes.
 */
__STATIC_FORCEINLINE void __disable_irq(void)
{
  __ASM volatile ("cpsid i" : : : "memory");
 8000d80:	b672      	cpsid	i
}
 8000d82:	46c0      	nop			; (mov r8, r8)
  /* USER CODE BEGIN Error_Handler_Debug */
  /* User can add his own implementation to report the HAL error return state */
  __disable_irq();
  while (1)
 8000d84:	e7fe      	b.n	8000d84 <Error_Handler+0x8>
	...

08000d88 <HAL_MspInit>:
/* USER CODE END 0 */
/**
  * Initializes the Global MSP.
  */
void HAL_MspInit(void)
{
 8000d88:	b580      	push	{r7, lr}
 8000d8a:	b082      	sub	sp, #8
 8000d8c:	af00      	add	r7, sp, #0
  /* USER CODE BEGIN MspInit 0 */

  /* USER CODE END MspInit 0 */

  __HAL_RCC_SYSCFG_CLK_ENABLE();
 8000d8e:	4b0f      	ldr	r3, [pc, #60]	; (8000dcc <HAL_MspInit+0x44>)
 8000d90:	6c1a      	ldr	r2, [r3, #64]	; 0x40
 8000d92:	4b0e      	ldr	r3, [pc, #56]	; (8000dcc <HAL_MspInit+0x44>)
 8000d94:	2101      	movs	r1, #1
 8000d96:	430a      	orrs	r2, r1
 8000d98:	641a      	str	r2, [r3, #64]	; 0x40
 8000d9a:	4b0c      	ldr	r3, [pc, #48]	; (8000dcc <HAL_MspInit+0x44>)
 8000d9c:	6c1b      	ldr	r3, [r3, #64]	; 0x40
 8000d9e:	2201      	movs	r2, #1
 8000da0:	4013      	ands	r3, r2
 8000da2:	607b      	str	r3, [r7, #4]
 8000da4:	687b      	ldr	r3, [r7, #4]
  __HAL_RCC_PWR_CLK_ENABLE();
 8000da6:	4b09      	ldr	r3, [pc, #36]	; (8000dcc <HAL_MspInit+0x44>)
 8000da8:	6bda      	ldr	r2, [r3, #60]	; 0x3c
 8000daa:	4b08      	ldr	r3, [pc, #32]	; (8000dcc <HAL_MspInit+0x44>)
 8000dac:	2180      	movs	r1, #128	; 0x80
 8000dae:	0549      	lsls	r1, r1, #21
 8000db0:	430a      	orrs	r2, r1
 8000db2:	63da      	str	r2, [r3, #60]	; 0x3c
 8000db4:	4b05      	ldr	r3, [pc, #20]	; (8000dcc <HAL_MspInit+0x44>)
 8000db6:	6bda      	ldr	r2, [r3, #60]	; 0x3c
 8000db8:	2380      	movs	r3, #128	; 0x80
 8000dba:	055b      	lsls	r3, r3, #21
 8000dbc:	4013      	ands	r3, r2
 8000dbe:	603b      	str	r3, [r7, #0]
 8000dc0:	683b      	ldr	r3, [r7, #0]
  /* System interrupt init*/

  /* USER CODE BEGIN MspInit 1 */

  /* USER CODE END MspInit 1 */
}
 8000dc2:	46c0      	nop			; (mov r8, r8)
 8000dc4:	46bd      	mov	sp, r7
 8000dc6:	b002      	add	sp, #8
 8000dc8:	bd80      	pop	{r7, pc}
 8000dca:	46c0      	nop			; (mov r8, r8)
 8000dcc:	40021000 	.word	0x40021000

08000dd0 <HAL_I2C_MspInit>:
* This function configures the hardware resources used in this example
* @param hi2c: I2C handle pointer
* @retval None
*/
void HAL_I2C_MspInit(I2C_HandleTypeDef* hi2c)
{
 8000dd0:	b590      	push	{r4, r7, lr}
 8000dd2:	b09d      	sub	sp, #116	; 0x74
 8000dd4:	af00      	add	r7, sp, #0
 8000dd6:	6078      	str	r0, [r7, #4]
  GPIO_InitTypeDef GPIO_InitStruct = {0};
 8000dd8:	235c      	movs	r3, #92	; 0x5c
 8000dda:	18fb      	adds	r3, r7, r3
 8000ddc:	0018      	movs	r0, r3
 8000dde:	2314      	movs	r3, #20
 8000de0:	001a      	movs	r2, r3
 8000de2:	2100      	movs	r1, #0
 8000de4:	f004 f8d4 	bl	8004f90 <memset>
  RCC_PeriphCLKInitTypeDef PeriphClkInit = {0};
 8000de8:	2410      	movs	r4, #16
 8000dea:	193b      	adds	r3, r7, r4
 8000dec:	0018      	movs	r0, r3
 8000dee:	234c      	movs	r3, #76	; 0x4c
 8000df0:	001a      	movs	r2, r3
 8000df2:	2100      	movs	r1, #0
 8000df4:	f004 f8cc 	bl	8004f90 <memset>
  if(hi2c->Instance==I2C1)
 8000df8:	687b      	ldr	r3, [r7, #4]
 8000dfa:	681b      	ldr	r3, [r3, #0]
 8000dfc:	4a22      	ldr	r2, [pc, #136]	; (8000e88 <HAL_I2C_MspInit+0xb8>)
 8000dfe:	4293      	cmp	r3, r2
 8000e00:	d13e      	bne.n	8000e80 <HAL_I2C_MspInit+0xb0>

  /* USER CODE END I2C1_MspInit 0 */

  /** Initializes the peripherals clocks
  */
    PeriphClkInit.PeriphClockSelection = RCC_PERIPHCLK_I2C1;
 8000e02:	193b      	adds	r3, r7, r4
 8000e04:	2220      	movs	r2, #32
 8000e06:	601a      	str	r2, [r3, #0]
    PeriphClkInit.I2c1ClockSelection = RCC_I2C1CLKSOURCE_PCLK1;
 8000e08:	193b      	adds	r3, r7, r4
 8000e0a:	2200      	movs	r2, #0
 8000e0c:	619a      	str	r2, [r3, #24]
    if (HAL_RCCEx_PeriphCLKConfig(&PeriphClkInit) != HAL_OK)
 8000e0e:	193b      	adds	r3, r7, r4
 8000e10:	0018      	movs	r0, r3
 8000e12:	f002 fd03 	bl	800381c <HAL_RCCEx_PeriphCLKConfig>
 8000e16:	1e03      	subs	r3, r0, #0
 8000e18:	d001      	beq.n	8000e1e <HAL_I2C_MspInit+0x4e>
    {
      Error_Handler();
 8000e1a:	f7ff ffaf 	bl	8000d7c <Error_Handler>
    }

    __HAL_RCC_GPIOB_CLK_ENABLE();
 8000e1e:	4b1b      	ldr	r3, [pc, #108]	; (8000e8c <HAL_I2C_MspInit+0xbc>)
 8000e20:	6b5a      	ldr	r2, [r3, #52]	; 0x34
 8000e22:	4b1a      	ldr	r3, [pc, #104]	; (8000e8c <HAL_I2C_MspInit+0xbc>)
 8000e24:	2102      	movs	r1, #2
 8000e26:	430a      	orrs	r2, r1
 8000e28:	635a      	str	r2, [r3, #52]	; 0x34
 8000e2a:	4b18      	ldr	r3, [pc, #96]	; (8000e8c <HAL_I2C_MspInit+0xbc>)
 8000e2c:	6b5b      	ldr	r3, [r3, #52]	; 0x34
 8000e2e:	2202      	movs	r2, #2
 8000e30:	4013      	ands	r3, r2
 8000e32:	60fb      	str	r3, [r7, #12]
 8000e34:	68fb      	ldr	r3, [r7, #12]
    /**I2C1 GPIO Configuration
    PB8     ------> I2C1_SCL
    PB9     ------> I2C1_SDA
    */
    GPIO_InitStruct.Pin = GPIO_PIN_8|GPIO_PIN_9;
 8000e36:	215c      	movs	r1, #92	; 0x5c
 8000e38:	187b      	adds	r3, r7, r1
 8000e3a:	22c0      	movs	r2, #192	; 0xc0
 8000e3c:	0092      	lsls	r2, r2, #2
 8000e3e:	601a      	str	r2, [r3, #0]
    GPIO_InitStruct.Mode = GPIO_MODE_AF_OD;
 8000e40:	187b      	adds	r3, r7, r1
 8000e42:	2212      	movs	r2, #18
 8000e44:	605a      	str	r2, [r3, #4]
    GPIO_InitStruct.Pull = GPIO_NOPULL;
 8000e46:	187b      	adds	r3, r7, r1
 8000e48:	2200      	movs	r2, #0
 8000e4a:	609a      	str	r2, [r3, #8]
    GPIO_InitStruct.Speed = GPIO_SPEED_FREQ_LOW;
 8000e4c:	187b      	adds	r3, r7, r1
 8000e4e:	2200      	movs	r2, #0
 8000e50:	60da      	str	r2, [r3, #12]
    GPIO_InitStruct.Alternate = GPIO_AF6_I2C1;
 8000e52:	187b      	adds	r3, r7, r1
 8000e54:	2206      	movs	r2, #6
 8000e56:	611a      	str	r2, [r3, #16]
    HAL_GPIO_Init(GPIOB, &GPIO_InitStruct);
 8000e58:	187b      	adds	r3, r7, r1
 8000e5a:	4a0d      	ldr	r2, [pc, #52]	; (8000e90 <HAL_I2C_MspInit+0xc0>)
 8000e5c:	0019      	movs	r1, r3
 8000e5e:	0010      	movs	r0, r2
 8000e60:	f000 fe88 	bl	8001b74 <HAL_GPIO_Init>

    /* Peripheral clock enable */
    __HAL_RCC_I2C1_CLK_ENABLE();
 8000e64:	4b09      	ldr	r3, [pc, #36]	; (8000e8c <HAL_I2C_MspInit+0xbc>)
 8000e66:	6bda      	ldr	r2, [r3, #60]	; 0x3c
 8000e68:	4b08      	ldr	r3, [pc, #32]	; (8000e8c <HAL_I2C_MspInit+0xbc>)
 8000e6a:	2180      	movs	r1, #128	; 0x80
 8000e6c:	0389      	lsls	r1, r1, #14
 8000e6e:	430a      	orrs	r2, r1
 8000e70:	63da      	str	r2, [r3, #60]	; 0x3c
 8000e72:	4b06      	ldr	r3, [pc, #24]	; (8000e8c <HAL_I2C_MspInit+0xbc>)
 8000e74:	6bda      	ldr	r2, [r3, #60]	; 0x3c
 8000e76:	2380      	movs	r3, #128	; 0x80
 8000e78:	039b      	lsls	r3, r3, #14
 8000e7a:	4013      	ands	r3, r2
 8000e7c:	60bb      	str	r3, [r7, #8]
 8000e7e:	68bb      	ldr	r3, [r7, #8]
  /* USER CODE BEGIN I2C1_MspInit 1 */

  /* USER CODE END I2C1_MspInit 1 */
  }

}
 8000e80:	46c0      	nop			; (mov r8, r8)
 8000e82:	46bd      	mov	sp, r7
 8000e84:	b01d      	add	sp, #116	; 0x74
 8000e86:	bd90      	pop	{r4, r7, pc}
 8000e88:	40005400 	.word	0x40005400
 8000e8c:	40021000 	.word	0x40021000
 8000e90:	50000400 	.word	0x50000400

08000e94 <HAL_I2C_MspDeInit>:
* This function freeze the hardware resources used in this example
* @param hi2c: I2C handle pointer
* @retval None
*/
void HAL_I2C_MspDeInit(I2C_HandleTypeDef* hi2c)
{
 8000e94:	b580      	push	{r7, lr}
 8000e96:	b082      	sub	sp, #8
 8000e98:	af00      	add	r7, sp, #0
 8000e9a:	6078      	str	r0, [r7, #4]
  if(hi2c->Instance==I2C1)
 8000e9c:	687b      	ldr	r3, [r7, #4]
 8000e9e:	681b      	ldr	r3, [r3, #0]
 8000ea0:	4a0d      	ldr	r2, [pc, #52]	; (8000ed8 <HAL_I2C_MspDeInit+0x44>)
 8000ea2:	4293      	cmp	r3, r2
 8000ea4:	d113      	bne.n	8000ece <HAL_I2C_MspDeInit+0x3a>
  {
  /* USER CODE BEGIN I2C1_MspDeInit 0 */

  /* USER CODE END I2C1_MspDeInit 0 */
    /* Peripheral clock disable */
    __HAL_RCC_I2C1_CLK_DISABLE();
 8000ea6:	4b0d      	ldr	r3, [pc, #52]	; (8000edc <HAL_I2C_MspDeInit+0x48>)
 8000ea8:	6bda      	ldr	r2, [r3, #60]	; 0x3c
 8000eaa:	4b0c      	ldr	r3, [pc, #48]	; (8000edc <HAL_I2C_MspDeInit+0x48>)
 8000eac:	490c      	ldr	r1, [pc, #48]	; (8000ee0 <HAL_I2C_MspDeInit+0x4c>)
 8000eae:	400a      	ands	r2, r1
 8000eb0:	63da      	str	r2, [r3, #60]	; 0x3c

    /**I2C1 GPIO Configuration
    PB8     ------> I2C1_SCL
    PB9     ------> I2C1_SDA
    */
    HAL_GPIO_DeInit(GPIOB, GPIO_PIN_8);
 8000eb2:	2380      	movs	r3, #128	; 0x80
 8000eb4:	005b      	lsls	r3, r3, #1
 8000eb6:	4a0b      	ldr	r2, [pc, #44]	; (8000ee4 <HAL_I2C_MspDeInit+0x50>)
 8000eb8:	0019      	movs	r1, r3
 8000eba:	0010      	movs	r0, r2
 8000ebc:	f000 ffc6 	bl	8001e4c <HAL_GPIO_DeInit>

    HAL_GPIO_DeInit(GPIOB, GPIO_PIN_9);
 8000ec0:	2380      	movs	r3, #128	; 0x80
 8000ec2:	009b      	lsls	r3, r3, #2
 8000ec4:	4a07      	ldr	r2, [pc, #28]	; (8000ee4 <HAL_I2C_MspDeInit+0x50>)
 8000ec6:	0019      	movs	r1, r3
 8000ec8:	0010      	movs	r0, r2
 8000eca:	f000 ffbf 	bl	8001e4c <HAL_GPIO_DeInit>
  /* USER CODE BEGIN I2C1_MspDeInit 1 */

  /* USER CODE END I2C1_MspDeInit 1 */
  }

}
 8000ece:	46c0      	nop			; (mov r8, r8)
 8000ed0:	46bd      	mov	sp, r7
 8000ed2:	b002      	add	sp, #8
 8000ed4:	bd80      	pop	{r7, pc}
 8000ed6:	46c0      	nop			; (mov r8, r8)
 8000ed8:	40005400 	.word	0x40005400
 8000edc:	40021000 	.word	0x40021000
 8000ee0:	ffdfffff 	.word	0xffdfffff
 8000ee4:	50000400 	.word	0x50000400

08000ee8 <HAL_TIM_Base_MspInit>:
* This function configures the hardware resources used in this example
* @param htim_base: TIM_Base handle pointer
* @retval None
*/
void HAL_TIM_Base_MspInit(TIM_HandleTypeDef* htim_base)
{
 8000ee8:	b580      	push	{r7, lr}
 8000eea:	b084      	sub	sp, #16
 8000eec:	af00      	add	r7, sp, #0
 8000eee:	6078      	str	r0, [r7, #4]
  if(htim_base->Instance==TIM2)
 8000ef0:	687b      	ldr	r3, [r7, #4]
 8000ef2:	681a      	ldr	r2, [r3, #0]
 8000ef4:	2380      	movs	r3, #128	; 0x80
 8000ef6:	05db      	lsls	r3, r3, #23
 8000ef8:	429a      	cmp	r2, r3
 8000efa:	d10c      	bne.n	8000f16 <HAL_TIM_Base_MspInit+0x2e>
  {
  /* USER CODE BEGIN TIM2_MspInit 0 */

  /* USER CODE END TIM2_MspInit 0 */
    /* Peripheral clock enable */
    __HAL_RCC_TIM2_CLK_ENABLE();
 8000efc:	4b10      	ldr	r3, [pc, #64]	; (8000f40 <HAL_TIM_Base_MspInit+0x58>)
 8000efe:	6bda      	ldr	r2, [r3, #60]	; 0x3c
 8000f00:	4b0f      	ldr	r3, [pc, #60]	; (8000f40 <HAL_TIM_Base_MspInit+0x58>)
 8000f02:	2101      	movs	r1, #1
 8000f04:	430a      	orrs	r2, r1
 8000f06:	63da      	str	r2, [r3, #60]	; 0x3c
 8000f08:	4b0d      	ldr	r3, [pc, #52]	; (8000f40 <HAL_TIM_Base_MspInit+0x58>)
 8000f0a:	6bdb      	ldr	r3, [r3, #60]	; 0x3c
 8000f0c:	2201      	movs	r2, #1
 8000f0e:	4013      	ands	r3, r2
 8000f10:	60fb      	str	r3, [r7, #12]
 8000f12:	68fb      	ldr	r3, [r7, #12]
  /* USER CODE BEGIN TIM3_MspInit 1 */

  /* USER CODE END TIM3_MspInit 1 */
  }

}
 8000f14:	e010      	b.n	8000f38 <HAL_TIM_Base_MspInit+0x50>
  else if(htim_base->Instance==TIM3)
 8000f16:	687b      	ldr	r3, [r7, #4]
 8000f18:	681b      	ldr	r3, [r3, #0]
 8000f1a:	4a0a      	ldr	r2, [pc, #40]	; (8000f44 <HAL_TIM_Base_MspInit+0x5c>)
 8000f1c:	4293      	cmp	r3, r2
 8000f1e:	d10b      	bne.n	8000f38 <HAL_TIM_Base_MspInit+0x50>
    __HAL_RCC_TIM3_CLK_ENABLE();
 8000f20:	4b07      	ldr	r3, [pc, #28]	; (8000f40 <HAL_TIM_Base_MspInit+0x58>)
 8000f22:	6bda      	ldr	r2, [r3, #60]	; 0x3c
 8000f24:	4b06      	ldr	r3, [pc, #24]	; (8000f40 <HAL_TIM_Base_MspInit+0x58>)
 8000f26:	2102      	movs	r1, #2
 8000f28:	430a      	orrs	r2, r1
 8000f2a:	63da      	str	r2, [r3, #60]	; 0x3c
 8000f2c:	4b04      	ldr	r3, [pc, #16]	; (8000f40 <HAL_TIM_Base_MspInit+0x58>)
 8000f2e:	6bdb      	ldr	r3, [r3, #60]	; 0x3c
 8000f30:	2202      	movs	r2, #2
 8000f32:	4013      	ands	r3, r2
 8000f34:	60bb      	str	r3, [r7, #8]
 8000f36:	68bb      	ldr	r3, [r7, #8]
}
 8000f38:	46c0      	nop			; (mov r8, r8)
 8000f3a:	46bd      	mov	sp, r7
 8000f3c:	b004      	add	sp, #16
 8000f3e:	bd80      	pop	{r7, pc}
 8000f40:	40021000 	.word	0x40021000
 8000f44:	40000400 	.word	0x40000400

08000f48 <HAL_UART_MspInit>:
* This function configures the hardware resources used in this example
* @param huart: UART handle pointer
* @retval None
*/
void HAL_UART_MspInit(UART_HandleTypeDef* huart)
{
 8000f48:	b590      	push	{r4, r7, lr}
 8000f4a:	b09d      	sub	sp, #116	; 0x74
 8000f4c:	af00      	add	r7, sp, #0
 8000f4e:	6078      	str	r0, [r7, #4]
  GPIO_InitTypeDef GPIO_InitStruct = {0};
 8000f50:	235c      	movs	r3, #92	; 0x5c
 8000f52:	18fb      	adds	r3, r7, r3
 8000f54:	0018      	movs	r0, r3
 8000f56:	2314      	movs	r3, #20
 8000f58:	001a      	movs	r2, r3
 8000f5a:	2100      	movs	r1, #0
 8000f5c:	f004 f818 	bl	8004f90 <memset>
  RCC_PeriphCLKInitTypeDef PeriphClkInit = {0};
 8000f60:	2410      	movs	r4, #16
 8000f62:	193b      	adds	r3, r7, r4
 8000f64:	0018      	movs	r0, r3
 8000f66:	234c      	movs	r3, #76	; 0x4c
 8000f68:	001a      	movs	r2, r3
 8000f6a:	2100      	movs	r1, #0
 8000f6c:	f004 f810 	bl	8004f90 <memset>
  if(huart->Instance==USART2)
 8000f70:	687b      	ldr	r3, [r7, #4]
 8000f72:	681b      	ldr	r3, [r3, #0]
 8000f74:	4a22      	ldr	r2, [pc, #136]	; (8001000 <HAL_UART_MspInit+0xb8>)
 8000f76:	4293      	cmp	r3, r2
 8000f78:	d13e      	bne.n	8000ff8 <HAL_UART_MspInit+0xb0>

  /* USER CODE END USART2_MspInit 0 */

  /** Initializes the peripherals clocks
  */
    PeriphClkInit.PeriphClockSelection = RCC_PERIPHCLK_USART2;
 8000f7a:	193b      	adds	r3, r7, r4
 8000f7c:	2202      	movs	r2, #2
 8000f7e:	601a      	str	r2, [r3, #0]
    PeriphClkInit.Usart2ClockSelection = RCC_USART2CLKSOURCE_PCLK1;
 8000f80:	193b      	adds	r3, r7, r4
 8000f82:	2200      	movs	r2, #0
 8000f84:	609a      	str	r2, [r3, #8]
    if (HAL_RCCEx_PeriphCLKConfig(&PeriphClkInit) != HAL_OK)
 8000f86:	193b      	adds	r3, r7, r4
 8000f88:	0018      	movs	r0, r3
 8000f8a:	f002 fc47 	bl	800381c <HAL_RCCEx_PeriphCLKConfig>
 8000f8e:	1e03      	subs	r3, r0, #0
 8000f90:	d001      	beq.n	8000f96 <HAL_UART_MspInit+0x4e>
    {
      Error_Handler();
 8000f92:	f7ff fef3 	bl	8000d7c <Error_Handler>
    }

    /* Peripheral clock enable */
    __HAL_RCC_USART2_CLK_ENABLE();
 8000f96:	4b1b      	ldr	r3, [pc, #108]	; (8001004 <HAL_UART_MspInit+0xbc>)
 8000f98:	6bda      	ldr	r2, [r3, #60]	; 0x3c
 8000f9a:	4b1a      	ldr	r3, [pc, #104]	; (8001004 <HAL_UART_MspInit+0xbc>)
 8000f9c:	2180      	movs	r1, #128	; 0x80
 8000f9e:	0289      	lsls	r1, r1, #10
 8000fa0:	430a      	orrs	r2, r1
 8000fa2:	63da      	str	r2, [r3, #60]	; 0x3c
 8000fa4:	4b17      	ldr	r3, [pc, #92]	; (8001004 <HAL_UART_MspInit+0xbc>)
 8000fa6:	6bda      	ldr	r2, [r3, #60]	; 0x3c
 8000fa8:	2380      	movs	r3, #128	; 0x80
 8000faa:	029b      	lsls	r3, r3, #10
 8000fac:	4013      	ands	r3, r2
 8000fae:	60fb      	str	r3, [r7, #12]
 8000fb0:	68fb      	ldr	r3, [r7, #12]

    __HAL_RCC_GPIOA_CLK_ENABLE();
 8000fb2:	4b14      	ldr	r3, [pc, #80]	; (8001004 <HAL_UART_MspInit+0xbc>)
 8000fb4:	6b5a      	ldr	r2, [r3, #52]	; 0x34
 8000fb6:	4b13      	ldr	r3, [pc, #76]	; (8001004 <HAL_UART_MspInit+0xbc>)
 8000fb8:	2101      	movs	r1, #1
 8000fba:	430a      	orrs	r2, r1
 8000fbc:	635a      	str	r2, [r3, #52]	; 0x34
 8000fbe:	4b11      	ldr	r3, [pc, #68]	; (8001004 <HAL_UART_MspInit+0xbc>)
 8000fc0:	6b5b      	ldr	r3, [r3, #52]	; 0x34
 8000fc2:	2201      	movs	r2, #1
 8000fc4:	4013      	ands	r3, r2
 8000fc6:	60bb      	str	r3, [r7, #8]
 8000fc8:	68bb      	ldr	r3, [r7, #8]
    /**USART2 GPIO Configuration
    PA2     ------> USART2_TX
    PA3     ------> USART2_RX
    */
    GPIO_InitStruct.Pin = USART2_TX_Pin|USART2_RX_Pin;
 8000fca:	215c      	movs	r1, #92	; 0x5c
 8000fcc:	187b      	adds	r3, r7, r1
 8000fce:	220c      	movs	r2, #12
 8000fd0:	601a      	str	r2, [r3, #0]
    GPIO_InitStruct.Mode = GPIO_MODE_AF_PP;
 8000fd2:	187b      	adds	r3, r7, r1
 8000fd4:	2202      	movs	r2, #2
 8000fd6:	605a      	str	r2, [r3, #4]
    GPIO_InitStruct.Pull = GPIO_NOPULL;
 8000fd8:	187b      	adds	r3, r7, r1
 8000fda:	2200      	movs	r2, #0
 8000fdc:	609a      	str	r2, [r3, #8]
    GPIO_InitStruct.Speed = GPIO_SPEED_FREQ_LOW;
 8000fde:	187b      	adds	r3, r7, r1
 8000fe0:	2200      	movs	r2, #0
 8000fe2:	60da      	str	r2, [r3, #12]
    GPIO_InitStruct.Alternate = GPIO_AF1_USART2;
 8000fe4:	187b      	adds	r3, r7, r1
 8000fe6:	2201      	movs	r2, #1
 8000fe8:	611a      	str	r2, [r3, #16]
    HAL_GPIO_Init(GPIOA, &GPIO_InitStruct);
 8000fea:	187a      	adds	r2, r7, r1
 8000fec:	23a0      	movs	r3, #160	; 0xa0
 8000fee:	05db      	lsls	r3, r3, #23
 8000ff0:	0011      	movs	r1, r2
 8000ff2:	0018      	movs	r0, r3
 8000ff4:	f000 fdbe 	bl	8001b74 <HAL_GPIO_Init>
  /* USER CODE BEGIN USART2_MspInit 1 */

  /* USER CODE END USART2_MspInit 1 */
  }

}
 8000ff8:	46c0      	nop			; (mov r8, r8)
 8000ffa:	46bd      	mov	sp, r7
 8000ffc:	b01d      	add	sp, #116	; 0x74
 8000ffe:	bd90      	pop	{r4, r7, pc}
 8001000:	40004400 	.word	0x40004400
 8001004:	40021000 	.word	0x40021000

08001008 <NMI_Handler>:
/******************************************************************************/
/**
  * @brief This function handles Non maskable interrupt.
  */
void NMI_Handler(void)
{
 8001008:	b580      	push	{r7, lr}
 800100a:	af00      	add	r7, sp, #0
  /* USER CODE BEGIN NonMaskableInt_IRQn 0 */

  /* USER CODE END NonMaskableInt_IRQn 0 */
  /* USER CODE BEGIN NonMaskableInt_IRQn 1 */
  while (1)
 800100c:	e7fe      	b.n	800100c <NMI_Handler+0x4>

0800100e <HardFault_Handler>:

/**
  * @brief This function handles Hard fault interrupt.
  */
void HardFault_Handler(void)
{
 800100e:	b580      	push	{r7, lr}
 8001010:	af00      	add	r7, sp, #0
  /* USER CODE BEGIN HardFault_IRQn 0 */

  /* USER CODE END HardFault_IRQn 0 */
  while (1)
 8001012:	e7fe      	b.n	8001012 <HardFault_Handler+0x4>

08001014 <SVC_Handler>:

/**
  * @brief This function handles System service call via SWI instruction.
  */
void SVC_Handler(void)
{
 8001014:	b580      	push	{r7, lr}
 8001016:	af00      	add	r7, sp, #0

  /* USER CODE END SVC_IRQn 0 */
  /* USER CODE BEGIN SVC_IRQn 1 */

  /* USER CODE END SVC_IRQn 1 */
}
 8001018:	46c0      	nop			; (mov r8, r8)
 800101a:	46bd      	mov	sp, r7
 800101c:	bd80      	pop	{r7, pc}

0800101e <PendSV_Handler>:

/**
  * @brief This function handles Pendable request for system service.
  */
void PendSV_Handler(void)
{
 800101e:	b580      	push	{r7, lr}
 8001020:	af00      	add	r7, sp, #0

  /* USER CODE END PendSV_IRQn 0 */
  /* USER CODE BEGIN PendSV_IRQn 1 */

  /* USER CODE END PendSV_IRQn 1 */
}
 8001022:	46c0      	nop			; (mov r8, r8)
 8001024:	46bd      	mov	sp, r7
 8001026:	bd80      	pop	{r7, pc}

08001028 <SysTick_Handler>:

/**
  * @brief This function handles System tick timer.
  */
void SysTick_Handler(void)
{
 8001028:	b580      	push	{r7, lr}
 800102a:	af00      	add	r7, sp, #0
  /* USER CODE BEGIN SysTick_IRQn 0 */

  /* USER CODE END SysTick_IRQn 0 */
  HAL_IncTick();
 800102c:	f000 fcae 	bl	800198c <HAL_IncTick>
  /* USER CODE BEGIN SysTick_IRQn 1 */

  /* USER CODE END SysTick_IRQn 1 */
}
 8001030:	46c0      	nop			; (mov r8, r8)
 8001032:	46bd      	mov	sp, r7
 8001034:	bd80      	pop	{r7, pc}

08001036 <SystemInit>:
  * @brief  Setup the microcontroller system.
  * @param  None
  * @retval None
  */
void SystemInit(void)
{
 8001036:	b580      	push	{r7, lr}
 8001038:	af00      	add	r7, sp, #0
  /* Configure the Vector Table location -------------------------------------*/
#if defined(USER_VECT_TAB_ADDRESS)
  SCB->VTOR = VECT_TAB_BASE_ADDRESS | VECT_TAB_OFFSET; /* Vector Table Relocation */
#endif /* USER_VECT_TAB_ADDRESS */
}
 800103a:	46c0      	nop			; (mov r8, r8)
 800103c:	46bd      	mov	sp, r7
 800103e:	bd80      	pop	{r7, pc}

08001040 <Reset_Handler>:

  .section .text.Reset_Handler
  .weak Reset_Handler
  .type Reset_Handler, %function
Reset_Handler:
  ldr   r0, =_estack
 8001040:	480d      	ldr	r0, [pc, #52]	; (8001078 <LoopForever+0x2>)
  mov   sp, r0          /* set stack pointer */
 8001042:	4685      	mov	sp, r0

/* Call the clock system initialization function.*/
  bl  SystemInit
 8001044:	f7ff fff7 	bl	8001036 <SystemInit>

/* Copy the data segment initializers from flash to SRAM */
  ldr r0, =_sdata
 8001048:	480c      	ldr	r0, [pc, #48]	; (800107c <LoopForever+0x6>)
  ldr r1, =_edata
 800104a:	490d      	ldr	r1, [pc, #52]	; (8001080 <LoopForever+0xa>)
  ldr r2, =_sidata
 800104c:	4a0d      	ldr	r2, [pc, #52]	; (8001084 <LoopForever+0xe>)
  movs r3, #0
 800104e:	2300      	movs	r3, #0
  b LoopCopyDataInit
 8001050:	e002      	b.n	8001058 <LoopCopyDataInit>

08001052 <CopyDataInit>:

CopyDataInit:
  ldr r4, [r2, r3]
 8001052:	58d4      	ldr	r4, [r2, r3]
  str r4, [r0, r3]
 8001054:	50c4      	str	r4, [r0, r3]
  adds r3, r3, #4
 8001056:	3304      	adds	r3, #4

08001058 <LoopCopyDataInit>:

LoopCopyDataInit:
  adds r4, r0, r3
 8001058:	18c4      	adds	r4, r0, r3
  cmp r4, r1
 800105a:	428c      	cmp	r4, r1
  bcc CopyDataInit
 800105c:	d3f9      	bcc.n	8001052 <CopyDataInit>

/* Zero fill the bss segment. */
  ldr r2, =_sbss
 800105e:	4a0a      	ldr	r2, [pc, #40]	; (8001088 <LoopForever+0x12>)
  ldr r4, =_ebss
 8001060:	4c0a      	ldr	r4, [pc, #40]	; (800108c <LoopForever+0x16>)
  movs r3, #0
 8001062:	2300      	movs	r3, #0
  b LoopFillZerobss
 8001064:	e001      	b.n	800106a <LoopFillZerobss>

08001066 <FillZerobss>:

FillZerobss:
  str  r3, [r2]
 8001066:	6013      	str	r3, [r2, #0]
  adds r2, r2, #4
 8001068:	3204      	adds	r2, #4

0800106a <LoopFillZerobss>:

LoopFillZerobss:
  cmp r2, r4
 800106a:	42a2      	cmp	r2, r4
  bcc FillZerobss
 800106c:	d3fb      	bcc.n	8001066 <FillZerobss>

/* Call static constructors */
  bl __libc_init_array
 800106e:	f003 ff6b 	bl	8004f48 <__libc_init_array>
/* Call the application s entry point.*/
  bl main
 8001072:	f7ff fc83 	bl	800097c <main>

08001076 <LoopForever>:

LoopForever:
  b LoopForever
 8001076:	e7fe      	b.n	8001076 <LoopForever>
  ldr   r0, =_estack
 8001078:	20024000 	.word	0x20024000
  ldr r0, =_sdata
 800107c:	20000000 	.word	0x20000000
  ldr r1, =_edata
 8001080:	2000000c 	.word	0x2000000c
  ldr r2, =_sidata
 8001084:	08005078 	.word	0x08005078
  ldr r2, =_sbss
 8001088:	2000000c 	.word	0x2000000c
  ldr r4, =_ebss
 800108c:	2000026c 	.word	0x2000026c

08001090 <ADC1_COMP_IRQHandler>:
 * @retval None
*/
  .section .text.Default_Handler,"ax",%progbits
Default_Handler:
Infinite_Loop:
  b Infinite_Loop
 8001090:	e7fe      	b.n	8001090 <ADC1_COMP_IRQHandler>
	...

08001094 <LED1202_RegisterBusIO>:
 * @param  pObj the device pObj
 * @param  pIO the IO pObj
 * @retval 0 in case of success, an error code otherwise
 */
int32_t LED1202_RegisterBusIO (LED1202_Object_TypeDef* pObj, LED1202_IO_TypeDef *pIO)
{
 8001094:	b580      	push	{r7, lr}
 8001096:	b084      	sub	sp, #16
 8001098:	af00      	add	r7, sp, #0
 800109a:	6078      	str	r0, [r7, #4]
 800109c:	6039      	str	r1, [r7, #0]
  int32_t ret = (int32_t)LED1202_OK;
 800109e:	2300      	movs	r3, #0
 80010a0:	60fb      	str	r3, [r7, #12]

  if (pObj == NULL)
 80010a2:	687b      	ldr	r3, [r7, #4]
 80010a4:	2b00      	cmp	r3, #0
 80010a6:	d102      	bne.n	80010ae <LED1202_RegisterBusIO+0x1a>
  {
    ret = (int32_t)LED1202_ERROR;
 80010a8:	2303      	movs	r3, #3
 80010aa:	60fb      	str	r3, [r7, #12]
 80010ac:	e032      	b.n	8001114 <LED1202_RegisterBusIO+0x80>
  }
  else
  {
    pObj->IO.BusType     = pIO->BusType;
 80010ae:	683b      	ldr	r3, [r7, #0]
 80010b0:	681a      	ldr	r2, [r3, #0]
 80010b2:	687b      	ldr	r3, [r7, #4]
 80010b4:	601a      	str	r2, [r3, #0]
    pObj->IO.Address     = pIO->Address;
 80010b6:	683b      	ldr	r3, [r7, #0]
 80010b8:	791a      	ldrb	r2, [r3, #4]
 80010ba:	687b      	ldr	r3, [r7, #4]
 80010bc:	711a      	strb	r2, [r3, #4]
    pObj->IO.Init        = pIO->Init;
 80010be:	683b      	ldr	r3, [r7, #0]
 80010c0:	689a      	ldr	r2, [r3, #8]
 80010c2:	687b      	ldr	r3, [r7, #4]
 80010c4:	609a      	str	r2, [r3, #8]
    pObj->IO.DeInit      = pIO->DeInit;
 80010c6:	683b      	ldr	r3, [r7, #0]
 80010c8:	68da      	ldr	r2, [r3, #12]
 80010ca:	687b      	ldr	r3, [r7, #4]
 80010cc:	60da      	str	r2, [r3, #12]
    pObj->IO.Write       = pIO->Write;
 80010ce:	683b      	ldr	r3, [r7, #0]
 80010d0:	691a      	ldr	r2, [r3, #16]
 80010d2:	687b      	ldr	r3, [r7, #4]
 80010d4:	611a      	str	r2, [r3, #16]
    pObj->IO.Read        = pIO->Read;
 80010d6:	683b      	ldr	r3, [r7, #0]
 80010d8:	695a      	ldr	r2, [r3, #20]
 80010da:	687b      	ldr	r3, [r7, #4]
 80010dc:	615a      	str	r2, [r3, #20]
    pObj->IO.Delay     =   pIO->Delay;
 80010de:	683b      	ldr	r3, [r7, #0]
 80010e0:	699a      	ldr	r2, [r3, #24]
 80010e2:	687b      	ldr	r3, [r7, #4]
 80010e4:	619a      	str	r2, [r3, #24]

    pObj->Ctx.ReadReg  = ReadRegWrap;
 80010e6:	687b      	ldr	r3, [r7, #4]
 80010e8:	4a0d      	ldr	r2, [pc, #52]	; (8001120 <LED1202_RegisterBusIO+0x8c>)
 80010ea:	621a      	str	r2, [r3, #32]
    pObj->Ctx.WriteReg = WriteRegWrap;
 80010ec:	687b      	ldr	r3, [r7, #4]
 80010ee:	4a0d      	ldr	r2, [pc, #52]	; (8001124 <LED1202_RegisterBusIO+0x90>)
 80010f0:	61da      	str	r2, [r3, #28]
    pObj->Ctx.handle   = pObj;
 80010f2:	687b      	ldr	r3, [r7, #4]
 80010f4:	687a      	ldr	r2, [r7, #4]
 80010f6:	625a      	str	r2, [r3, #36]	; 0x24

    if (pObj->IO.Init == NULL)
 80010f8:	687b      	ldr	r3, [r7, #4]
 80010fa:	689b      	ldr	r3, [r3, #8]
 80010fc:	2b00      	cmp	r3, #0
 80010fe:	d102      	bne.n	8001106 <LED1202_RegisterBusIO+0x72>
    {
      ret = (int32_t)LED1202_ERROR;
 8001100:	2303      	movs	r3, #3
 8001102:	60fb      	str	r3, [r7, #12]
 8001104:	e006      	b.n	8001114 <LED1202_RegisterBusIO+0x80>
    } else if (pObj->IO.Init() != 0) {
 8001106:	687b      	ldr	r3, [r7, #4]
 8001108:	689b      	ldr	r3, [r3, #8]
 800110a:	4798      	blx	r3
 800110c:	1e03      	subs	r3, r0, #0
 800110e:	d001      	beq.n	8001114 <LED1202_RegisterBusIO+0x80>
      ret = (int32_t)LED1202_ERROR;
 8001110:	2303      	movs	r3, #3
 8001112:	60fb      	str	r3, [r7, #12]
    {
      /*DO nothing*/
    }
  }

  return ret;
 8001114:	68fb      	ldr	r3, [r7, #12]
}
 8001116:	0018      	movs	r0, r3
 8001118:	46bd      	mov	sp, r7
 800111a:	b004      	add	sp, #16
 800111c:	bd80      	pop	{r7, pc}
 800111e:	46c0      	nop			; (mov r8, r8)
 8001120:	08001549 	.word	0x08001549
 8001124:	0800158d 	.word	0x0800158d

08001128 <LED1202_ReadID>:
 * @param  pID pointer to the buffer
 * @param  DevAddr 7-Bit Device Address
 * @retval 0 in case of success, an error code otherwise
 */
int32_t LED1202_ReadID(LED1202_Object_TypeDef* pObj, uint8_t *pID, uint8_t DevAddr)
{
 8001128:	b580      	push	{r7, lr}
 800112a:	b086      	sub	sp, #24
 800112c:	af00      	add	r7, sp, #0
 800112e:	60f8      	str	r0, [r7, #12]
 8001130:	60b9      	str	r1, [r7, #8]
 8001132:	1dfb      	adds	r3, r7, #7
 8001134:	701a      	strb	r2, [r3, #0]
  int32_t ret;
  pObj->IO.Address = DevAddr<<1;
 8001136:	1dfb      	adds	r3, r7, #7
 8001138:	781b      	ldrb	r3, [r3, #0]
 800113a:	18db      	adds	r3, r3, r3
 800113c:	b2da      	uxtb	r2, r3
 800113e:	68fb      	ldr	r3, [r7, #12]
 8001140:	711a      	strb	r2, [r3, #4]
  TmpStatus = LED1202_ReadReg(&(pObj->Ctx), LED1202_DEVICE_ID, pID, 1);
 8001142:	68fb      	ldr	r3, [r7, #12]
 8001144:	331c      	adds	r3, #28
 8001146:	0018      	movs	r0, r3
 8001148:	68ba      	ldr	r2, [r7, #8]
 800114a:	2301      	movs	r3, #1
 800114c:	2100      	movs	r1, #0
 800114e:	f000 f908 	bl	8001362 <LED1202_ReadReg>
 8001152:	0002      	movs	r2, r0
 8001154:	4b07      	ldr	r3, [pc, #28]	; (8001174 <LED1202_ReadID+0x4c>)
 8001156:	601a      	str	r2, [r3, #0]
  
  if((*pID) == I_AM_LED1202)
 8001158:	68bb      	ldr	r3, [r7, #8]
 800115a:	781b      	ldrb	r3, [r3, #0]
 800115c:	2b12      	cmp	r3, #18
 800115e:	d102      	bne.n	8001166 <LED1202_ReadID+0x3e>
  {
    ret = (int32_t)LED1202_OK;
 8001160:	2300      	movs	r3, #0
 8001162:	617b      	str	r3, [r7, #20]
 8001164:	e001      	b.n	800116a <LED1202_ReadID+0x42>
  }
  else
  {
    ret = (int32_t)LED1202_ERROR;
 8001166:	2303      	movs	r3, #3
 8001168:	617b      	str	r3, [r7, #20]
  }
  return (ret);
 800116a:	697b      	ldr	r3, [r7, #20]
}
 800116c:	0018      	movs	r0, r3
 800116e:	46bd      	mov	sp, r7
 8001170:	b006      	add	sp, #24
 8001172:	bd80      	pop	{r7, pc}
 8001174:	20000238 	.word	0x20000238

08001178 <LED1202_SetChannelState>:
 * @param  Channel LED_CHANNEL_0,LED_CHANNEL_1,LED_CHANNEL_2..LED_CHANNEL_11 can be passed
 * @param  DevAddr 7-Bit Device Address
 * @retval 0 in case of success, an error code otherwise
 */
int32_t LED1202_SetChannelState( LED1202_Object_TypeDef* pObj , uint16_t Channel ,StateEnum_TypeDef State, uint8_t DevAddr)
{
 8001178:	b590      	push	{r4, r7, lr}
 800117a:	b085      	sub	sp, #20
 800117c:	af00      	add	r7, sp, #0
 800117e:	6078      	str	r0, [r7, #4]
 8001180:	000c      	movs	r4, r1
 8001182:	0010      	movs	r0, r2
 8001184:	0019      	movs	r1, r3
 8001186:	1cbb      	adds	r3, r7, #2
 8001188:	1c22      	adds	r2, r4, #0
 800118a:	801a      	strh	r2, [r3, #0]
 800118c:	1c7b      	adds	r3, r7, #1
 800118e:	1c02      	adds	r2, r0, #0
 8001190:	701a      	strb	r2, [r3, #0]
 8001192:	003b      	movs	r3, r7
 8001194:	1c0a      	adds	r2, r1, #0
 8001196:	701a      	strb	r2, [r3, #0]
  volatile int32_t ret;
  uint16_t readReg;
  uint16_t chRegVal;
  pObj->IO.Address = DevAddr<<1;
 8001198:	003b      	movs	r3, r7
 800119a:	781b      	ldrb	r3, [r3, #0]
 800119c:	18db      	adds	r3, r3, r3
 800119e:	b2da      	uxtb	r2, r3
 80011a0:	687b      	ldr	r3, [r7, #4]
 80011a2:	711a      	strb	r2, [r3, #4]
  
  ret = LED1202_ReadReg(&(pObj->Ctx), LED1202_LED_CH_ENABLE, (uint8_t *)&readReg, 2);
 80011a4:	687b      	ldr	r3, [r7, #4]
 80011a6:	331c      	adds	r3, #28
 80011a8:	0018      	movs	r0, r3
 80011aa:	240a      	movs	r4, #10
 80011ac:	193a      	adds	r2, r7, r4
 80011ae:	2302      	movs	r3, #2
 80011b0:	2102      	movs	r1, #2
 80011b2:	f000 f8d6 	bl	8001362 <LED1202_ReadReg>
 80011b6:	0003      	movs	r3, r0
 80011b8:	60fb      	str	r3, [r7, #12]
    
  if(State == CH_STATE_ENABLE)
 80011ba:	1c7b      	adds	r3, r7, #1
 80011bc:	781b      	ldrb	r3, [r3, #0]
 80011be:	2b00      	cmp	r3, #0
 80011c0:	d113      	bne.n	80011ea <LED1202_SetChannelState+0x72>
  {
    chRegVal = readReg | Channel;
 80011c2:	193b      	adds	r3, r7, r4
 80011c4:	881a      	ldrh	r2, [r3, #0]
 80011c6:	1cbb      	adds	r3, r7, #2
 80011c8:	881b      	ldrh	r3, [r3, #0]
 80011ca:	4313      	orrs	r3, r2
 80011cc:	b29a      	uxth	r2, r3
 80011ce:	2108      	movs	r1, #8
 80011d0:	187b      	adds	r3, r7, r1
 80011d2:	801a      	strh	r2, [r3, #0]
    ret = LED1202_WriteReg(&(pObj->Ctx), LED1202_LED_CH_ENABLE, (uint8_t *)&chRegVal, 2);
 80011d4:	687b      	ldr	r3, [r7, #4]
 80011d6:	331c      	adds	r3, #28
 80011d8:	0018      	movs	r0, r3
 80011da:	187a      	adds	r2, r7, r1
 80011dc:	2302      	movs	r3, #2
 80011de:	2102      	movs	r1, #2
 80011e0:	f000 f8e0 	bl	80013a4 <LED1202_WriteReg>
 80011e4:	0003      	movs	r3, r0
 80011e6:	60fb      	str	r3, [r7, #12]
 80011e8:	e036      	b.n	8001258 <LED1202_SetChannelState+0xe0>
  }
  else if(State == CH_STATE_DISABLE)
 80011ea:	1c7b      	adds	r3, r7, #1
 80011ec:	781b      	ldrb	r3, [r3, #0]
 80011ee:	2b01      	cmp	r3, #1
 80011f0:	d119      	bne.n	8001226 <LED1202_SetChannelState+0xae>
  {
    chRegVal = readReg & (~Channel);  
 80011f2:	1cbb      	adds	r3, r7, #2
 80011f4:	2200      	movs	r2, #0
 80011f6:	5e9b      	ldrsh	r3, [r3, r2]
 80011f8:	43db      	mvns	r3, r3
 80011fa:	b21b      	sxth	r3, r3
 80011fc:	220a      	movs	r2, #10
 80011fe:	18ba      	adds	r2, r7, r2
 8001200:	8812      	ldrh	r2, [r2, #0]
 8001202:	b212      	sxth	r2, r2
 8001204:	4013      	ands	r3, r2
 8001206:	b21b      	sxth	r3, r3
 8001208:	b29a      	uxth	r2, r3
 800120a:	2108      	movs	r1, #8
 800120c:	187b      	adds	r3, r7, r1
 800120e:	801a      	strh	r2, [r3, #0]
    ret = LED1202_WriteReg(&(pObj->Ctx), LED1202_LED_CH_ENABLE, (uint8_t *)&chRegVal, 2);
 8001210:	687b      	ldr	r3, [r7, #4]
 8001212:	331c      	adds	r3, #28
 8001214:	0018      	movs	r0, r3
 8001216:	187a      	adds	r2, r7, r1
 8001218:	2302      	movs	r3, #2
 800121a:	2102      	movs	r1, #2
 800121c:	f000 f8c2 	bl	80013a4 <LED1202_WriteReg>
 8001220:	0003      	movs	r3, r0
 8001222:	60fb      	str	r3, [r7, #12]
 8001224:	e018      	b.n	8001258 <LED1202_SetChannelState+0xe0>
  }
  else
  {
    chRegVal = readReg & (~Channel);
 8001226:	1cbb      	adds	r3, r7, #2
 8001228:	2200      	movs	r2, #0
 800122a:	5e9b      	ldrsh	r3, [r3, r2]
 800122c:	43db      	mvns	r3, r3
 800122e:	b21b      	sxth	r3, r3
 8001230:	220a      	movs	r2, #10
 8001232:	18ba      	adds	r2, r7, r2
 8001234:	8812      	ldrh	r2, [r2, #0]
 8001236:	b212      	sxth	r2, r2
 8001238:	4013      	ands	r3, r2
 800123a:	b21b      	sxth	r3, r3
 800123c:	b29a      	uxth	r2, r3
 800123e:	2108      	movs	r1, #8
 8001240:	187b      	adds	r3, r7, r1
 8001242:	801a      	strh	r2, [r3, #0]
    ret = LED1202_WriteReg(&(pObj->Ctx), LED1202_LED_CH_ENABLE, (uint8_t *)&chRegVal, 2);
 8001244:	687b      	ldr	r3, [r7, #4]
 8001246:	331c      	adds	r3, #28
 8001248:	0018      	movs	r0, r3
 800124a:	187a      	adds	r2, r7, r1
 800124c:	2302      	movs	r3, #2
 800124e:	2102      	movs	r1, #2
 8001250:	f000 f8a8 	bl	80013a4 <LED1202_WriteReg>
 8001254:	0003      	movs	r3, r0
 8001256:	60fb      	str	r3, [r7, #12]
  }
  return(ret);
 8001258:	68fb      	ldr	r3, [r7, #12]
}
 800125a:	0018      	movs	r0, r3
 800125c:	46bd      	mov	sp, r7
 800125e:	b005      	add	sp, #20
 8001260:	bd90      	pop	{r4, r7, pc}

08001262 <LED1202_WriteLEDCurrentReg>:
 * @param  Channel Channel number (0 to 11)
 * @param  DevAddr 7-Bit Device Address
 * @retval 0 in case of success, an error code otherwise
 */
int32_t LED1202_WriteLEDCurrentReg( LED1202_Object_TypeDef* pObj , uint8_t Current, uint16_t Channel, uint8_t DevAddr)
{
 8001262:	b590      	push	{r4, r7, lr}
 8001264:	b085      	sub	sp, #20
 8001266:	af00      	add	r7, sp, #0
 8001268:	6078      	str	r0, [r7, #4]
 800126a:	000c      	movs	r4, r1
 800126c:	0010      	movs	r0, r2
 800126e:	0019      	movs	r1, r3
 8001270:	1cfb      	adds	r3, r7, #3
 8001272:	1c22      	adds	r2, r4, #0
 8001274:	701a      	strb	r2, [r3, #0]
 8001276:	003b      	movs	r3, r7
 8001278:	1c02      	adds	r2, r0, #0
 800127a:	801a      	strh	r2, [r3, #0]
 800127c:	1cbb      	adds	r3, r7, #2
 800127e:	1c0a      	adds	r2, r1, #0
 8001280:	701a      	strb	r2, [r3, #0]
  int32_t ret;
  uint8_t currentRegValue;
  
  pObj->IO.Address = DevAddr<<1;
 8001282:	1cbb      	adds	r3, r7, #2
 8001284:	781b      	ldrb	r3, [r3, #0]
 8001286:	18db      	adds	r3, r3, r3
 8001288:	b2da      	uxtb	r2, r3
 800128a:	687b      	ldr	r3, [r7, #4]
 800128c:	711a      	strb	r2, [r3, #4]
  
  if(Current < MAX_CH_CURRENT)
 800128e:	1cfb      	adds	r3, r7, #3
 8001290:	781b      	ldrb	r3, [r3, #0]
 8001292:	2b13      	cmp	r3, #19
 8001294:	d80e      	bhi.n	80012b4 <LED1202_WriteLEDCurrentReg+0x52>
  {
    currentRegValue = (uint8_t ) (((uint16_t)Current *(uint16_t) MAX_VARIABLE)/(uint16_t)MAX_CH_CURRENT);
 8001296:	1cfb      	adds	r3, r7, #3
 8001298:	781a      	ldrb	r2, [r3, #0]
 800129a:	0013      	movs	r3, r2
 800129c:	021b      	lsls	r3, r3, #8
 800129e:	1a9b      	subs	r3, r3, r2
 80012a0:	2114      	movs	r1, #20
 80012a2:	0018      	movs	r0, r3
 80012a4:	f7fe ffb8 	bl	8000218 <__divsi3>
 80012a8:	0003      	movs	r3, r0
 80012aa:	b2da      	uxtb	r2, r3
 80012ac:	230b      	movs	r3, #11
 80012ae:	18fb      	adds	r3, r7, r3
 80012b0:	701a      	strb	r2, [r3, #0]
 80012b2:	e003      	b.n	80012bc <LED1202_WriteLEDCurrentReg+0x5a>
  }
  else
  {
    currentRegValue = MAX_VARIABLE;
 80012b4:	230b      	movs	r3, #11
 80012b6:	18fb      	adds	r3, r7, r3
 80012b8:	22ff      	movs	r2, #255	; 0xff
 80012ba:	701a      	strb	r2, [r3, #0]
  }
  
  ret = LED1202_WriteReg(&(pObj->Ctx), (LED1202_CS0_LED_CURRENT + Channel), &currentRegValue, 1); 
 80012bc:	687b      	ldr	r3, [r7, #4]
 80012be:	331c      	adds	r3, #28
 80012c0:	0018      	movs	r0, r3
 80012c2:	003b      	movs	r3, r7
 80012c4:	881b      	ldrh	r3, [r3, #0]
 80012c6:	3309      	adds	r3, #9
 80012c8:	b299      	uxth	r1, r3
 80012ca:	230b      	movs	r3, #11
 80012cc:	18fa      	adds	r2, r7, r3
 80012ce:	2301      	movs	r3, #1
 80012d0:	f000 f868 	bl	80013a4 <LED1202_WriteReg>
 80012d4:	0003      	movs	r3, r0
 80012d6:	60fb      	str	r3, [r7, #12]
  
  return(ret);
 80012d8:	68fb      	ldr	r3, [r7, #12]
}
 80012da:	0018      	movs	r0, r3
 80012dc:	46bd      	mov	sp, r7
 80012de:	b005      	add	sp, #20
 80012e0:	bd90      	pop	{r4, r7, pc}

080012e2 <LED1202_WritePatternPWMConfig>:
 * @param  PatternNum Pattern Number
 * @param  DevAddr 7-Bit Device Address
 * @retval 0 in case of success, an error code otherwise
 */
int32_t LED1202_WritePatternPWMConfig( LED1202_Object_TypeDef* pObj , uint8_t *pData ,uint8_t Channel, uint8_t PatternNum, uint8_t DevAddr)
{
 80012e2:	b580      	push	{r7, lr}
 80012e4:	b086      	sub	sp, #24
 80012e6:	af00      	add	r7, sp, #0
 80012e8:	60f8      	str	r0, [r7, #12]
 80012ea:	60b9      	str	r1, [r7, #8]
 80012ec:	0019      	movs	r1, r3
 80012ee:	1dfb      	adds	r3, r7, #7
 80012f0:	701a      	strb	r2, [r3, #0]
 80012f2:	1dbb      	adds	r3, r7, #6
 80012f4:	1c0a      	adds	r2, r1, #0
 80012f6:	701a      	strb	r2, [r3, #0]
  uint16_t digData;
  uint8_t chOffset;
  int32_t ret = 0;
 80012f8:	2300      	movs	r3, #0
 80012fa:	617b      	str	r3, [r7, #20]
  pObj->IO.Address = DevAddr<<1;
 80012fc:	2320      	movs	r3, #32
 80012fe:	18fb      	adds	r3, r7, r3
 8001300:	781b      	ldrb	r3, [r3, #0]
 8001302:	18db      	adds	r3, r3, r3
 8001304:	b2da      	uxtb	r2, r3
 8001306:	68fb      	ldr	r3, [r7, #12]
 8001308:	711a      	strb	r2, [r3, #4]
  digData = (*((uint16_t *)pData));
 800130a:	2012      	movs	r0, #18
 800130c:	183b      	adds	r3, r7, r0
 800130e:	68ba      	ldr	r2, [r7, #8]
 8001310:	8812      	ldrh	r2, [r2, #0]
 8001312:	801a      	strh	r2, [r3, #0]
  
  chOffset = (((uint8_t)2)*Channel) + (((uint8_t)24)*PatternNum);
 8001314:	1dfb      	adds	r3, r7, #7
 8001316:	7819      	ldrb	r1, [r3, #0]
 8001318:	1dbb      	adds	r3, r7, #6
 800131a:	781a      	ldrb	r2, [r3, #0]
 800131c:	0013      	movs	r3, r2
 800131e:	005b      	lsls	r3, r3, #1
 8001320:	189b      	adds	r3, r3, r2
 8001322:	009b      	lsls	r3, r3, #2
 8001324:	18cb      	adds	r3, r1, r3
 8001326:	b2db      	uxtb	r3, r3
 8001328:	2111      	movs	r1, #17
 800132a:	187a      	adds	r2, r7, r1
 800132c:	18db      	adds	r3, r3, r3
 800132e:	7013      	strb	r3, [r2, #0]
  
  if(digData<=((uint16_t)4095))
 8001330:	183b      	adds	r3, r7, r0
 8001332:	881a      	ldrh	r2, [r3, #0]
 8001334:	2380      	movs	r3, #128	; 0x80
 8001336:	015b      	lsls	r3, r3, #5
 8001338:	429a      	cmp	r2, r3
 800133a:	d20d      	bcs.n	8001358 <LED1202_WritePatternPWMConfig+0x76>
  {
   ret =  LED1202_WriteReg(&(pObj->Ctx),(uint8_t)( LED1202_PATTERN0_CS0_PWM + chOffset), pData, 2); 
 800133c:	68fb      	ldr	r3, [r7, #12]
 800133e:	331c      	adds	r3, #28
 8001340:	0018      	movs	r0, r3
 8001342:	187b      	adds	r3, r7, r1
 8001344:	781b      	ldrb	r3, [r3, #0]
 8001346:	331e      	adds	r3, #30
 8001348:	b2db      	uxtb	r3, r3
 800134a:	b299      	uxth	r1, r3
 800134c:	68ba      	ldr	r2, [r7, #8]
 800134e:	2302      	movs	r3, #2
 8001350:	f000 f828 	bl	80013a4 <LED1202_WriteReg>
 8001354:	0003      	movs	r3, r0
 8001356:	617b      	str	r3, [r7, #20]
  }
  return (ret);
 8001358:	697b      	ldr	r3, [r7, #20]
}
 800135a:	0018      	movs	r0, r3
 800135c:	46bd      	mov	sp, r7
 800135e:	b006      	add	sp, #24
 8001360:	bd80      	pop	{r7, pc}

08001362 <LED1202_ReadReg>:
* @param  len   number of consecutive register to read
* @retval          interface status (MANDATORY: return 0 -> no Error)
*
*/
int32_t LED1202_ReadReg (const LED1202_Ctx_TypeDef *pLed, uint16_t Reg, const uint8_t *Data, uint16_t len)
{
 8001362:	b5f0      	push	{r4, r5, r6, r7, lr}
 8001364:	b087      	sub	sp, #28
 8001366:	af00      	add	r7, sp, #0
 8001368:	60f8      	str	r0, [r7, #12]
 800136a:	0008      	movs	r0, r1
 800136c:	607a      	str	r2, [r7, #4]
 800136e:	0019      	movs	r1, r3
 8001370:	250a      	movs	r5, #10
 8001372:	197b      	adds	r3, r7, r5
 8001374:	1c02      	adds	r2, r0, #0
 8001376:	801a      	strh	r2, [r3, #0]
 8001378:	2608      	movs	r6, #8
 800137a:	19bb      	adds	r3, r7, r6
 800137c:	1c0a      	adds	r2, r1, #0
 800137e:	801a      	strh	r2, [r3, #0]
  int32_t tmp;
  tmp =(int32_t)( pLed->ReadReg(pLed->handle, Reg,  Data, len));
 8001380:	68fb      	ldr	r3, [r7, #12]
 8001382:	685c      	ldr	r4, [r3, #4]
 8001384:	68fb      	ldr	r3, [r7, #12]
 8001386:	6898      	ldr	r0, [r3, #8]
 8001388:	197b      	adds	r3, r7, r5
 800138a:	881b      	ldrh	r3, [r3, #0]
 800138c:	b2d9      	uxtb	r1, r3
 800138e:	19bb      	adds	r3, r7, r6
 8001390:	881b      	ldrh	r3, [r3, #0]
 8001392:	687a      	ldr	r2, [r7, #4]
 8001394:	47a0      	blx	r4
 8001396:	0003      	movs	r3, r0
 8001398:	617b      	str	r3, [r7, #20]
  return (tmp);
 800139a:	697b      	ldr	r3, [r7, #20]
}
 800139c:	0018      	movs	r0, r3
 800139e:	46bd      	mov	sp, r7
 80013a0:	b007      	add	sp, #28
 80013a2:	bdf0      	pop	{r4, r5, r6, r7, pc}

080013a4 <LED1202_WriteReg>:
* @param  len   number of consecutive register to read
* @retval          interface status (MANDATORY: return 0 -> no Error)
*
*/
int32_t LED1202_WriteReg (const LED1202_Ctx_TypeDef *pLed, uint16_t Reg, const uint8_t* Data, uint16_t len)
{
 80013a4:	b5f0      	push	{r4, r5, r6, r7, lr}
 80013a6:	b087      	sub	sp, #28
 80013a8:	af00      	add	r7, sp, #0
 80013aa:	60f8      	str	r0, [r7, #12]
 80013ac:	0008      	movs	r0, r1
 80013ae:	607a      	str	r2, [r7, #4]
 80013b0:	0019      	movs	r1, r3
 80013b2:	250a      	movs	r5, #10
 80013b4:	197b      	adds	r3, r7, r5
 80013b6:	1c02      	adds	r2, r0, #0
 80013b8:	801a      	strh	r2, [r3, #0]
 80013ba:	2608      	movs	r6, #8
 80013bc:	19bb      	adds	r3, r7, r6
 80013be:	1c0a      	adds	r2, r1, #0
 80013c0:	801a      	strh	r2, [r3, #0]
  int32_t tmp;
  tmp = (int32_t)(pLed->WriteReg(pLed->handle, Reg, Data, len));
 80013c2:	68fb      	ldr	r3, [r7, #12]
 80013c4:	681c      	ldr	r4, [r3, #0]
 80013c6:	68fb      	ldr	r3, [r7, #12]
 80013c8:	6898      	ldr	r0, [r3, #8]
 80013ca:	197b      	adds	r3, r7, r5
 80013cc:	881b      	ldrh	r3, [r3, #0]
 80013ce:	b2d9      	uxtb	r1, r3
 80013d0:	19bb      	adds	r3, r7, r6
 80013d2:	881b      	ldrh	r3, [r3, #0]
 80013d4:	687a      	ldr	r2, [r7, #4]
 80013d6:	47a0      	blx	r4
 80013d8:	0003      	movs	r3, r0
 80013da:	617b      	str	r3, [r7, #20]
  return (tmp);
 80013dc:	697b      	ldr	r3, [r7, #20]
}
 80013de:	0018      	movs	r0, r3
 80013e0:	46bd      	mov	sp, r7
 80013e2:	b007      	add	sp, #28
 80013e4:	bdf0      	pop	{r4, r5, r6, r7, pc}
	...

080013e8 <LED12A1_Init>:
/**
* @brief  LED12A1 Board Initialization 
* @retval 0 in case of success, an error code otherwise
*/
int32_t LED12A1_Init( void )
{
 80013e8:	b580      	push	{r7, lr}
 80013ea:	b088      	sub	sp, #32
 80013ec:	af00      	add	r7, sp, #0
  volatile int32_t ret =  (int32_t)LED1202_OK;
 80013ee:	2300      	movs	r3, #0
 80013f0:	61fb      	str	r3, [r7, #28]
  LED1202_IO_TypeDef ledIO;
  
  /*register SPI bus function to the component */
  ledIO.BusType = LED1202_I2C_BUS;
 80013f2:	003b      	movs	r3, r7
 80013f4:	2200      	movs	r2, #0
 80013f6:	601a      	str	r2, [r3, #0]
  ledIO.Address = LED1202_I2C_ADDR;
 80013f8:	003b      	movs	r3, r7
 80013fa:	225c      	movs	r2, #92	; 0x5c
 80013fc:	711a      	strb	r2, [r3, #4]
  ledIO.Init = LED12A1_I2C_Init;
 80013fe:	003b      	movs	r3, r7
 8001400:	4a0d      	ldr	r2, [pc, #52]	; (8001438 <LED12A1_Init+0x50>)
 8001402:	609a      	str	r2, [r3, #8]
  ledIO.DeInit = LED12A1_I2C_DeInit;
 8001404:	003b      	movs	r3, r7
 8001406:	4a0d      	ldr	r2, [pc, #52]	; (800143c <LED12A1_Init+0x54>)
 8001408:	60da      	str	r2, [r3, #12]
  ledIO.Write = LED12A1_I2C_Write;
 800140a:	003b      	movs	r3, r7
 800140c:	4a0c      	ldr	r2, [pc, #48]	; (8001440 <LED12A1_Init+0x58>)
 800140e:	611a      	str	r2, [r3, #16]
  ledIO.Read = LED12A1_I2C_Read;
 8001410:	003b      	movs	r3, r7
 8001412:	4a0c      	ldr	r2, [pc, #48]	; (8001444 <LED12A1_Init+0x5c>)
 8001414:	615a      	str	r2, [r3, #20]
  ledIO.Delay = LED12A1_Delay;
 8001416:	003b      	movs	r3, r7
 8001418:	4a0b      	ldr	r2, [pc, #44]	; (8001448 <LED12A1_Init+0x60>)
 800141a:	619a      	str	r2, [r3, #24]
  
  ret = LED1202_RegisterBusIO (&LED1202Obj, &ledIO);
 800141c:	003a      	movs	r2, r7
 800141e:	4b0b      	ldr	r3, [pc, #44]	; (800144c <LED12A1_Init+0x64>)
 8001420:	0011      	movs	r1, r2
 8001422:	0018      	movs	r0, r3
 8001424:	f7ff fe36 	bl	8001094 <LED1202_RegisterBusIO>
 8001428:	0003      	movs	r3, r0
 800142a:	61fb      	str	r3, [r7, #28]
  
  return (ret);
 800142c:	69fb      	ldr	r3, [r7, #28]
}
 800142e:	0018      	movs	r0, r3
 8001430:	46bd      	mov	sp, r7
 8001432:	b008      	add	sp, #32
 8001434:	bd80      	pop	{r7, pc}
 8001436:	46c0      	nop			; (mov r8, r8)
 8001438:	08001451 	.word	0x08001451
 800143c:	08001461 	.word	0x08001461
 8001440:	08001485 	.word	0x08001485
 8001444:	080014e9 	.word	0x080014e9
 8001448:	080019c5 	.word	0x080019c5
 800144c:	2000023c 	.word	0x2000023c

08001450 <BSP_I2C_Init>:
/**
* @brief  LED12A1 I2C Initialization 
* @retval 0 in case of success, an error code otherwise
*/
int32_t  BSP_I2C_Init(void)
{
 8001450:	b580      	push	{r7, lr}
 8001452:	af00      	add	r7, sp, #0
  MX_I2C1_Init();
 8001454:	f7ff fafe 	bl	8000a54 <MX_I2C1_Init>
  return (0);
 8001458:	2300      	movs	r3, #0
}
 800145a:	0018      	movs	r0, r3
 800145c:	46bd      	mov	sp, r7
 800145e:	bd80      	pop	{r7, pc}

08001460 <BSP_I2C_DeInit>:
/**
* @brief  LED12A1 I2C DeInitialization 
* @retval 0 in case of success, an error code otherwise
*/
int32_t BSP_I2C_DeInit(void)
{
 8001460:	b590      	push	{r4, r7, lr}
 8001462:	b083      	sub	sp, #12
 8001464:	af00      	add	r7, sp, #0
  HAL_StatusTypeDef ret;
  ret  = HAL_I2C_DeInit(&hi2c1);
 8001466:	1dfc      	adds	r4, r7, #7
 8001468:	4b05      	ldr	r3, [pc, #20]	; (8001480 <BSP_I2C_DeInit+0x20>)
 800146a:	0018      	movs	r0, r3
 800146c:	f000 fe7a 	bl	8002164 <HAL_I2C_DeInit>
 8001470:	0003      	movs	r3, r0
 8001472:	7023      	strb	r3, [r4, #0]
  return((int32_t)ret);
 8001474:	1dfb      	adds	r3, r7, #7
 8001476:	781b      	ldrb	r3, [r3, #0]
}
 8001478:	0018      	movs	r0, r3
 800147a:	46bd      	mov	sp, r7
 800147c:	b003      	add	sp, #12
 800147e:	bd90      	pop	{r4, r7, pc}
 8001480:	200000b8 	.word	0x200000b8

08001484 <BSP_I2C_Write>:
* @param  Reg: The target register address to write
* @param  Value: The target register value to be written
* @retval BSP status
*/
int32_t BSP_I2C_Write(uint16_t DevAddr, uint16_t Reg, const uint8_t* pData, uint16_t Len)
{
 8001484:	b5b0      	push	{r4, r5, r7, lr}
 8001486:	b08a      	sub	sp, #40	; 0x28
 8001488:	af04      	add	r7, sp, #16
 800148a:	0004      	movs	r4, r0
 800148c:	0008      	movs	r0, r1
 800148e:	60ba      	str	r2, [r7, #8]
 8001490:	0019      	movs	r1, r3
 8001492:	250e      	movs	r5, #14
 8001494:	197b      	adds	r3, r7, r5
 8001496:	1c22      	adds	r2, r4, #0
 8001498:	801a      	strh	r2, [r3, #0]
 800149a:	240c      	movs	r4, #12
 800149c:	193b      	adds	r3, r7, r4
 800149e:	1c02      	adds	r2, r0, #0
 80014a0:	801a      	strh	r2, [r3, #0]
 80014a2:	1dbb      	adds	r3, r7, #6
 80014a4:	1c0a      	adds	r2, r1, #0
 80014a6:	801a      	strh	r2, [r3, #0]
  int32_t ret = (int32_t)BSP_ERROR_BUS_FAILURE;
 80014a8:	2308      	movs	r3, #8
 80014aa:	425b      	negs	r3, r3
 80014ac:	617b      	str	r3, [r7, #20]
  
  if (HAL_I2C_Mem_Write(&hi2c1, (uint8_t)DevAddr,
 80014ae:	197b      	adds	r3, r7, r5
 80014b0:	881b      	ldrh	r3, [r3, #0]
 80014b2:	b2db      	uxtb	r3, r3
 80014b4:	b299      	uxth	r1, r3
 80014b6:	193b      	adds	r3, r7, r4
 80014b8:	881a      	ldrh	r2, [r3, #0]
 80014ba:	480a      	ldr	r0, [pc, #40]	; (80014e4 <BSP_I2C_Write+0x60>)
 80014bc:	23fa      	movs	r3, #250	; 0xfa
 80014be:	009b      	lsls	r3, r3, #2
 80014c0:	9302      	str	r3, [sp, #8]
 80014c2:	1dbb      	adds	r3, r7, #6
 80014c4:	881b      	ldrh	r3, [r3, #0]
 80014c6:	9301      	str	r3, [sp, #4]
 80014c8:	68bb      	ldr	r3, [r7, #8]
 80014ca:	9300      	str	r3, [sp, #0]
 80014cc:	2301      	movs	r3, #1
 80014ce:	f000 fe79 	bl	80021c4 <HAL_I2C_Mem_Write>
 80014d2:	1e03      	subs	r3, r0, #0
 80014d4:	d101      	bne.n	80014da <BSP_I2C_Write+0x56>
                        (uint16_t)Reg, I2C_MEMADD_SIZE_8BIT,
                        (uint8_t *)pData, Len, TIMEOUT_DURATION) == HAL_OK)
  {
    ret = BSP_ERROR_NONE;
 80014d6:	2300      	movs	r3, #0
 80014d8:	617b      	str	r3, [r7, #20]
  }
  
  return ret;
 80014da:	697b      	ldr	r3, [r7, #20]
}
 80014dc:	0018      	movs	r0, r3
 80014de:	46bd      	mov	sp, r7
 80014e0:	b006      	add	sp, #24
 80014e2:	bdb0      	pop	{r4, r5, r7, pc}
 80014e4:	200000b8 	.word	0x200000b8

080014e8 <BSP_I2C_Read>:
* @param  DevAddr: Device address on BUS
* @param  Reg: The target register address to read
* @retval BSP status
*/
int32_t BSP_I2C_Read(uint16_t DevAddr, uint16_t Reg, const uint8_t* pData, uint16_t Len)
{
 80014e8:	b5b0      	push	{r4, r5, r7, lr}
 80014ea:	b08a      	sub	sp, #40	; 0x28
 80014ec:	af04      	add	r7, sp, #16
 80014ee:	0004      	movs	r4, r0
 80014f0:	0008      	movs	r0, r1
 80014f2:	60ba      	str	r2, [r7, #8]
 80014f4:	0019      	movs	r1, r3
 80014f6:	250e      	movs	r5, #14
 80014f8:	197b      	adds	r3, r7, r5
 80014fa:	1c22      	adds	r2, r4, #0
 80014fc:	801a      	strh	r2, [r3, #0]
 80014fe:	240c      	movs	r4, #12
 8001500:	193b      	adds	r3, r7, r4
 8001502:	1c02      	adds	r2, r0, #0
 8001504:	801a      	strh	r2, [r3, #0]
 8001506:	1dbb      	adds	r3, r7, #6
 8001508:	1c0a      	adds	r2, r1, #0
 800150a:	801a      	strh	r2, [r3, #0]
  int32_t ret = BSP_ERROR_BUS_FAILURE;
 800150c:	2308      	movs	r3, #8
 800150e:	425b      	negs	r3, r3
 8001510:	617b      	str	r3, [r7, #20]
  
  if (HAL_I2C_Mem_Read(&hi2c1, DevAddr, (uint16_t)Reg,
 8001512:	193b      	adds	r3, r7, r4
 8001514:	881a      	ldrh	r2, [r3, #0]
 8001516:	197b      	adds	r3, r7, r5
 8001518:	8819      	ldrh	r1, [r3, #0]
 800151a:	480a      	ldr	r0, [pc, #40]	; (8001544 <BSP_I2C_Read+0x5c>)
 800151c:	23fa      	movs	r3, #250	; 0xfa
 800151e:	009b      	lsls	r3, r3, #2
 8001520:	9302      	str	r3, [sp, #8]
 8001522:	1dbb      	adds	r3, r7, #6
 8001524:	881b      	ldrh	r3, [r3, #0]
 8001526:	9301      	str	r3, [sp, #4]
 8001528:	68bb      	ldr	r3, [r7, #8]
 800152a:	9300      	str	r3, [sp, #0]
 800152c:	2301      	movs	r3, #1
 800152e:	f000 ff77 	bl	8002420 <HAL_I2C_Mem_Read>
 8001532:	1e03      	subs	r3, r0, #0
 8001534:	d101      	bne.n	800153a <BSP_I2C_Read+0x52>
                       I2C_MEMADD_SIZE_8BIT, (uint8_t *)pData,
                       Len, TIMEOUT_DURATION) == HAL_OK)
  {
    ret = BSP_ERROR_NONE;
 8001536:	2300      	movs	r3, #0
 8001538:	617b      	str	r3, [r7, #20]
  }
  
  return ret;
 800153a:	697b      	ldr	r3, [r7, #20]
}
 800153c:	0018      	movs	r0, r3
 800153e:	46bd      	mov	sp, r7
 8001540:	b006      	add	sp, #24
 8001542:	bdb0      	pop	{r4, r5, r7, pc}
 8001544:	200000b8 	.word	0x200000b8

08001548 <ReadRegWrap>:
* @param  pData the stored data pointer
* @param  Length the length
* @retval 0 in case of success, an error code otherwise
*/
int32_t ReadRegWrap(void *Handle, uint8_t Reg, const uint8_t *pData, uint16_t Length)
{
 8001548:	b5f0      	push	{r4, r5, r6, r7, lr}
 800154a:	b087      	sub	sp, #28
 800154c:	af00      	add	r7, sp, #0
 800154e:	60f8      	str	r0, [r7, #12]
 8001550:	0008      	movs	r0, r1
 8001552:	607a      	str	r2, [r7, #4]
 8001554:	0019      	movs	r1, r3
 8001556:	250b      	movs	r5, #11
 8001558:	197b      	adds	r3, r7, r5
 800155a:	1c02      	adds	r2, r0, #0
 800155c:	701a      	strb	r2, [r3, #0]
 800155e:	2608      	movs	r6, #8
 8001560:	19bb      	adds	r3, r7, r6
 8001562:	1c0a      	adds	r2, r1, #0
 8001564:	801a      	strh	r2, [r3, #0]
  LED1202_Object_TypeDef *led1202Obj = (LED1202_Object_TypeDef *)Handle;
 8001566:	68fb      	ldr	r3, [r7, #12]
 8001568:	617b      	str	r3, [r7, #20]
  
  return led1202Obj->IO.Read(led1202Obj->IO.Address, Reg, pData, Length);
 800156a:	697b      	ldr	r3, [r7, #20]
 800156c:	695c      	ldr	r4, [r3, #20]
 800156e:	697b      	ldr	r3, [r7, #20]
 8001570:	791b      	ldrb	r3, [r3, #4]
 8001572:	b298      	uxth	r0, r3
 8001574:	197b      	adds	r3, r7, r5
 8001576:	781b      	ldrb	r3, [r3, #0]
 8001578:	b299      	uxth	r1, r3
 800157a:	19bb      	adds	r3, r7, r6
 800157c:	881b      	ldrh	r3, [r3, #0]
 800157e:	687a      	ldr	r2, [r7, #4]
 8001580:	47a0      	blx	r4
 8001582:	0003      	movs	r3, r0
}
 8001584:	0018      	movs	r0, r3
 8001586:	46bd      	mov	sp, r7
 8001588:	b007      	add	sp, #28
 800158a:	bdf0      	pop	{r4, r5, r6, r7, pc}

0800158c <WriteRegWrap>:
* @param  pData the stored data pointer
* @param  Length the length
* @retval 0 in case of success, an error code otherwise
*/
int32_t WriteRegWrap(void *Handle, uint8_t Reg, const uint8_t *pData, uint16_t Length)
{
 800158c:	b5f0      	push	{r4, r5, r6, r7, lr}
 800158e:	b087      	sub	sp, #28
 8001590:	af00      	add	r7, sp, #0
 8001592:	60f8      	str	r0, [r7, #12]
 8001594:	0008      	movs	r0, r1
 8001596:	607a      	str	r2, [r7, #4]
 8001598:	0019      	movs	r1, r3
 800159a:	250b      	movs	r5, #11
 800159c:	197b      	adds	r3, r7, r5
 800159e:	1c02      	adds	r2, r0, #0
 80015a0:	701a      	strb	r2, [r3, #0]
 80015a2:	2608      	movs	r6, #8
 80015a4:	19bb      	adds	r3, r7, r6
 80015a6:	1c0a      	adds	r2, r1, #0
 80015a8:	801a      	strh	r2, [r3, #0]
  LED1202_Object_TypeDef *led1202Obj  = (LED1202_Object_TypeDef *)Handle;
 80015aa:	68fb      	ldr	r3, [r7, #12]
 80015ac:	617b      	str	r3, [r7, #20]
  
  return led1202Obj->IO.Write(led1202Obj->IO.Address, Reg, pData, Length);
 80015ae:	697b      	ldr	r3, [r7, #20]
 80015b0:	691c      	ldr	r4, [r3, #16]
 80015b2:	697b      	ldr	r3, [r7, #20]
 80015b4:	791b      	ldrb	r3, [r3, #4]
 80015b6:	b298      	uxth	r0, r3
 80015b8:	197b      	adds	r3, r7, r5
 80015ba:	781b      	ldrb	r3, [r3, #0]
 80015bc:	b299      	uxth	r1, r3
 80015be:	19bb      	adds	r3, r7, r6
 80015c0:	881b      	ldrh	r3, [r3, #0]
 80015c2:	687a      	ldr	r2, [r7, #4]
 80015c4:	47a0      	blx	r4
 80015c6:	0003      	movs	r3, r0
}
 80015c8:	0018      	movs	r0, r3
 80015ca:	46bd      	mov	sp, r7
 80015cc:	b007      	add	sp, #28
 80015ce:	bdf0      	pop	{r4, r5, r6, r7, pc}

080015d0 <LED12A1_DeviceEnable>:
* @param  pObj pointer to Object
* @param  DevSelect Device selected (LED_DEVICE1, LED_DEVICE2 ,LED_DEVICE3 or LED_DEVICE_ALL)
* @retval 0 in case of success, an error code otherwise
*/
int32_t LED12A1_DeviceEnable( LED1202_Object_TypeDef* pObj , TypedefEnumDevAddr DevSelect)
{
 80015d0:	b580      	push	{r7, lr}
 80015d2:	b086      	sub	sp, #24
 80015d4:	af00      	add	r7, sp, #0
 80015d6:	6078      	str	r0, [r7, #4]
 80015d8:	000a      	movs	r2, r1
 80015da:	1cfb      	adds	r3, r7, #3
 80015dc:	701a      	strb	r2, [r3, #0]
  volatile int32_t ret = (int32_t) LED1202_OK;
 80015de:	2300      	movs	r3, #0
 80015e0:	613b      	str	r3, [r7, #16]
  uint8_t tmp = 0x01;
 80015e2:	230f      	movs	r3, #15
 80015e4:	18fb      	adds	r3, r7, r3
 80015e6:	2201      	movs	r2, #1
 80015e8:	701a      	strb	r2, [r3, #0]
  uint8_t devAddr;
  
  switch(DevSelect)
 80015ea:	1cfb      	adds	r3, r7, #3
 80015ec:	781b      	ldrb	r3, [r3, #0]
 80015ee:	2b04      	cmp	r3, #4
 80015f0:	d81d      	bhi.n	800162e <LED12A1_DeviceEnable+0x5e>
 80015f2:	009a      	lsls	r2, r3, #2
 80015f4:	4b1c      	ldr	r3, [pc, #112]	; (8001668 <LED12A1_DeviceEnable+0x98>)
 80015f6:	18d3      	adds	r3, r2, r3
 80015f8:	681b      	ldr	r3, [r3, #0]
 80015fa:	469f      	mov	pc, r3
  {
  case LED_DEVICE1:
    devAddr = LED1202_DEV1_7BIT_ADDR;
 80015fc:	2317      	movs	r3, #23
 80015fe:	18fb      	adds	r3, r7, r3
 8001600:	2258      	movs	r2, #88	; 0x58
 8001602:	701a      	strb	r2, [r3, #0]
    
    break;
 8001604:	e018      	b.n	8001638 <LED12A1_DeviceEnable+0x68>
    
  case LED_DEVICE2:
    devAddr = LED1202_DEV2_7BIT_ADDR;
 8001606:	2317      	movs	r3, #23
 8001608:	18fb      	adds	r3, r7, r3
 800160a:	2259      	movs	r2, #89	; 0x59
 800160c:	701a      	strb	r2, [r3, #0]
    break;
 800160e:	e013      	b.n	8001638 <LED12A1_DeviceEnable+0x68>
    
  case LED_DEVICE3:
    devAddr = LED1202_DEV3_7BIT_ADDR;
 8001610:	2317      	movs	r3, #23
 8001612:	18fb      	adds	r3, r7, r3
 8001614:	225a      	movs	r2, #90	; 0x5a
 8001616:	701a      	strb	r2, [r3, #0]
    break;
 8001618:	e00e      	b.n	8001638 <LED12A1_DeviceEnable+0x68>
    
  case LED_DEVICE4:
    devAddr = LED1202_DEV4_7BIT_ADDR;
 800161a:	2317      	movs	r3, #23
 800161c:	18fb      	adds	r3, r7, r3
 800161e:	225b      	movs	r2, #91	; 0x5b
 8001620:	701a      	strb	r2, [r3, #0]
    break;  
 8001622:	e009      	b.n	8001638 <LED12A1_DeviceEnable+0x68>
    
  case LED_DEVICE_ALL:
    devAddr = LED1202_GLOBAL_7BIT_ADDR; /*GLOBAL ADDRESS*/
 8001624:	2317      	movs	r3, #23
 8001626:	18fb      	adds	r3, r7, r3
 8001628:	225c      	movs	r2, #92	; 0x5c
 800162a:	701a      	strb	r2, [r3, #0]
    break;
 800162c:	e004      	b.n	8001638 <LED12A1_DeviceEnable+0x68>
    
  default:
    devAddr = LED1202_GLOBAL_7BIT_ADDR;
 800162e:	2317      	movs	r3, #23
 8001630:	18fb      	adds	r3, r7, r3
 8001632:	225c      	movs	r2, #92	; 0x5c
 8001634:	701a      	strb	r2, [r3, #0]
    break;
 8001636:	46c0      	nop			; (mov r8, r8)
    
  }
  
  pObj->IO.Address = (uint8_t)(devAddr<<1);
 8001638:	2317      	movs	r3, #23
 800163a:	18fb      	adds	r3, r7, r3
 800163c:	781b      	ldrb	r3, [r3, #0]
 800163e:	18db      	adds	r3, r3, r3
 8001640:	b2da      	uxtb	r2, r3
 8001642:	687b      	ldr	r3, [r7, #4]
 8001644:	711a      	strb	r2, [r3, #4]
  
  ret = LED1202_WriteReg(&(pObj->Ctx), LED1202_DEVICE_ENABLE, &tmp, 1);
 8001646:	687b      	ldr	r3, [r7, #4]
 8001648:	331c      	adds	r3, #28
 800164a:	0018      	movs	r0, r3
 800164c:	230f      	movs	r3, #15
 800164e:	18fa      	adds	r2, r7, r3
 8001650:	2301      	movs	r3, #1
 8001652:	2101      	movs	r1, #1
 8001654:	f7ff fea6 	bl	80013a4 <LED1202_WriteReg>
 8001658:	0003      	movs	r3, r0
 800165a:	613b      	str	r3, [r7, #16]
  return(ret);
 800165c:	693b      	ldr	r3, [r7, #16]
}
 800165e:	0018      	movs	r0, r3
 8001660:	46bd      	mov	sp, r7
 8001662:	b006      	add	sp, #24
 8001664:	bd80      	pop	{r7, pc}
 8001666:	46c0      	nop			; (mov r8, r8)
 8001668:	08005018 	.word	0x08005018

0800166c <LED12A1_SetDeviceAddr>:
* @param  pObj pointer to Object
* @param  DevSelect Device selected (LED_DEVICE1, LED_DEVICE2 ,LED_DEVICE3 or LED_DEVICE_ALL)
* @retval 0 in case of success, an error code otherwise
*/
int32_t LED12A1_SetDeviceAddr( LED1202_Object_TypeDef* pObj , TypedefEnumDevAddr DevSelect)
{
 800166c:	b580      	push	{r7, lr}
 800166e:	b084      	sub	sp, #16
 8001670:	af00      	add	r7, sp, #0
 8001672:	6078      	str	r0, [r7, #4]
 8001674:	000a      	movs	r2, r1
 8001676:	1cfb      	adds	r3, r7, #3
 8001678:	701a      	strb	r2, [r3, #0]
  volatile int32_t ret = (int32_t) LED1202_OK;
 800167a:	2300      	movs	r3, #0
 800167c:	60bb      	str	r3, [r7, #8]
  uint8_t devAddr;
  
  switch(DevSelect)
 800167e:	1cfb      	adds	r3, r7, #3
 8001680:	781b      	ldrb	r3, [r3, #0]
 8001682:	2b04      	cmp	r3, #4
 8001684:	d81d      	bhi.n	80016c2 <LED12A1_SetDeviceAddr+0x56>
 8001686:	009a      	lsls	r2, r3, #2
 8001688:	4b15      	ldr	r3, [pc, #84]	; (80016e0 <LED12A1_SetDeviceAddr+0x74>)
 800168a:	18d3      	adds	r3, r2, r3
 800168c:	681b      	ldr	r3, [r3, #0]
 800168e:	469f      	mov	pc, r3
  {
  case LED_DEVICE1:
    devAddr = LED1202_DEV1_7BIT_ADDR;
 8001690:	230f      	movs	r3, #15
 8001692:	18fb      	adds	r3, r7, r3
 8001694:	2258      	movs	r2, #88	; 0x58
 8001696:	701a      	strb	r2, [r3, #0]
    
    break;
 8001698:	e018      	b.n	80016cc <LED12A1_SetDeviceAddr+0x60>
    
  case LED_DEVICE2:
    devAddr = LED1202_DEV2_7BIT_ADDR;
 800169a:	230f      	movs	r3, #15
 800169c:	18fb      	adds	r3, r7, r3
 800169e:	2259      	movs	r2, #89	; 0x59
 80016a0:	701a      	strb	r2, [r3, #0]
    break;
 80016a2:	e013      	b.n	80016cc <LED12A1_SetDeviceAddr+0x60>
    
  case LED_DEVICE3:
    devAddr = LED1202_DEV3_7BIT_ADDR;
 80016a4:	230f      	movs	r3, #15
 80016a6:	18fb      	adds	r3, r7, r3
 80016a8:	225a      	movs	r2, #90	; 0x5a
 80016aa:	701a      	strb	r2, [r3, #0]
    break;
 80016ac:	e00e      	b.n	80016cc <LED12A1_SetDeviceAddr+0x60>
    
  case LED_DEVICE4:
    devAddr = LED1202_DEV4_7BIT_ADDR;
 80016ae:	230f      	movs	r3, #15
 80016b0:	18fb      	adds	r3, r7, r3
 80016b2:	225b      	movs	r2, #91	; 0x5b
 80016b4:	701a      	strb	r2, [r3, #0]
    break;
 80016b6:	e009      	b.n	80016cc <LED12A1_SetDeviceAddr+0x60>
    
  case LED_DEVICE_ALL:
    devAddr = LED1202_GLOBAL_7BIT_ADDR; /*GLOBAL ADDRESS*/
 80016b8:	230f      	movs	r3, #15
 80016ba:	18fb      	adds	r3, r7, r3
 80016bc:	225c      	movs	r2, #92	; 0x5c
 80016be:	701a      	strb	r2, [r3, #0]
    break;
 80016c0:	e004      	b.n	80016cc <LED12A1_SetDeviceAddr+0x60>
    
  default:
    devAddr = LED1202_GLOBAL_7BIT_ADDR;
 80016c2:	230f      	movs	r3, #15
 80016c4:	18fb      	adds	r3, r7, r3
 80016c6:	225c      	movs	r2, #92	; 0x5c
 80016c8:	701a      	strb	r2, [r3, #0]
    break;
 80016ca:	46c0      	nop			; (mov r8, r8)
    
  }
  
  pObj->IO.Address = devAddr;
 80016cc:	687b      	ldr	r3, [r7, #4]
 80016ce:	220f      	movs	r2, #15
 80016d0:	18ba      	adds	r2, r7, r2
 80016d2:	7812      	ldrb	r2, [r2, #0]
 80016d4:	711a      	strb	r2, [r3, #4]
  
  return(ret);
 80016d6:	68bb      	ldr	r3, [r7, #8]
}
 80016d8:	0018      	movs	r0, r3
 80016da:	46bd      	mov	sp, r7
 80016dc:	b004      	add	sp, #16
 80016de:	bd80      	pop	{r7, pc}
 80016e0:	0800502c 	.word	0x0800502c

080016e4 <LED12A1_ScanAvailDevice>:
* @param  pObj pointer to Object
* @param  pBuff Pointer to buffer to store the Available devices 7 bit addresses
* @retval Number of LED1202 devices available on board
*/
int32_t LED12A1_ScanAvailDevice( LED1202_Object_TypeDef* pObj ,uint8_t *pBuff)
{
 80016e4:	b590      	push	{r4, r7, lr}
 80016e6:	b089      	sub	sp, #36	; 0x24
 80016e8:	af00      	add	r7, sp, #0
 80016ea:	6078      	str	r0, [r7, #4]
 80016ec:	6039      	str	r1, [r7, #0]
  uint8_t i2cStartAddr = 0x58;
 80016ee:	2113      	movs	r1, #19
 80016f0:	187b      	adds	r3, r7, r1
 80016f2:	2258      	movs	r2, #88	; 0x58
 80016f4:	701a      	strb	r2, [r3, #0]
  uint8_t i2cEndAddr = 0x60;
 80016f6:	2312      	movs	r3, #18
 80016f8:	18fb      	adds	r3, r7, r3
 80016fa:	2260      	movs	r2, #96	; 0x60
 80016fc:	701a      	strb	r2, [r3, #0]
  uint8_t addr;
  uint8_t *buffPtr = pBuff;
 80016fe:	683b      	ldr	r3, [r7, #0]
 8001700:	61bb      	str	r3, [r7, #24]
  uint8_t devId;
  int32_t status;
  int32_t numDev = 0;
 8001702:	2300      	movs	r3, #0
 8001704:	617b      	str	r3, [r7, #20]
  
  for (addr = i2cStartAddr; addr<=i2cEndAddr; addr++)
 8001706:	231f      	movs	r3, #31
 8001708:	18fb      	adds	r3, r7, r3
 800170a:	187a      	adds	r2, r7, r1
 800170c:	7812      	ldrb	r2, [r2, #0]
 800170e:	701a      	strb	r2, [r3, #0]
 8001710:	e020      	b.n	8001754 <LED12A1_ScanAvailDevice+0x70>
  {
    devId = 0;
 8001712:	210b      	movs	r1, #11
 8001714:	187b      	adds	r3, r7, r1
 8001716:	2200      	movs	r2, #0
 8001718:	701a      	strb	r2, [r3, #0]
    status =  LED1202_ReadID(pObj, &devId, addr);
 800171a:	241f      	movs	r4, #31
 800171c:	193b      	adds	r3, r7, r4
 800171e:	781a      	ldrb	r2, [r3, #0]
 8001720:	1879      	adds	r1, r7, r1
 8001722:	687b      	ldr	r3, [r7, #4]
 8001724:	0018      	movs	r0, r3
 8001726:	f7ff fcff 	bl	8001128 <LED1202_ReadID>
 800172a:	0003      	movs	r3, r0
 800172c:	60fb      	str	r3, [r7, #12]
    
    if(status == ((int32_t)LED1202_OK))
 800172e:	68fb      	ldr	r3, [r7, #12]
 8001730:	2b00      	cmp	r3, #0
 8001732:	d109      	bne.n	8001748 <LED12A1_ScanAvailDevice+0x64>
    {
      numDev++;
 8001734:	697b      	ldr	r3, [r7, #20]
 8001736:	3301      	adds	r3, #1
 8001738:	617b      	str	r3, [r7, #20]
      *buffPtr = addr;
 800173a:	69bb      	ldr	r3, [r7, #24]
 800173c:	193a      	adds	r2, r7, r4
 800173e:	7812      	ldrb	r2, [r2, #0]
 8001740:	701a      	strb	r2, [r3, #0]
      buffPtr++;
 8001742:	69bb      	ldr	r3, [r7, #24]
 8001744:	3301      	adds	r3, #1
 8001746:	61bb      	str	r3, [r7, #24]
  for (addr = i2cStartAddr; addr<=i2cEndAddr; addr++)
 8001748:	211f      	movs	r1, #31
 800174a:	187b      	adds	r3, r7, r1
 800174c:	781a      	ldrb	r2, [r3, #0]
 800174e:	187b      	adds	r3, r7, r1
 8001750:	3201      	adds	r2, #1
 8001752:	701a      	strb	r2, [r3, #0]
 8001754:	231f      	movs	r3, #31
 8001756:	18fa      	adds	r2, r7, r3
 8001758:	2312      	movs	r3, #18
 800175a:	18fb      	adds	r3, r7, r3
 800175c:	7812      	ldrb	r2, [r2, #0]
 800175e:	781b      	ldrb	r3, [r3, #0]
 8001760:	429a      	cmp	r2, r3
 8001762:	d9d6      	bls.n	8001712 <LED12A1_ScanAvailDevice+0x2e>
    }
  }
  
  return(numDev);
 8001764:	697b      	ldr	r3, [r7, #20]
}
 8001766:	0018      	movs	r0, r3
 8001768:	46bd      	mov	sp, r7
 800176a:	b009      	add	sp, #36	; 0x24
 800176c:	bd90      	pop	{r4, r7, pc}

0800176e <LED12A1_AnalogDimming>:
* @param  Channel The channel to be written (0 to 11)
* @param  DevSelect Device selected (LED_DEVICE1, LED_DEVICE2 ,LED_DEVICE3 or LED_DEVICE_ALL)
* @retval Number of LED1202 devices available on board
*/
int32_t LED12A1_AnalogDimming( LED1202_Object_TypeDef* pObj , uint8_t Current, uint8_t Channel, TypedefEnumDevAddr DevSelect)
{
 800176e:	b590      	push	{r4, r7, lr}
 8001770:	b085      	sub	sp, #20
 8001772:	af00      	add	r7, sp, #0
 8001774:	6078      	str	r0, [r7, #4]
 8001776:	000c      	movs	r4, r1
 8001778:	0010      	movs	r0, r2
 800177a:	0019      	movs	r1, r3
 800177c:	1cfb      	adds	r3, r7, #3
 800177e:	1c22      	adds	r2, r4, #0
 8001780:	701a      	strb	r2, [r3, #0]
 8001782:	1cbb      	adds	r3, r7, #2
 8001784:	1c02      	adds	r2, r0, #0
 8001786:	701a      	strb	r2, [r3, #0]
 8001788:	1c7b      	adds	r3, r7, #1
 800178a:	1c0a      	adds	r2, r1, #0
 800178c:	701a      	strb	r2, [r3, #0]
  volatile int32_t ret = (int32_t) LED1202_OK;
 800178e:	2300      	movs	r3, #0
 8001790:	60fb      	str	r3, [r7, #12]
  ret = LED12A1_SetDeviceAddr(pObj ,DevSelect);
 8001792:	1c7b      	adds	r3, r7, #1
 8001794:	781a      	ldrb	r2, [r3, #0]
 8001796:	687b      	ldr	r3, [r7, #4]
 8001798:	0011      	movs	r1, r2
 800179a:	0018      	movs	r0, r3
 800179c:	f7ff ff66 	bl	800166c <LED12A1_SetDeviceAddr>
 80017a0:	0003      	movs	r3, r0
 80017a2:	60fb      	str	r3, [r7, #12]
  ret = LED1202_WriteLEDCurrentReg(pObj ,Current, Channel, pObj->IO.Address); 
 80017a4:	1cbb      	adds	r3, r7, #2
 80017a6:	781b      	ldrb	r3, [r3, #0]
 80017a8:	b29a      	uxth	r2, r3
 80017aa:	687b      	ldr	r3, [r7, #4]
 80017ac:	791c      	ldrb	r4, [r3, #4]
 80017ae:	1cfb      	adds	r3, r7, #3
 80017b0:	7819      	ldrb	r1, [r3, #0]
 80017b2:	6878      	ldr	r0, [r7, #4]
 80017b4:	0023      	movs	r3, r4
 80017b6:	f7ff fd54 	bl	8001262 <LED1202_WriteLEDCurrentReg>
 80017ba:	0003      	movs	r3, r0
 80017bc:	60fb      	str	r3, [r7, #12]
  return(ret);
 80017be:	68fb      	ldr	r3, [r7, #12]
}
 80017c0:	0018      	movs	r0, r3
 80017c2:	46bd      	mov	sp, r7
 80017c4:	b005      	add	sp, #20
 80017c6:	bd90      	pop	{r4, r7, pc}

080017c8 <LED12A1_DigitalDimming>:
* @param  PatternNum Pattern Number
* @param  DevSelect Selected Device(  LED_DEVICE1 ,LED_DEVICE2,LED_DEVICE3 or LED_DEVICE_ALL)
* @retval ret the status of the operartion
*/
int32_t LED12A1_DigitalDimming( LED1202_Object_TypeDef* pObj ,uint16_t *pBuff,uint8_t Channel, uint8_t PatternNum, TypedefEnumDevAddr DevSelect)
{
 80017c8:	b590      	push	{r4, r7, lr}
 80017ca:	b089      	sub	sp, #36	; 0x24
 80017cc:	af02      	add	r7, sp, #8
 80017ce:	60f8      	str	r0, [r7, #12]
 80017d0:	60b9      	str	r1, [r7, #8]
 80017d2:	0019      	movs	r1, r3
 80017d4:	1dfb      	adds	r3, r7, #7
 80017d6:	701a      	strb	r2, [r3, #0]
 80017d8:	1dbb      	adds	r3, r7, #6
 80017da:	1c0a      	adds	r2, r1, #0
 80017dc:	701a      	strb	r2, [r3, #0]
  volatile int32_t ret = (int32_t) LED1202_OK;
 80017de:	2300      	movs	r3, #0
 80017e0:	617b      	str	r3, [r7, #20]
  ret = LED12A1_SetDeviceAddr(pObj ,DevSelect);
 80017e2:	2328      	movs	r3, #40	; 0x28
 80017e4:	18fb      	adds	r3, r7, r3
 80017e6:	781a      	ldrb	r2, [r3, #0]
 80017e8:	68fb      	ldr	r3, [r7, #12]
 80017ea:	0011      	movs	r1, r2
 80017ec:	0018      	movs	r0, r3
 80017ee:	f7ff ff3d 	bl	800166c <LED12A1_SetDeviceAddr>
 80017f2:	0003      	movs	r3, r0
 80017f4:	617b      	str	r3, [r7, #20]
  ret = LED1202_WritePatternPWMConfig(pObj ,(uint8_t *)pBuff,Channel, PatternNum, pObj->IO.Address);
 80017f6:	68fb      	ldr	r3, [r7, #12]
 80017f8:	791b      	ldrb	r3, [r3, #4]
 80017fa:	1dba      	adds	r2, r7, #6
 80017fc:	7814      	ldrb	r4, [r2, #0]
 80017fe:	1dfa      	adds	r2, r7, #7
 8001800:	7812      	ldrb	r2, [r2, #0]
 8001802:	68b9      	ldr	r1, [r7, #8]
 8001804:	68f8      	ldr	r0, [r7, #12]
 8001806:	9300      	str	r3, [sp, #0]
 8001808:	0023      	movs	r3, r4
 800180a:	f7ff fd6a 	bl	80012e2 <LED1202_WritePatternPWMConfig>
 800180e:	0003      	movs	r3, r0
 8001810:	617b      	str	r3, [r7, #20]
  return(ret);
 8001812:	697b      	ldr	r3, [r7, #20]
}
 8001814:	0018      	movs	r0, r3
 8001816:	46bd      	mov	sp, r7
 8001818:	b007      	add	sp, #28
 800181a:	bd90      	pop	{r4, r7, pc}

0800181c <LED12A1_ChannelEnable>:
* @param  Channel any combination of LED_CHANNEL_0,LED_CHANNEL_1,LED_CHANNEL_2..LED_CHANNEL_11 can be passed
* @param  DevSelect Selected Device(  LED_DEVICE1 ,LED_DEVICE2,LED_DEVICE3 or LED_DEVICE_ALL)
* @retval 0 in case of success, an error code otherwise
*/
int32_t LED12A1_ChannelEnable( LED1202_Object_TypeDef* pObj , TypeDefChannel Channel, TypedefEnumDevAddr DevSelect)
{
 800181c:	b580      	push	{r7, lr}
 800181e:	b084      	sub	sp, #16
 8001820:	af00      	add	r7, sp, #0
 8001822:	6078      	str	r0, [r7, #4]
 8001824:	0008      	movs	r0, r1
 8001826:	0011      	movs	r1, r2
 8001828:	1cbb      	adds	r3, r7, #2
 800182a:	1c02      	adds	r2, r0, #0
 800182c:	801a      	strh	r2, [r3, #0]
 800182e:	1c7b      	adds	r3, r7, #1
 8001830:	1c0a      	adds	r2, r1, #0
 8001832:	701a      	strb	r2, [r3, #0]
  volatile int32_t ret = (int32_t) LED1202_OK;
 8001834:	2300      	movs	r3, #0
 8001836:	60fb      	str	r3, [r7, #12]
  ret = LED12A1_SetDeviceAddr(pObj ,DevSelect);
 8001838:	1c7b      	adds	r3, r7, #1
 800183a:	781a      	ldrb	r2, [r3, #0]
 800183c:	687b      	ldr	r3, [r7, #4]
 800183e:	0011      	movs	r1, r2
 8001840:	0018      	movs	r0, r3
 8001842:	f7ff ff13 	bl	800166c <LED12A1_SetDeviceAddr>
 8001846:	0003      	movs	r3, r0
 8001848:	60fb      	str	r3, [r7, #12]
  ret = LED1202_SetChannelState(pObj ,(uint16_t) Channel ,CH_STATE_ENABLE, pObj->IO.Address);
 800184a:	687b      	ldr	r3, [r7, #4]
 800184c:	791a      	ldrb	r2, [r3, #4]
 800184e:	1cbb      	adds	r3, r7, #2
 8001850:	8819      	ldrh	r1, [r3, #0]
 8001852:	6878      	ldr	r0, [r7, #4]
 8001854:	0013      	movs	r3, r2
 8001856:	2200      	movs	r2, #0
 8001858:	f7ff fc8e 	bl	8001178 <LED1202_SetChannelState>
 800185c:	0003      	movs	r3, r0
 800185e:	60fb      	str	r3, [r7, #12]
  
  return(ret);
 8001860:	68fb      	ldr	r3, [r7, #12]
}
 8001862:	0018      	movs	r0, r3
 8001864:	46bd      	mov	sp, r7
 8001866:	b004      	add	sp, #16
 8001868:	bd80      	pop	{r7, pc}

0800186a <LED12A1_ChannelDisable>:
* @param  Channel any combination of LED_CHANNEL_0,LED_CHANNEL_1,LED_CHANNEL_2..LED_CHANNEL_11 can be passed
* @param  DevSelect Selected Device(  LED_DEVICE1 ,LED_DEVICE2,LED_DEVICE3 or LED_DEVICE_ALL)
* @retval 0 in case of success, an error code otherwise
*/
int32_t LED12A1_ChannelDisable( LED1202_Object_TypeDef* pObj , TypeDefChannel Channel,TypedefEnumDevAddr DevSelect)
{
 800186a:	b580      	push	{r7, lr}
 800186c:	b084      	sub	sp, #16
 800186e:	af00      	add	r7, sp, #0
 8001870:	6078      	str	r0, [r7, #4]
 8001872:	0008      	movs	r0, r1
 8001874:	0011      	movs	r1, r2
 8001876:	1cbb      	adds	r3, r7, #2
 8001878:	1c02      	adds	r2, r0, #0
 800187a:	801a      	strh	r2, [r3, #0]
 800187c:	1c7b      	adds	r3, r7, #1
 800187e:	1c0a      	adds	r2, r1, #0
 8001880:	701a      	strb	r2, [r3, #0]
  volatile int32_t ret =  (int32_t)LED1202_OK;
 8001882:	2300      	movs	r3, #0
 8001884:	60fb      	str	r3, [r7, #12]
  ret = LED12A1_SetDeviceAddr(pObj ,DevSelect);
 8001886:	1c7b      	adds	r3, r7, #1
 8001888:	781a      	ldrb	r2, [r3, #0]
 800188a:	687b      	ldr	r3, [r7, #4]
 800188c:	0011      	movs	r1, r2
 800188e:	0018      	movs	r0, r3
 8001890:	f7ff feec 	bl	800166c <LED12A1_SetDeviceAddr>
 8001894:	0003      	movs	r3, r0
 8001896:	60fb      	str	r3, [r7, #12]
  ret = LED1202_SetChannelState(pObj , (uint16_t) Channel ,CH_STATE_DISABLE, pObj->IO.Address);
 8001898:	687b      	ldr	r3, [r7, #4]
 800189a:	791a      	ldrb	r2, [r3, #4]
 800189c:	1cbb      	adds	r3, r7, #2
 800189e:	8819      	ldrh	r1, [r3, #0]
 80018a0:	6878      	ldr	r0, [r7, #4]
 80018a2:	0013      	movs	r3, r2
 80018a4:	2201      	movs	r2, #1
 80018a6:	f7ff fc67 	bl	8001178 <LED1202_SetChannelState>
 80018aa:	0003      	movs	r3, r0
 80018ac:	60fb      	str	r3, [r7, #12]
  
  return(ret);
 80018ae:	68fb      	ldr	r3, [r7, #12]
}
 80018b0:	0018      	movs	r0, r3
 80018b2:	46bd      	mov	sp, r7
 80018b4:	b004      	add	sp, #16
 80018b6:	bd80      	pop	{r7, pc}

080018b8 <HAL_Init>:
  *         each 1ms in the SysTick_Handler() interrupt handler.
  *
  * @retval HAL status
  */
HAL_StatusTypeDef HAL_Init(void)
{
 80018b8:	b580      	push	{r7, lr}
 80018ba:	b082      	sub	sp, #8
 80018bc:	af00      	add	r7, sp, #0
  HAL_StatusTypeDef  status = HAL_OK;
 80018be:	1dfb      	adds	r3, r7, #7
 80018c0:	2200      	movs	r2, #0
 80018c2:	701a      	strb	r2, [r3, #0]
#if (INSTRUCTION_CACHE_ENABLE == 0U)
  __HAL_FLASH_INSTRUCTION_CACHE_DISABLE();
#endif /* INSTRUCTION_CACHE_ENABLE */

#if (PREFETCH_ENABLE != 0U)
  __HAL_FLASH_PREFETCH_BUFFER_ENABLE();
 80018c4:	4b0b      	ldr	r3, [pc, #44]	; (80018f4 <HAL_Init+0x3c>)
 80018c6:	681a      	ldr	r2, [r3, #0]
 80018c8:	4b0a      	ldr	r3, [pc, #40]	; (80018f4 <HAL_Init+0x3c>)
 80018ca:	2180      	movs	r1, #128	; 0x80
 80018cc:	0049      	lsls	r1, r1, #1
 80018ce:	430a      	orrs	r2, r1
 80018d0:	601a      	str	r2, [r3, #0]
#endif /* PREFETCH_ENABLE */

  /* Use SysTick as time base source and configure 1ms tick (default clock after Reset is HSI) */
  if (HAL_InitTick(TICK_INT_PRIORITY) != HAL_OK)
 80018d2:	2000      	movs	r0, #0
 80018d4:	f000 f810 	bl	80018f8 <HAL_InitTick>
 80018d8:	1e03      	subs	r3, r0, #0
 80018da:	d003      	beq.n	80018e4 <HAL_Init+0x2c>
  {
    status = HAL_ERROR;
 80018dc:	1dfb      	adds	r3, r7, #7
 80018de:	2201      	movs	r2, #1
 80018e0:	701a      	strb	r2, [r3, #0]
 80018e2:	e001      	b.n	80018e8 <HAL_Init+0x30>
  }
  else
  {
  /* Init the low level hardware */
  HAL_MspInit();
 80018e4:	f7ff fa50 	bl	8000d88 <HAL_MspInit>
  }

  /* Return function status */
  return status;
 80018e8:	1dfb      	adds	r3, r7, #7
 80018ea:	781b      	ldrb	r3, [r3, #0]
}
 80018ec:	0018      	movs	r0, r3
 80018ee:	46bd      	mov	sp, r7
 80018f0:	b002      	add	sp, #8
 80018f2:	bd80      	pop	{r7, pc}
 80018f4:	40022000 	.word	0x40022000

080018f8 <HAL_InitTick>:
  *       implementation  in user file.
  * @param TickPriority Tick interrupt priority.
  * @retval HAL status
  */
__weak HAL_StatusTypeDef HAL_InitTick(uint32_t TickPriority)
{
 80018f8:	b590      	push	{r4, r7, lr}
 80018fa:	b085      	sub	sp, #20
 80018fc:	af00      	add	r7, sp, #0
 80018fe:	6078      	str	r0, [r7, #4]
  HAL_StatusTypeDef  status = HAL_OK;
 8001900:	230f      	movs	r3, #15
 8001902:	18fb      	adds	r3, r7, r3
 8001904:	2200      	movs	r2, #0
 8001906:	701a      	strb	r2, [r3, #0]

  /* Check uwTickFreq for MisraC 2012 (even if uwTickFreq is a enum type that doesn't take the value zero)*/ 
  if ((uint32_t)uwTickFreq != 0U)
 8001908:	4b1d      	ldr	r3, [pc, #116]	; (8001980 <HAL_InitTick+0x88>)
 800190a:	781b      	ldrb	r3, [r3, #0]
 800190c:	2b00      	cmp	r3, #0
 800190e:	d02b      	beq.n	8001968 <HAL_InitTick+0x70>
  {
    /*Configure the SysTick to have interrupt in 1ms time basis*/
    if (HAL_SYSTICK_Config(SystemCoreClock / (1000U /(uint32_t)uwTickFreq)) == 0U)
 8001910:	4b1c      	ldr	r3, [pc, #112]	; (8001984 <HAL_InitTick+0x8c>)
 8001912:	681c      	ldr	r4, [r3, #0]
 8001914:	4b1a      	ldr	r3, [pc, #104]	; (8001980 <HAL_InitTick+0x88>)
 8001916:	781b      	ldrb	r3, [r3, #0]
 8001918:	0019      	movs	r1, r3
 800191a:	23fa      	movs	r3, #250	; 0xfa
 800191c:	0098      	lsls	r0, r3, #2
 800191e:	f7fe fbf1 	bl	8000104 <__udivsi3>
 8001922:	0003      	movs	r3, r0
 8001924:	0019      	movs	r1, r3
 8001926:	0020      	movs	r0, r4
 8001928:	f7fe fbec 	bl	8000104 <__udivsi3>
 800192c:	0003      	movs	r3, r0
 800192e:	0018      	movs	r0, r3
 8001930:	f000 f913 	bl	8001b5a <HAL_SYSTICK_Config>
 8001934:	1e03      	subs	r3, r0, #0
 8001936:	d112      	bne.n	800195e <HAL_InitTick+0x66>
    {
      /* Configure the SysTick IRQ priority */
      if (TickPriority < (1UL << __NVIC_PRIO_BITS))
 8001938:	687b      	ldr	r3, [r7, #4]
 800193a:	2b03      	cmp	r3, #3
 800193c:	d80a      	bhi.n	8001954 <HAL_InitTick+0x5c>
      {
        HAL_NVIC_SetPriority(SysTick_IRQn, TickPriority, 0U);
 800193e:	6879      	ldr	r1, [r7, #4]
 8001940:	2301      	movs	r3, #1
 8001942:	425b      	negs	r3, r3
 8001944:	2200      	movs	r2, #0
 8001946:	0018      	movs	r0, r3
 8001948:	f000 f8f2 	bl	8001b30 <HAL_NVIC_SetPriority>
        uwTickPrio = TickPriority;
 800194c:	4b0e      	ldr	r3, [pc, #56]	; (8001988 <HAL_InitTick+0x90>)
 800194e:	687a      	ldr	r2, [r7, #4]
 8001950:	601a      	str	r2, [r3, #0]
 8001952:	e00d      	b.n	8001970 <HAL_InitTick+0x78>
      }
      else
      {
        status = HAL_ERROR;
 8001954:	230f      	movs	r3, #15
 8001956:	18fb      	adds	r3, r7, r3
 8001958:	2201      	movs	r2, #1
 800195a:	701a      	strb	r2, [r3, #0]
 800195c:	e008      	b.n	8001970 <HAL_InitTick+0x78>
      }
    }
    else
    {
      status = HAL_ERROR;
 800195e:	230f      	movs	r3, #15
 8001960:	18fb      	adds	r3, r7, r3
 8001962:	2201      	movs	r2, #1
 8001964:	701a      	strb	r2, [r3, #0]
 8001966:	e003      	b.n	8001970 <HAL_InitTick+0x78>
    }
  }
  else
  {
    status = HAL_ERROR;
 8001968:	230f      	movs	r3, #15
 800196a:	18fb      	adds	r3, r7, r3
 800196c:	2201      	movs	r2, #1
 800196e:	701a      	strb	r2, [r3, #0]
  }

  /* Return function status */
  return status;
 8001970:	230f      	movs	r3, #15
 8001972:	18fb      	adds	r3, r7, r3
 8001974:	781b      	ldrb	r3, [r3, #0]
}
 8001976:	0018      	movs	r0, r3
 8001978:	46bd      	mov	sp, r7
 800197a:	b005      	add	sp, #20
 800197c:	bd90      	pop	{r4, r7, pc}
 800197e:	46c0      	nop			; (mov r8, r8)
 8001980:	20000008 	.word	0x20000008
 8001984:	20000000 	.word	0x20000000
 8001988:	20000004 	.word	0x20000004

0800198c <HAL_IncTick>:
  * @note This function is declared as __weak to be overwritten in case of other
  *      implementations in user file.
  * @retval None
  */
__weak void HAL_IncTick(void)
{
 800198c:	b580      	push	{r7, lr}
 800198e:	af00      	add	r7, sp, #0
  uwTick += (uint32_t)uwTickFreq;
 8001990:	4b05      	ldr	r3, [pc, #20]	; (80019a8 <HAL_IncTick+0x1c>)
 8001992:	781b      	ldrb	r3, [r3, #0]
 8001994:	001a      	movs	r2, r3
 8001996:	4b05      	ldr	r3, [pc, #20]	; (80019ac <HAL_IncTick+0x20>)
 8001998:	681b      	ldr	r3, [r3, #0]
 800199a:	18d2      	adds	r2, r2, r3
 800199c:	4b03      	ldr	r3, [pc, #12]	; (80019ac <HAL_IncTick+0x20>)
 800199e:	601a      	str	r2, [r3, #0]
}
 80019a0:	46c0      	nop			; (mov r8, r8)
 80019a2:	46bd      	mov	sp, r7
 80019a4:	bd80      	pop	{r7, pc}
 80019a6:	46c0      	nop			; (mov r8, r8)
 80019a8:	20000008 	.word	0x20000008
 80019ac:	20000268 	.word	0x20000268

080019b0 <HAL_GetTick>:
  * @note This function is declared as __weak to be overwritten in case of other
  *       implementations in user file.
  * @retval tick value
  */
__weak uint32_t HAL_GetTick(void)
{
 80019b0:	b580      	push	{r7, lr}
 80019b2:	af00      	add	r7, sp, #0
  return uwTick;
 80019b4:	4b02      	ldr	r3, [pc, #8]	; (80019c0 <HAL_GetTick+0x10>)
 80019b6:	681b      	ldr	r3, [r3, #0]
}
 80019b8:	0018      	movs	r0, r3
 80019ba:	46bd      	mov	sp, r7
 80019bc:	bd80      	pop	{r7, pc}
 80019be:	46c0      	nop			; (mov r8, r8)
 80019c0:	20000268 	.word	0x20000268

080019c4 <HAL_Delay>:
  *       implementations in user file.
  * @param Delay  specifies the delay time length, in milliseconds.
  * @retval None
  */
__weak void HAL_Delay(uint32_t Delay)
{
 80019c4:	b580      	push	{r7, lr}
 80019c6:	b084      	sub	sp, #16
 80019c8:	af00      	add	r7, sp, #0
 80019ca:	6078      	str	r0, [r7, #4]
  uint32_t tickstart = HAL_GetTick();
 80019cc:	f7ff fff0 	bl	80019b0 <HAL_GetTick>
 80019d0:	0003      	movs	r3, r0
 80019d2:	60bb      	str	r3, [r7, #8]
  uint32_t wait = Delay;
 80019d4:	687b      	ldr	r3, [r7, #4]
 80019d6:	60fb      	str	r3, [r7, #12]

  /* Add a freq to guarantee minimum wait */
  if (wait < HAL_MAX_DELAY)
 80019d8:	68fb      	ldr	r3, [r7, #12]
 80019da:	3301      	adds	r3, #1
 80019dc:	d005      	beq.n	80019ea <HAL_Delay+0x26>
  {
    wait += (uint32_t)(uwTickFreq);
 80019de:	4b0a      	ldr	r3, [pc, #40]	; (8001a08 <HAL_Delay+0x44>)
 80019e0:	781b      	ldrb	r3, [r3, #0]
 80019e2:	001a      	movs	r2, r3
 80019e4:	68fb      	ldr	r3, [r7, #12]
 80019e6:	189b      	adds	r3, r3, r2
 80019e8:	60fb      	str	r3, [r7, #12]
  }

  while ((HAL_GetTick() - tickstart) < wait)
 80019ea:	46c0      	nop			; (mov r8, r8)
 80019ec:	f7ff ffe0 	bl	80019b0 <HAL_GetTick>
 80019f0:	0002      	movs	r2, r0
 80019f2:	68bb      	ldr	r3, [r7, #8]
 80019f4:	1ad3      	subs	r3, r2, r3
 80019f6:	68fa      	ldr	r2, [r7, #12]
 80019f8:	429a      	cmp	r2, r3
 80019fa:	d8f7      	bhi.n	80019ec <HAL_Delay+0x28>
  {
  }
}
 80019fc:	46c0      	nop			; (mov r8, r8)
 80019fe:	46c0      	nop			; (mov r8, r8)
 8001a00:	46bd      	mov	sp, r7
 8001a02:	b004      	add	sp, #16
 8001a04:	bd80      	pop	{r7, pc}
 8001a06:	46c0      	nop			; (mov r8, r8)
 8001a08:	20000008 	.word	0x20000008

08001a0c <__NVIC_SetPriority>:
  \param [in]      IRQn  Interrupt number.
  \param [in]  priority  Priority to set.
  \note    The priority cannot be set for every processor exception.
 */
__STATIC_INLINE void __NVIC_SetPriority(IRQn_Type IRQn, uint32_t priority)
{
 8001a0c:	b590      	push	{r4, r7, lr}
 8001a0e:	b083      	sub	sp, #12
 8001a10:	af00      	add	r7, sp, #0
 8001a12:	0002      	movs	r2, r0
 8001a14:	6039      	str	r1, [r7, #0]
 8001a16:	1dfb      	adds	r3, r7, #7
 8001a18:	701a      	strb	r2, [r3, #0]
  if ((int32_t)(IRQn) >= 0)
 8001a1a:	1dfb      	adds	r3, r7, #7
 8001a1c:	781b      	ldrb	r3, [r3, #0]
 8001a1e:	2b7f      	cmp	r3, #127	; 0x7f
 8001a20:	d828      	bhi.n	8001a74 <__NVIC_SetPriority+0x68>
  {
    NVIC->IP[_IP_IDX(IRQn)]  = ((uint32_t)(NVIC->IP[_IP_IDX(IRQn)]  & ~(0xFFUL << _BIT_SHIFT(IRQn))) |
 8001a22:	4a2f      	ldr	r2, [pc, #188]	; (8001ae0 <__NVIC_SetPriority+0xd4>)
 8001a24:	1dfb      	adds	r3, r7, #7
 8001a26:	781b      	ldrb	r3, [r3, #0]
 8001a28:	b25b      	sxtb	r3, r3
 8001a2a:	089b      	lsrs	r3, r3, #2
 8001a2c:	33c0      	adds	r3, #192	; 0xc0
 8001a2e:	009b      	lsls	r3, r3, #2
 8001a30:	589b      	ldr	r3, [r3, r2]
 8001a32:	1dfa      	adds	r2, r7, #7
 8001a34:	7812      	ldrb	r2, [r2, #0]
 8001a36:	0011      	movs	r1, r2
 8001a38:	2203      	movs	r2, #3
 8001a3a:	400a      	ands	r2, r1
 8001a3c:	00d2      	lsls	r2, r2, #3
 8001a3e:	21ff      	movs	r1, #255	; 0xff
 8001a40:	4091      	lsls	r1, r2
 8001a42:	000a      	movs	r2, r1
 8001a44:	43d2      	mvns	r2, r2
 8001a46:	401a      	ands	r2, r3
 8001a48:	0011      	movs	r1, r2
       (((priority << (8U - __NVIC_PRIO_BITS)) & (uint32_t)0xFFUL) << _BIT_SHIFT(IRQn)));
 8001a4a:	683b      	ldr	r3, [r7, #0]
 8001a4c:	019b      	lsls	r3, r3, #6
 8001a4e:	22ff      	movs	r2, #255	; 0xff
 8001a50:	401a      	ands	r2, r3
 8001a52:	1dfb      	adds	r3, r7, #7
 8001a54:	781b      	ldrb	r3, [r3, #0]
 8001a56:	0018      	movs	r0, r3
 8001a58:	2303      	movs	r3, #3
 8001a5a:	4003      	ands	r3, r0
 8001a5c:	00db      	lsls	r3, r3, #3
 8001a5e:	409a      	lsls	r2, r3
    NVIC->IP[_IP_IDX(IRQn)]  = ((uint32_t)(NVIC->IP[_IP_IDX(IRQn)]  & ~(0xFFUL << _BIT_SHIFT(IRQn))) |
 8001a60:	481f      	ldr	r0, [pc, #124]	; (8001ae0 <__NVIC_SetPriority+0xd4>)
 8001a62:	1dfb      	adds	r3, r7, #7
 8001a64:	781b      	ldrb	r3, [r3, #0]
 8001a66:	b25b      	sxtb	r3, r3
 8001a68:	089b      	lsrs	r3, r3, #2
 8001a6a:	430a      	orrs	r2, r1
 8001a6c:	33c0      	adds	r3, #192	; 0xc0
 8001a6e:	009b      	lsls	r3, r3, #2
 8001a70:	501a      	str	r2, [r3, r0]
  else
  {
    SCB->SHP[_SHP_IDX(IRQn)] = ((uint32_t)(SCB->SHP[_SHP_IDX(IRQn)] & ~(0xFFUL << _BIT_SHIFT(IRQn))) |
       (((priority << (8U - __NVIC_PRIO_BITS)) & (uint32_t)0xFFUL) << _BIT_SHIFT(IRQn)));
  }
}
 8001a72:	e031      	b.n	8001ad8 <__NVIC_SetPriority+0xcc>
    SCB->SHP[_SHP_IDX(IRQn)] = ((uint32_t)(SCB->SHP[_SHP_IDX(IRQn)] & ~(0xFFUL << _BIT_SHIFT(IRQn))) |
 8001a74:	4a1b      	ldr	r2, [pc, #108]	; (8001ae4 <__NVIC_SetPriority+0xd8>)
 8001a76:	1dfb      	adds	r3, r7, #7
 8001a78:	781b      	ldrb	r3, [r3, #0]
 8001a7a:	0019      	movs	r1, r3
 8001a7c:	230f      	movs	r3, #15
 8001a7e:	400b      	ands	r3, r1
 8001a80:	3b08      	subs	r3, #8
 8001a82:	089b      	lsrs	r3, r3, #2
 8001a84:	3306      	adds	r3, #6
 8001a86:	009b      	lsls	r3, r3, #2
 8001a88:	18d3      	adds	r3, r2, r3
 8001a8a:	3304      	adds	r3, #4
 8001a8c:	681b      	ldr	r3, [r3, #0]
 8001a8e:	1dfa      	adds	r2, r7, #7
 8001a90:	7812      	ldrb	r2, [r2, #0]
 8001a92:	0011      	movs	r1, r2
 8001a94:	2203      	movs	r2, #3
 8001a96:	400a      	ands	r2, r1
 8001a98:	00d2      	lsls	r2, r2, #3
 8001a9a:	21ff      	movs	r1, #255	; 0xff
 8001a9c:	4091      	lsls	r1, r2
 8001a9e:	000a      	movs	r2, r1
 8001aa0:	43d2      	mvns	r2, r2
 8001aa2:	401a      	ands	r2, r3
 8001aa4:	0011      	movs	r1, r2
       (((priority << (8U - __NVIC_PRIO_BITS)) & (uint32_t)0xFFUL) << _BIT_SHIFT(IRQn)));
 8001aa6:	683b      	ldr	r3, [r7, #0]
 8001aa8:	019b      	lsls	r3, r3, #6
 8001aaa:	22ff      	movs	r2, #255	; 0xff
 8001aac:	401a      	ands	r2, r3
 8001aae:	1dfb      	adds	r3, r7, #7
 8001ab0:	781b      	ldrb	r3, [r3, #0]
 8001ab2:	0018      	movs	r0, r3
 8001ab4:	2303      	movs	r3, #3
 8001ab6:	4003      	ands	r3, r0
 8001ab8:	00db      	lsls	r3, r3, #3
 8001aba:	409a      	lsls	r2, r3
    SCB->SHP[_SHP_IDX(IRQn)] = ((uint32_t)(SCB->SHP[_SHP_IDX(IRQn)] & ~(0xFFUL << _BIT_SHIFT(IRQn))) |
 8001abc:	4809      	ldr	r0, [pc, #36]	; (8001ae4 <__NVIC_SetPriority+0xd8>)
 8001abe:	1dfb      	adds	r3, r7, #7
 8001ac0:	781b      	ldrb	r3, [r3, #0]
 8001ac2:	001c      	movs	r4, r3
 8001ac4:	230f      	movs	r3, #15
 8001ac6:	4023      	ands	r3, r4
 8001ac8:	3b08      	subs	r3, #8
 8001aca:	089b      	lsrs	r3, r3, #2
 8001acc:	430a      	orrs	r2, r1
 8001ace:	3306      	adds	r3, #6
 8001ad0:	009b      	lsls	r3, r3, #2
 8001ad2:	18c3      	adds	r3, r0, r3
 8001ad4:	3304      	adds	r3, #4
 8001ad6:	601a      	str	r2, [r3, #0]
}
 8001ad8:	46c0      	nop			; (mov r8, r8)
 8001ada:	46bd      	mov	sp, r7
 8001adc:	b003      	add	sp, #12
 8001ade:	bd90      	pop	{r4, r7, pc}
 8001ae0:	e000e100 	.word	0xe000e100
 8001ae4:	e000ed00 	.word	0xe000ed00

08001ae8 <SysTick_Config>:
  \note    When the variable <b>__Vendor_SysTickConfig</b> is set to 1, then the
           function <b>SysTick_Config</b> is not included. In this case, the file <b><i>device</i>.h</b>
           must contain a vendor-specific implementation of this function.
 */
__STATIC_INLINE uint32_t SysTick_Config(uint32_t ticks)
{
 8001ae8:	b580      	push	{r7, lr}
 8001aea:	b082      	sub	sp, #8
 8001aec:	af00      	add	r7, sp, #0
 8001aee:	6078      	str	r0, [r7, #4]
  if ((ticks - 1UL) > SysTick_LOAD_RELOAD_Msk)
 8001af0:	687b      	ldr	r3, [r7, #4]
 8001af2:	1e5a      	subs	r2, r3, #1
 8001af4:	2380      	movs	r3, #128	; 0x80
 8001af6:	045b      	lsls	r3, r3, #17
 8001af8:	429a      	cmp	r2, r3
 8001afa:	d301      	bcc.n	8001b00 <SysTick_Config+0x18>
  {
    return (1UL);                                                   /* Reload value impossible */
 8001afc:	2301      	movs	r3, #1
 8001afe:	e010      	b.n	8001b22 <SysTick_Config+0x3a>
  }

  SysTick->LOAD  = (uint32_t)(ticks - 1UL);                         /* set reload register */
 8001b00:	4b0a      	ldr	r3, [pc, #40]	; (8001b2c <SysTick_Config+0x44>)
 8001b02:	687a      	ldr	r2, [r7, #4]
 8001b04:	3a01      	subs	r2, #1
 8001b06:	605a      	str	r2, [r3, #4]
  NVIC_SetPriority (SysTick_IRQn, (1UL << __NVIC_PRIO_BITS) - 1UL); /* set Priority for Systick Interrupt */
 8001b08:	2301      	movs	r3, #1
 8001b0a:	425b      	negs	r3, r3
 8001b0c:	2103      	movs	r1, #3
 8001b0e:	0018      	movs	r0, r3
 8001b10:	f7ff ff7c 	bl	8001a0c <__NVIC_SetPriority>
  SysTick->VAL   = 0UL;                                             /* Load the SysTick Counter Value */
 8001b14:	4b05      	ldr	r3, [pc, #20]	; (8001b2c <SysTick_Config+0x44>)
 8001b16:	2200      	movs	r2, #0
 8001b18:	609a      	str	r2, [r3, #8]
  SysTick->CTRL  = SysTick_CTRL_CLKSOURCE_Msk |
 8001b1a:	4b04      	ldr	r3, [pc, #16]	; (8001b2c <SysTick_Config+0x44>)
 8001b1c:	2207      	movs	r2, #7
 8001b1e:	601a      	str	r2, [r3, #0]
                   SysTick_CTRL_TICKINT_Msk   |
                   SysTick_CTRL_ENABLE_Msk;                         /* Enable SysTick IRQ and SysTick Timer */
  return (0UL);                                                     /* Function successful */
 8001b20:	2300      	movs	r3, #0
}
 8001b22:	0018      	movs	r0, r3
 8001b24:	46bd      	mov	sp, r7
 8001b26:	b002      	add	sp, #8
 8001b28:	bd80      	pop	{r7, pc}
 8001b2a:	46c0      	nop			; (mov r8, r8)
 8001b2c:	e000e010 	.word	0xe000e010

08001b30 <HAL_NVIC_SetPriority>:
  *         with stm32g0xx devices, this parameter is a dummy value and it is ignored, because
  *         no subpriority supported in Cortex M0+ based products.
  * @retval None
  */
void HAL_NVIC_SetPriority(IRQn_Type IRQn, uint32_t PreemptPriority, uint32_t SubPriority)
{
 8001b30:	b580      	push	{r7, lr}
 8001b32:	b084      	sub	sp, #16
 8001b34:	af00      	add	r7, sp, #0
 8001b36:	60b9      	str	r1, [r7, #8]
 8001b38:	607a      	str	r2, [r7, #4]
 8001b3a:	210f      	movs	r1, #15
 8001b3c:	187b      	adds	r3, r7, r1
 8001b3e:	1c02      	adds	r2, r0, #0
 8001b40:	701a      	strb	r2, [r3, #0]
  /* Prevent unused argument(s) compilation warning */
  UNUSED(SubPriority);

  /* Check the parameters */
  assert_param(IS_NVIC_PREEMPTION_PRIORITY(PreemptPriority));
  NVIC_SetPriority(IRQn, PreemptPriority);
 8001b42:	68ba      	ldr	r2, [r7, #8]
 8001b44:	187b      	adds	r3, r7, r1
 8001b46:	781b      	ldrb	r3, [r3, #0]
 8001b48:	b25b      	sxtb	r3, r3
 8001b4a:	0011      	movs	r1, r2
 8001b4c:	0018      	movs	r0, r3
 8001b4e:	f7ff ff5d 	bl	8001a0c <__NVIC_SetPriority>
}
 8001b52:	46c0      	nop			; (mov r8, r8)
 8001b54:	46bd      	mov	sp, r7
 8001b56:	b004      	add	sp, #16
 8001b58:	bd80      	pop	{r7, pc}

08001b5a <HAL_SYSTICK_Config>:
  * @param  TicksNumb Specifies the ticks Number of ticks between two interrupts.
  * @retval status:  - 0  Function succeeded.
  *                  - 1  Function failed.
  */
uint32_t HAL_SYSTICK_Config(uint32_t TicksNumb)
{
 8001b5a:	b580      	push	{r7, lr}
 8001b5c:	b082      	sub	sp, #8
 8001b5e:	af00      	add	r7, sp, #0
 8001b60:	6078      	str	r0, [r7, #4]
  return SysTick_Config(TicksNumb);
 8001b62:	687b      	ldr	r3, [r7, #4]
 8001b64:	0018      	movs	r0, r3
 8001b66:	f7ff ffbf 	bl	8001ae8 <SysTick_Config>
 8001b6a:	0003      	movs	r3, r0
}
 8001b6c:	0018      	movs	r0, r3
 8001b6e:	46bd      	mov	sp, r7
 8001b70:	b002      	add	sp, #8
 8001b72:	bd80      	pop	{r7, pc}

08001b74 <HAL_GPIO_Init>:
  * @param  GPIO_Init pointer to a GPIO_InitTypeDef structure that contains
  *         the configuration information for the specified GPIO peripheral.
  * @retval None
  */
void HAL_GPIO_Init(GPIO_TypeDef  *GPIOx, GPIO_InitTypeDef *GPIO_Init)
{
 8001b74:	b580      	push	{r7, lr}
 8001b76:	b086      	sub	sp, #24
 8001b78:	af00      	add	r7, sp, #0
 8001b7a:	6078      	str	r0, [r7, #4]
 8001b7c:	6039      	str	r1, [r7, #0]
  uint32_t position = 0x00u;
 8001b7e:	2300      	movs	r3, #0
 8001b80:	617b      	str	r3, [r7, #20]
  assert_param(IS_GPIO_ALL_INSTANCE(GPIOx));
  assert_param(IS_GPIO_PIN(GPIO_Init->Pin));
  assert_param(IS_GPIO_MODE(GPIO_Init->Mode));

  /* Configure the port pins */
  while (((GPIO_Init->Pin) >> position) != 0x00u)
 8001b82:	e14d      	b.n	8001e20 <HAL_GPIO_Init+0x2ac>
  {
    /* Get current io position */
    iocurrent = (GPIO_Init->Pin) & (1uL << position);
 8001b84:	683b      	ldr	r3, [r7, #0]
 8001b86:	681b      	ldr	r3, [r3, #0]
 8001b88:	2101      	movs	r1, #1
 8001b8a:	697a      	ldr	r2, [r7, #20]
 8001b8c:	4091      	lsls	r1, r2
 8001b8e:	000a      	movs	r2, r1
 8001b90:	4013      	ands	r3, r2
 8001b92:	60fb      	str	r3, [r7, #12]

    if (iocurrent != 0x00u)
 8001b94:	68fb      	ldr	r3, [r7, #12]
 8001b96:	2b00      	cmp	r3, #0
 8001b98:	d100      	bne.n	8001b9c <HAL_GPIO_Init+0x28>
 8001b9a:	e13e      	b.n	8001e1a <HAL_GPIO_Init+0x2a6>
    {
      /*--------------------- GPIO Mode Configuration ------------------------*/
      /* In case of Output or Alternate function mode selection */
      if (((GPIO_Init->Mode & GPIO_MODE) == MODE_OUTPUT) || ((GPIO_Init->Mode & GPIO_MODE) == MODE_AF))
 8001b9c:	683b      	ldr	r3, [r7, #0]
 8001b9e:	685b      	ldr	r3, [r3, #4]
 8001ba0:	2203      	movs	r2, #3
 8001ba2:	4013      	ands	r3, r2
 8001ba4:	2b01      	cmp	r3, #1
 8001ba6:	d005      	beq.n	8001bb4 <HAL_GPIO_Init+0x40>
 8001ba8:	683b      	ldr	r3, [r7, #0]
 8001baa:	685b      	ldr	r3, [r3, #4]
 8001bac:	2203      	movs	r2, #3
 8001bae:	4013      	ands	r3, r2
 8001bb0:	2b02      	cmp	r3, #2
 8001bb2:	d130      	bne.n	8001c16 <HAL_GPIO_Init+0xa2>
      {
        /* Check the Speed parameter */
        assert_param(IS_GPIO_SPEED(GPIO_Init->Speed));

        /* Configure the IO Speed */
        temp = GPIOx->OSPEEDR;
 8001bb4:	687b      	ldr	r3, [r7, #4]
 8001bb6:	689b      	ldr	r3, [r3, #8]
 8001bb8:	613b      	str	r3, [r7, #16]
        temp &= ~(GPIO_OSPEEDR_OSPEED0 << (position * 2u));
 8001bba:	697b      	ldr	r3, [r7, #20]
 8001bbc:	005b      	lsls	r3, r3, #1
 8001bbe:	2203      	movs	r2, #3
 8001bc0:	409a      	lsls	r2, r3
 8001bc2:	0013      	movs	r3, r2
 8001bc4:	43da      	mvns	r2, r3
 8001bc6:	693b      	ldr	r3, [r7, #16]
 8001bc8:	4013      	ands	r3, r2
 8001bca:	613b      	str	r3, [r7, #16]
        temp |= (GPIO_Init->Speed << (position * 2u));
 8001bcc:	683b      	ldr	r3, [r7, #0]
 8001bce:	68da      	ldr	r2, [r3, #12]
 8001bd0:	697b      	ldr	r3, [r7, #20]
 8001bd2:	005b      	lsls	r3, r3, #1
 8001bd4:	409a      	lsls	r2, r3
 8001bd6:	0013      	movs	r3, r2
 8001bd8:	693a      	ldr	r2, [r7, #16]
 8001bda:	4313      	orrs	r3, r2
 8001bdc:	613b      	str	r3, [r7, #16]
        GPIOx->OSPEEDR = temp;
 8001bde:	687b      	ldr	r3, [r7, #4]
 8001be0:	693a      	ldr	r2, [r7, #16]
 8001be2:	609a      	str	r2, [r3, #8]

        /* Configure the IO Output Type */
        temp = GPIOx->OTYPER;
 8001be4:	687b      	ldr	r3, [r7, #4]
 8001be6:	685b      	ldr	r3, [r3, #4]
 8001be8:	613b      	str	r3, [r7, #16]
        temp &= ~(GPIO_OTYPER_OT0 << position) ;
 8001bea:	2201      	movs	r2, #1
 8001bec:	697b      	ldr	r3, [r7, #20]
 8001bee:	409a      	lsls	r2, r3
 8001bf0:	0013      	movs	r3, r2
 8001bf2:	43da      	mvns	r2, r3
 8001bf4:	693b      	ldr	r3, [r7, #16]
 8001bf6:	4013      	ands	r3, r2
 8001bf8:	613b      	str	r3, [r7, #16]
        temp |= (((GPIO_Init->Mode & OUTPUT_TYPE) >> OUTPUT_TYPE_Pos) << position);
 8001bfa:	683b      	ldr	r3, [r7, #0]
 8001bfc:	685b      	ldr	r3, [r3, #4]
 8001bfe:	091b      	lsrs	r3, r3, #4
 8001c00:	2201      	movs	r2, #1
 8001c02:	401a      	ands	r2, r3
 8001c04:	697b      	ldr	r3, [r7, #20]
 8001c06:	409a      	lsls	r2, r3
 8001c08:	0013      	movs	r3, r2
 8001c0a:	693a      	ldr	r2, [r7, #16]
 8001c0c:	4313      	orrs	r3, r2
 8001c0e:	613b      	str	r3, [r7, #16]
        GPIOx->OTYPER = temp;
 8001c10:	687b      	ldr	r3, [r7, #4]
 8001c12:	693a      	ldr	r2, [r7, #16]
 8001c14:	605a      	str	r2, [r3, #4]
      }

      if ((GPIO_Init->Mode & GPIO_MODE) != MODE_ANALOG)
 8001c16:	683b      	ldr	r3, [r7, #0]
 8001c18:	685b      	ldr	r3, [r3, #4]
 8001c1a:	2203      	movs	r2, #3
 8001c1c:	4013      	ands	r3, r2
 8001c1e:	2b03      	cmp	r3, #3
 8001c20:	d017      	beq.n	8001c52 <HAL_GPIO_Init+0xde>
      {
        /* Check the Pull parameter */
        assert_param(IS_GPIO_PULL(GPIO_Init->Pull));

        /* Activate the Pull-up or Pull down resistor for the current IO */
        temp = GPIOx->PUPDR;
 8001c22:	687b      	ldr	r3, [r7, #4]
 8001c24:	68db      	ldr	r3, [r3, #12]
 8001c26:	613b      	str	r3, [r7, #16]
        temp &= ~(GPIO_PUPDR_PUPD0 << (position * 2u));
 8001c28:	697b      	ldr	r3, [r7, #20]
 8001c2a:	005b      	lsls	r3, r3, #1
 8001c2c:	2203      	movs	r2, #3
 8001c2e:	409a      	lsls	r2, r3
 8001c30:	0013      	movs	r3, r2
 8001c32:	43da      	mvns	r2, r3
 8001c34:	693b      	ldr	r3, [r7, #16]
 8001c36:	4013      	ands	r3, r2
 8001c38:	613b      	str	r3, [r7, #16]
        temp |= ((GPIO_Init->Pull) << (position * 2u));
 8001c3a:	683b      	ldr	r3, [r7, #0]
 8001c3c:	689a      	ldr	r2, [r3, #8]
 8001c3e:	697b      	ldr	r3, [r7, #20]
 8001c40:	005b      	lsls	r3, r3, #1
 8001c42:	409a      	lsls	r2, r3
 8001c44:	0013      	movs	r3, r2
 8001c46:	693a      	ldr	r2, [r7, #16]
 8001c48:	4313      	orrs	r3, r2
 8001c4a:	613b      	str	r3, [r7, #16]
        GPIOx->PUPDR = temp;
 8001c4c:	687b      	ldr	r3, [r7, #4]
 8001c4e:	693a      	ldr	r2, [r7, #16]
 8001c50:	60da      	str	r2, [r3, #12]
      }

      /* In case of Alternate function mode selection */
      if ((GPIO_Init->Mode & GPIO_MODE) == MODE_AF)
 8001c52:	683b      	ldr	r3, [r7, #0]
 8001c54:	685b      	ldr	r3, [r3, #4]
 8001c56:	2203      	movs	r2, #3
 8001c58:	4013      	ands	r3, r2
 8001c5a:	2b02      	cmp	r3, #2
 8001c5c:	d123      	bne.n	8001ca6 <HAL_GPIO_Init+0x132>
        /* Check the Alternate function parameters */
        assert_param(IS_GPIO_AF_INSTANCE(GPIOx));
        assert_param(IS_GPIO_AF(GPIO_Init->Alternate));

        /* Configure Alternate function mapped with the current IO */
        temp = GPIOx->AFR[position >> 3u];
 8001c5e:	697b      	ldr	r3, [r7, #20]
 8001c60:	08da      	lsrs	r2, r3, #3
 8001c62:	687b      	ldr	r3, [r7, #4]
 8001c64:	3208      	adds	r2, #8
 8001c66:	0092      	lsls	r2, r2, #2
 8001c68:	58d3      	ldr	r3, [r2, r3]
 8001c6a:	613b      	str	r3, [r7, #16]
        temp &= ~(0xFu << ((position & 0x07u) * 4u));
 8001c6c:	697b      	ldr	r3, [r7, #20]
 8001c6e:	2207      	movs	r2, #7
 8001c70:	4013      	ands	r3, r2
 8001c72:	009b      	lsls	r3, r3, #2
 8001c74:	220f      	movs	r2, #15
 8001c76:	409a      	lsls	r2, r3
 8001c78:	0013      	movs	r3, r2
 8001c7a:	43da      	mvns	r2, r3
 8001c7c:	693b      	ldr	r3, [r7, #16]
 8001c7e:	4013      	ands	r3, r2
 8001c80:	613b      	str	r3, [r7, #16]
        temp |= ((GPIO_Init->Alternate) << ((position & 0x07u) * 4u));
 8001c82:	683b      	ldr	r3, [r7, #0]
 8001c84:	691a      	ldr	r2, [r3, #16]
 8001c86:	697b      	ldr	r3, [r7, #20]
 8001c88:	2107      	movs	r1, #7
 8001c8a:	400b      	ands	r3, r1
 8001c8c:	009b      	lsls	r3, r3, #2
 8001c8e:	409a      	lsls	r2, r3
 8001c90:	0013      	movs	r3, r2
 8001c92:	693a      	ldr	r2, [r7, #16]
 8001c94:	4313      	orrs	r3, r2
 8001c96:	613b      	str	r3, [r7, #16]
        GPIOx->AFR[position >> 3u] = temp;
 8001c98:	697b      	ldr	r3, [r7, #20]
 8001c9a:	08da      	lsrs	r2, r3, #3
 8001c9c:	687b      	ldr	r3, [r7, #4]
 8001c9e:	3208      	adds	r2, #8
 8001ca0:	0092      	lsls	r2, r2, #2
 8001ca2:	6939      	ldr	r1, [r7, #16]
 8001ca4:	50d1      	str	r1, [r2, r3]
      }

      /* Configure IO Direction mode (Input, Output, Alternate or Analog) */
      temp = GPIOx->MODER;
 8001ca6:	687b      	ldr	r3, [r7, #4]
 8001ca8:	681b      	ldr	r3, [r3, #0]
 8001caa:	613b      	str	r3, [r7, #16]
      temp &= ~(GPIO_MODER_MODE0 << (position * 2u));
 8001cac:	697b      	ldr	r3, [r7, #20]
 8001cae:	005b      	lsls	r3, r3, #1
 8001cb0:	2203      	movs	r2, #3
 8001cb2:	409a      	lsls	r2, r3
 8001cb4:	0013      	movs	r3, r2
 8001cb6:	43da      	mvns	r2, r3
 8001cb8:	693b      	ldr	r3, [r7, #16]
 8001cba:	4013      	ands	r3, r2
 8001cbc:	613b      	str	r3, [r7, #16]
      temp |= ((GPIO_Init->Mode & GPIO_MODE) << (position * 2u));
 8001cbe:	683b      	ldr	r3, [r7, #0]
 8001cc0:	685b      	ldr	r3, [r3, #4]
 8001cc2:	2203      	movs	r2, #3
 8001cc4:	401a      	ands	r2, r3
 8001cc6:	697b      	ldr	r3, [r7, #20]
 8001cc8:	005b      	lsls	r3, r3, #1
 8001cca:	409a      	lsls	r2, r3
 8001ccc:	0013      	movs	r3, r2
 8001cce:	693a      	ldr	r2, [r7, #16]
 8001cd0:	4313      	orrs	r3, r2
 8001cd2:	613b      	str	r3, [r7, #16]
      GPIOx->MODER = temp;
 8001cd4:	687b      	ldr	r3, [r7, #4]
 8001cd6:	693a      	ldr	r2, [r7, #16]
 8001cd8:	601a      	str	r2, [r3, #0]

      /*--------------------- EXTI Mode Configuration ------------------------*/
      /* Configure the External Interrupt or event for the current IO */
      if ((GPIO_Init->Mode & EXTI_MODE) != 0x00u)
 8001cda:	683b      	ldr	r3, [r7, #0]
 8001cdc:	685a      	ldr	r2, [r3, #4]
 8001cde:	23c0      	movs	r3, #192	; 0xc0
 8001ce0:	029b      	lsls	r3, r3, #10
 8001ce2:	4013      	ands	r3, r2
 8001ce4:	d100      	bne.n	8001ce8 <HAL_GPIO_Init+0x174>
 8001ce6:	e098      	b.n	8001e1a <HAL_GPIO_Init+0x2a6>
      {
        temp = EXTI->EXTICR[position >> 2u];
 8001ce8:	4a53      	ldr	r2, [pc, #332]	; (8001e38 <HAL_GPIO_Init+0x2c4>)
 8001cea:	697b      	ldr	r3, [r7, #20]
 8001cec:	089b      	lsrs	r3, r3, #2
 8001cee:	3318      	adds	r3, #24
 8001cf0:	009b      	lsls	r3, r3, #2
 8001cf2:	589b      	ldr	r3, [r3, r2]
 8001cf4:	613b      	str	r3, [r7, #16]
        temp &= ~(0x0FuL << (8u * (position & 0x03u)));
 8001cf6:	697b      	ldr	r3, [r7, #20]
 8001cf8:	2203      	movs	r2, #3
 8001cfa:	4013      	ands	r3, r2
 8001cfc:	00db      	lsls	r3, r3, #3
 8001cfe:	220f      	movs	r2, #15
 8001d00:	409a      	lsls	r2, r3
 8001d02:	0013      	movs	r3, r2
 8001d04:	43da      	mvns	r2, r3
 8001d06:	693b      	ldr	r3, [r7, #16]
 8001d08:	4013      	ands	r3, r2
 8001d0a:	613b      	str	r3, [r7, #16]
        temp |= (GPIO_GET_INDEX(GPIOx) << (8u * (position & 0x03u)));
 8001d0c:	687a      	ldr	r2, [r7, #4]
 8001d0e:	23a0      	movs	r3, #160	; 0xa0
 8001d10:	05db      	lsls	r3, r3, #23
 8001d12:	429a      	cmp	r2, r3
 8001d14:	d019      	beq.n	8001d4a <HAL_GPIO_Init+0x1d6>
 8001d16:	687b      	ldr	r3, [r7, #4]
 8001d18:	4a48      	ldr	r2, [pc, #288]	; (8001e3c <HAL_GPIO_Init+0x2c8>)
 8001d1a:	4293      	cmp	r3, r2
 8001d1c:	d013      	beq.n	8001d46 <HAL_GPIO_Init+0x1d2>
 8001d1e:	687b      	ldr	r3, [r7, #4]
 8001d20:	4a47      	ldr	r2, [pc, #284]	; (8001e40 <HAL_GPIO_Init+0x2cc>)
 8001d22:	4293      	cmp	r3, r2
 8001d24:	d00d      	beq.n	8001d42 <HAL_GPIO_Init+0x1ce>
 8001d26:	687b      	ldr	r3, [r7, #4]
 8001d28:	4a46      	ldr	r2, [pc, #280]	; (8001e44 <HAL_GPIO_Init+0x2d0>)
 8001d2a:	4293      	cmp	r3, r2
 8001d2c:	d007      	beq.n	8001d3e <HAL_GPIO_Init+0x1ca>
 8001d2e:	687b      	ldr	r3, [r7, #4]
 8001d30:	4a45      	ldr	r2, [pc, #276]	; (8001e48 <HAL_GPIO_Init+0x2d4>)
 8001d32:	4293      	cmp	r3, r2
 8001d34:	d101      	bne.n	8001d3a <HAL_GPIO_Init+0x1c6>
 8001d36:	2304      	movs	r3, #4
 8001d38:	e008      	b.n	8001d4c <HAL_GPIO_Init+0x1d8>
 8001d3a:	2305      	movs	r3, #5
 8001d3c:	e006      	b.n	8001d4c <HAL_GPIO_Init+0x1d8>
 8001d3e:	2303      	movs	r3, #3
 8001d40:	e004      	b.n	8001d4c <HAL_GPIO_Init+0x1d8>
 8001d42:	2302      	movs	r3, #2
 8001d44:	e002      	b.n	8001d4c <HAL_GPIO_Init+0x1d8>
 8001d46:	2301      	movs	r3, #1
 8001d48:	e000      	b.n	8001d4c <HAL_GPIO_Init+0x1d8>
 8001d4a:	2300      	movs	r3, #0
 8001d4c:	697a      	ldr	r2, [r7, #20]
 8001d4e:	2103      	movs	r1, #3
 8001d50:	400a      	ands	r2, r1
 8001d52:	00d2      	lsls	r2, r2, #3
 8001d54:	4093      	lsls	r3, r2
 8001d56:	693a      	ldr	r2, [r7, #16]
 8001d58:	4313      	orrs	r3, r2
 8001d5a:	613b      	str	r3, [r7, #16]
        EXTI->EXTICR[position >> 2u] = temp;
 8001d5c:	4936      	ldr	r1, [pc, #216]	; (8001e38 <HAL_GPIO_Init+0x2c4>)
 8001d5e:	697b      	ldr	r3, [r7, #20]
 8001d60:	089b      	lsrs	r3, r3, #2
 8001d62:	3318      	adds	r3, #24
 8001d64:	009b      	lsls	r3, r3, #2
 8001d66:	693a      	ldr	r2, [r7, #16]
 8001d68:	505a      	str	r2, [r3, r1]

        /* Clear Rising Falling edge configuration */
        temp = EXTI->RTSR1;
 8001d6a:	4b33      	ldr	r3, [pc, #204]	; (8001e38 <HAL_GPIO_Init+0x2c4>)
 8001d6c:	681b      	ldr	r3, [r3, #0]
 8001d6e:	613b      	str	r3, [r7, #16]
        temp &= ~(iocurrent);
 8001d70:	68fb      	ldr	r3, [r7, #12]
 8001d72:	43da      	mvns	r2, r3
 8001d74:	693b      	ldr	r3, [r7, #16]
 8001d76:	4013      	ands	r3, r2
 8001d78:	613b      	str	r3, [r7, #16]
        if ((GPIO_Init->Mode & TRIGGER_RISING) != 0x00u)
 8001d7a:	683b      	ldr	r3, [r7, #0]
 8001d7c:	685a      	ldr	r2, [r3, #4]
 8001d7e:	2380      	movs	r3, #128	; 0x80
 8001d80:	035b      	lsls	r3, r3, #13
 8001d82:	4013      	ands	r3, r2
 8001d84:	d003      	beq.n	8001d8e <HAL_GPIO_Init+0x21a>
        {
          temp |= iocurrent;
 8001d86:	693a      	ldr	r2, [r7, #16]
 8001d88:	68fb      	ldr	r3, [r7, #12]
 8001d8a:	4313      	orrs	r3, r2
 8001d8c:	613b      	str	r3, [r7, #16]
        }
        EXTI->RTSR1 = temp;
 8001d8e:	4b2a      	ldr	r3, [pc, #168]	; (8001e38 <HAL_GPIO_Init+0x2c4>)
 8001d90:	693a      	ldr	r2, [r7, #16]
 8001d92:	601a      	str	r2, [r3, #0]

        temp = EXTI->FTSR1;
 8001d94:	4b28      	ldr	r3, [pc, #160]	; (8001e38 <HAL_GPIO_Init+0x2c4>)
 8001d96:	685b      	ldr	r3, [r3, #4]
 8001d98:	613b      	str	r3, [r7, #16]
        temp &= ~(iocurrent);
 8001d9a:	68fb      	ldr	r3, [r7, #12]
 8001d9c:	43da      	mvns	r2, r3
 8001d9e:	693b      	ldr	r3, [r7, #16]
 8001da0:	4013      	ands	r3, r2
 8001da2:	613b      	str	r3, [r7, #16]
        if ((GPIO_Init->Mode & TRIGGER_FALLING) != 0x00u)
 8001da4:	683b      	ldr	r3, [r7, #0]
 8001da6:	685a      	ldr	r2, [r3, #4]
 8001da8:	2380      	movs	r3, #128	; 0x80
 8001daa:	039b      	lsls	r3, r3, #14
 8001dac:	4013      	ands	r3, r2
 8001dae:	d003      	beq.n	8001db8 <HAL_GPIO_Init+0x244>
        {
          temp |= iocurrent;
 8001db0:	693a      	ldr	r2, [r7, #16]
 8001db2:	68fb      	ldr	r3, [r7, #12]
 8001db4:	4313      	orrs	r3, r2
 8001db6:	613b      	str	r3, [r7, #16]
        }
        EXTI->FTSR1 = temp;
 8001db8:	4b1f      	ldr	r3, [pc, #124]	; (8001e38 <HAL_GPIO_Init+0x2c4>)
 8001dba:	693a      	ldr	r2, [r7, #16]
 8001dbc:	605a      	str	r2, [r3, #4]

        /* Clear EXTI line configuration */
        temp = EXTI->EMR1;
 8001dbe:	4a1e      	ldr	r2, [pc, #120]	; (8001e38 <HAL_GPIO_Init+0x2c4>)
 8001dc0:	2384      	movs	r3, #132	; 0x84
 8001dc2:	58d3      	ldr	r3, [r2, r3]
 8001dc4:	613b      	str	r3, [r7, #16]
        temp &= ~(iocurrent);
 8001dc6:	68fb      	ldr	r3, [r7, #12]
 8001dc8:	43da      	mvns	r2, r3
 8001dca:	693b      	ldr	r3, [r7, #16]
 8001dcc:	4013      	ands	r3, r2
 8001dce:	613b      	str	r3, [r7, #16]
        if ((GPIO_Init->Mode & EXTI_EVT) != 0x00u)
 8001dd0:	683b      	ldr	r3, [r7, #0]
 8001dd2:	685a      	ldr	r2, [r3, #4]
 8001dd4:	2380      	movs	r3, #128	; 0x80
 8001dd6:	029b      	lsls	r3, r3, #10
 8001dd8:	4013      	ands	r3, r2
 8001dda:	d003      	beq.n	8001de4 <HAL_GPIO_Init+0x270>
        {
          temp |= iocurrent;
 8001ddc:	693a      	ldr	r2, [r7, #16]
 8001dde:	68fb      	ldr	r3, [r7, #12]
 8001de0:	4313      	orrs	r3, r2
 8001de2:	613b      	str	r3, [r7, #16]
        }
        EXTI->EMR1 = temp;
 8001de4:	4914      	ldr	r1, [pc, #80]	; (8001e38 <HAL_GPIO_Init+0x2c4>)
 8001de6:	2284      	movs	r2, #132	; 0x84
 8001de8:	693b      	ldr	r3, [r7, #16]
 8001dea:	508b      	str	r3, [r1, r2]

        temp = EXTI->IMR1;
 8001dec:	4a12      	ldr	r2, [pc, #72]	; (8001e38 <HAL_GPIO_Init+0x2c4>)
 8001dee:	2380      	movs	r3, #128	; 0x80
 8001df0:	58d3      	ldr	r3, [r2, r3]
 8001df2:	613b      	str	r3, [r7, #16]
        temp &= ~(iocurrent);
 8001df4:	68fb      	ldr	r3, [r7, #12]
 8001df6:	43da      	mvns	r2, r3
 8001df8:	693b      	ldr	r3, [r7, #16]
 8001dfa:	4013      	ands	r3, r2
 8001dfc:	613b      	str	r3, [r7, #16]
        if ((GPIO_Init->Mode & EXTI_IT) != 0x00u)
 8001dfe:	683b      	ldr	r3, [r7, #0]
 8001e00:	685a      	ldr	r2, [r3, #4]
 8001e02:	2380      	movs	r3, #128	; 0x80
 8001e04:	025b      	lsls	r3, r3, #9
 8001e06:	4013      	ands	r3, r2
 8001e08:	d003      	beq.n	8001e12 <HAL_GPIO_Init+0x29e>
        {
          temp |= iocurrent;
 8001e0a:	693a      	ldr	r2, [r7, #16]
 8001e0c:	68fb      	ldr	r3, [r7, #12]
 8001e0e:	4313      	orrs	r3, r2
 8001e10:	613b      	str	r3, [r7, #16]
        }
        EXTI->IMR1 = temp;
 8001e12:	4909      	ldr	r1, [pc, #36]	; (8001e38 <HAL_GPIO_Init+0x2c4>)
 8001e14:	2280      	movs	r2, #128	; 0x80
 8001e16:	693b      	ldr	r3, [r7, #16]
 8001e18:	508b      	str	r3, [r1, r2]
      }
    }

    position++;
 8001e1a:	697b      	ldr	r3, [r7, #20]
 8001e1c:	3301      	adds	r3, #1
 8001e1e:	617b      	str	r3, [r7, #20]
  while (((GPIO_Init->Pin) >> position) != 0x00u)
 8001e20:	683b      	ldr	r3, [r7, #0]
 8001e22:	681a      	ldr	r2, [r3, #0]
 8001e24:	697b      	ldr	r3, [r7, #20]
 8001e26:	40da      	lsrs	r2, r3
 8001e28:	1e13      	subs	r3, r2, #0
 8001e2a:	d000      	beq.n	8001e2e <HAL_GPIO_Init+0x2ba>
 8001e2c:	e6aa      	b.n	8001b84 <HAL_GPIO_Init+0x10>
  }
}
 8001e2e:	46c0      	nop			; (mov r8, r8)
 8001e30:	46c0      	nop			; (mov r8, r8)
 8001e32:	46bd      	mov	sp, r7
 8001e34:	b006      	add	sp, #24
 8001e36:	bd80      	pop	{r7, pc}
 8001e38:	40021800 	.word	0x40021800
 8001e3c:	50000400 	.word	0x50000400
 8001e40:	50000800 	.word	0x50000800
 8001e44:	50000c00 	.word	0x50000c00
 8001e48:	50001000 	.word	0x50001000

08001e4c <HAL_GPIO_DeInit>:
  * @param  GPIO_Pin specifies the port bit to be written.
  *         This parameter can be any combination of GPIO_Pin_x where x can be (0..15).
  * @retval None
  */
void HAL_GPIO_DeInit(GPIO_TypeDef  *GPIOx, uint32_t GPIO_Pin)
{
 8001e4c:	b580      	push	{r7, lr}
 8001e4e:	b086      	sub	sp, #24
 8001e50:	af00      	add	r7, sp, #0
 8001e52:	6078      	str	r0, [r7, #4]
 8001e54:	6039      	str	r1, [r7, #0]
  uint32_t position = 0x00u;
 8001e56:	2300      	movs	r3, #0
 8001e58:	617b      	str	r3, [r7, #20]
  /* Check the parameters */
  assert_param(IS_GPIO_ALL_INSTANCE(GPIOx));
  assert_param(IS_GPIO_PIN(GPIO_Pin));

  /* Configure the port pins */
  while ((GPIO_Pin >> position) != 0x00u)
 8001e5a:	e0ba      	b.n	8001fd2 <HAL_GPIO_DeInit+0x186>
  {
    /* Get current io position */
    iocurrent = (GPIO_Pin) & (1uL << position);
 8001e5c:	2201      	movs	r2, #1
 8001e5e:	697b      	ldr	r3, [r7, #20]
 8001e60:	409a      	lsls	r2, r3
 8001e62:	683b      	ldr	r3, [r7, #0]
 8001e64:	4013      	ands	r3, r2
 8001e66:	613b      	str	r3, [r7, #16]

    if (iocurrent != 0x00u)
 8001e68:	693b      	ldr	r3, [r7, #16]
 8001e6a:	2b00      	cmp	r3, #0
 8001e6c:	d100      	bne.n	8001e70 <HAL_GPIO_DeInit+0x24>
 8001e6e:	e0ad      	b.n	8001fcc <HAL_GPIO_DeInit+0x180>
    {
      /*------------------------- EXTI Mode Configuration --------------------*/
      /* Clear the External Interrupt or Event for the current IO */

      tmp = EXTI->EXTICR[position >> 2u];
 8001e70:	4a5d      	ldr	r2, [pc, #372]	; (8001fe8 <HAL_GPIO_DeInit+0x19c>)
 8001e72:	697b      	ldr	r3, [r7, #20]
 8001e74:	089b      	lsrs	r3, r3, #2
 8001e76:	3318      	adds	r3, #24
 8001e78:	009b      	lsls	r3, r3, #2
 8001e7a:	589b      	ldr	r3, [r3, r2]
 8001e7c:	60fb      	str	r3, [r7, #12]
      tmp &= (0x0FuL << (8u * (position & 0x03u)));
 8001e7e:	697b      	ldr	r3, [r7, #20]
 8001e80:	2203      	movs	r2, #3
 8001e82:	4013      	ands	r3, r2
 8001e84:	00db      	lsls	r3, r3, #3
 8001e86:	220f      	movs	r2, #15
 8001e88:	409a      	lsls	r2, r3
 8001e8a:	68fb      	ldr	r3, [r7, #12]
 8001e8c:	4013      	ands	r3, r2
 8001e8e:	60fb      	str	r3, [r7, #12]
      if (tmp == (GPIO_GET_INDEX(GPIOx) << (8u * (position & 0x03u))))
 8001e90:	687a      	ldr	r2, [r7, #4]
 8001e92:	23a0      	movs	r3, #160	; 0xa0
 8001e94:	05db      	lsls	r3, r3, #23
 8001e96:	429a      	cmp	r2, r3
 8001e98:	d019      	beq.n	8001ece <HAL_GPIO_DeInit+0x82>
 8001e9a:	687b      	ldr	r3, [r7, #4]
 8001e9c:	4a53      	ldr	r2, [pc, #332]	; (8001fec <HAL_GPIO_DeInit+0x1a0>)
 8001e9e:	4293      	cmp	r3, r2
 8001ea0:	d013      	beq.n	8001eca <HAL_GPIO_DeInit+0x7e>
 8001ea2:	687b      	ldr	r3, [r7, #4]
 8001ea4:	4a52      	ldr	r2, [pc, #328]	; (8001ff0 <HAL_GPIO_DeInit+0x1a4>)
 8001ea6:	4293      	cmp	r3, r2
 8001ea8:	d00d      	beq.n	8001ec6 <HAL_GPIO_DeInit+0x7a>
 8001eaa:	687b      	ldr	r3, [r7, #4]
 8001eac:	4a51      	ldr	r2, [pc, #324]	; (8001ff4 <HAL_GPIO_DeInit+0x1a8>)
 8001eae:	4293      	cmp	r3, r2
 8001eb0:	d007      	beq.n	8001ec2 <HAL_GPIO_DeInit+0x76>
 8001eb2:	687b      	ldr	r3, [r7, #4]
 8001eb4:	4a50      	ldr	r2, [pc, #320]	; (8001ff8 <HAL_GPIO_DeInit+0x1ac>)
 8001eb6:	4293      	cmp	r3, r2
 8001eb8:	d101      	bne.n	8001ebe <HAL_GPIO_DeInit+0x72>
 8001eba:	2304      	movs	r3, #4
 8001ebc:	e008      	b.n	8001ed0 <HAL_GPIO_DeInit+0x84>
 8001ebe:	2305      	movs	r3, #5
 8001ec0:	e006      	b.n	8001ed0 <HAL_GPIO_DeInit+0x84>
 8001ec2:	2303      	movs	r3, #3
 8001ec4:	e004      	b.n	8001ed0 <HAL_GPIO_DeInit+0x84>
 8001ec6:	2302      	movs	r3, #2
 8001ec8:	e002      	b.n	8001ed0 <HAL_GPIO_DeInit+0x84>
 8001eca:	2301      	movs	r3, #1
 8001ecc:	e000      	b.n	8001ed0 <HAL_GPIO_DeInit+0x84>
 8001ece:	2300      	movs	r3, #0
 8001ed0:	697a      	ldr	r2, [r7, #20]
 8001ed2:	2103      	movs	r1, #3
 8001ed4:	400a      	ands	r2, r1
 8001ed6:	00d2      	lsls	r2, r2, #3
 8001ed8:	4093      	lsls	r3, r2
 8001eda:	68fa      	ldr	r2, [r7, #12]
 8001edc:	429a      	cmp	r2, r3
 8001ede:	d136      	bne.n	8001f4e <HAL_GPIO_DeInit+0x102>
      {
        /* Clear EXTI line configuration */
        EXTI->IMR1 &= ~(iocurrent);
 8001ee0:	4a41      	ldr	r2, [pc, #260]	; (8001fe8 <HAL_GPIO_DeInit+0x19c>)
 8001ee2:	2380      	movs	r3, #128	; 0x80
 8001ee4:	58d3      	ldr	r3, [r2, r3]
 8001ee6:	693a      	ldr	r2, [r7, #16]
 8001ee8:	43d2      	mvns	r2, r2
 8001eea:	493f      	ldr	r1, [pc, #252]	; (8001fe8 <HAL_GPIO_DeInit+0x19c>)
 8001eec:	4013      	ands	r3, r2
 8001eee:	2280      	movs	r2, #128	; 0x80
 8001ef0:	508b      	str	r3, [r1, r2]
        EXTI->EMR1 &= ~(iocurrent);
 8001ef2:	4a3d      	ldr	r2, [pc, #244]	; (8001fe8 <HAL_GPIO_DeInit+0x19c>)
 8001ef4:	2384      	movs	r3, #132	; 0x84
 8001ef6:	58d3      	ldr	r3, [r2, r3]
 8001ef8:	693a      	ldr	r2, [r7, #16]
 8001efa:	43d2      	mvns	r2, r2
 8001efc:	493a      	ldr	r1, [pc, #232]	; (8001fe8 <HAL_GPIO_DeInit+0x19c>)
 8001efe:	4013      	ands	r3, r2
 8001f00:	2284      	movs	r2, #132	; 0x84
 8001f02:	508b      	str	r3, [r1, r2]

        /* Clear Rising Falling edge configuration */
        EXTI->FTSR1 &= ~(iocurrent);
 8001f04:	4b38      	ldr	r3, [pc, #224]	; (8001fe8 <HAL_GPIO_DeInit+0x19c>)
 8001f06:	685a      	ldr	r2, [r3, #4]
 8001f08:	693b      	ldr	r3, [r7, #16]
 8001f0a:	43d9      	mvns	r1, r3
 8001f0c:	4b36      	ldr	r3, [pc, #216]	; (8001fe8 <HAL_GPIO_DeInit+0x19c>)
 8001f0e:	400a      	ands	r2, r1
 8001f10:	605a      	str	r2, [r3, #4]
        EXTI->RTSR1 &= ~(iocurrent);
 8001f12:	4b35      	ldr	r3, [pc, #212]	; (8001fe8 <HAL_GPIO_DeInit+0x19c>)
 8001f14:	681a      	ldr	r2, [r3, #0]
 8001f16:	693b      	ldr	r3, [r7, #16]
 8001f18:	43d9      	mvns	r1, r3
 8001f1a:	4b33      	ldr	r3, [pc, #204]	; (8001fe8 <HAL_GPIO_DeInit+0x19c>)
 8001f1c:	400a      	ands	r2, r1
 8001f1e:	601a      	str	r2, [r3, #0]

        tmp = 0x0FuL << (8u * (position & 0x03u));
 8001f20:	697b      	ldr	r3, [r7, #20]
 8001f22:	2203      	movs	r2, #3
 8001f24:	4013      	ands	r3, r2
 8001f26:	00db      	lsls	r3, r3, #3
 8001f28:	220f      	movs	r2, #15
 8001f2a:	409a      	lsls	r2, r3
 8001f2c:	0013      	movs	r3, r2
 8001f2e:	60fb      	str	r3, [r7, #12]
        EXTI->EXTICR[position >> 2u] &= ~tmp;
 8001f30:	4a2d      	ldr	r2, [pc, #180]	; (8001fe8 <HAL_GPIO_DeInit+0x19c>)
 8001f32:	697b      	ldr	r3, [r7, #20]
 8001f34:	089b      	lsrs	r3, r3, #2
 8001f36:	3318      	adds	r3, #24
 8001f38:	009b      	lsls	r3, r3, #2
 8001f3a:	589a      	ldr	r2, [r3, r2]
 8001f3c:	68fb      	ldr	r3, [r7, #12]
 8001f3e:	43d9      	mvns	r1, r3
 8001f40:	4829      	ldr	r0, [pc, #164]	; (8001fe8 <HAL_GPIO_DeInit+0x19c>)
 8001f42:	697b      	ldr	r3, [r7, #20]
 8001f44:	089b      	lsrs	r3, r3, #2
 8001f46:	400a      	ands	r2, r1
 8001f48:	3318      	adds	r3, #24
 8001f4a:	009b      	lsls	r3, r3, #2
 8001f4c:	501a      	str	r2, [r3, r0]
      }

      /*------------------------- GPIO Mode Configuration --------------------*/
      /* Configure IO in Analog Mode */
      GPIOx->MODER |= (GPIO_MODER_MODE0 << (position * 2u));
 8001f4e:	687b      	ldr	r3, [r7, #4]
 8001f50:	681a      	ldr	r2, [r3, #0]
 8001f52:	697b      	ldr	r3, [r7, #20]
 8001f54:	005b      	lsls	r3, r3, #1
 8001f56:	2103      	movs	r1, #3
 8001f58:	4099      	lsls	r1, r3
 8001f5a:	000b      	movs	r3, r1
 8001f5c:	431a      	orrs	r2, r3
 8001f5e:	687b      	ldr	r3, [r7, #4]
 8001f60:	601a      	str	r2, [r3, #0]

      /* Configure the default Alternate Function in current IO */
      GPIOx->AFR[position >> 3u] &= ~(0xFu << ((position & 0x07u) * 4u)) ;
 8001f62:	697b      	ldr	r3, [r7, #20]
 8001f64:	08da      	lsrs	r2, r3, #3
 8001f66:	687b      	ldr	r3, [r7, #4]
 8001f68:	3208      	adds	r2, #8
 8001f6a:	0092      	lsls	r2, r2, #2
 8001f6c:	58d3      	ldr	r3, [r2, r3]
 8001f6e:	697a      	ldr	r2, [r7, #20]
 8001f70:	2107      	movs	r1, #7
 8001f72:	400a      	ands	r2, r1
 8001f74:	0092      	lsls	r2, r2, #2
 8001f76:	210f      	movs	r1, #15
 8001f78:	4091      	lsls	r1, r2
 8001f7a:	000a      	movs	r2, r1
 8001f7c:	43d1      	mvns	r1, r2
 8001f7e:	697a      	ldr	r2, [r7, #20]
 8001f80:	08d2      	lsrs	r2, r2, #3
 8001f82:	4019      	ands	r1, r3
 8001f84:	687b      	ldr	r3, [r7, #4]
 8001f86:	3208      	adds	r2, #8
 8001f88:	0092      	lsls	r2, r2, #2
 8001f8a:	50d1      	str	r1, [r2, r3]

      /* Configure the default value for IO Speed */
      GPIOx->OSPEEDR &= ~(GPIO_OSPEEDR_OSPEED0 << (position * 2u));
 8001f8c:	687b      	ldr	r3, [r7, #4]
 8001f8e:	689b      	ldr	r3, [r3, #8]
 8001f90:	697a      	ldr	r2, [r7, #20]
 8001f92:	0052      	lsls	r2, r2, #1
 8001f94:	2103      	movs	r1, #3
 8001f96:	4091      	lsls	r1, r2
 8001f98:	000a      	movs	r2, r1
 8001f9a:	43d2      	mvns	r2, r2
 8001f9c:	401a      	ands	r2, r3
 8001f9e:	687b      	ldr	r3, [r7, #4]
 8001fa0:	609a      	str	r2, [r3, #8]

      /* Configure the default value IO Output Type */
      GPIOx->OTYPER  &= ~(GPIO_OTYPER_OT0 << position) ;
 8001fa2:	687b      	ldr	r3, [r7, #4]
 8001fa4:	685b      	ldr	r3, [r3, #4]
 8001fa6:	2101      	movs	r1, #1
 8001fa8:	697a      	ldr	r2, [r7, #20]
 8001faa:	4091      	lsls	r1, r2
 8001fac:	000a      	movs	r2, r1
 8001fae:	43d2      	mvns	r2, r2
 8001fb0:	401a      	ands	r2, r3
 8001fb2:	687b      	ldr	r3, [r7, #4]
 8001fb4:	605a      	str	r2, [r3, #4]

      /* Deactivate the Pull-up and Pull-down resistor for the current IO */
      GPIOx->PUPDR &= ~(GPIO_PUPDR_PUPD0 << (position * 2u));
 8001fb6:	687b      	ldr	r3, [r7, #4]
 8001fb8:	68db      	ldr	r3, [r3, #12]
 8001fba:	697a      	ldr	r2, [r7, #20]
 8001fbc:	0052      	lsls	r2, r2, #1
 8001fbe:	2103      	movs	r1, #3
 8001fc0:	4091      	lsls	r1, r2
 8001fc2:	000a      	movs	r2, r1
 8001fc4:	43d2      	mvns	r2, r2
 8001fc6:	401a      	ands	r2, r3
 8001fc8:	687b      	ldr	r3, [r7, #4]
 8001fca:	60da      	str	r2, [r3, #12]
    }

    position++;
 8001fcc:	697b      	ldr	r3, [r7, #20]
 8001fce:	3301      	adds	r3, #1
 8001fd0:	617b      	str	r3, [r7, #20]
  while ((GPIO_Pin >> position) != 0x00u)
 8001fd2:	683a      	ldr	r2, [r7, #0]
 8001fd4:	697b      	ldr	r3, [r7, #20]
 8001fd6:	40da      	lsrs	r2, r3
 8001fd8:	1e13      	subs	r3, r2, #0
 8001fda:	d000      	beq.n	8001fde <HAL_GPIO_DeInit+0x192>
 8001fdc:	e73e      	b.n	8001e5c <HAL_GPIO_DeInit+0x10>
  }
}
 8001fde:	46c0      	nop			; (mov r8, r8)
 8001fe0:	46c0      	nop			; (mov r8, r8)
 8001fe2:	46bd      	mov	sp, r7
 8001fe4:	b006      	add	sp, #24
 8001fe6:	bd80      	pop	{r7, pc}
 8001fe8:	40021800 	.word	0x40021800
 8001fec:	50000400 	.word	0x50000400
 8001ff0:	50000800 	.word	0x50000800
 8001ff4:	50000c00 	.word	0x50000c00
 8001ff8:	50001000 	.word	0x50001000

08001ffc <HAL_GPIO_WritePin>:
  *            @arg GPIO_PIN_RESET: to clear the port pin
  *            @arg GPIO_PIN_SET: to set the port pin
  * @retval None
  */
void HAL_GPIO_WritePin(GPIO_TypeDef *GPIOx, uint16_t GPIO_Pin, GPIO_PinState PinState)
{
 8001ffc:	b580      	push	{r7, lr}
 8001ffe:	b082      	sub	sp, #8
 8002000:	af00      	add	r7, sp, #0
 8002002:	6078      	str	r0, [r7, #4]
 8002004:	0008      	movs	r0, r1
 8002006:	0011      	movs	r1, r2
 8002008:	1cbb      	adds	r3, r7, #2
 800200a:	1c02      	adds	r2, r0, #0
 800200c:	801a      	strh	r2, [r3, #0]
 800200e:	1c7b      	adds	r3, r7, #1
 8002010:	1c0a      	adds	r2, r1, #0
 8002012:	701a      	strb	r2, [r3, #0]
  /* Check the parameters */
  assert_param(IS_GPIO_PIN(GPIO_Pin));
  assert_param(IS_GPIO_PIN_ACTION(PinState));

  if (PinState != GPIO_PIN_RESET)
 8002014:	1c7b      	adds	r3, r7, #1
 8002016:	781b      	ldrb	r3, [r3, #0]
 8002018:	2b00      	cmp	r3, #0
 800201a:	d004      	beq.n	8002026 <HAL_GPIO_WritePin+0x2a>
  {
    GPIOx->BSRR = (uint32_t)GPIO_Pin;
 800201c:	1cbb      	adds	r3, r7, #2
 800201e:	881a      	ldrh	r2, [r3, #0]
 8002020:	687b      	ldr	r3, [r7, #4]
 8002022:	619a      	str	r2, [r3, #24]
  }
  else
  {
    GPIOx->BRR = (uint32_t)GPIO_Pin;
  }
}
 8002024:	e003      	b.n	800202e <HAL_GPIO_WritePin+0x32>
    GPIOx->BRR = (uint32_t)GPIO_Pin;
 8002026:	1cbb      	adds	r3, r7, #2
 8002028:	881a      	ldrh	r2, [r3, #0]
 800202a:	687b      	ldr	r3, [r7, #4]
 800202c:	629a      	str	r2, [r3, #40]	; 0x28
}
 800202e:	46c0      	nop			; (mov r8, r8)
 8002030:	46bd      	mov	sp, r7
 8002032:	b002      	add	sp, #8
 8002034:	bd80      	pop	{r7, pc}
	...

08002038 <HAL_I2C_Init>:
  * @param  hi2c Pointer to a I2C_HandleTypeDef structure that contains
  *                the configuration information for the specified I2C.
  * @retval HAL status
  */
HAL_StatusTypeDef HAL_I2C_Init(I2C_HandleTypeDef *hi2c)
{
 8002038:	b580      	push	{r7, lr}
 800203a:	b082      	sub	sp, #8
 800203c:	af00      	add	r7, sp, #0
 800203e:	6078      	str	r0, [r7, #4]
  /* Check the I2C handle allocation */
  if (hi2c == NULL)
 8002040:	687b      	ldr	r3, [r7, #4]
 8002042:	2b00      	cmp	r3, #0
 8002044:	d101      	bne.n	800204a <HAL_I2C_Init+0x12>
  {
    return HAL_ERROR;
 8002046:	2301      	movs	r3, #1
 8002048:	e082      	b.n	8002150 <HAL_I2C_Init+0x118>
  assert_param(IS_I2C_OWN_ADDRESS2(hi2c->Init.OwnAddress2));
  assert_param(IS_I2C_OWN_ADDRESS2_MASK(hi2c->Init.OwnAddress2Masks));
  assert_param(IS_I2C_GENERAL_CALL(hi2c->Init.GeneralCallMode));
  assert_param(IS_I2C_NO_STRETCH(hi2c->Init.NoStretchMode));

  if (hi2c->State == HAL_I2C_STATE_RESET)
 800204a:	687b      	ldr	r3, [r7, #4]
 800204c:	2241      	movs	r2, #65	; 0x41
 800204e:	5c9b      	ldrb	r3, [r3, r2]
 8002050:	b2db      	uxtb	r3, r3
 8002052:	2b00      	cmp	r3, #0
 8002054:	d107      	bne.n	8002066 <HAL_I2C_Init+0x2e>
  {
    /* Allocate lock resource and initialize it */
    hi2c->Lock = HAL_UNLOCKED;
 8002056:	687b      	ldr	r3, [r7, #4]
 8002058:	2240      	movs	r2, #64	; 0x40
 800205a:	2100      	movs	r1, #0
 800205c:	5499      	strb	r1, [r3, r2]

    /* Init the low level hardware : GPIO, CLOCK, CORTEX...etc */
    hi2c->MspInitCallback(hi2c);
#else
    /* Init the low level hardware : GPIO, CLOCK, CORTEX...etc */
    HAL_I2C_MspInit(hi2c);
 800205e:	687b      	ldr	r3, [r7, #4]
 8002060:	0018      	movs	r0, r3
 8002062:	f7fe feb5 	bl	8000dd0 <HAL_I2C_MspInit>
#endif /* USE_HAL_I2C_REGISTER_CALLBACKS */
  }

  hi2c->State = HAL_I2C_STATE_BUSY;
 8002066:	687b      	ldr	r3, [r7, #4]
 8002068:	2241      	movs	r2, #65	; 0x41
 800206a:	2124      	movs	r1, #36	; 0x24
 800206c:	5499      	strb	r1, [r3, r2]

  /* Disable the selected I2C peripheral */
  __HAL_I2C_DISABLE(hi2c);
 800206e:	687b      	ldr	r3, [r7, #4]
 8002070:	681b      	ldr	r3, [r3, #0]
 8002072:	681a      	ldr	r2, [r3, #0]
 8002074:	687b      	ldr	r3, [r7, #4]
 8002076:	681b      	ldr	r3, [r3, #0]
 8002078:	2101      	movs	r1, #1
 800207a:	438a      	bics	r2, r1
 800207c:	601a      	str	r2, [r3, #0]

  /*---------------------------- I2Cx TIMINGR Configuration ------------------*/
  /* Configure I2Cx: Frequency range */
  hi2c->Instance->TIMINGR = hi2c->Init.Timing & TIMING_CLEAR_MASK;
 800207e:	687b      	ldr	r3, [r7, #4]
 8002080:	685a      	ldr	r2, [r3, #4]
 8002082:	687b      	ldr	r3, [r7, #4]
 8002084:	681b      	ldr	r3, [r3, #0]
 8002086:	4934      	ldr	r1, [pc, #208]	; (8002158 <HAL_I2C_Init+0x120>)
 8002088:	400a      	ands	r2, r1
 800208a:	611a      	str	r2, [r3, #16]

  /*---------------------------- I2Cx OAR1 Configuration ---------------------*/
  /* Disable Own Address1 before set the Own Address1 configuration */
  hi2c->Instance->OAR1 &= ~I2C_OAR1_OA1EN;
 800208c:	687b      	ldr	r3, [r7, #4]
 800208e:	681b      	ldr	r3, [r3, #0]
 8002090:	689a      	ldr	r2, [r3, #8]
 8002092:	687b      	ldr	r3, [r7, #4]
 8002094:	681b      	ldr	r3, [r3, #0]
 8002096:	4931      	ldr	r1, [pc, #196]	; (800215c <HAL_I2C_Init+0x124>)
 8002098:	400a      	ands	r2, r1
 800209a:	609a      	str	r2, [r3, #8]

  /* Configure I2Cx: Own Address1 and ack own address1 mode */
  if (hi2c->Init.AddressingMode == I2C_ADDRESSINGMODE_7BIT)
 800209c:	687b      	ldr	r3, [r7, #4]
 800209e:	68db      	ldr	r3, [r3, #12]
 80020a0:	2b01      	cmp	r3, #1
 80020a2:	d108      	bne.n	80020b6 <HAL_I2C_Init+0x7e>
  {
    hi2c->Instance->OAR1 = (I2C_OAR1_OA1EN | hi2c->Init.OwnAddress1);
 80020a4:	687b      	ldr	r3, [r7, #4]
 80020a6:	689a      	ldr	r2, [r3, #8]
 80020a8:	687b      	ldr	r3, [r7, #4]
 80020aa:	681b      	ldr	r3, [r3, #0]
 80020ac:	2180      	movs	r1, #128	; 0x80
 80020ae:	0209      	lsls	r1, r1, #8
 80020b0:	430a      	orrs	r2, r1
 80020b2:	609a      	str	r2, [r3, #8]
 80020b4:	e007      	b.n	80020c6 <HAL_I2C_Init+0x8e>
  }
  else /* I2C_ADDRESSINGMODE_10BIT */
  {
    hi2c->Instance->OAR1 = (I2C_OAR1_OA1EN | I2C_OAR1_OA1MODE | hi2c->Init.OwnAddress1);
 80020b6:	687b      	ldr	r3, [r7, #4]
 80020b8:	689a      	ldr	r2, [r3, #8]
 80020ba:	687b      	ldr	r3, [r7, #4]
 80020bc:	681b      	ldr	r3, [r3, #0]
 80020be:	2184      	movs	r1, #132	; 0x84
 80020c0:	0209      	lsls	r1, r1, #8
 80020c2:	430a      	orrs	r2, r1
 80020c4:	609a      	str	r2, [r3, #8]
  }

  /*---------------------------- I2Cx CR2 Configuration ----------------------*/
  /* Configure I2Cx: Addressing Master mode */
  if (hi2c->Init.AddressingMode == I2C_ADDRESSINGMODE_10BIT)
 80020c6:	687b      	ldr	r3, [r7, #4]
 80020c8:	68db      	ldr	r3, [r3, #12]
 80020ca:	2b02      	cmp	r3, #2
 80020cc:	d104      	bne.n	80020d8 <HAL_I2C_Init+0xa0>
  {
    hi2c->Instance->CR2 = (I2C_CR2_ADD10);
 80020ce:	687b      	ldr	r3, [r7, #4]
 80020d0:	681b      	ldr	r3, [r3, #0]
 80020d2:	2280      	movs	r2, #128	; 0x80
 80020d4:	0112      	lsls	r2, r2, #4
 80020d6:	605a      	str	r2, [r3, #4]
  }
  /* Enable the AUTOEND by default, and enable NACK (should be disable only during Slave process */
  hi2c->Instance->CR2 |= (I2C_CR2_AUTOEND | I2C_CR2_NACK);
 80020d8:	687b      	ldr	r3, [r7, #4]
 80020da:	681b      	ldr	r3, [r3, #0]
 80020dc:	685a      	ldr	r2, [r3, #4]
 80020de:	687b      	ldr	r3, [r7, #4]
 80020e0:	681b      	ldr	r3, [r3, #0]
 80020e2:	491f      	ldr	r1, [pc, #124]	; (8002160 <HAL_I2C_Init+0x128>)
 80020e4:	430a      	orrs	r2, r1
 80020e6:	605a      	str	r2, [r3, #4]

  /*---------------------------- I2Cx OAR2 Configuration ---------------------*/
  /* Disable Own Address2 before set the Own Address2 configuration */
  hi2c->Instance->OAR2 &= ~I2C_DUALADDRESS_ENABLE;
 80020e8:	687b      	ldr	r3, [r7, #4]
 80020ea:	681b      	ldr	r3, [r3, #0]
 80020ec:	68da      	ldr	r2, [r3, #12]
 80020ee:	687b      	ldr	r3, [r7, #4]
 80020f0:	681b      	ldr	r3, [r3, #0]
 80020f2:	491a      	ldr	r1, [pc, #104]	; (800215c <HAL_I2C_Init+0x124>)
 80020f4:	400a      	ands	r2, r1
 80020f6:	60da      	str	r2, [r3, #12]

  /* Configure I2Cx: Dual mode and Own Address2 */
  hi2c->Instance->OAR2 = (hi2c->Init.DualAddressMode | hi2c->Init.OwnAddress2 | \
 80020f8:	687b      	ldr	r3, [r7, #4]
 80020fa:	691a      	ldr	r2, [r3, #16]
 80020fc:	687b      	ldr	r3, [r7, #4]
 80020fe:	695b      	ldr	r3, [r3, #20]
 8002100:	431a      	orrs	r2, r3
 8002102:	0011      	movs	r1, r2
                          (hi2c->Init.OwnAddress2Masks << 8));
 8002104:	687b      	ldr	r3, [r7, #4]
 8002106:	699b      	ldr	r3, [r3, #24]
 8002108:	021a      	lsls	r2, r3, #8
  hi2c->Instance->OAR2 = (hi2c->Init.DualAddressMode | hi2c->Init.OwnAddress2 | \
 800210a:	687b      	ldr	r3, [r7, #4]
 800210c:	681b      	ldr	r3, [r3, #0]
 800210e:	430a      	orrs	r2, r1
 8002110:	60da      	str	r2, [r3, #12]

  /*---------------------------- I2Cx CR1 Configuration ----------------------*/
  /* Configure I2Cx: Generalcall and NoStretch mode */
  hi2c->Instance->CR1 = (hi2c->Init.GeneralCallMode | hi2c->Init.NoStretchMode);
 8002112:	687b      	ldr	r3, [r7, #4]
 8002114:	69d9      	ldr	r1, [r3, #28]
 8002116:	687b      	ldr	r3, [r7, #4]
 8002118:	6a1a      	ldr	r2, [r3, #32]
 800211a:	687b      	ldr	r3, [r7, #4]
 800211c:	681b      	ldr	r3, [r3, #0]
 800211e:	430a      	orrs	r2, r1
 8002120:	601a      	str	r2, [r3, #0]

  /* Enable the selected I2C peripheral */
  __HAL_I2C_ENABLE(hi2c);
 8002122:	687b      	ldr	r3, [r7, #4]
 8002124:	681b      	ldr	r3, [r3, #0]
 8002126:	681a      	ldr	r2, [r3, #0]
 8002128:	687b      	ldr	r3, [r7, #4]
 800212a:	681b      	ldr	r3, [r3, #0]
 800212c:	2101      	movs	r1, #1
 800212e:	430a      	orrs	r2, r1
 8002130:	601a      	str	r2, [r3, #0]

  hi2c->ErrorCode = HAL_I2C_ERROR_NONE;
 8002132:	687b      	ldr	r3, [r7, #4]
 8002134:	2200      	movs	r2, #0
 8002136:	645a      	str	r2, [r3, #68]	; 0x44
  hi2c->State = HAL_I2C_STATE_READY;
 8002138:	687b      	ldr	r3, [r7, #4]
 800213a:	2241      	movs	r2, #65	; 0x41
 800213c:	2120      	movs	r1, #32
 800213e:	5499      	strb	r1, [r3, r2]
  hi2c->PreviousState = I2C_STATE_NONE;
 8002140:	687b      	ldr	r3, [r7, #4]
 8002142:	2200      	movs	r2, #0
 8002144:	631a      	str	r2, [r3, #48]	; 0x30
  hi2c->Mode = HAL_I2C_MODE_NONE;
 8002146:	687b      	ldr	r3, [r7, #4]
 8002148:	2242      	movs	r2, #66	; 0x42
 800214a:	2100      	movs	r1, #0
 800214c:	5499      	strb	r1, [r3, r2]

  return HAL_OK;
 800214e:	2300      	movs	r3, #0
}
 8002150:	0018      	movs	r0, r3
 8002152:	46bd      	mov	sp, r7
 8002154:	b002      	add	sp, #8
 8002156:	bd80      	pop	{r7, pc}
 8002158:	f0ffffff 	.word	0xf0ffffff
 800215c:	ffff7fff 	.word	0xffff7fff
 8002160:	02008000 	.word	0x02008000

08002164 <HAL_I2C_DeInit>:
  * @param  hi2c Pointer to a I2C_HandleTypeDef structure that contains
  *                the configuration information for the specified I2C.
  * @retval HAL status
  */
HAL_StatusTypeDef HAL_I2C_DeInit(I2C_HandleTypeDef *hi2c)
{
 8002164:	b580      	push	{r7, lr}
 8002166:	b082      	sub	sp, #8
 8002168:	af00      	add	r7, sp, #0
 800216a:	6078      	str	r0, [r7, #4]
  /* Check the I2C handle allocation */
  if (hi2c == NULL)
 800216c:	687b      	ldr	r3, [r7, #4]
 800216e:	2b00      	cmp	r3, #0
 8002170:	d101      	bne.n	8002176 <HAL_I2C_DeInit+0x12>
  {
    return HAL_ERROR;
 8002172:	2301      	movs	r3, #1
 8002174:	e022      	b.n	80021bc <HAL_I2C_DeInit+0x58>
  }

  /* Check the parameters */
  assert_param(IS_I2C_ALL_INSTANCE(hi2c->Instance));

  hi2c->State = HAL_I2C_STATE_BUSY;
 8002176:	687b      	ldr	r3, [r7, #4]
 8002178:	2241      	movs	r2, #65	; 0x41
 800217a:	2124      	movs	r1, #36	; 0x24
 800217c:	5499      	strb	r1, [r3, r2]

  /* Disable the I2C Peripheral Clock */
  __HAL_I2C_DISABLE(hi2c);
 800217e:	687b      	ldr	r3, [r7, #4]
 8002180:	681b      	ldr	r3, [r3, #0]
 8002182:	681a      	ldr	r2, [r3, #0]
 8002184:	687b      	ldr	r3, [r7, #4]
 8002186:	681b      	ldr	r3, [r3, #0]
 8002188:	2101      	movs	r1, #1
 800218a:	438a      	bics	r2, r1
 800218c:	601a      	str	r2, [r3, #0]

  /* DeInit the low level hardware: GPIO, CLOCK, NVIC */
  hi2c->MspDeInitCallback(hi2c);
#else
  /* DeInit the low level hardware: GPIO, CLOCK, NVIC */
  HAL_I2C_MspDeInit(hi2c);
 800218e:	687b      	ldr	r3, [r7, #4]
 8002190:	0018      	movs	r0, r3
 8002192:	f7fe fe7f 	bl	8000e94 <HAL_I2C_MspDeInit>
#endif /* USE_HAL_I2C_REGISTER_CALLBACKS */

  hi2c->ErrorCode = HAL_I2C_ERROR_NONE;
 8002196:	687b      	ldr	r3, [r7, #4]
 8002198:	2200      	movs	r2, #0
 800219a:	645a      	str	r2, [r3, #68]	; 0x44
  hi2c->State = HAL_I2C_STATE_RESET;
 800219c:	687b      	ldr	r3, [r7, #4]
 800219e:	2241      	movs	r2, #65	; 0x41
 80021a0:	2100      	movs	r1, #0
 80021a2:	5499      	strb	r1, [r3, r2]
  hi2c->PreviousState = I2C_STATE_NONE;
 80021a4:	687b      	ldr	r3, [r7, #4]
 80021a6:	2200      	movs	r2, #0
 80021a8:	631a      	str	r2, [r3, #48]	; 0x30
  hi2c->Mode = HAL_I2C_MODE_NONE;
 80021aa:	687b      	ldr	r3, [r7, #4]
 80021ac:	2242      	movs	r2, #66	; 0x42
 80021ae:	2100      	movs	r1, #0
 80021b0:	5499      	strb	r1, [r3, r2]

  /* Release Lock */
  __HAL_UNLOCK(hi2c);
 80021b2:	687b      	ldr	r3, [r7, #4]
 80021b4:	2240      	movs	r2, #64	; 0x40
 80021b6:	2100      	movs	r1, #0
 80021b8:	5499      	strb	r1, [r3, r2]

  return HAL_OK;
 80021ba:	2300      	movs	r3, #0
}
 80021bc:	0018      	movs	r0, r3
 80021be:	46bd      	mov	sp, r7
 80021c0:	b002      	add	sp, #8
 80021c2:	bd80      	pop	{r7, pc}

080021c4 <HAL_I2C_Mem_Write>:
  * @param  Timeout Timeout duration
  * @retval HAL status
  */
HAL_StatusTypeDef HAL_I2C_Mem_Write(I2C_HandleTypeDef *hi2c, uint16_t DevAddress, uint16_t MemAddress,
                                    uint16_t MemAddSize, uint8_t *pData, uint16_t Size, uint32_t Timeout)
{
 80021c4:	b590      	push	{r4, r7, lr}
 80021c6:	b089      	sub	sp, #36	; 0x24
 80021c8:	af02      	add	r7, sp, #8
 80021ca:	60f8      	str	r0, [r7, #12]
 80021cc:	000c      	movs	r4, r1
 80021ce:	0010      	movs	r0, r2
 80021d0:	0019      	movs	r1, r3
 80021d2:	230a      	movs	r3, #10
 80021d4:	18fb      	adds	r3, r7, r3
 80021d6:	1c22      	adds	r2, r4, #0
 80021d8:	801a      	strh	r2, [r3, #0]
 80021da:	2308      	movs	r3, #8
 80021dc:	18fb      	adds	r3, r7, r3
 80021de:	1c02      	adds	r2, r0, #0
 80021e0:	801a      	strh	r2, [r3, #0]
 80021e2:	1dbb      	adds	r3, r7, #6
 80021e4:	1c0a      	adds	r2, r1, #0
 80021e6:	801a      	strh	r2, [r3, #0]
  uint32_t tickstart;

  /* Check the parameters */
  assert_param(IS_I2C_MEMADD_SIZE(MemAddSize));

  if (hi2c->State == HAL_I2C_STATE_READY)
 80021e8:	68fb      	ldr	r3, [r7, #12]
 80021ea:	2241      	movs	r2, #65	; 0x41
 80021ec:	5c9b      	ldrb	r3, [r3, r2]
 80021ee:	b2db      	uxtb	r3, r3
 80021f0:	2b20      	cmp	r3, #32
 80021f2:	d000      	beq.n	80021f6 <HAL_I2C_Mem_Write+0x32>
 80021f4:	e10c      	b.n	8002410 <HAL_I2C_Mem_Write+0x24c>
  {
    if ((pData == NULL) || (Size == 0U))
 80021f6:	6abb      	ldr	r3, [r7, #40]	; 0x28
 80021f8:	2b00      	cmp	r3, #0
 80021fa:	d004      	beq.n	8002206 <HAL_I2C_Mem_Write+0x42>
 80021fc:	232c      	movs	r3, #44	; 0x2c
 80021fe:	18fb      	adds	r3, r7, r3
 8002200:	881b      	ldrh	r3, [r3, #0]
 8002202:	2b00      	cmp	r3, #0
 8002204:	d105      	bne.n	8002212 <HAL_I2C_Mem_Write+0x4e>
    {
      hi2c->ErrorCode = HAL_I2C_ERROR_INVALID_PARAM;
 8002206:	68fb      	ldr	r3, [r7, #12]
 8002208:	2280      	movs	r2, #128	; 0x80
 800220a:	0092      	lsls	r2, r2, #2
 800220c:	645a      	str	r2, [r3, #68]	; 0x44
      return  HAL_ERROR;
 800220e:	2301      	movs	r3, #1
 8002210:	e0ff      	b.n	8002412 <HAL_I2C_Mem_Write+0x24e>
    }

    /* Process Locked */
    __HAL_LOCK(hi2c);
 8002212:	68fb      	ldr	r3, [r7, #12]
 8002214:	2240      	movs	r2, #64	; 0x40
 8002216:	5c9b      	ldrb	r3, [r3, r2]
 8002218:	2b01      	cmp	r3, #1
 800221a:	d101      	bne.n	8002220 <HAL_I2C_Mem_Write+0x5c>
 800221c:	2302      	movs	r3, #2
 800221e:	e0f8      	b.n	8002412 <HAL_I2C_Mem_Write+0x24e>
 8002220:	68fb      	ldr	r3, [r7, #12]
 8002222:	2240      	movs	r2, #64	; 0x40
 8002224:	2101      	movs	r1, #1
 8002226:	5499      	strb	r1, [r3, r2]

    /* Init tickstart for timeout management*/
    tickstart = HAL_GetTick();
 8002228:	f7ff fbc2 	bl	80019b0 <HAL_GetTick>
 800222c:	0003      	movs	r3, r0
 800222e:	617b      	str	r3, [r7, #20]

    if (I2C_WaitOnFlagUntilTimeout(hi2c, I2C_FLAG_BUSY, SET, I2C_TIMEOUT_BUSY, tickstart) != HAL_OK)
 8002230:	2380      	movs	r3, #128	; 0x80
 8002232:	0219      	lsls	r1, r3, #8
 8002234:	68f8      	ldr	r0, [r7, #12]
 8002236:	697b      	ldr	r3, [r7, #20]
 8002238:	9300      	str	r3, [sp, #0]
 800223a:	2319      	movs	r3, #25
 800223c:	2201      	movs	r2, #1
 800223e:	f000 fb0b 	bl	8002858 <I2C_WaitOnFlagUntilTimeout>
 8002242:	1e03      	subs	r3, r0, #0
 8002244:	d001      	beq.n	800224a <HAL_I2C_Mem_Write+0x86>
    {
      return HAL_ERROR;
 8002246:	2301      	movs	r3, #1
 8002248:	e0e3      	b.n	8002412 <HAL_I2C_Mem_Write+0x24e>
    }

    hi2c->State     = HAL_I2C_STATE_BUSY_TX;
 800224a:	68fb      	ldr	r3, [r7, #12]
 800224c:	2241      	movs	r2, #65	; 0x41
 800224e:	2121      	movs	r1, #33	; 0x21
 8002250:	5499      	strb	r1, [r3, r2]
    hi2c->Mode      = HAL_I2C_MODE_MEM;
 8002252:	68fb      	ldr	r3, [r7, #12]
 8002254:	2242      	movs	r2, #66	; 0x42
 8002256:	2140      	movs	r1, #64	; 0x40
 8002258:	5499      	strb	r1, [r3, r2]
    hi2c->ErrorCode = HAL_I2C_ERROR_NONE;
 800225a:	68fb      	ldr	r3, [r7, #12]
 800225c:	2200      	movs	r2, #0
 800225e:	645a      	str	r2, [r3, #68]	; 0x44

    /* Prepare transfer parameters */
    hi2c->pBuffPtr  = pData;
 8002260:	68fb      	ldr	r3, [r7, #12]
 8002262:	6aba      	ldr	r2, [r7, #40]	; 0x28
 8002264:	625a      	str	r2, [r3, #36]	; 0x24
    hi2c->XferCount = Size;
 8002266:	68fb      	ldr	r3, [r7, #12]
 8002268:	222c      	movs	r2, #44	; 0x2c
 800226a:	18ba      	adds	r2, r7, r2
 800226c:	8812      	ldrh	r2, [r2, #0]
 800226e:	855a      	strh	r2, [r3, #42]	; 0x2a
    hi2c->XferISR   = NULL;
 8002270:	68fb      	ldr	r3, [r7, #12]
 8002272:	2200      	movs	r2, #0
 8002274:	635a      	str	r2, [r3, #52]	; 0x34

    /* Send Slave Address and Memory Address */
    if (I2C_RequestMemoryWrite(hi2c, DevAddress, MemAddress, MemAddSize, Timeout, tickstart) != HAL_OK)
 8002276:	1dbb      	adds	r3, r7, #6
 8002278:	881c      	ldrh	r4, [r3, #0]
 800227a:	2308      	movs	r3, #8
 800227c:	18fb      	adds	r3, r7, r3
 800227e:	881a      	ldrh	r2, [r3, #0]
 8002280:	230a      	movs	r3, #10
 8002282:	18fb      	adds	r3, r7, r3
 8002284:	8819      	ldrh	r1, [r3, #0]
 8002286:	68f8      	ldr	r0, [r7, #12]
 8002288:	697b      	ldr	r3, [r7, #20]
 800228a:	9301      	str	r3, [sp, #4]
 800228c:	6b3b      	ldr	r3, [r7, #48]	; 0x30
 800228e:	9300      	str	r3, [sp, #0]
 8002290:	0023      	movs	r3, r4
 8002292:	f000 f9f9 	bl	8002688 <I2C_RequestMemoryWrite>
 8002296:	1e03      	subs	r3, r0, #0
 8002298:	d005      	beq.n	80022a6 <HAL_I2C_Mem_Write+0xe2>
    {
      /* Process Unlocked */
      __HAL_UNLOCK(hi2c);
 800229a:	68fb      	ldr	r3, [r7, #12]
 800229c:	2240      	movs	r2, #64	; 0x40
 800229e:	2100      	movs	r1, #0
 80022a0:	5499      	strb	r1, [r3, r2]
      return HAL_ERROR;
 80022a2:	2301      	movs	r3, #1
 80022a4:	e0b5      	b.n	8002412 <HAL_I2C_Mem_Write+0x24e>
    }

    /* Set NBYTES to write and reload if hi2c->XferCount > MAX_NBYTE_SIZE */
    if (hi2c->XferCount > MAX_NBYTE_SIZE)
 80022a6:	68fb      	ldr	r3, [r7, #12]
 80022a8:	8d5b      	ldrh	r3, [r3, #42]	; 0x2a
 80022aa:	b29b      	uxth	r3, r3
 80022ac:	2bff      	cmp	r3, #255	; 0xff
 80022ae:	d911      	bls.n	80022d4 <HAL_I2C_Mem_Write+0x110>
    {
      hi2c->XferSize = MAX_NBYTE_SIZE;
 80022b0:	68fb      	ldr	r3, [r7, #12]
 80022b2:	22ff      	movs	r2, #255	; 0xff
 80022b4:	851a      	strh	r2, [r3, #40]	; 0x28
      I2C_TransferConfig(hi2c, DevAddress, (uint8_t)hi2c->XferSize, I2C_RELOAD_MODE, I2C_NO_STARTSTOP);
 80022b6:	68fb      	ldr	r3, [r7, #12]
 80022b8:	8d1b      	ldrh	r3, [r3, #40]	; 0x28
 80022ba:	b2da      	uxtb	r2, r3
 80022bc:	2380      	movs	r3, #128	; 0x80
 80022be:	045c      	lsls	r4, r3, #17
 80022c0:	230a      	movs	r3, #10
 80022c2:	18fb      	adds	r3, r7, r3
 80022c4:	8819      	ldrh	r1, [r3, #0]
 80022c6:	68f8      	ldr	r0, [r7, #12]
 80022c8:	2300      	movs	r3, #0
 80022ca:	9300      	str	r3, [sp, #0]
 80022cc:	0023      	movs	r3, r4
 80022ce:	f000 fc7d 	bl	8002bcc <I2C_TransferConfig>
 80022d2:	e012      	b.n	80022fa <HAL_I2C_Mem_Write+0x136>
    }
    else
    {
      hi2c->XferSize = hi2c->XferCount;
 80022d4:	68fb      	ldr	r3, [r7, #12]
 80022d6:	8d5b      	ldrh	r3, [r3, #42]	; 0x2a
 80022d8:	b29a      	uxth	r2, r3
 80022da:	68fb      	ldr	r3, [r7, #12]
 80022dc:	851a      	strh	r2, [r3, #40]	; 0x28
      I2C_TransferConfig(hi2c, DevAddress, (uint8_t)hi2c->XferSize, I2C_AUTOEND_MODE, I2C_NO_STARTSTOP);
 80022de:	68fb      	ldr	r3, [r7, #12]
 80022e0:	8d1b      	ldrh	r3, [r3, #40]	; 0x28
 80022e2:	b2da      	uxtb	r2, r3
 80022e4:	2380      	movs	r3, #128	; 0x80
 80022e6:	049c      	lsls	r4, r3, #18
 80022e8:	230a      	movs	r3, #10
 80022ea:	18fb      	adds	r3, r7, r3
 80022ec:	8819      	ldrh	r1, [r3, #0]
 80022ee:	68f8      	ldr	r0, [r7, #12]
 80022f0:	2300      	movs	r3, #0
 80022f2:	9300      	str	r3, [sp, #0]
 80022f4:	0023      	movs	r3, r4
 80022f6:	f000 fc69 	bl	8002bcc <I2C_TransferConfig>
    }

    do
    {
      /* Wait until TXIS flag is set */
      if (I2C_WaitOnTXISFlagUntilTimeout(hi2c, Timeout, tickstart) != HAL_OK)
 80022fa:	697a      	ldr	r2, [r7, #20]
 80022fc:	6b39      	ldr	r1, [r7, #48]	; 0x30
 80022fe:	68fb      	ldr	r3, [r7, #12]
 8002300:	0018      	movs	r0, r3
 8002302:	f000 fae8 	bl	80028d6 <I2C_WaitOnTXISFlagUntilTimeout>
 8002306:	1e03      	subs	r3, r0, #0
 8002308:	d001      	beq.n	800230e <HAL_I2C_Mem_Write+0x14a>
      {
        return HAL_ERROR;
 800230a:	2301      	movs	r3, #1
 800230c:	e081      	b.n	8002412 <HAL_I2C_Mem_Write+0x24e>
      }

      /* Write data to TXDR */
      hi2c->Instance->TXDR = *hi2c->pBuffPtr;
 800230e:	68fb      	ldr	r3, [r7, #12]
 8002310:	6a5b      	ldr	r3, [r3, #36]	; 0x24
 8002312:	781a      	ldrb	r2, [r3, #0]
 8002314:	68fb      	ldr	r3, [r7, #12]
 8002316:	681b      	ldr	r3, [r3, #0]
 8002318:	629a      	str	r2, [r3, #40]	; 0x28

      /* Increment Buffer pointer */
      hi2c->pBuffPtr++;
 800231a:	68fb      	ldr	r3, [r7, #12]
 800231c:	6a5b      	ldr	r3, [r3, #36]	; 0x24
 800231e:	1c5a      	adds	r2, r3, #1
 8002320:	68fb      	ldr	r3, [r7, #12]
 8002322:	625a      	str	r2, [r3, #36]	; 0x24

      hi2c->XferCount--;
 8002324:	68fb      	ldr	r3, [r7, #12]
 8002326:	8d5b      	ldrh	r3, [r3, #42]	; 0x2a
 8002328:	b29b      	uxth	r3, r3
 800232a:	3b01      	subs	r3, #1
 800232c:	b29a      	uxth	r2, r3
 800232e:	68fb      	ldr	r3, [r7, #12]
 8002330:	855a      	strh	r2, [r3, #42]	; 0x2a
      hi2c->XferSize--;
 8002332:	68fb      	ldr	r3, [r7, #12]
 8002334:	8d1b      	ldrh	r3, [r3, #40]	; 0x28
 8002336:	3b01      	subs	r3, #1
 8002338:	b29a      	uxth	r2, r3
 800233a:	68fb      	ldr	r3, [r7, #12]
 800233c:	851a      	strh	r2, [r3, #40]	; 0x28

      if ((hi2c->XferCount != 0U) && (hi2c->XferSize == 0U))
 800233e:	68fb      	ldr	r3, [r7, #12]
 8002340:	8d5b      	ldrh	r3, [r3, #42]	; 0x2a
 8002342:	b29b      	uxth	r3, r3
 8002344:	2b00      	cmp	r3, #0
 8002346:	d03a      	beq.n	80023be <HAL_I2C_Mem_Write+0x1fa>
 8002348:	68fb      	ldr	r3, [r7, #12]
 800234a:	8d1b      	ldrh	r3, [r3, #40]	; 0x28
 800234c:	2b00      	cmp	r3, #0
 800234e:	d136      	bne.n	80023be <HAL_I2C_Mem_Write+0x1fa>
      {
        /* Wait until TCR flag is set */
        if (I2C_WaitOnFlagUntilTimeout(hi2c, I2C_FLAG_TCR, RESET, Timeout, tickstart) != HAL_OK)
 8002350:	6b3a      	ldr	r2, [r7, #48]	; 0x30
 8002352:	68f8      	ldr	r0, [r7, #12]
 8002354:	697b      	ldr	r3, [r7, #20]
 8002356:	9300      	str	r3, [sp, #0]
 8002358:	0013      	movs	r3, r2
 800235a:	2200      	movs	r2, #0
 800235c:	2180      	movs	r1, #128	; 0x80
 800235e:	f000 fa7b 	bl	8002858 <I2C_WaitOnFlagUntilTimeout>
 8002362:	1e03      	subs	r3, r0, #0
 8002364:	d001      	beq.n	800236a <HAL_I2C_Mem_Write+0x1a6>
        {
          return HAL_ERROR;
 8002366:	2301      	movs	r3, #1
 8002368:	e053      	b.n	8002412 <HAL_I2C_Mem_Write+0x24e>
        }

        if (hi2c->XferCount > MAX_NBYTE_SIZE)
 800236a:	68fb      	ldr	r3, [r7, #12]
 800236c:	8d5b      	ldrh	r3, [r3, #42]	; 0x2a
 800236e:	b29b      	uxth	r3, r3
 8002370:	2bff      	cmp	r3, #255	; 0xff
 8002372:	d911      	bls.n	8002398 <HAL_I2C_Mem_Write+0x1d4>
        {
          hi2c->XferSize = MAX_NBYTE_SIZE;
 8002374:	68fb      	ldr	r3, [r7, #12]
 8002376:	22ff      	movs	r2, #255	; 0xff
 8002378:	851a      	strh	r2, [r3, #40]	; 0x28
          I2C_TransferConfig(hi2c, DevAddress, (uint8_t)hi2c->XferSize, I2C_RELOAD_MODE,
 800237a:	68fb      	ldr	r3, [r7, #12]
 800237c:	8d1b      	ldrh	r3, [r3, #40]	; 0x28
 800237e:	b2da      	uxtb	r2, r3
 8002380:	2380      	movs	r3, #128	; 0x80
 8002382:	045c      	lsls	r4, r3, #17
 8002384:	230a      	movs	r3, #10
 8002386:	18fb      	adds	r3, r7, r3
 8002388:	8819      	ldrh	r1, [r3, #0]
 800238a:	68f8      	ldr	r0, [r7, #12]
 800238c:	2300      	movs	r3, #0
 800238e:	9300      	str	r3, [sp, #0]
 8002390:	0023      	movs	r3, r4
 8002392:	f000 fc1b 	bl	8002bcc <I2C_TransferConfig>
 8002396:	e012      	b.n	80023be <HAL_I2C_Mem_Write+0x1fa>
                             I2C_NO_STARTSTOP);
        }
        else
        {
          hi2c->XferSize = hi2c->XferCount;
 8002398:	68fb      	ldr	r3, [r7, #12]
 800239a:	8d5b      	ldrh	r3, [r3, #42]	; 0x2a
 800239c:	b29a      	uxth	r2, r3
 800239e:	68fb      	ldr	r3, [r7, #12]
 80023a0:	851a      	strh	r2, [r3, #40]	; 0x28
          I2C_TransferConfig(hi2c, DevAddress, (uint8_t)hi2c->XferSize, I2C_AUTOEND_MODE,
 80023a2:	68fb      	ldr	r3, [r7, #12]
 80023a4:	8d1b      	ldrh	r3, [r3, #40]	; 0x28
 80023a6:	b2da      	uxtb	r2, r3
 80023a8:	2380      	movs	r3, #128	; 0x80
 80023aa:	049c      	lsls	r4, r3, #18
 80023ac:	230a      	movs	r3, #10
 80023ae:	18fb      	adds	r3, r7, r3
 80023b0:	8819      	ldrh	r1, [r3, #0]
 80023b2:	68f8      	ldr	r0, [r7, #12]
 80023b4:	2300      	movs	r3, #0
 80023b6:	9300      	str	r3, [sp, #0]
 80023b8:	0023      	movs	r3, r4
 80023ba:	f000 fc07 	bl	8002bcc <I2C_TransferConfig>
                             I2C_NO_STARTSTOP);
        }
      }

    } while (hi2c->XferCount > 0U);
 80023be:	68fb      	ldr	r3, [r7, #12]
 80023c0:	8d5b      	ldrh	r3, [r3, #42]	; 0x2a
 80023c2:	b29b      	uxth	r3, r3
 80023c4:	2b00      	cmp	r3, #0
 80023c6:	d198      	bne.n	80022fa <HAL_I2C_Mem_Write+0x136>

    /* No need to Check TC flag, with AUTOEND mode the stop is automatically generated */
    /* Wait until STOPF flag is reset */
    if (I2C_WaitOnSTOPFlagUntilTimeout(hi2c, Timeout, tickstart) != HAL_OK)
 80023c8:	697a      	ldr	r2, [r7, #20]
 80023ca:	6b39      	ldr	r1, [r7, #48]	; 0x30
 80023cc:	68fb      	ldr	r3, [r7, #12]
 80023ce:	0018      	movs	r0, r3
 80023d0:	f000 fac0 	bl	8002954 <I2C_WaitOnSTOPFlagUntilTimeout>
 80023d4:	1e03      	subs	r3, r0, #0
 80023d6:	d001      	beq.n	80023dc <HAL_I2C_Mem_Write+0x218>
    {
      return HAL_ERROR;
 80023d8:	2301      	movs	r3, #1
 80023da:	e01a      	b.n	8002412 <HAL_I2C_Mem_Write+0x24e>
    }

    /* Clear STOP Flag */
    __HAL_I2C_CLEAR_FLAG(hi2c, I2C_FLAG_STOPF);
 80023dc:	68fb      	ldr	r3, [r7, #12]
 80023de:	681b      	ldr	r3, [r3, #0]
 80023e0:	2220      	movs	r2, #32
 80023e2:	61da      	str	r2, [r3, #28]

    /* Clear Configuration Register 2 */
    I2C_RESET_CR2(hi2c);
 80023e4:	68fb      	ldr	r3, [r7, #12]
 80023e6:	681b      	ldr	r3, [r3, #0]
 80023e8:	685a      	ldr	r2, [r3, #4]
 80023ea:	68fb      	ldr	r3, [r7, #12]
 80023ec:	681b      	ldr	r3, [r3, #0]
 80023ee:	490b      	ldr	r1, [pc, #44]	; (800241c <HAL_I2C_Mem_Write+0x258>)
 80023f0:	400a      	ands	r2, r1
 80023f2:	605a      	str	r2, [r3, #4]

    hi2c->State = HAL_I2C_STATE_READY;
 80023f4:	68fb      	ldr	r3, [r7, #12]
 80023f6:	2241      	movs	r2, #65	; 0x41
 80023f8:	2120      	movs	r1, #32
 80023fa:	5499      	strb	r1, [r3, r2]
    hi2c->Mode  = HAL_I2C_MODE_NONE;
 80023fc:	68fb      	ldr	r3, [r7, #12]
 80023fe:	2242      	movs	r2, #66	; 0x42
 8002400:	2100      	movs	r1, #0
 8002402:	5499      	strb	r1, [r3, r2]

    /* Process Unlocked */
    __HAL_UNLOCK(hi2c);
 8002404:	68fb      	ldr	r3, [r7, #12]
 8002406:	2240      	movs	r2, #64	; 0x40
 8002408:	2100      	movs	r1, #0
 800240a:	5499      	strb	r1, [r3, r2]

    return HAL_OK;
 800240c:	2300      	movs	r3, #0
 800240e:	e000      	b.n	8002412 <HAL_I2C_Mem_Write+0x24e>
  }
  else
  {
    return HAL_BUSY;
 8002410:	2302      	movs	r3, #2
  }
}
 8002412:	0018      	movs	r0, r3
 8002414:	46bd      	mov	sp, r7
 8002416:	b007      	add	sp, #28
 8002418:	bd90      	pop	{r4, r7, pc}
 800241a:	46c0      	nop			; (mov r8, r8)
 800241c:	fe00e800 	.word	0xfe00e800

08002420 <HAL_I2C_Mem_Read>:
  * @param  Timeout Timeout duration
  * @retval HAL status
  */
HAL_StatusTypeDef HAL_I2C_Mem_Read(I2C_HandleTypeDef *hi2c, uint16_t DevAddress, uint16_t MemAddress,
                                   uint16_t MemAddSize, uint8_t *pData, uint16_t Size, uint32_t Timeout)
{
 8002420:	b590      	push	{r4, r7, lr}
 8002422:	b089      	sub	sp, #36	; 0x24
 8002424:	af02      	add	r7, sp, #8
 8002426:	60f8      	str	r0, [r7, #12]
 8002428:	000c      	movs	r4, r1
 800242a:	0010      	movs	r0, r2
 800242c:	0019      	movs	r1, r3
 800242e:	230a      	movs	r3, #10
 8002430:	18fb      	adds	r3, r7, r3
 8002432:	1c22      	adds	r2, r4, #0
 8002434:	801a      	strh	r2, [r3, #0]
 8002436:	2308      	movs	r3, #8
 8002438:	18fb      	adds	r3, r7, r3
 800243a:	1c02      	adds	r2, r0, #0
 800243c:	801a      	strh	r2, [r3, #0]
 800243e:	1dbb      	adds	r3, r7, #6
 8002440:	1c0a      	adds	r2, r1, #0
 8002442:	801a      	strh	r2, [r3, #0]
  uint32_t tickstart;

  /* Check the parameters */
  assert_param(IS_I2C_MEMADD_SIZE(MemAddSize));

  if (hi2c->State == HAL_I2C_STATE_READY)
 8002444:	68fb      	ldr	r3, [r7, #12]
 8002446:	2241      	movs	r2, #65	; 0x41
 8002448:	5c9b      	ldrb	r3, [r3, r2]
 800244a:	b2db      	uxtb	r3, r3
 800244c:	2b20      	cmp	r3, #32
 800244e:	d000      	beq.n	8002452 <HAL_I2C_Mem_Read+0x32>
 8002450:	e110      	b.n	8002674 <HAL_I2C_Mem_Read+0x254>
  {
    if ((pData == NULL) || (Size == 0U))
 8002452:	6abb      	ldr	r3, [r7, #40]	; 0x28
 8002454:	2b00      	cmp	r3, #0
 8002456:	d004      	beq.n	8002462 <HAL_I2C_Mem_Read+0x42>
 8002458:	232c      	movs	r3, #44	; 0x2c
 800245a:	18fb      	adds	r3, r7, r3
 800245c:	881b      	ldrh	r3, [r3, #0]
 800245e:	2b00      	cmp	r3, #0
 8002460:	d105      	bne.n	800246e <HAL_I2C_Mem_Read+0x4e>
    {
      hi2c->ErrorCode = HAL_I2C_ERROR_INVALID_PARAM;
 8002462:	68fb      	ldr	r3, [r7, #12]
 8002464:	2280      	movs	r2, #128	; 0x80
 8002466:	0092      	lsls	r2, r2, #2
 8002468:	645a      	str	r2, [r3, #68]	; 0x44
      return  HAL_ERROR;
 800246a:	2301      	movs	r3, #1
 800246c:	e103      	b.n	8002676 <HAL_I2C_Mem_Read+0x256>
    }

    /* Process Locked */
    __HAL_LOCK(hi2c);
 800246e:	68fb      	ldr	r3, [r7, #12]
 8002470:	2240      	movs	r2, #64	; 0x40
 8002472:	5c9b      	ldrb	r3, [r3, r2]
 8002474:	2b01      	cmp	r3, #1
 8002476:	d101      	bne.n	800247c <HAL_I2C_Mem_Read+0x5c>
 8002478:	2302      	movs	r3, #2
 800247a:	e0fc      	b.n	8002676 <HAL_I2C_Mem_Read+0x256>
 800247c:	68fb      	ldr	r3, [r7, #12]
 800247e:	2240      	movs	r2, #64	; 0x40
 8002480:	2101      	movs	r1, #1
 8002482:	5499      	strb	r1, [r3, r2]

    /* Init tickstart for timeout management*/
    tickstart = HAL_GetTick();
 8002484:	f7ff fa94 	bl	80019b0 <HAL_GetTick>
 8002488:	0003      	movs	r3, r0
 800248a:	617b      	str	r3, [r7, #20]

    if (I2C_WaitOnFlagUntilTimeout(hi2c, I2C_FLAG_BUSY, SET, I2C_TIMEOUT_BUSY, tickstart) != HAL_OK)
 800248c:	2380      	movs	r3, #128	; 0x80
 800248e:	0219      	lsls	r1, r3, #8
 8002490:	68f8      	ldr	r0, [r7, #12]
 8002492:	697b      	ldr	r3, [r7, #20]
 8002494:	9300      	str	r3, [sp, #0]
 8002496:	2319      	movs	r3, #25
 8002498:	2201      	movs	r2, #1
 800249a:	f000 f9dd 	bl	8002858 <I2C_WaitOnFlagUntilTimeout>
 800249e:	1e03      	subs	r3, r0, #0
 80024a0:	d001      	beq.n	80024a6 <HAL_I2C_Mem_Read+0x86>
    {
      return HAL_ERROR;
 80024a2:	2301      	movs	r3, #1
 80024a4:	e0e7      	b.n	8002676 <HAL_I2C_Mem_Read+0x256>
    }

    hi2c->State     = HAL_I2C_STATE_BUSY_RX;
 80024a6:	68fb      	ldr	r3, [r7, #12]
 80024a8:	2241      	movs	r2, #65	; 0x41
 80024aa:	2122      	movs	r1, #34	; 0x22
 80024ac:	5499      	strb	r1, [r3, r2]
    hi2c->Mode      = HAL_I2C_MODE_MEM;
 80024ae:	68fb      	ldr	r3, [r7, #12]
 80024b0:	2242      	movs	r2, #66	; 0x42
 80024b2:	2140      	movs	r1, #64	; 0x40
 80024b4:	5499      	strb	r1, [r3, r2]
    hi2c->ErrorCode = HAL_I2C_ERROR_NONE;
 80024b6:	68fb      	ldr	r3, [r7, #12]
 80024b8:	2200      	movs	r2, #0
 80024ba:	645a      	str	r2, [r3, #68]	; 0x44

    /* Prepare transfer parameters */
    hi2c->pBuffPtr  = pData;
 80024bc:	68fb      	ldr	r3, [r7, #12]
 80024be:	6aba      	ldr	r2, [r7, #40]	; 0x28
 80024c0:	625a      	str	r2, [r3, #36]	; 0x24
    hi2c->XferCount = Size;
 80024c2:	68fb      	ldr	r3, [r7, #12]
 80024c4:	222c      	movs	r2, #44	; 0x2c
 80024c6:	18ba      	adds	r2, r7, r2
 80024c8:	8812      	ldrh	r2, [r2, #0]
 80024ca:	855a      	strh	r2, [r3, #42]	; 0x2a
    hi2c->XferISR   = NULL;
 80024cc:	68fb      	ldr	r3, [r7, #12]
 80024ce:	2200      	movs	r2, #0
 80024d0:	635a      	str	r2, [r3, #52]	; 0x34

    /* Send Slave Address and Memory Address */
    if (I2C_RequestMemoryRead(hi2c, DevAddress, MemAddress, MemAddSize, Timeout, tickstart) != HAL_OK)
 80024d2:	1dbb      	adds	r3, r7, #6
 80024d4:	881c      	ldrh	r4, [r3, #0]
 80024d6:	2308      	movs	r3, #8
 80024d8:	18fb      	adds	r3, r7, r3
 80024da:	881a      	ldrh	r2, [r3, #0]
 80024dc:	230a      	movs	r3, #10
 80024de:	18fb      	adds	r3, r7, r3
 80024e0:	8819      	ldrh	r1, [r3, #0]
 80024e2:	68f8      	ldr	r0, [r7, #12]
 80024e4:	697b      	ldr	r3, [r7, #20]
 80024e6:	9301      	str	r3, [sp, #4]
 80024e8:	6b3b      	ldr	r3, [r7, #48]	; 0x30
 80024ea:	9300      	str	r3, [sp, #0]
 80024ec:	0023      	movs	r3, r4
 80024ee:	f000 f92f 	bl	8002750 <I2C_RequestMemoryRead>
 80024f2:	1e03      	subs	r3, r0, #0
 80024f4:	d005      	beq.n	8002502 <HAL_I2C_Mem_Read+0xe2>
    {
      /* Process Unlocked */
      __HAL_UNLOCK(hi2c);
 80024f6:	68fb      	ldr	r3, [r7, #12]
 80024f8:	2240      	movs	r2, #64	; 0x40
 80024fa:	2100      	movs	r1, #0
 80024fc:	5499      	strb	r1, [r3, r2]
      return HAL_ERROR;
 80024fe:	2301      	movs	r3, #1
 8002500:	e0b9      	b.n	8002676 <HAL_I2C_Mem_Read+0x256>
    }

    /* Send Slave Address */
    /* Set NBYTES to write and reload if hi2c->XferCount > MAX_NBYTE_SIZE and generate RESTART */
    if (hi2c->XferCount > MAX_NBYTE_SIZE)
 8002502:	68fb      	ldr	r3, [r7, #12]
 8002504:	8d5b      	ldrh	r3, [r3, #42]	; 0x2a
 8002506:	b29b      	uxth	r3, r3
 8002508:	2bff      	cmp	r3, #255	; 0xff
 800250a:	d911      	bls.n	8002530 <HAL_I2C_Mem_Read+0x110>
    {
      hi2c->XferSize = MAX_NBYTE_SIZE;
 800250c:	68fb      	ldr	r3, [r7, #12]
 800250e:	22ff      	movs	r2, #255	; 0xff
 8002510:	851a      	strh	r2, [r3, #40]	; 0x28
      I2C_TransferConfig(hi2c, DevAddress, (uint8_t)hi2c->XferSize, I2C_RELOAD_MODE,
 8002512:	68fb      	ldr	r3, [r7, #12]
 8002514:	8d1b      	ldrh	r3, [r3, #40]	; 0x28
 8002516:	b2da      	uxtb	r2, r3
 8002518:	2380      	movs	r3, #128	; 0x80
 800251a:	045c      	lsls	r4, r3, #17
 800251c:	230a      	movs	r3, #10
 800251e:	18fb      	adds	r3, r7, r3
 8002520:	8819      	ldrh	r1, [r3, #0]
 8002522:	68f8      	ldr	r0, [r7, #12]
 8002524:	4b56      	ldr	r3, [pc, #344]	; (8002680 <HAL_I2C_Mem_Read+0x260>)
 8002526:	9300      	str	r3, [sp, #0]
 8002528:	0023      	movs	r3, r4
 800252a:	f000 fb4f 	bl	8002bcc <I2C_TransferConfig>
 800252e:	e012      	b.n	8002556 <HAL_I2C_Mem_Read+0x136>
                         I2C_GENERATE_START_READ);
    }
    else
    {
      hi2c->XferSize = hi2c->XferCount;
 8002530:	68fb      	ldr	r3, [r7, #12]
 8002532:	8d5b      	ldrh	r3, [r3, #42]	; 0x2a
 8002534:	b29a      	uxth	r2, r3
 8002536:	68fb      	ldr	r3, [r7, #12]
 8002538:	851a      	strh	r2, [r3, #40]	; 0x28
      I2C_TransferConfig(hi2c, DevAddress, (uint8_t)hi2c->XferSize, I2C_AUTOEND_MODE,
 800253a:	68fb      	ldr	r3, [r7, #12]
 800253c:	8d1b      	ldrh	r3, [r3, #40]	; 0x28
 800253e:	b2da      	uxtb	r2, r3
 8002540:	2380      	movs	r3, #128	; 0x80
 8002542:	049c      	lsls	r4, r3, #18
 8002544:	230a      	movs	r3, #10
 8002546:	18fb      	adds	r3, r7, r3
 8002548:	8819      	ldrh	r1, [r3, #0]
 800254a:	68f8      	ldr	r0, [r7, #12]
 800254c:	4b4c      	ldr	r3, [pc, #304]	; (8002680 <HAL_I2C_Mem_Read+0x260>)
 800254e:	9300      	str	r3, [sp, #0]
 8002550:	0023      	movs	r3, r4
 8002552:	f000 fb3b 	bl	8002bcc <I2C_TransferConfig>
    }

    do
    {
      /* Wait until RXNE flag is set */
      if (I2C_WaitOnFlagUntilTimeout(hi2c, I2C_FLAG_RXNE, RESET, Timeout, tickstart) != HAL_OK)
 8002556:	6b3a      	ldr	r2, [r7, #48]	; 0x30
 8002558:	68f8      	ldr	r0, [r7, #12]
 800255a:	697b      	ldr	r3, [r7, #20]
 800255c:	9300      	str	r3, [sp, #0]
 800255e:	0013      	movs	r3, r2
 8002560:	2200      	movs	r2, #0
 8002562:	2104      	movs	r1, #4
 8002564:	f000 f978 	bl	8002858 <I2C_WaitOnFlagUntilTimeout>
 8002568:	1e03      	subs	r3, r0, #0
 800256a:	d001      	beq.n	8002570 <HAL_I2C_Mem_Read+0x150>
      {
        return HAL_ERROR;
 800256c:	2301      	movs	r3, #1
 800256e:	e082      	b.n	8002676 <HAL_I2C_Mem_Read+0x256>
      }

      /* Read data from RXDR */
      *hi2c->pBuffPtr = (uint8_t)hi2c->Instance->RXDR;
 8002570:	68fb      	ldr	r3, [r7, #12]
 8002572:	681b      	ldr	r3, [r3, #0]
 8002574:	6a5a      	ldr	r2, [r3, #36]	; 0x24
 8002576:	68fb      	ldr	r3, [r7, #12]
 8002578:	6a5b      	ldr	r3, [r3, #36]	; 0x24
 800257a:	b2d2      	uxtb	r2, r2
 800257c:	701a      	strb	r2, [r3, #0]

      /* Increment Buffer pointer */
      hi2c->pBuffPtr++;
 800257e:	68fb      	ldr	r3, [r7, #12]
 8002580:	6a5b      	ldr	r3, [r3, #36]	; 0x24
 8002582:	1c5a      	adds	r2, r3, #1
 8002584:	68fb      	ldr	r3, [r7, #12]
 8002586:	625a      	str	r2, [r3, #36]	; 0x24

      hi2c->XferSize--;
 8002588:	68fb      	ldr	r3, [r7, #12]
 800258a:	8d1b      	ldrh	r3, [r3, #40]	; 0x28
 800258c:	3b01      	subs	r3, #1
 800258e:	b29a      	uxth	r2, r3
 8002590:	68fb      	ldr	r3, [r7, #12]
 8002592:	851a      	strh	r2, [r3, #40]	; 0x28
      hi2c->XferCount--;
 8002594:	68fb      	ldr	r3, [r7, #12]
 8002596:	8d5b      	ldrh	r3, [r3, #42]	; 0x2a
 8002598:	b29b      	uxth	r3, r3
 800259a:	3b01      	subs	r3, #1
 800259c:	b29a      	uxth	r2, r3
 800259e:	68fb      	ldr	r3, [r7, #12]
 80025a0:	855a      	strh	r2, [r3, #42]	; 0x2a

      if ((hi2c->XferCount != 0U) && (hi2c->XferSize == 0U))
 80025a2:	68fb      	ldr	r3, [r7, #12]
 80025a4:	8d5b      	ldrh	r3, [r3, #42]	; 0x2a
 80025a6:	b29b      	uxth	r3, r3
 80025a8:	2b00      	cmp	r3, #0
 80025aa:	d03a      	beq.n	8002622 <HAL_I2C_Mem_Read+0x202>
 80025ac:	68fb      	ldr	r3, [r7, #12]
 80025ae:	8d1b      	ldrh	r3, [r3, #40]	; 0x28
 80025b0:	2b00      	cmp	r3, #0
 80025b2:	d136      	bne.n	8002622 <HAL_I2C_Mem_Read+0x202>
      {
        /* Wait until TCR flag is set */
        if (I2C_WaitOnFlagUntilTimeout(hi2c, I2C_FLAG_TCR, RESET, Timeout, tickstart) != HAL_OK)
 80025b4:	6b3a      	ldr	r2, [r7, #48]	; 0x30
 80025b6:	68f8      	ldr	r0, [r7, #12]
 80025b8:	697b      	ldr	r3, [r7, #20]
 80025ba:	9300      	str	r3, [sp, #0]
 80025bc:	0013      	movs	r3, r2
 80025be:	2200      	movs	r2, #0
 80025c0:	2180      	movs	r1, #128	; 0x80
 80025c2:	f000 f949 	bl	8002858 <I2C_WaitOnFlagUntilTimeout>
 80025c6:	1e03      	subs	r3, r0, #0
 80025c8:	d001      	beq.n	80025ce <HAL_I2C_Mem_Read+0x1ae>
        {
          return HAL_ERROR;
 80025ca:	2301      	movs	r3, #1
 80025cc:	e053      	b.n	8002676 <HAL_I2C_Mem_Read+0x256>
        }

        if (hi2c->XferCount > MAX_NBYTE_SIZE)
 80025ce:	68fb      	ldr	r3, [r7, #12]
 80025d0:	8d5b      	ldrh	r3, [r3, #42]	; 0x2a
 80025d2:	b29b      	uxth	r3, r3
 80025d4:	2bff      	cmp	r3, #255	; 0xff
 80025d6:	d911      	bls.n	80025fc <HAL_I2C_Mem_Read+0x1dc>
        {
          hi2c->XferSize = MAX_NBYTE_SIZE;
 80025d8:	68fb      	ldr	r3, [r7, #12]
 80025da:	22ff      	movs	r2, #255	; 0xff
 80025dc:	851a      	strh	r2, [r3, #40]	; 0x28
          I2C_TransferConfig(hi2c, DevAddress, (uint8_t) hi2c->XferSize, I2C_RELOAD_MODE,
 80025de:	68fb      	ldr	r3, [r7, #12]
 80025e0:	8d1b      	ldrh	r3, [r3, #40]	; 0x28
 80025e2:	b2da      	uxtb	r2, r3
 80025e4:	2380      	movs	r3, #128	; 0x80
 80025e6:	045c      	lsls	r4, r3, #17
 80025e8:	230a      	movs	r3, #10
 80025ea:	18fb      	adds	r3, r7, r3
 80025ec:	8819      	ldrh	r1, [r3, #0]
 80025ee:	68f8      	ldr	r0, [r7, #12]
 80025f0:	2300      	movs	r3, #0
 80025f2:	9300      	str	r3, [sp, #0]
 80025f4:	0023      	movs	r3, r4
 80025f6:	f000 fae9 	bl	8002bcc <I2C_TransferConfig>
 80025fa:	e012      	b.n	8002622 <HAL_I2C_Mem_Read+0x202>
                             I2C_NO_STARTSTOP);
        }
        else
        {
          hi2c->XferSize = hi2c->XferCount;
 80025fc:	68fb      	ldr	r3, [r7, #12]
 80025fe:	8d5b      	ldrh	r3, [r3, #42]	; 0x2a
 8002600:	b29a      	uxth	r2, r3
 8002602:	68fb      	ldr	r3, [r7, #12]
 8002604:	851a      	strh	r2, [r3, #40]	; 0x28
          I2C_TransferConfig(hi2c, DevAddress, (uint8_t)hi2c->XferSize, I2C_AUTOEND_MODE,
 8002606:	68fb      	ldr	r3, [r7, #12]
 8002608:	8d1b      	ldrh	r3, [r3, #40]	; 0x28
 800260a:	b2da      	uxtb	r2, r3
 800260c:	2380      	movs	r3, #128	; 0x80
 800260e:	049c      	lsls	r4, r3, #18
 8002610:	230a      	movs	r3, #10
 8002612:	18fb      	adds	r3, r7, r3
 8002614:	8819      	ldrh	r1, [r3, #0]
 8002616:	68f8      	ldr	r0, [r7, #12]
 8002618:	2300      	movs	r3, #0
 800261a:	9300      	str	r3, [sp, #0]
 800261c:	0023      	movs	r3, r4
 800261e:	f000 fad5 	bl	8002bcc <I2C_TransferConfig>
                             I2C_NO_STARTSTOP);
        }
      }
    } while (hi2c->XferCount > 0U);
 8002622:	68fb      	ldr	r3, [r7, #12]
 8002624:	8d5b      	ldrh	r3, [r3, #42]	; 0x2a
 8002626:	b29b      	uxth	r3, r3
 8002628:	2b00      	cmp	r3, #0
 800262a:	d194      	bne.n	8002556 <HAL_I2C_Mem_Read+0x136>

    /* No need to Check TC flag, with AUTOEND mode the stop is automatically generated */
    /* Wait until STOPF flag is reset */
    if (I2C_WaitOnSTOPFlagUntilTimeout(hi2c, Timeout, tickstart) != HAL_OK)
 800262c:	697a      	ldr	r2, [r7, #20]
 800262e:	6b39      	ldr	r1, [r7, #48]	; 0x30
 8002630:	68fb      	ldr	r3, [r7, #12]
 8002632:	0018      	movs	r0, r3
 8002634:	f000 f98e 	bl	8002954 <I2C_WaitOnSTOPFlagUntilTimeout>
 8002638:	1e03      	subs	r3, r0, #0
 800263a:	d001      	beq.n	8002640 <HAL_I2C_Mem_Read+0x220>
    {
      return HAL_ERROR;
 800263c:	2301      	movs	r3, #1
 800263e:	e01a      	b.n	8002676 <HAL_I2C_Mem_Read+0x256>
    }

    /* Clear STOP Flag */
    __HAL_I2C_CLEAR_FLAG(hi2c, I2C_FLAG_STOPF);
 8002640:	68fb      	ldr	r3, [r7, #12]
 8002642:	681b      	ldr	r3, [r3, #0]
 8002644:	2220      	movs	r2, #32
 8002646:	61da      	str	r2, [r3, #28]

    /* Clear Configuration Register 2 */
    I2C_RESET_CR2(hi2c);
 8002648:	68fb      	ldr	r3, [r7, #12]
 800264a:	681b      	ldr	r3, [r3, #0]
 800264c:	685a      	ldr	r2, [r3, #4]
 800264e:	68fb      	ldr	r3, [r7, #12]
 8002650:	681b      	ldr	r3, [r3, #0]
 8002652:	490c      	ldr	r1, [pc, #48]	; (8002684 <HAL_I2C_Mem_Read+0x264>)
 8002654:	400a      	ands	r2, r1
 8002656:	605a      	str	r2, [r3, #4]

    hi2c->State = HAL_I2C_STATE_READY;
 8002658:	68fb      	ldr	r3, [r7, #12]
 800265a:	2241      	movs	r2, #65	; 0x41
 800265c:	2120      	movs	r1, #32
 800265e:	5499      	strb	r1, [r3, r2]
    hi2c->Mode  = HAL_I2C_MODE_NONE;
 8002660:	68fb      	ldr	r3, [r7, #12]
 8002662:	2242      	movs	r2, #66	; 0x42
 8002664:	2100      	movs	r1, #0
 8002666:	5499      	strb	r1, [r3, r2]

    /* Process Unlocked */
    __HAL_UNLOCK(hi2c);
 8002668:	68fb      	ldr	r3, [r7, #12]
 800266a:	2240      	movs	r2, #64	; 0x40
 800266c:	2100      	movs	r1, #0
 800266e:	5499      	strb	r1, [r3, r2]

    return HAL_OK;
 8002670:	2300      	movs	r3, #0
 8002672:	e000      	b.n	8002676 <HAL_I2C_Mem_Read+0x256>
  }
  else
  {
    return HAL_BUSY;
 8002674:	2302      	movs	r3, #2
  }
}
 8002676:	0018      	movs	r0, r3
 8002678:	46bd      	mov	sp, r7
 800267a:	b007      	add	sp, #28
 800267c:	bd90      	pop	{r4, r7, pc}
 800267e:	46c0      	nop			; (mov r8, r8)
 8002680:	80002400 	.word	0x80002400
 8002684:	fe00e800 	.word	0xfe00e800

08002688 <I2C_RequestMemoryWrite>:
  * @retval HAL status
  */
static HAL_StatusTypeDef I2C_RequestMemoryWrite(I2C_HandleTypeDef *hi2c, uint16_t DevAddress,
                                                uint16_t MemAddress, uint16_t MemAddSize, uint32_t Timeout,
                                                uint32_t Tickstart)
{
 8002688:	b5b0      	push	{r4, r5, r7, lr}
 800268a:	b086      	sub	sp, #24
 800268c:	af02      	add	r7, sp, #8
 800268e:	60f8      	str	r0, [r7, #12]
 8002690:	000c      	movs	r4, r1
 8002692:	0010      	movs	r0, r2
 8002694:	0019      	movs	r1, r3
 8002696:	250a      	movs	r5, #10
 8002698:	197b      	adds	r3, r7, r5
 800269a:	1c22      	adds	r2, r4, #0
 800269c:	801a      	strh	r2, [r3, #0]
 800269e:	2308      	movs	r3, #8
 80026a0:	18fb      	adds	r3, r7, r3
 80026a2:	1c02      	adds	r2, r0, #0
 80026a4:	801a      	strh	r2, [r3, #0]
 80026a6:	1dbb      	adds	r3, r7, #6
 80026a8:	1c0a      	adds	r2, r1, #0
 80026aa:	801a      	strh	r2, [r3, #0]
  I2C_TransferConfig(hi2c, DevAddress, (uint8_t)MemAddSize, I2C_RELOAD_MODE, I2C_GENERATE_START_WRITE);
 80026ac:	1dbb      	adds	r3, r7, #6
 80026ae:	881b      	ldrh	r3, [r3, #0]
 80026b0:	b2da      	uxtb	r2, r3
 80026b2:	2380      	movs	r3, #128	; 0x80
 80026b4:	045c      	lsls	r4, r3, #17
 80026b6:	197b      	adds	r3, r7, r5
 80026b8:	8819      	ldrh	r1, [r3, #0]
 80026ba:	68f8      	ldr	r0, [r7, #12]
 80026bc:	4b23      	ldr	r3, [pc, #140]	; (800274c <I2C_RequestMemoryWrite+0xc4>)
 80026be:	9300      	str	r3, [sp, #0]
 80026c0:	0023      	movs	r3, r4
 80026c2:	f000 fa83 	bl	8002bcc <I2C_TransferConfig>

  /* Wait until TXIS flag is set */
  if (I2C_WaitOnTXISFlagUntilTimeout(hi2c, Timeout, Tickstart) != HAL_OK)
 80026c6:	6a7a      	ldr	r2, [r7, #36]	; 0x24
 80026c8:	6a39      	ldr	r1, [r7, #32]
 80026ca:	68fb      	ldr	r3, [r7, #12]
 80026cc:	0018      	movs	r0, r3
 80026ce:	f000 f902 	bl	80028d6 <I2C_WaitOnTXISFlagUntilTimeout>
 80026d2:	1e03      	subs	r3, r0, #0
 80026d4:	d001      	beq.n	80026da <I2C_RequestMemoryWrite+0x52>
  {
    return HAL_ERROR;
 80026d6:	2301      	movs	r3, #1
 80026d8:	e033      	b.n	8002742 <I2C_RequestMemoryWrite+0xba>
  }

  /* If Memory address size is 8Bit */
  if (MemAddSize == I2C_MEMADD_SIZE_8BIT)
 80026da:	1dbb      	adds	r3, r7, #6
 80026dc:	881b      	ldrh	r3, [r3, #0]
 80026de:	2b01      	cmp	r3, #1
 80026e0:	d107      	bne.n	80026f2 <I2C_RequestMemoryWrite+0x6a>
  {
    /* Send Memory Address */
    hi2c->Instance->TXDR = I2C_MEM_ADD_LSB(MemAddress);
 80026e2:	2308      	movs	r3, #8
 80026e4:	18fb      	adds	r3, r7, r3
 80026e6:	881b      	ldrh	r3, [r3, #0]
 80026e8:	b2da      	uxtb	r2, r3
 80026ea:	68fb      	ldr	r3, [r7, #12]
 80026ec:	681b      	ldr	r3, [r3, #0]
 80026ee:	629a      	str	r2, [r3, #40]	; 0x28
 80026f0:	e019      	b.n	8002726 <I2C_RequestMemoryWrite+0x9e>
  }
  /* If Memory address size is 16Bit */
  else
  {
    /* Send MSB of Memory Address */
    hi2c->Instance->TXDR = I2C_MEM_ADD_MSB(MemAddress);
 80026f2:	2308      	movs	r3, #8
 80026f4:	18fb      	adds	r3, r7, r3
 80026f6:	881b      	ldrh	r3, [r3, #0]
 80026f8:	0a1b      	lsrs	r3, r3, #8
 80026fa:	b29b      	uxth	r3, r3
 80026fc:	b2da      	uxtb	r2, r3
 80026fe:	68fb      	ldr	r3, [r7, #12]
 8002700:	681b      	ldr	r3, [r3, #0]
 8002702:	629a      	str	r2, [r3, #40]	; 0x28

    /* Wait until TXIS flag is set */
    if (I2C_WaitOnTXISFlagUntilTimeout(hi2c, Timeout, Tickstart) != HAL_OK)
 8002704:	6a7a      	ldr	r2, [r7, #36]	; 0x24
 8002706:	6a39      	ldr	r1, [r7, #32]
 8002708:	68fb      	ldr	r3, [r7, #12]
 800270a:	0018      	movs	r0, r3
 800270c:	f000 f8e3 	bl	80028d6 <I2C_WaitOnTXISFlagUntilTimeout>
 8002710:	1e03      	subs	r3, r0, #0
 8002712:	d001      	beq.n	8002718 <I2C_RequestMemoryWrite+0x90>
    {
      return HAL_ERROR;
 8002714:	2301      	movs	r3, #1
 8002716:	e014      	b.n	8002742 <I2C_RequestMemoryWrite+0xba>
    }

    /* Send LSB of Memory Address */
    hi2c->Instance->TXDR = I2C_MEM_ADD_LSB(MemAddress);
 8002718:	2308      	movs	r3, #8
 800271a:	18fb      	adds	r3, r7, r3
 800271c:	881b      	ldrh	r3, [r3, #0]
 800271e:	b2da      	uxtb	r2, r3
 8002720:	68fb      	ldr	r3, [r7, #12]
 8002722:	681b      	ldr	r3, [r3, #0]
 8002724:	629a      	str	r2, [r3, #40]	; 0x28
  }

  /* Wait until TCR flag is set */
  if (I2C_WaitOnFlagUntilTimeout(hi2c, I2C_FLAG_TCR, RESET, Timeout, Tickstart) != HAL_OK)
 8002726:	6a3a      	ldr	r2, [r7, #32]
 8002728:	68f8      	ldr	r0, [r7, #12]
 800272a:	6a7b      	ldr	r3, [r7, #36]	; 0x24
 800272c:	9300      	str	r3, [sp, #0]
 800272e:	0013      	movs	r3, r2
 8002730:	2200      	movs	r2, #0
 8002732:	2180      	movs	r1, #128	; 0x80
 8002734:	f000 f890 	bl	8002858 <I2C_WaitOnFlagUntilTimeout>
 8002738:	1e03      	subs	r3, r0, #0
 800273a:	d001      	beq.n	8002740 <I2C_RequestMemoryWrite+0xb8>
  {
    return HAL_ERROR;
 800273c:	2301      	movs	r3, #1
 800273e:	e000      	b.n	8002742 <I2C_RequestMemoryWrite+0xba>
  }

  return HAL_OK;
 8002740:	2300      	movs	r3, #0
}
 8002742:	0018      	movs	r0, r3
 8002744:	46bd      	mov	sp, r7
 8002746:	b004      	add	sp, #16
 8002748:	bdb0      	pop	{r4, r5, r7, pc}
 800274a:	46c0      	nop			; (mov r8, r8)
 800274c:	80002000 	.word	0x80002000

08002750 <I2C_RequestMemoryRead>:
  * @retval HAL status
  */
static HAL_StatusTypeDef I2C_RequestMemoryRead(I2C_HandleTypeDef *hi2c, uint16_t DevAddress,
                                               uint16_t MemAddress, uint16_t MemAddSize, uint32_t Timeout,
                                               uint32_t Tickstart)
{
 8002750:	b5b0      	push	{r4, r5, r7, lr}
 8002752:	b086      	sub	sp, #24
 8002754:	af02      	add	r7, sp, #8
 8002756:	60f8      	str	r0, [r7, #12]
 8002758:	000c      	movs	r4, r1
 800275a:	0010      	movs	r0, r2
 800275c:	0019      	movs	r1, r3
 800275e:	250a      	movs	r5, #10
 8002760:	197b      	adds	r3, r7, r5
 8002762:	1c22      	adds	r2, r4, #0
 8002764:	801a      	strh	r2, [r3, #0]
 8002766:	2308      	movs	r3, #8
 8002768:	18fb      	adds	r3, r7, r3
 800276a:	1c02      	adds	r2, r0, #0
 800276c:	801a      	strh	r2, [r3, #0]
 800276e:	1dbb      	adds	r3, r7, #6
 8002770:	1c0a      	adds	r2, r1, #0
 8002772:	801a      	strh	r2, [r3, #0]
  I2C_TransferConfig(hi2c, DevAddress, (uint8_t)MemAddSize, I2C_SOFTEND_MODE, I2C_GENERATE_START_WRITE);
 8002774:	1dbb      	adds	r3, r7, #6
 8002776:	881b      	ldrh	r3, [r3, #0]
 8002778:	b2da      	uxtb	r2, r3
 800277a:	197b      	adds	r3, r7, r5
 800277c:	8819      	ldrh	r1, [r3, #0]
 800277e:	68f8      	ldr	r0, [r7, #12]
 8002780:	4b23      	ldr	r3, [pc, #140]	; (8002810 <I2C_RequestMemoryRead+0xc0>)
 8002782:	9300      	str	r3, [sp, #0]
 8002784:	2300      	movs	r3, #0
 8002786:	f000 fa21 	bl	8002bcc <I2C_TransferConfig>

  /* Wait until TXIS flag is set */
  if (I2C_WaitOnTXISFlagUntilTimeout(hi2c, Timeout, Tickstart) != HAL_OK)
 800278a:	6a7a      	ldr	r2, [r7, #36]	; 0x24
 800278c:	6a39      	ldr	r1, [r7, #32]
 800278e:	68fb      	ldr	r3, [r7, #12]
 8002790:	0018      	movs	r0, r3
 8002792:	f000 f8a0 	bl	80028d6 <I2C_WaitOnTXISFlagUntilTimeout>
 8002796:	1e03      	subs	r3, r0, #0
 8002798:	d001      	beq.n	800279e <I2C_RequestMemoryRead+0x4e>
  {
    return HAL_ERROR;
 800279a:	2301      	movs	r3, #1
 800279c:	e033      	b.n	8002806 <I2C_RequestMemoryRead+0xb6>
  }

  /* If Memory address size is 8Bit */
  if (MemAddSize == I2C_MEMADD_SIZE_8BIT)
 800279e:	1dbb      	adds	r3, r7, #6
 80027a0:	881b      	ldrh	r3, [r3, #0]
 80027a2:	2b01      	cmp	r3, #1
 80027a4:	d107      	bne.n	80027b6 <I2C_RequestMemoryRead+0x66>
  {
    /* Send Memory Address */
    hi2c->Instance->TXDR = I2C_MEM_ADD_LSB(MemAddress);
 80027a6:	2308      	movs	r3, #8
 80027a8:	18fb      	adds	r3, r7, r3
 80027aa:	881b      	ldrh	r3, [r3, #0]
 80027ac:	b2da      	uxtb	r2, r3
 80027ae:	68fb      	ldr	r3, [r7, #12]
 80027b0:	681b      	ldr	r3, [r3, #0]
 80027b2:	629a      	str	r2, [r3, #40]	; 0x28
 80027b4:	e019      	b.n	80027ea <I2C_RequestMemoryRead+0x9a>
  }
  /* If Memory address size is 16Bit */
  else
  {
    /* Send MSB of Memory Address */
    hi2c->Instance->TXDR = I2C_MEM_ADD_MSB(MemAddress);
 80027b6:	2308      	movs	r3, #8
 80027b8:	18fb      	adds	r3, r7, r3
 80027ba:	881b      	ldrh	r3, [r3, #0]
 80027bc:	0a1b      	lsrs	r3, r3, #8
 80027be:	b29b      	uxth	r3, r3
 80027c0:	b2da      	uxtb	r2, r3
 80027c2:	68fb      	ldr	r3, [r7, #12]
 80027c4:	681b      	ldr	r3, [r3, #0]
 80027c6:	629a      	str	r2, [r3, #40]	; 0x28

    /* Wait until TXIS flag is set */
    if (I2C_WaitOnTXISFlagUntilTimeout(hi2c, Timeout, Tickstart) != HAL_OK)
 80027c8:	6a7a      	ldr	r2, [r7, #36]	; 0x24
 80027ca:	6a39      	ldr	r1, [r7, #32]
 80027cc:	68fb      	ldr	r3, [r7, #12]
 80027ce:	0018      	movs	r0, r3
 80027d0:	f000 f881 	bl	80028d6 <I2C_WaitOnTXISFlagUntilTimeout>
 80027d4:	1e03      	subs	r3, r0, #0
 80027d6:	d001      	beq.n	80027dc <I2C_RequestMemoryRead+0x8c>
    {
      return HAL_ERROR;
 80027d8:	2301      	movs	r3, #1
 80027da:	e014      	b.n	8002806 <I2C_RequestMemoryRead+0xb6>
    }

    /* Send LSB of Memory Address */
    hi2c->Instance->TXDR = I2C_MEM_ADD_LSB(MemAddress);
 80027dc:	2308      	movs	r3, #8
 80027de:	18fb      	adds	r3, r7, r3
 80027e0:	881b      	ldrh	r3, [r3, #0]
 80027e2:	b2da      	uxtb	r2, r3
 80027e4:	68fb      	ldr	r3, [r7, #12]
 80027e6:	681b      	ldr	r3, [r3, #0]
 80027e8:	629a      	str	r2, [r3, #40]	; 0x28
  }

  /* Wait until TC flag is set */
  if (I2C_WaitOnFlagUntilTimeout(hi2c, I2C_FLAG_TC, RESET, Timeout, Tickstart) != HAL_OK)
 80027ea:	6a3a      	ldr	r2, [r7, #32]
 80027ec:	68f8      	ldr	r0, [r7, #12]
 80027ee:	6a7b      	ldr	r3, [r7, #36]	; 0x24
 80027f0:	9300      	str	r3, [sp, #0]
 80027f2:	0013      	movs	r3, r2
 80027f4:	2200      	movs	r2, #0
 80027f6:	2140      	movs	r1, #64	; 0x40
 80027f8:	f000 f82e 	bl	8002858 <I2C_WaitOnFlagUntilTimeout>
 80027fc:	1e03      	subs	r3, r0, #0
 80027fe:	d001      	beq.n	8002804 <I2C_RequestMemoryRead+0xb4>
  {
    return HAL_ERROR;
 8002800:	2301      	movs	r3, #1
 8002802:	e000      	b.n	8002806 <I2C_RequestMemoryRead+0xb6>
  }

  return HAL_OK;
 8002804:	2300      	movs	r3, #0
}
 8002806:	0018      	movs	r0, r3
 8002808:	46bd      	mov	sp, r7
 800280a:	b004      	add	sp, #16
 800280c:	bdb0      	pop	{r4, r5, r7, pc}
 800280e:	46c0      	nop			; (mov r8, r8)
 8002810:	80002000 	.word	0x80002000

08002814 <I2C_Flush_TXDR>:
  * @brief  I2C Tx data register flush process.
  * @param  hi2c I2C handle.
  * @retval None
  */
static void I2C_Flush_TXDR(I2C_HandleTypeDef *hi2c)
{
 8002814:	b580      	push	{r7, lr}
 8002816:	b082      	sub	sp, #8
 8002818:	af00      	add	r7, sp, #0
 800281a:	6078      	str	r0, [r7, #4]
  /* If a pending TXIS flag is set */
  /* Write a dummy data in TXDR to clear it */
  if (__HAL_I2C_GET_FLAG(hi2c, I2C_FLAG_TXIS) != RESET)
 800281c:	687b      	ldr	r3, [r7, #4]
 800281e:	681b      	ldr	r3, [r3, #0]
 8002820:	699b      	ldr	r3, [r3, #24]
 8002822:	2202      	movs	r2, #2
 8002824:	4013      	ands	r3, r2
 8002826:	2b02      	cmp	r3, #2
 8002828:	d103      	bne.n	8002832 <I2C_Flush_TXDR+0x1e>
  {
    hi2c->Instance->TXDR = 0x00U;
 800282a:	687b      	ldr	r3, [r7, #4]
 800282c:	681b      	ldr	r3, [r3, #0]
 800282e:	2200      	movs	r2, #0
 8002830:	629a      	str	r2, [r3, #40]	; 0x28
  }

  /* Flush TX register if not empty */
  if (__HAL_I2C_GET_FLAG(hi2c, I2C_FLAG_TXE) == RESET)
 8002832:	687b      	ldr	r3, [r7, #4]
 8002834:	681b      	ldr	r3, [r3, #0]
 8002836:	699b      	ldr	r3, [r3, #24]
 8002838:	2201      	movs	r2, #1
 800283a:	4013      	ands	r3, r2
 800283c:	2b01      	cmp	r3, #1
 800283e:	d007      	beq.n	8002850 <I2C_Flush_TXDR+0x3c>
  {
    __HAL_I2C_CLEAR_FLAG(hi2c, I2C_FLAG_TXE);
 8002840:	687b      	ldr	r3, [r7, #4]
 8002842:	681b      	ldr	r3, [r3, #0]
 8002844:	699a      	ldr	r2, [r3, #24]
 8002846:	687b      	ldr	r3, [r7, #4]
 8002848:	681b      	ldr	r3, [r3, #0]
 800284a:	2101      	movs	r1, #1
 800284c:	430a      	orrs	r2, r1
 800284e:	619a      	str	r2, [r3, #24]
  }
}
 8002850:	46c0      	nop			; (mov r8, r8)
 8002852:	46bd      	mov	sp, r7
 8002854:	b002      	add	sp, #8
 8002856:	bd80      	pop	{r7, pc}

08002858 <I2C_WaitOnFlagUntilTimeout>:
  * @param  Tickstart Tick start value
  * @retval HAL status
  */
static HAL_StatusTypeDef I2C_WaitOnFlagUntilTimeout(I2C_HandleTypeDef *hi2c, uint32_t Flag, FlagStatus Status,
                                                    uint32_t Timeout, uint32_t Tickstart)
{
 8002858:	b580      	push	{r7, lr}
 800285a:	b084      	sub	sp, #16
 800285c:	af00      	add	r7, sp, #0
 800285e:	60f8      	str	r0, [r7, #12]
 8002860:	60b9      	str	r1, [r7, #8]
 8002862:	603b      	str	r3, [r7, #0]
 8002864:	1dfb      	adds	r3, r7, #7
 8002866:	701a      	strb	r2, [r3, #0]
  while (__HAL_I2C_GET_FLAG(hi2c, Flag) == Status)
 8002868:	e021      	b.n	80028ae <I2C_WaitOnFlagUntilTimeout+0x56>
  {
    /* Check for the Timeout */
    if (Timeout != HAL_MAX_DELAY)
 800286a:	683b      	ldr	r3, [r7, #0]
 800286c:	3301      	adds	r3, #1
 800286e:	d01e      	beq.n	80028ae <I2C_WaitOnFlagUntilTimeout+0x56>
    {
      if (((HAL_GetTick() - Tickstart) > Timeout) || (Timeout == 0U))
 8002870:	f7ff f89e 	bl	80019b0 <HAL_GetTick>
 8002874:	0002      	movs	r2, r0
 8002876:	69bb      	ldr	r3, [r7, #24]
 8002878:	1ad3      	subs	r3, r2, r3
 800287a:	683a      	ldr	r2, [r7, #0]
 800287c:	429a      	cmp	r2, r3
 800287e:	d302      	bcc.n	8002886 <I2C_WaitOnFlagUntilTimeout+0x2e>
 8002880:	683b      	ldr	r3, [r7, #0]
 8002882:	2b00      	cmp	r3, #0
 8002884:	d113      	bne.n	80028ae <I2C_WaitOnFlagUntilTimeout+0x56>
      {
        hi2c->ErrorCode |= HAL_I2C_ERROR_TIMEOUT;
 8002886:	68fb      	ldr	r3, [r7, #12]
 8002888:	6c5b      	ldr	r3, [r3, #68]	; 0x44
 800288a:	2220      	movs	r2, #32
 800288c:	431a      	orrs	r2, r3
 800288e:	68fb      	ldr	r3, [r7, #12]
 8002890:	645a      	str	r2, [r3, #68]	; 0x44
        hi2c->State = HAL_I2C_STATE_READY;
 8002892:	68fb      	ldr	r3, [r7, #12]
 8002894:	2241      	movs	r2, #65	; 0x41
 8002896:	2120      	movs	r1, #32
 8002898:	5499      	strb	r1, [r3, r2]
        hi2c->Mode = HAL_I2C_MODE_NONE;
 800289a:	68fb      	ldr	r3, [r7, #12]
 800289c:	2242      	movs	r2, #66	; 0x42
 800289e:	2100      	movs	r1, #0
 80028a0:	5499      	strb	r1, [r3, r2]

        /* Process Unlocked */
        __HAL_UNLOCK(hi2c);
 80028a2:	68fb      	ldr	r3, [r7, #12]
 80028a4:	2240      	movs	r2, #64	; 0x40
 80028a6:	2100      	movs	r1, #0
 80028a8:	5499      	strb	r1, [r3, r2]
        return HAL_ERROR;
 80028aa:	2301      	movs	r3, #1
 80028ac:	e00f      	b.n	80028ce <I2C_WaitOnFlagUntilTimeout+0x76>
  while (__HAL_I2C_GET_FLAG(hi2c, Flag) == Status)
 80028ae:	68fb      	ldr	r3, [r7, #12]
 80028b0:	681b      	ldr	r3, [r3, #0]
 80028b2:	699b      	ldr	r3, [r3, #24]
 80028b4:	68ba      	ldr	r2, [r7, #8]
 80028b6:	4013      	ands	r3, r2
 80028b8:	68ba      	ldr	r2, [r7, #8]
 80028ba:	1ad3      	subs	r3, r2, r3
 80028bc:	425a      	negs	r2, r3
 80028be:	4153      	adcs	r3, r2
 80028c0:	b2db      	uxtb	r3, r3
 80028c2:	001a      	movs	r2, r3
 80028c4:	1dfb      	adds	r3, r7, #7
 80028c6:	781b      	ldrb	r3, [r3, #0]
 80028c8:	429a      	cmp	r2, r3
 80028ca:	d0ce      	beq.n	800286a <I2C_WaitOnFlagUntilTimeout+0x12>
      }
    }
  }
  return HAL_OK;
 80028cc:	2300      	movs	r3, #0
}
 80028ce:	0018      	movs	r0, r3
 80028d0:	46bd      	mov	sp, r7
 80028d2:	b004      	add	sp, #16
 80028d4:	bd80      	pop	{r7, pc}

080028d6 <I2C_WaitOnTXISFlagUntilTimeout>:
  * @param  Tickstart Tick start value
  * @retval HAL status
  */
static HAL_StatusTypeDef I2C_WaitOnTXISFlagUntilTimeout(I2C_HandleTypeDef *hi2c, uint32_t Timeout,
                                                        uint32_t Tickstart)
{
 80028d6:	b580      	push	{r7, lr}
 80028d8:	b084      	sub	sp, #16
 80028da:	af00      	add	r7, sp, #0
 80028dc:	60f8      	str	r0, [r7, #12]
 80028de:	60b9      	str	r1, [r7, #8]
 80028e0:	607a      	str	r2, [r7, #4]
  while (__HAL_I2C_GET_FLAG(hi2c, I2C_FLAG_TXIS) == RESET)
 80028e2:	e02b      	b.n	800293c <I2C_WaitOnTXISFlagUntilTimeout+0x66>
  {
    /* Check if an error is detected */
    if (I2C_IsErrorOccurred(hi2c, Timeout, Tickstart) != HAL_OK)
 80028e4:	687a      	ldr	r2, [r7, #4]
 80028e6:	68b9      	ldr	r1, [r7, #8]
 80028e8:	68fb      	ldr	r3, [r7, #12]
 80028ea:	0018      	movs	r0, r3
 80028ec:	f000 f86e 	bl	80029cc <I2C_IsErrorOccurred>
 80028f0:	1e03      	subs	r3, r0, #0
 80028f2:	d001      	beq.n	80028f8 <I2C_WaitOnTXISFlagUntilTimeout+0x22>
    {
      return HAL_ERROR;
 80028f4:	2301      	movs	r3, #1
 80028f6:	e029      	b.n	800294c <I2C_WaitOnTXISFlagUntilTimeout+0x76>
    }

    /* Check for the Timeout */
    if (Timeout != HAL_MAX_DELAY)
 80028f8:	68bb      	ldr	r3, [r7, #8]
 80028fa:	3301      	adds	r3, #1
 80028fc:	d01e      	beq.n	800293c <I2C_WaitOnTXISFlagUntilTimeout+0x66>
    {
      if (((HAL_GetTick() - Tickstart) > Timeout) || (Timeout == 0U))
 80028fe:	f7ff f857 	bl	80019b0 <HAL_GetTick>
 8002902:	0002      	movs	r2, r0
 8002904:	687b      	ldr	r3, [r7, #4]
 8002906:	1ad3      	subs	r3, r2, r3
 8002908:	68ba      	ldr	r2, [r7, #8]
 800290a:	429a      	cmp	r2, r3
 800290c:	d302      	bcc.n	8002914 <I2C_WaitOnTXISFlagUntilTimeout+0x3e>
 800290e:	68bb      	ldr	r3, [r7, #8]
 8002910:	2b00      	cmp	r3, #0
 8002912:	d113      	bne.n	800293c <I2C_WaitOnTXISFlagUntilTimeout+0x66>
      {
        hi2c->ErrorCode |= HAL_I2C_ERROR_TIMEOUT;
 8002914:	68fb      	ldr	r3, [r7, #12]
 8002916:	6c5b      	ldr	r3, [r3, #68]	; 0x44
 8002918:	2220      	movs	r2, #32
 800291a:	431a      	orrs	r2, r3
 800291c:	68fb      	ldr	r3, [r7, #12]
 800291e:	645a      	str	r2, [r3, #68]	; 0x44
        hi2c->State = HAL_I2C_STATE_READY;
 8002920:	68fb      	ldr	r3, [r7, #12]
 8002922:	2241      	movs	r2, #65	; 0x41
 8002924:	2120      	movs	r1, #32
 8002926:	5499      	strb	r1, [r3, r2]
        hi2c->Mode = HAL_I2C_MODE_NONE;
 8002928:	68fb      	ldr	r3, [r7, #12]
 800292a:	2242      	movs	r2, #66	; 0x42
 800292c:	2100      	movs	r1, #0
 800292e:	5499      	strb	r1, [r3, r2]

        /* Process Unlocked */
        __HAL_UNLOCK(hi2c);
 8002930:	68fb      	ldr	r3, [r7, #12]
 8002932:	2240      	movs	r2, #64	; 0x40
 8002934:	2100      	movs	r1, #0
 8002936:	5499      	strb	r1, [r3, r2]

        return HAL_ERROR;
 8002938:	2301      	movs	r3, #1
 800293a:	e007      	b.n	800294c <I2C_WaitOnTXISFlagUntilTimeout+0x76>
  while (__HAL_I2C_GET_FLAG(hi2c, I2C_FLAG_TXIS) == RESET)
 800293c:	68fb      	ldr	r3, [r7, #12]
 800293e:	681b      	ldr	r3, [r3, #0]
 8002940:	699b      	ldr	r3, [r3, #24]
 8002942:	2202      	movs	r2, #2
 8002944:	4013      	ands	r3, r2
 8002946:	2b02      	cmp	r3, #2
 8002948:	d1cc      	bne.n	80028e4 <I2C_WaitOnTXISFlagUntilTimeout+0xe>
      }
    }
  }
  return HAL_OK;
 800294a:	2300      	movs	r3, #0
}
 800294c:	0018      	movs	r0, r3
 800294e:	46bd      	mov	sp, r7
 8002950:	b004      	add	sp, #16
 8002952:	bd80      	pop	{r7, pc}

08002954 <I2C_WaitOnSTOPFlagUntilTimeout>:
  * @param  Tickstart Tick start value
  * @retval HAL status
  */
static HAL_StatusTypeDef I2C_WaitOnSTOPFlagUntilTimeout(I2C_HandleTypeDef *hi2c, uint32_t Timeout,
                                                        uint32_t Tickstart)
{
 8002954:	b580      	push	{r7, lr}
 8002956:	b084      	sub	sp, #16
 8002958:	af00      	add	r7, sp, #0
 800295a:	60f8      	str	r0, [r7, #12]
 800295c:	60b9      	str	r1, [r7, #8]
 800295e:	607a      	str	r2, [r7, #4]
  while (__HAL_I2C_GET_FLAG(hi2c, I2C_FLAG_STOPF) == RESET)
 8002960:	e028      	b.n	80029b4 <I2C_WaitOnSTOPFlagUntilTimeout+0x60>
  {
    /* Check if an error is detected */
    if (I2C_IsErrorOccurred(hi2c, Timeout, Tickstart) != HAL_OK)
 8002962:	687a      	ldr	r2, [r7, #4]
 8002964:	68b9      	ldr	r1, [r7, #8]
 8002966:	68fb      	ldr	r3, [r7, #12]
 8002968:	0018      	movs	r0, r3
 800296a:	f000 f82f 	bl	80029cc <I2C_IsErrorOccurred>
 800296e:	1e03      	subs	r3, r0, #0
 8002970:	d001      	beq.n	8002976 <I2C_WaitOnSTOPFlagUntilTimeout+0x22>
    {
      return HAL_ERROR;
 8002972:	2301      	movs	r3, #1
 8002974:	e026      	b.n	80029c4 <I2C_WaitOnSTOPFlagUntilTimeout+0x70>
    }

    /* Check for the Timeout */
    if (((HAL_GetTick() - Tickstart) > Timeout) || (Timeout == 0U))
 8002976:	f7ff f81b 	bl	80019b0 <HAL_GetTick>
 800297a:	0002      	movs	r2, r0
 800297c:	687b      	ldr	r3, [r7, #4]
 800297e:	1ad3      	subs	r3, r2, r3
 8002980:	68ba      	ldr	r2, [r7, #8]
 8002982:	429a      	cmp	r2, r3
 8002984:	d302      	bcc.n	800298c <I2C_WaitOnSTOPFlagUntilTimeout+0x38>
 8002986:	68bb      	ldr	r3, [r7, #8]
 8002988:	2b00      	cmp	r3, #0
 800298a:	d113      	bne.n	80029b4 <I2C_WaitOnSTOPFlagUntilTimeout+0x60>
    {
      hi2c->ErrorCode |= HAL_I2C_ERROR_TIMEOUT;
 800298c:	68fb      	ldr	r3, [r7, #12]
 800298e:	6c5b      	ldr	r3, [r3, #68]	; 0x44
 8002990:	2220      	movs	r2, #32
 8002992:	431a      	orrs	r2, r3
 8002994:	68fb      	ldr	r3, [r7, #12]
 8002996:	645a      	str	r2, [r3, #68]	; 0x44
      hi2c->State = HAL_I2C_STATE_READY;
 8002998:	68fb      	ldr	r3, [r7, #12]
 800299a:	2241      	movs	r2, #65	; 0x41
 800299c:	2120      	movs	r1, #32
 800299e:	5499      	strb	r1, [r3, r2]
      hi2c->Mode = HAL_I2C_MODE_NONE;
 80029a0:	68fb      	ldr	r3, [r7, #12]
 80029a2:	2242      	movs	r2, #66	; 0x42
 80029a4:	2100      	movs	r1, #0
 80029a6:	5499      	strb	r1, [r3, r2]

      /* Process Unlocked */
      __HAL_UNLOCK(hi2c);
 80029a8:	68fb      	ldr	r3, [r7, #12]
 80029aa:	2240      	movs	r2, #64	; 0x40
 80029ac:	2100      	movs	r1, #0
 80029ae:	5499      	strb	r1, [r3, r2]

      return HAL_ERROR;
 80029b0:	2301      	movs	r3, #1
 80029b2:	e007      	b.n	80029c4 <I2C_WaitOnSTOPFlagUntilTimeout+0x70>
  while (__HAL_I2C_GET_FLAG(hi2c, I2C_FLAG_STOPF) == RESET)
 80029b4:	68fb      	ldr	r3, [r7, #12]
 80029b6:	681b      	ldr	r3, [r3, #0]
 80029b8:	699b      	ldr	r3, [r3, #24]
 80029ba:	2220      	movs	r2, #32
 80029bc:	4013      	ands	r3, r2
 80029be:	2b20      	cmp	r3, #32
 80029c0:	d1cf      	bne.n	8002962 <I2C_WaitOnSTOPFlagUntilTimeout+0xe>
    }
  }
  return HAL_OK;
 80029c2:	2300      	movs	r3, #0
}
 80029c4:	0018      	movs	r0, r3
 80029c6:	46bd      	mov	sp, r7
 80029c8:	b004      	add	sp, #16
 80029ca:	bd80      	pop	{r7, pc}

080029cc <I2C_IsErrorOccurred>:
  * @param  Timeout Timeout duration
  * @param  Tickstart Tick start value
  * @retval HAL status
  */
static HAL_StatusTypeDef I2C_IsErrorOccurred(I2C_HandleTypeDef *hi2c, uint32_t Timeout, uint32_t Tickstart)
{
 80029cc:	b590      	push	{r4, r7, lr}
 80029ce:	b08b      	sub	sp, #44	; 0x2c
 80029d0:	af00      	add	r7, sp, #0
 80029d2:	60f8      	str	r0, [r7, #12]
 80029d4:	60b9      	str	r1, [r7, #8]
 80029d6:	607a      	str	r2, [r7, #4]
  HAL_StatusTypeDef status = HAL_OK;
 80029d8:	2327      	movs	r3, #39	; 0x27
 80029da:	18fb      	adds	r3, r7, r3
 80029dc:	2200      	movs	r2, #0
 80029de:	701a      	strb	r2, [r3, #0]
  uint32_t itflag   = hi2c->Instance->ISR;
 80029e0:	68fb      	ldr	r3, [r7, #12]
 80029e2:	681b      	ldr	r3, [r3, #0]
 80029e4:	699b      	ldr	r3, [r3, #24]
 80029e6:	61bb      	str	r3, [r7, #24]
  uint32_t error_code = 0;
 80029e8:	2300      	movs	r3, #0
 80029ea:	623b      	str	r3, [r7, #32]
  uint32_t tickstart = Tickstart;
 80029ec:	687b      	ldr	r3, [r7, #4]
 80029ee:	61fb      	str	r3, [r7, #28]
  uint32_t tmp1;
  HAL_I2C_ModeTypeDef tmp2;

  if (HAL_IS_BIT_SET(itflag, I2C_FLAG_AF))
 80029f0:	69bb      	ldr	r3, [r7, #24]
 80029f2:	2210      	movs	r2, #16
 80029f4:	4013      	ands	r3, r2
 80029f6:	d100      	bne.n	80029fa <I2C_IsErrorOccurred+0x2e>
 80029f8:	e082      	b.n	8002b00 <I2C_IsErrorOccurred+0x134>
  {
    /* Clear NACKF Flag */
    __HAL_I2C_CLEAR_FLAG(hi2c, I2C_FLAG_AF);
 80029fa:	68fb      	ldr	r3, [r7, #12]
 80029fc:	681b      	ldr	r3, [r3, #0]
 80029fe:	2210      	movs	r2, #16
 8002a00:	61da      	str	r2, [r3, #28]

    /* Wait until STOP Flag is set or timeout occurred */
    /* AutoEnd should be initiate after AF */
    while ((__HAL_I2C_GET_FLAG(hi2c, I2C_FLAG_STOPF) == RESET) && (status == HAL_OK))
 8002a02:	e060      	b.n	8002ac6 <I2C_IsErrorOccurred+0xfa>
 8002a04:	2427      	movs	r4, #39	; 0x27
 8002a06:	193b      	adds	r3, r7, r4
 8002a08:	193a      	adds	r2, r7, r4
 8002a0a:	7812      	ldrb	r2, [r2, #0]
 8002a0c:	701a      	strb	r2, [r3, #0]
    {
      /* Check for the Timeout */
      if (Timeout != HAL_MAX_DELAY)
 8002a0e:	68bb      	ldr	r3, [r7, #8]
 8002a10:	3301      	adds	r3, #1
 8002a12:	d058      	beq.n	8002ac6 <I2C_IsErrorOccurred+0xfa>
      {
        if (((HAL_GetTick() - tickstart) > Timeout) || (Timeout == 0U))
 8002a14:	f7fe ffcc 	bl	80019b0 <HAL_GetTick>
 8002a18:	0002      	movs	r2, r0
 8002a1a:	69fb      	ldr	r3, [r7, #28]
 8002a1c:	1ad3      	subs	r3, r2, r3
 8002a1e:	68ba      	ldr	r2, [r7, #8]
 8002a20:	429a      	cmp	r2, r3
 8002a22:	d306      	bcc.n	8002a32 <I2C_IsErrorOccurred+0x66>
 8002a24:	193b      	adds	r3, r7, r4
 8002a26:	193a      	adds	r2, r7, r4
 8002a28:	7812      	ldrb	r2, [r2, #0]
 8002a2a:	701a      	strb	r2, [r3, #0]
 8002a2c:	68bb      	ldr	r3, [r7, #8]
 8002a2e:	2b00      	cmp	r3, #0
 8002a30:	d149      	bne.n	8002ac6 <I2C_IsErrorOccurred+0xfa>
        {
          tmp1 = (uint32_t)(hi2c->Instance->CR2 & I2C_CR2_STOP);
 8002a32:	68fb      	ldr	r3, [r7, #12]
 8002a34:	681b      	ldr	r3, [r3, #0]
 8002a36:	685a      	ldr	r2, [r3, #4]
 8002a38:	2380      	movs	r3, #128	; 0x80
 8002a3a:	01db      	lsls	r3, r3, #7
 8002a3c:	4013      	ands	r3, r2
 8002a3e:	617b      	str	r3, [r7, #20]
          tmp2 = hi2c->Mode;
 8002a40:	2013      	movs	r0, #19
 8002a42:	183b      	adds	r3, r7, r0
 8002a44:	68fa      	ldr	r2, [r7, #12]
 8002a46:	2142      	movs	r1, #66	; 0x42
 8002a48:	5c52      	ldrb	r2, [r2, r1]
 8002a4a:	701a      	strb	r2, [r3, #0]

          /* In case of I2C still busy, try to regenerate a STOP manually */
          if ((__HAL_I2C_GET_FLAG(hi2c, I2C_FLAG_BUSY) != RESET) && \
 8002a4c:	68fb      	ldr	r3, [r7, #12]
 8002a4e:	681b      	ldr	r3, [r3, #0]
 8002a50:	699a      	ldr	r2, [r3, #24]
 8002a52:	2380      	movs	r3, #128	; 0x80
 8002a54:	021b      	lsls	r3, r3, #8
 8002a56:	401a      	ands	r2, r3
 8002a58:	2380      	movs	r3, #128	; 0x80
 8002a5a:	021b      	lsls	r3, r3, #8
 8002a5c:	429a      	cmp	r2, r3
 8002a5e:	d126      	bne.n	8002aae <I2C_IsErrorOccurred+0xe2>
 8002a60:	697a      	ldr	r2, [r7, #20]
 8002a62:	2380      	movs	r3, #128	; 0x80
 8002a64:	01db      	lsls	r3, r3, #7
 8002a66:	429a      	cmp	r2, r3
 8002a68:	d021      	beq.n	8002aae <I2C_IsErrorOccurred+0xe2>
              (tmp1 != I2C_CR2_STOP) && \
 8002a6a:	183b      	adds	r3, r7, r0
 8002a6c:	781b      	ldrb	r3, [r3, #0]
 8002a6e:	2b20      	cmp	r3, #32
 8002a70:	d01d      	beq.n	8002aae <I2C_IsErrorOccurred+0xe2>
              (tmp2 != HAL_I2C_MODE_SLAVE))
          {
            /* Generate Stop */
            hi2c->Instance->CR2 |= I2C_CR2_STOP;
 8002a72:	68fb      	ldr	r3, [r7, #12]
 8002a74:	681b      	ldr	r3, [r3, #0]
 8002a76:	685a      	ldr	r2, [r3, #4]
 8002a78:	68fb      	ldr	r3, [r7, #12]
 8002a7a:	681b      	ldr	r3, [r3, #0]
 8002a7c:	2180      	movs	r1, #128	; 0x80
 8002a7e:	01c9      	lsls	r1, r1, #7
 8002a80:	430a      	orrs	r2, r1
 8002a82:	605a      	str	r2, [r3, #4]

            /* Update Tick with new reference */
            tickstart = HAL_GetTick();
 8002a84:	f7fe ff94 	bl	80019b0 <HAL_GetTick>
 8002a88:	0003      	movs	r3, r0
 8002a8a:	61fb      	str	r3, [r7, #28]
          }

          while (__HAL_I2C_GET_FLAG(hi2c, I2C_FLAG_STOPF) == RESET)
 8002a8c:	e00f      	b.n	8002aae <I2C_IsErrorOccurred+0xe2>
          {
            /* Check for the Timeout */
            if ((HAL_GetTick() - tickstart) > I2C_TIMEOUT_STOPF)
 8002a8e:	f7fe ff8f 	bl	80019b0 <HAL_GetTick>
 8002a92:	0002      	movs	r2, r0
 8002a94:	69fb      	ldr	r3, [r7, #28]
 8002a96:	1ad3      	subs	r3, r2, r3
 8002a98:	2b19      	cmp	r3, #25
 8002a9a:	d908      	bls.n	8002aae <I2C_IsErrorOccurred+0xe2>
            {
              error_code |=HAL_I2C_ERROR_TIMEOUT;
 8002a9c:	6a3b      	ldr	r3, [r7, #32]
 8002a9e:	2220      	movs	r2, #32
 8002aa0:	4313      	orrs	r3, r2
 8002aa2:	623b      	str	r3, [r7, #32]

              status = HAL_ERROR;
 8002aa4:	2327      	movs	r3, #39	; 0x27
 8002aa6:	18fb      	adds	r3, r7, r3
 8002aa8:	2201      	movs	r2, #1
 8002aaa:	701a      	strb	r2, [r3, #0]

              break;
 8002aac:	e00b      	b.n	8002ac6 <I2C_IsErrorOccurred+0xfa>
          while (__HAL_I2C_GET_FLAG(hi2c, I2C_FLAG_STOPF) == RESET)
 8002aae:	68fb      	ldr	r3, [r7, #12]
 8002ab0:	681b      	ldr	r3, [r3, #0]
 8002ab2:	699b      	ldr	r3, [r3, #24]
 8002ab4:	2220      	movs	r2, #32
 8002ab6:	4013      	ands	r3, r2
 8002ab8:	2127      	movs	r1, #39	; 0x27
 8002aba:	187a      	adds	r2, r7, r1
 8002abc:	1879      	adds	r1, r7, r1
 8002abe:	7809      	ldrb	r1, [r1, #0]
 8002ac0:	7011      	strb	r1, [r2, #0]
 8002ac2:	2b20      	cmp	r3, #32
 8002ac4:	d1e3      	bne.n	8002a8e <I2C_IsErrorOccurred+0xc2>
    while ((__HAL_I2C_GET_FLAG(hi2c, I2C_FLAG_STOPF) == RESET) && (status == HAL_OK))
 8002ac6:	68fb      	ldr	r3, [r7, #12]
 8002ac8:	681b      	ldr	r3, [r3, #0]
 8002aca:	699b      	ldr	r3, [r3, #24]
 8002acc:	2220      	movs	r2, #32
 8002ace:	4013      	ands	r3, r2
 8002ad0:	2b20      	cmp	r3, #32
 8002ad2:	d004      	beq.n	8002ade <I2C_IsErrorOccurred+0x112>
 8002ad4:	2327      	movs	r3, #39	; 0x27
 8002ad6:	18fb      	adds	r3, r7, r3
 8002ad8:	781b      	ldrb	r3, [r3, #0]
 8002ada:	2b00      	cmp	r3, #0
 8002adc:	d092      	beq.n	8002a04 <I2C_IsErrorOccurred+0x38>
        }
      }
    }

    /* In case STOP Flag is detected, clear it */
    if (status == HAL_OK)
 8002ade:	2327      	movs	r3, #39	; 0x27
 8002ae0:	18fb      	adds	r3, r7, r3
 8002ae2:	781b      	ldrb	r3, [r3, #0]
 8002ae4:	2b00      	cmp	r3, #0
 8002ae6:	d103      	bne.n	8002af0 <I2C_IsErrorOccurred+0x124>
    {
      /* Clear STOP Flag */
      __HAL_I2C_CLEAR_FLAG(hi2c, I2C_FLAG_STOPF);
 8002ae8:	68fb      	ldr	r3, [r7, #12]
 8002aea:	681b      	ldr	r3, [r3, #0]
 8002aec:	2220      	movs	r2, #32
 8002aee:	61da      	str	r2, [r3, #28]
    }

    error_code |= HAL_I2C_ERROR_AF;
 8002af0:	6a3b      	ldr	r3, [r7, #32]
 8002af2:	2204      	movs	r2, #4
 8002af4:	4313      	orrs	r3, r2
 8002af6:	623b      	str	r3, [r7, #32]

    status = HAL_ERROR;
 8002af8:	2327      	movs	r3, #39	; 0x27
 8002afa:	18fb      	adds	r3, r7, r3
 8002afc:	2201      	movs	r2, #1
 8002afe:	701a      	strb	r2, [r3, #0]
  }

  /* Refresh Content of Status register */
  itflag = hi2c->Instance->ISR;
 8002b00:	68fb      	ldr	r3, [r7, #12]
 8002b02:	681b      	ldr	r3, [r3, #0]
 8002b04:	699b      	ldr	r3, [r3, #24]
 8002b06:	61bb      	str	r3, [r7, #24]

  /* Then verify if an additional errors occurs */
  /* Check if a Bus error occurred */
  if (HAL_IS_BIT_SET(itflag, I2C_FLAG_BERR))
 8002b08:	69ba      	ldr	r2, [r7, #24]
 8002b0a:	2380      	movs	r3, #128	; 0x80
 8002b0c:	005b      	lsls	r3, r3, #1
 8002b0e:	4013      	ands	r3, r2
 8002b10:	d00c      	beq.n	8002b2c <I2C_IsErrorOccurred+0x160>
  {
    error_code |= HAL_I2C_ERROR_BERR;
 8002b12:	6a3b      	ldr	r3, [r7, #32]
 8002b14:	2201      	movs	r2, #1
 8002b16:	4313      	orrs	r3, r2
 8002b18:	623b      	str	r3, [r7, #32]

    /* Clear BERR flag */
    __HAL_I2C_CLEAR_FLAG(hi2c, I2C_FLAG_BERR);
 8002b1a:	68fb      	ldr	r3, [r7, #12]
 8002b1c:	681b      	ldr	r3, [r3, #0]
 8002b1e:	2280      	movs	r2, #128	; 0x80
 8002b20:	0052      	lsls	r2, r2, #1
 8002b22:	61da      	str	r2, [r3, #28]

    status = HAL_ERROR;
 8002b24:	2327      	movs	r3, #39	; 0x27
 8002b26:	18fb      	adds	r3, r7, r3
 8002b28:	2201      	movs	r2, #1
 8002b2a:	701a      	strb	r2, [r3, #0]
  }

  /* Check if an Over-Run/Under-Run error occurred */
  if (HAL_IS_BIT_SET(itflag, I2C_FLAG_OVR))
 8002b2c:	69ba      	ldr	r2, [r7, #24]
 8002b2e:	2380      	movs	r3, #128	; 0x80
 8002b30:	00db      	lsls	r3, r3, #3
 8002b32:	4013      	ands	r3, r2
 8002b34:	d00c      	beq.n	8002b50 <I2C_IsErrorOccurred+0x184>
  {
    error_code |= HAL_I2C_ERROR_OVR;
 8002b36:	6a3b      	ldr	r3, [r7, #32]
 8002b38:	2208      	movs	r2, #8
 8002b3a:	4313      	orrs	r3, r2
 8002b3c:	623b      	str	r3, [r7, #32]

    /* Clear OVR flag */
    __HAL_I2C_CLEAR_FLAG(hi2c, I2C_FLAG_OVR);
 8002b3e:	68fb      	ldr	r3, [r7, #12]
 8002b40:	681b      	ldr	r3, [r3, #0]
 8002b42:	2280      	movs	r2, #128	; 0x80
 8002b44:	00d2      	lsls	r2, r2, #3
 8002b46:	61da      	str	r2, [r3, #28]

    status = HAL_ERROR;
 8002b48:	2327      	movs	r3, #39	; 0x27
 8002b4a:	18fb      	adds	r3, r7, r3
 8002b4c:	2201      	movs	r2, #1
 8002b4e:	701a      	strb	r2, [r3, #0]
  }

  /* Check if an Arbitration Loss error occurred */
  if (HAL_IS_BIT_SET(itflag, I2C_FLAG_ARLO))
 8002b50:	69ba      	ldr	r2, [r7, #24]
 8002b52:	2380      	movs	r3, #128	; 0x80
 8002b54:	009b      	lsls	r3, r3, #2
 8002b56:	4013      	ands	r3, r2
 8002b58:	d00c      	beq.n	8002b74 <I2C_IsErrorOccurred+0x1a8>
  {
    error_code |= HAL_I2C_ERROR_ARLO;
 8002b5a:	6a3b      	ldr	r3, [r7, #32]
 8002b5c:	2202      	movs	r2, #2
 8002b5e:	4313      	orrs	r3, r2
 8002b60:	623b      	str	r3, [r7, #32]

    /* Clear ARLO flag */
    __HAL_I2C_CLEAR_FLAG(hi2c, I2C_FLAG_ARLO);
 8002b62:	68fb      	ldr	r3, [r7, #12]
 8002b64:	681b      	ldr	r3, [r3, #0]
 8002b66:	2280      	movs	r2, #128	; 0x80
 8002b68:	0092      	lsls	r2, r2, #2
 8002b6a:	61da      	str	r2, [r3, #28]

    status = HAL_ERROR;
 8002b6c:	2327      	movs	r3, #39	; 0x27
 8002b6e:	18fb      	adds	r3, r7, r3
 8002b70:	2201      	movs	r2, #1
 8002b72:	701a      	strb	r2, [r3, #0]
  }

  if (status != HAL_OK)
 8002b74:	2327      	movs	r3, #39	; 0x27
 8002b76:	18fb      	adds	r3, r7, r3
 8002b78:	781b      	ldrb	r3, [r3, #0]
 8002b7a:	2b00      	cmp	r3, #0
 8002b7c:	d01d      	beq.n	8002bba <I2C_IsErrorOccurred+0x1ee>
  {
    /* Flush TX register */
    I2C_Flush_TXDR(hi2c);
 8002b7e:	68fb      	ldr	r3, [r7, #12]
 8002b80:	0018      	movs	r0, r3
 8002b82:	f7ff fe47 	bl	8002814 <I2C_Flush_TXDR>

    /* Clear Configuration Register 2 */
    I2C_RESET_CR2(hi2c);
 8002b86:	68fb      	ldr	r3, [r7, #12]
 8002b88:	681b      	ldr	r3, [r3, #0]
 8002b8a:	685a      	ldr	r2, [r3, #4]
 8002b8c:	68fb      	ldr	r3, [r7, #12]
 8002b8e:	681b      	ldr	r3, [r3, #0]
 8002b90:	490d      	ldr	r1, [pc, #52]	; (8002bc8 <I2C_IsErrorOccurred+0x1fc>)
 8002b92:	400a      	ands	r2, r1
 8002b94:	605a      	str	r2, [r3, #4]

    hi2c->ErrorCode |= error_code;
 8002b96:	68fb      	ldr	r3, [r7, #12]
 8002b98:	6c5a      	ldr	r2, [r3, #68]	; 0x44
 8002b9a:	6a3b      	ldr	r3, [r7, #32]
 8002b9c:	431a      	orrs	r2, r3
 8002b9e:	68fb      	ldr	r3, [r7, #12]
 8002ba0:	645a      	str	r2, [r3, #68]	; 0x44
    hi2c->State = HAL_I2C_STATE_READY;
 8002ba2:	68fb      	ldr	r3, [r7, #12]
 8002ba4:	2241      	movs	r2, #65	; 0x41
 8002ba6:	2120      	movs	r1, #32
 8002ba8:	5499      	strb	r1, [r3, r2]
    hi2c->Mode = HAL_I2C_MODE_NONE;
 8002baa:	68fb      	ldr	r3, [r7, #12]
 8002bac:	2242      	movs	r2, #66	; 0x42
 8002bae:	2100      	movs	r1, #0
 8002bb0:	5499      	strb	r1, [r3, r2]

    /* Process Unlocked */
    __HAL_UNLOCK(hi2c);
 8002bb2:	68fb      	ldr	r3, [r7, #12]
 8002bb4:	2240      	movs	r2, #64	; 0x40
 8002bb6:	2100      	movs	r1, #0
 8002bb8:	5499      	strb	r1, [r3, r2]
  }

  return status;
 8002bba:	2327      	movs	r3, #39	; 0x27
 8002bbc:	18fb      	adds	r3, r7, r3
 8002bbe:	781b      	ldrb	r3, [r3, #0]
}
 8002bc0:	0018      	movs	r0, r3
 8002bc2:	46bd      	mov	sp, r7
 8002bc4:	b00b      	add	sp, #44	; 0x2c
 8002bc6:	bd90      	pop	{r4, r7, pc}
 8002bc8:	fe00e800 	.word	0xfe00e800

08002bcc <I2C_TransferConfig>:
  *     @arg @ref I2C_GENERATE_START_WRITE Generate Restart for write request.
  * @retval None
  */
static void I2C_TransferConfig(I2C_HandleTypeDef *hi2c, uint16_t DevAddress, uint8_t Size, uint32_t Mode,
                               uint32_t Request)
{
 8002bcc:	b590      	push	{r4, r7, lr}
 8002bce:	b087      	sub	sp, #28
 8002bd0:	af00      	add	r7, sp, #0
 8002bd2:	60f8      	str	r0, [r7, #12]
 8002bd4:	0008      	movs	r0, r1
 8002bd6:	0011      	movs	r1, r2
 8002bd8:	607b      	str	r3, [r7, #4]
 8002bda:	240a      	movs	r4, #10
 8002bdc:	193b      	adds	r3, r7, r4
 8002bde:	1c02      	adds	r2, r0, #0
 8002be0:	801a      	strh	r2, [r3, #0]
 8002be2:	2009      	movs	r0, #9
 8002be4:	183b      	adds	r3, r7, r0
 8002be6:	1c0a      	adds	r2, r1, #0
 8002be8:	701a      	strb	r2, [r3, #0]
  assert_param(IS_I2C_ALL_INSTANCE(hi2c->Instance));
  assert_param(IS_TRANSFER_MODE(Mode));
  assert_param(IS_TRANSFER_REQUEST(Request));

  /* Declaration of tmp to prevent undefined behavior of volatile usage */
  uint32_t tmp = ((uint32_t)(((uint32_t)DevAddress & I2C_CR2_SADD) | \
 8002bea:	193b      	adds	r3, r7, r4
 8002bec:	881b      	ldrh	r3, [r3, #0]
 8002bee:	059b      	lsls	r3, r3, #22
 8002bf0:	0d9a      	lsrs	r2, r3, #22
                             (((uint32_t)Size << I2C_CR2_NBYTES_Pos) & I2C_CR2_NBYTES) | \
 8002bf2:	183b      	adds	r3, r7, r0
 8002bf4:	781b      	ldrb	r3, [r3, #0]
 8002bf6:	0419      	lsls	r1, r3, #16
 8002bf8:	23ff      	movs	r3, #255	; 0xff
 8002bfa:	041b      	lsls	r3, r3, #16
 8002bfc:	400b      	ands	r3, r1
  uint32_t tmp = ((uint32_t)(((uint32_t)DevAddress & I2C_CR2_SADD) | \
 8002bfe:	431a      	orrs	r2, r3
                             (((uint32_t)Size << I2C_CR2_NBYTES_Pos) & I2C_CR2_NBYTES) | \
 8002c00:	687b      	ldr	r3, [r7, #4]
 8002c02:	431a      	orrs	r2, r3
  uint32_t tmp = ((uint32_t)(((uint32_t)DevAddress & I2C_CR2_SADD) | \
 8002c04:	6abb      	ldr	r3, [r7, #40]	; 0x28
 8002c06:	4313      	orrs	r3, r2
 8002c08:	005b      	lsls	r3, r3, #1
 8002c0a:	085b      	lsrs	r3, r3, #1
 8002c0c:	617b      	str	r3, [r7, #20]
                             (uint32_t)Mode | (uint32_t)Request) & (~0x80000000U));

  /* update CR2 register */
  MODIFY_REG(hi2c->Instance->CR2, \
 8002c0e:	68fb      	ldr	r3, [r7, #12]
 8002c10:	681b      	ldr	r3, [r3, #0]
 8002c12:	685b      	ldr	r3, [r3, #4]
 8002c14:	6aba      	ldr	r2, [r7, #40]	; 0x28
 8002c16:	0d51      	lsrs	r1, r2, #21
 8002c18:	2280      	movs	r2, #128	; 0x80
 8002c1a:	00d2      	lsls	r2, r2, #3
 8002c1c:	400a      	ands	r2, r1
 8002c1e:	4907      	ldr	r1, [pc, #28]	; (8002c3c <I2C_TransferConfig+0x70>)
 8002c20:	430a      	orrs	r2, r1
 8002c22:	43d2      	mvns	r2, r2
 8002c24:	401a      	ands	r2, r3
 8002c26:	0011      	movs	r1, r2
 8002c28:	68fb      	ldr	r3, [r7, #12]
 8002c2a:	681b      	ldr	r3, [r3, #0]
 8002c2c:	697a      	ldr	r2, [r7, #20]
 8002c2e:	430a      	orrs	r2, r1
 8002c30:	605a      	str	r2, [r3, #4]
             ((I2C_CR2_SADD | I2C_CR2_NBYTES | I2C_CR2_RELOAD | I2C_CR2_AUTOEND | \
               (I2C_CR2_RD_WRN & (uint32_t)(Request >> (31U - I2C_CR2_RD_WRN_Pos))) | \
               I2C_CR2_START | I2C_CR2_STOP)), tmp);
}
 8002c32:	46c0      	nop			; (mov r8, r8)
 8002c34:	46bd      	mov	sp, r7
 8002c36:	b007      	add	sp, #28
 8002c38:	bd90      	pop	{r4, r7, pc}
 8002c3a:	46c0      	nop			; (mov r8, r8)
 8002c3c:	03ff63ff 	.word	0x03ff63ff

08002c40 <HAL_I2CEx_ConfigAnalogFilter>:
  *                the configuration information for the specified I2Cx peripheral.
  * @param  AnalogFilter New state of the Analog filter.
  * @retval HAL status
  */
HAL_StatusTypeDef HAL_I2CEx_ConfigAnalogFilter(I2C_HandleTypeDef *hi2c, uint32_t AnalogFilter)
{
 8002c40:	b580      	push	{r7, lr}
 8002c42:	b082      	sub	sp, #8
 8002c44:	af00      	add	r7, sp, #0
 8002c46:	6078      	str	r0, [r7, #4]
 8002c48:	6039      	str	r1, [r7, #0]
  /* Check the parameters */
  assert_param(IS_I2C_ALL_INSTANCE(hi2c->Instance));
  assert_param(IS_I2C_ANALOG_FILTER(AnalogFilter));

  if (hi2c->State == HAL_I2C_STATE_READY)
 8002c4a:	687b      	ldr	r3, [r7, #4]
 8002c4c:	2241      	movs	r2, #65	; 0x41
 8002c4e:	5c9b      	ldrb	r3, [r3, r2]
 8002c50:	b2db      	uxtb	r3, r3
 8002c52:	2b20      	cmp	r3, #32
 8002c54:	d138      	bne.n	8002cc8 <HAL_I2CEx_ConfigAnalogFilter+0x88>
  {
    /* Process Locked */
    __HAL_LOCK(hi2c);
 8002c56:	687b      	ldr	r3, [r7, #4]
 8002c58:	2240      	movs	r2, #64	; 0x40
 8002c5a:	5c9b      	ldrb	r3, [r3, r2]
 8002c5c:	2b01      	cmp	r3, #1
 8002c5e:	d101      	bne.n	8002c64 <HAL_I2CEx_ConfigAnalogFilter+0x24>
 8002c60:	2302      	movs	r3, #2
 8002c62:	e032      	b.n	8002cca <HAL_I2CEx_ConfigAnalogFilter+0x8a>
 8002c64:	687b      	ldr	r3, [r7, #4]
 8002c66:	2240      	movs	r2, #64	; 0x40
 8002c68:	2101      	movs	r1, #1
 8002c6a:	5499      	strb	r1, [r3, r2]

    hi2c->State = HAL_I2C_STATE_BUSY;
 8002c6c:	687b      	ldr	r3, [r7, #4]
 8002c6e:	2241      	movs	r2, #65	; 0x41
 8002c70:	2124      	movs	r1, #36	; 0x24
 8002c72:	5499      	strb	r1, [r3, r2]

    /* Disable the selected I2C peripheral */
    __HAL_I2C_DISABLE(hi2c);
 8002c74:	687b      	ldr	r3, [r7, #4]
 8002c76:	681b      	ldr	r3, [r3, #0]
 8002c78:	681a      	ldr	r2, [r3, #0]
 8002c7a:	687b      	ldr	r3, [r7, #4]
 8002c7c:	681b      	ldr	r3, [r3, #0]
 8002c7e:	2101      	movs	r1, #1
 8002c80:	438a      	bics	r2, r1
 8002c82:	601a      	str	r2, [r3, #0]

    /* Reset I2Cx ANOFF bit */
    hi2c->Instance->CR1 &= ~(I2C_CR1_ANFOFF);
 8002c84:	687b      	ldr	r3, [r7, #4]
 8002c86:	681b      	ldr	r3, [r3, #0]
 8002c88:	681a      	ldr	r2, [r3, #0]
 8002c8a:	687b      	ldr	r3, [r7, #4]
 8002c8c:	681b      	ldr	r3, [r3, #0]
 8002c8e:	4911      	ldr	r1, [pc, #68]	; (8002cd4 <HAL_I2CEx_ConfigAnalogFilter+0x94>)
 8002c90:	400a      	ands	r2, r1
 8002c92:	601a      	str	r2, [r3, #0]

    /* Set analog filter bit*/
    hi2c->Instance->CR1 |= AnalogFilter;
 8002c94:	687b      	ldr	r3, [r7, #4]
 8002c96:	681b      	ldr	r3, [r3, #0]
 8002c98:	6819      	ldr	r1, [r3, #0]
 8002c9a:	687b      	ldr	r3, [r7, #4]
 8002c9c:	681b      	ldr	r3, [r3, #0]
 8002c9e:	683a      	ldr	r2, [r7, #0]
 8002ca0:	430a      	orrs	r2, r1
 8002ca2:	601a      	str	r2, [r3, #0]

    __HAL_I2C_ENABLE(hi2c);
 8002ca4:	687b      	ldr	r3, [r7, #4]
 8002ca6:	681b      	ldr	r3, [r3, #0]
 8002ca8:	681a      	ldr	r2, [r3, #0]
 8002caa:	687b      	ldr	r3, [r7, #4]
 8002cac:	681b      	ldr	r3, [r3, #0]
 8002cae:	2101      	movs	r1, #1
 8002cb0:	430a      	orrs	r2, r1
 8002cb2:	601a      	str	r2, [r3, #0]

    hi2c->State = HAL_I2C_STATE_READY;
 8002cb4:	687b      	ldr	r3, [r7, #4]
 8002cb6:	2241      	movs	r2, #65	; 0x41
 8002cb8:	2120      	movs	r1, #32
 8002cba:	5499      	strb	r1, [r3, r2]

    /* Process Unlocked */
    __HAL_UNLOCK(hi2c);
 8002cbc:	687b      	ldr	r3, [r7, #4]
 8002cbe:	2240      	movs	r2, #64	; 0x40
 8002cc0:	2100      	movs	r1, #0
 8002cc2:	5499      	strb	r1, [r3, r2]

    return HAL_OK;
 8002cc4:	2300      	movs	r3, #0
 8002cc6:	e000      	b.n	8002cca <HAL_I2CEx_ConfigAnalogFilter+0x8a>
  }
  else
  {
    return HAL_BUSY;
 8002cc8:	2302      	movs	r3, #2
  }
}
 8002cca:	0018      	movs	r0, r3
 8002ccc:	46bd      	mov	sp, r7
 8002cce:	b002      	add	sp, #8
 8002cd0:	bd80      	pop	{r7, pc}
 8002cd2:	46c0      	nop			; (mov r8, r8)
 8002cd4:	ffffefff 	.word	0xffffefff

08002cd8 <HAL_I2CEx_ConfigDigitalFilter>:
  *                the configuration information for the specified I2Cx peripheral.
  * @param  DigitalFilter Coefficient of digital noise filter between Min_Data=0x00 and Max_Data=0x0F.
  * @retval HAL status
  */
HAL_StatusTypeDef HAL_I2CEx_ConfigDigitalFilter(I2C_HandleTypeDef *hi2c, uint32_t DigitalFilter)
{
 8002cd8:	b580      	push	{r7, lr}
 8002cda:	b084      	sub	sp, #16
 8002cdc:	af00      	add	r7, sp, #0
 8002cde:	6078      	str	r0, [r7, #4]
 8002ce0:	6039      	str	r1, [r7, #0]

  /* Check the parameters */
  assert_param(IS_I2C_ALL_INSTANCE(hi2c->Instance));
  assert_param(IS_I2C_DIGITAL_FILTER(DigitalFilter));

  if (hi2c->State == HAL_I2C_STATE_READY)
 8002ce2:	687b      	ldr	r3, [r7, #4]
 8002ce4:	2241      	movs	r2, #65	; 0x41
 8002ce6:	5c9b      	ldrb	r3, [r3, r2]
 8002ce8:	b2db      	uxtb	r3, r3
 8002cea:	2b20      	cmp	r3, #32
 8002cec:	d139      	bne.n	8002d62 <HAL_I2CEx_ConfigDigitalFilter+0x8a>
  {
    /* Process Locked */
    __HAL_LOCK(hi2c);
 8002cee:	687b      	ldr	r3, [r7, #4]
 8002cf0:	2240      	movs	r2, #64	; 0x40
 8002cf2:	5c9b      	ldrb	r3, [r3, r2]
 8002cf4:	2b01      	cmp	r3, #1
 8002cf6:	d101      	bne.n	8002cfc <HAL_I2CEx_ConfigDigitalFilter+0x24>
 8002cf8:	2302      	movs	r3, #2
 8002cfa:	e033      	b.n	8002d64 <HAL_I2CEx_ConfigDigitalFilter+0x8c>
 8002cfc:	687b      	ldr	r3, [r7, #4]
 8002cfe:	2240      	movs	r2, #64	; 0x40
 8002d00:	2101      	movs	r1, #1
 8002d02:	5499      	strb	r1, [r3, r2]

    hi2c->State = HAL_I2C_STATE_BUSY;
 8002d04:	687b      	ldr	r3, [r7, #4]
 8002d06:	2241      	movs	r2, #65	; 0x41
 8002d08:	2124      	movs	r1, #36	; 0x24
 8002d0a:	5499      	strb	r1, [r3, r2]

    /* Disable the selected I2C peripheral */
    __HAL_I2C_DISABLE(hi2c);
 8002d0c:	687b      	ldr	r3, [r7, #4]
 8002d0e:	681b      	ldr	r3, [r3, #0]
 8002d10:	681a      	ldr	r2, [r3, #0]
 8002d12:	687b      	ldr	r3, [r7, #4]
 8002d14:	681b      	ldr	r3, [r3, #0]
 8002d16:	2101      	movs	r1, #1
 8002d18:	438a      	bics	r2, r1
 8002d1a:	601a      	str	r2, [r3, #0]

    /* Get the old register value */
    tmpreg = hi2c->Instance->CR1;
 8002d1c:	687b      	ldr	r3, [r7, #4]
 8002d1e:	681b      	ldr	r3, [r3, #0]
 8002d20:	681b      	ldr	r3, [r3, #0]
 8002d22:	60fb      	str	r3, [r7, #12]

    /* Reset I2Cx DNF bits [11:8] */
    tmpreg &= ~(I2C_CR1_DNF);
 8002d24:	68fb      	ldr	r3, [r7, #12]
 8002d26:	4a11      	ldr	r2, [pc, #68]	; (8002d6c <HAL_I2CEx_ConfigDigitalFilter+0x94>)
 8002d28:	4013      	ands	r3, r2
 8002d2a:	60fb      	str	r3, [r7, #12]

    /* Set I2Cx DNF coefficient */
    tmpreg |= DigitalFilter << 8U;
 8002d2c:	683b      	ldr	r3, [r7, #0]
 8002d2e:	021b      	lsls	r3, r3, #8
 8002d30:	68fa      	ldr	r2, [r7, #12]
 8002d32:	4313      	orrs	r3, r2
 8002d34:	60fb      	str	r3, [r7, #12]

    /* Store the new register value */
    hi2c->Instance->CR1 = tmpreg;
 8002d36:	687b      	ldr	r3, [r7, #4]
 8002d38:	681b      	ldr	r3, [r3, #0]
 8002d3a:	68fa      	ldr	r2, [r7, #12]
 8002d3c:	601a      	str	r2, [r3, #0]

    __HAL_I2C_ENABLE(hi2c);
 8002d3e:	687b      	ldr	r3, [r7, #4]
 8002d40:	681b      	ldr	r3, [r3, #0]
 8002d42:	681a      	ldr	r2, [r3, #0]
 8002d44:	687b      	ldr	r3, [r7, #4]
 8002d46:	681b      	ldr	r3, [r3, #0]
 8002d48:	2101      	movs	r1, #1
 8002d4a:	430a      	orrs	r2, r1
 8002d4c:	601a      	str	r2, [r3, #0]

    hi2c->State = HAL_I2C_STATE_READY;
 8002d4e:	687b      	ldr	r3, [r7, #4]
 8002d50:	2241      	movs	r2, #65	; 0x41
 8002d52:	2120      	movs	r1, #32
 8002d54:	5499      	strb	r1, [r3, r2]

    /* Process Unlocked */
    __HAL_UNLOCK(hi2c);
 8002d56:	687b      	ldr	r3, [r7, #4]
 8002d58:	2240      	movs	r2, #64	; 0x40
 8002d5a:	2100      	movs	r1, #0
 8002d5c:	5499      	strb	r1, [r3, r2]

    return HAL_OK;
 8002d5e:	2300      	movs	r3, #0
 8002d60:	e000      	b.n	8002d64 <HAL_I2CEx_ConfigDigitalFilter+0x8c>
  }
  else
  {
    return HAL_BUSY;
 8002d62:	2302      	movs	r3, #2
  }
}
 8002d64:	0018      	movs	r0, r3
 8002d66:	46bd      	mov	sp, r7
 8002d68:	b004      	add	sp, #16
 8002d6a:	bd80      	pop	{r7, pc}
 8002d6c:	fffff0ff 	.word	0xfffff0ff

08002d70 <HAL_PWREx_ControlVoltageScaling>:
  *        cleared before returning the status. If the flag is not cleared within
  *        6 microseconds, HAL_TIMEOUT status is reported.
  * @retval HAL Status
  */
HAL_StatusTypeDef HAL_PWREx_ControlVoltageScaling(uint32_t VoltageScaling)
{
 8002d70:	b580      	push	{r7, lr}
 8002d72:	b084      	sub	sp, #16
 8002d74:	af00      	add	r7, sp, #0
 8002d76:	6078      	str	r0, [r7, #4]
  uint32_t wait_loop_index;

  assert_param(IS_PWR_VOLTAGE_SCALING_RANGE(VoltageScaling));

  /* Modify voltage scaling range */
  MODIFY_REG(PWR->CR1, PWR_CR1_VOS, VoltageScaling);
 8002d78:	4b19      	ldr	r3, [pc, #100]	; (8002de0 <HAL_PWREx_ControlVoltageScaling+0x70>)
 8002d7a:	681b      	ldr	r3, [r3, #0]
 8002d7c:	4a19      	ldr	r2, [pc, #100]	; (8002de4 <HAL_PWREx_ControlVoltageScaling+0x74>)
 8002d7e:	4013      	ands	r3, r2
 8002d80:	0019      	movs	r1, r3
 8002d82:	4b17      	ldr	r3, [pc, #92]	; (8002de0 <HAL_PWREx_ControlVoltageScaling+0x70>)
 8002d84:	687a      	ldr	r2, [r7, #4]
 8002d86:	430a      	orrs	r2, r1
 8002d88:	601a      	str	r2, [r3, #0]

  /* In case of Range 1 selected, we need to ensure that main regulator reaches new value */
  if (VoltageScaling == PWR_REGULATOR_VOLTAGE_SCALE1)
 8002d8a:	687a      	ldr	r2, [r7, #4]
 8002d8c:	2380      	movs	r3, #128	; 0x80
 8002d8e:	009b      	lsls	r3, r3, #2
 8002d90:	429a      	cmp	r2, r3
 8002d92:	d11f      	bne.n	8002dd4 <HAL_PWREx_ControlVoltageScaling+0x64>
  {
    /* Set timeout value */
    wait_loop_index = ((PWR_VOSF_SETTING_DELAY_6_US * SystemCoreClock) / 1000000U) + 1U;
 8002d94:	4b14      	ldr	r3, [pc, #80]	; (8002de8 <HAL_PWREx_ControlVoltageScaling+0x78>)
 8002d96:	681a      	ldr	r2, [r3, #0]
 8002d98:	0013      	movs	r3, r2
 8002d9a:	005b      	lsls	r3, r3, #1
 8002d9c:	189b      	adds	r3, r3, r2
 8002d9e:	005b      	lsls	r3, r3, #1
 8002da0:	4912      	ldr	r1, [pc, #72]	; (8002dec <HAL_PWREx_ControlVoltageScaling+0x7c>)
 8002da2:	0018      	movs	r0, r3
 8002da4:	f7fd f9ae 	bl	8000104 <__udivsi3>
 8002da8:	0003      	movs	r3, r0
 8002daa:	3301      	adds	r3, #1
 8002dac:	60fb      	str	r3, [r7, #12]

    /* Wait until VOSF is reset */
    while (HAL_IS_BIT_SET(PWR->SR2, PWR_SR2_VOSF))
 8002dae:	e008      	b.n	8002dc2 <HAL_PWREx_ControlVoltageScaling+0x52>
    {
      if (wait_loop_index != 0U)
 8002db0:	68fb      	ldr	r3, [r7, #12]
 8002db2:	2b00      	cmp	r3, #0
 8002db4:	d003      	beq.n	8002dbe <HAL_PWREx_ControlVoltageScaling+0x4e>
      {
        wait_loop_index--;
 8002db6:	68fb      	ldr	r3, [r7, #12]
 8002db8:	3b01      	subs	r3, #1
 8002dba:	60fb      	str	r3, [r7, #12]
 8002dbc:	e001      	b.n	8002dc2 <HAL_PWREx_ControlVoltageScaling+0x52>
      }
      else
      {
        return HAL_TIMEOUT;
 8002dbe:	2303      	movs	r3, #3
 8002dc0:	e009      	b.n	8002dd6 <HAL_PWREx_ControlVoltageScaling+0x66>
    while (HAL_IS_BIT_SET(PWR->SR2, PWR_SR2_VOSF))
 8002dc2:	4b07      	ldr	r3, [pc, #28]	; (8002de0 <HAL_PWREx_ControlVoltageScaling+0x70>)
 8002dc4:	695a      	ldr	r2, [r3, #20]
 8002dc6:	2380      	movs	r3, #128	; 0x80
 8002dc8:	00db      	lsls	r3, r3, #3
 8002dca:	401a      	ands	r2, r3
 8002dcc:	2380      	movs	r3, #128	; 0x80
 8002dce:	00db      	lsls	r3, r3, #3
 8002dd0:	429a      	cmp	r2, r3
 8002dd2:	d0ed      	beq.n	8002db0 <HAL_PWREx_ControlVoltageScaling+0x40>
      }
    }
  }

  return HAL_OK;
 8002dd4:	2300      	movs	r3, #0
}
 8002dd6:	0018      	movs	r0, r3
 8002dd8:	46bd      	mov	sp, r7
 8002dda:	b004      	add	sp, #16
 8002ddc:	bd80      	pop	{r7, pc}
 8002dde:	46c0      	nop			; (mov r8, r8)
 8002de0:	40007000 	.word	0x40007000
 8002de4:	fffff9ff 	.word	0xfffff9ff
 8002de8:	20000000 	.word	0x20000000
 8002dec:	000f4240 	.word	0x000f4240

08002df0 <LL_RCC_GetAPB1Prescaler>:
  *         @arg @ref LL_RCC_APB1_DIV_4
  *         @arg @ref LL_RCC_APB1_DIV_8
  *         @arg @ref LL_RCC_APB1_DIV_16
  */
__STATIC_INLINE uint32_t LL_RCC_GetAPB1Prescaler(void)
{
 8002df0:	b580      	push	{r7, lr}
 8002df2:	af00      	add	r7, sp, #0
  return (uint32_t)(READ_BIT(RCC->CFGR, RCC_CFGR_PPRE));
 8002df4:	4b03      	ldr	r3, [pc, #12]	; (8002e04 <LL_RCC_GetAPB1Prescaler+0x14>)
 8002df6:	689a      	ldr	r2, [r3, #8]
 8002df8:	23e0      	movs	r3, #224	; 0xe0
 8002dfa:	01db      	lsls	r3, r3, #7
 8002dfc:	4013      	ands	r3, r2
}
 8002dfe:	0018      	movs	r0, r3
 8002e00:	46bd      	mov	sp, r7
 8002e02:	bd80      	pop	{r7, pc}
 8002e04:	40021000 	.word	0x40021000

08002e08 <HAL_RCC_OscConfig>:
  *         supported by this function. User should request a transition to LSE Off
  *         first and then to LSE On or LSE Bypass.
  * @retval HAL status
  */
HAL_StatusTypeDef HAL_RCC_OscConfig(RCC_OscInitTypeDef  *RCC_OscInitStruct)
{
 8002e08:	b580      	push	{r7, lr}
 8002e0a:	b088      	sub	sp, #32
 8002e0c:	af00      	add	r7, sp, #0
 8002e0e:	6078      	str	r0, [r7, #4]
  uint32_t tickstart;
  uint32_t temp_sysclksrc;
  uint32_t temp_pllckcfg;

  /* Check Null pointer */
  if (RCC_OscInitStruct == NULL)
 8002e10:	687b      	ldr	r3, [r7, #4]
 8002e12:	2b00      	cmp	r3, #0
 8002e14:	d102      	bne.n	8002e1c <HAL_RCC_OscConfig+0x14>
  {
    return HAL_ERROR;
 8002e16:	2301      	movs	r3, #1
 8002e18:	f000 fb50 	bl	80034bc <HAL_RCC_OscConfig+0x6b4>

  /* Check the parameters */
  assert_param(IS_RCC_OSCILLATORTYPE(RCC_OscInitStruct->OscillatorType));

  /*------------------------------- HSE Configuration ------------------------*/
  if (((RCC_OscInitStruct->OscillatorType) & RCC_OSCILLATORTYPE_HSE) == RCC_OSCILLATORTYPE_HSE)
 8002e1c:	687b      	ldr	r3, [r7, #4]
 8002e1e:	681b      	ldr	r3, [r3, #0]
 8002e20:	2201      	movs	r2, #1
 8002e22:	4013      	ands	r3, r2
 8002e24:	d100      	bne.n	8002e28 <HAL_RCC_OscConfig+0x20>
 8002e26:	e07c      	b.n	8002f22 <HAL_RCC_OscConfig+0x11a>
  {
    /* Check the parameters */
    assert_param(IS_RCC_HSE(RCC_OscInitStruct->HSEState));

    temp_sysclksrc = __HAL_RCC_GET_SYSCLK_SOURCE();
 8002e28:	4bc3      	ldr	r3, [pc, #780]	; (8003138 <HAL_RCC_OscConfig+0x330>)
 8002e2a:	689b      	ldr	r3, [r3, #8]
 8002e2c:	2238      	movs	r2, #56	; 0x38
 8002e2e:	4013      	ands	r3, r2
 8002e30:	61bb      	str	r3, [r7, #24]
    temp_pllckcfg = __HAL_RCC_GET_PLL_OSCSOURCE();
 8002e32:	4bc1      	ldr	r3, [pc, #772]	; (8003138 <HAL_RCC_OscConfig+0x330>)
 8002e34:	68db      	ldr	r3, [r3, #12]
 8002e36:	2203      	movs	r2, #3
 8002e38:	4013      	ands	r3, r2
 8002e3a:	617b      	str	r3, [r7, #20]

    /* When the HSE is used as system clock or clock source for PLL in these cases it is not allowed to be disabled */
    if (((temp_sysclksrc == RCC_SYSCLKSOURCE_STATUS_PLLCLK) && (temp_pllckcfg == RCC_PLLSOURCE_HSE))
 8002e3c:	69bb      	ldr	r3, [r7, #24]
 8002e3e:	2b10      	cmp	r3, #16
 8002e40:	d102      	bne.n	8002e48 <HAL_RCC_OscConfig+0x40>
 8002e42:	697b      	ldr	r3, [r7, #20]
 8002e44:	2b03      	cmp	r3, #3
 8002e46:	d002      	beq.n	8002e4e <HAL_RCC_OscConfig+0x46>
        || (temp_sysclksrc == RCC_SYSCLKSOURCE_STATUS_HSE))
 8002e48:	69bb      	ldr	r3, [r7, #24]
 8002e4a:	2b08      	cmp	r3, #8
 8002e4c:	d10b      	bne.n	8002e66 <HAL_RCC_OscConfig+0x5e>
    {
      if ((READ_BIT(RCC->CR, RCC_CR_HSERDY) != 0U) && (RCC_OscInitStruct->HSEState == RCC_HSE_OFF))
 8002e4e:	4bba      	ldr	r3, [pc, #744]	; (8003138 <HAL_RCC_OscConfig+0x330>)
 8002e50:	681a      	ldr	r2, [r3, #0]
 8002e52:	2380      	movs	r3, #128	; 0x80
 8002e54:	029b      	lsls	r3, r3, #10
 8002e56:	4013      	ands	r3, r2
 8002e58:	d062      	beq.n	8002f20 <HAL_RCC_OscConfig+0x118>
 8002e5a:	687b      	ldr	r3, [r7, #4]
 8002e5c:	685b      	ldr	r3, [r3, #4]
 8002e5e:	2b00      	cmp	r3, #0
 8002e60:	d15e      	bne.n	8002f20 <HAL_RCC_OscConfig+0x118>
      {
        return HAL_ERROR;
 8002e62:	2301      	movs	r3, #1
 8002e64:	e32a      	b.n	80034bc <HAL_RCC_OscConfig+0x6b4>
      }
    }
    else
    {
      /* Set the new HSE configuration ---------------------------------------*/
      __HAL_RCC_HSE_CONFIG(RCC_OscInitStruct->HSEState);
 8002e66:	687b      	ldr	r3, [r7, #4]
 8002e68:	685a      	ldr	r2, [r3, #4]
 8002e6a:	2380      	movs	r3, #128	; 0x80
 8002e6c:	025b      	lsls	r3, r3, #9
 8002e6e:	429a      	cmp	r2, r3
 8002e70:	d107      	bne.n	8002e82 <HAL_RCC_OscConfig+0x7a>
 8002e72:	4bb1      	ldr	r3, [pc, #708]	; (8003138 <HAL_RCC_OscConfig+0x330>)
 8002e74:	681a      	ldr	r2, [r3, #0]
 8002e76:	4bb0      	ldr	r3, [pc, #704]	; (8003138 <HAL_RCC_OscConfig+0x330>)
 8002e78:	2180      	movs	r1, #128	; 0x80
 8002e7a:	0249      	lsls	r1, r1, #9
 8002e7c:	430a      	orrs	r2, r1
 8002e7e:	601a      	str	r2, [r3, #0]
 8002e80:	e020      	b.n	8002ec4 <HAL_RCC_OscConfig+0xbc>
 8002e82:	687b      	ldr	r3, [r7, #4]
 8002e84:	685a      	ldr	r2, [r3, #4]
 8002e86:	23a0      	movs	r3, #160	; 0xa0
 8002e88:	02db      	lsls	r3, r3, #11
 8002e8a:	429a      	cmp	r2, r3
 8002e8c:	d10e      	bne.n	8002eac <HAL_RCC_OscConfig+0xa4>
 8002e8e:	4baa      	ldr	r3, [pc, #680]	; (8003138 <HAL_RCC_OscConfig+0x330>)
 8002e90:	681a      	ldr	r2, [r3, #0]
 8002e92:	4ba9      	ldr	r3, [pc, #676]	; (8003138 <HAL_RCC_OscConfig+0x330>)
 8002e94:	2180      	movs	r1, #128	; 0x80
 8002e96:	02c9      	lsls	r1, r1, #11
 8002e98:	430a      	orrs	r2, r1
 8002e9a:	601a      	str	r2, [r3, #0]
 8002e9c:	4ba6      	ldr	r3, [pc, #664]	; (8003138 <HAL_RCC_OscConfig+0x330>)
 8002e9e:	681a      	ldr	r2, [r3, #0]
 8002ea0:	4ba5      	ldr	r3, [pc, #660]	; (8003138 <HAL_RCC_OscConfig+0x330>)
 8002ea2:	2180      	movs	r1, #128	; 0x80
 8002ea4:	0249      	lsls	r1, r1, #9
 8002ea6:	430a      	orrs	r2, r1
 8002ea8:	601a      	str	r2, [r3, #0]
 8002eaa:	e00b      	b.n	8002ec4 <HAL_RCC_OscConfig+0xbc>
 8002eac:	4ba2      	ldr	r3, [pc, #648]	; (8003138 <HAL_RCC_OscConfig+0x330>)
 8002eae:	681a      	ldr	r2, [r3, #0]
 8002eb0:	4ba1      	ldr	r3, [pc, #644]	; (8003138 <HAL_RCC_OscConfig+0x330>)
 8002eb2:	49a2      	ldr	r1, [pc, #648]	; (800313c <HAL_RCC_OscConfig+0x334>)
 8002eb4:	400a      	ands	r2, r1
 8002eb6:	601a      	str	r2, [r3, #0]
 8002eb8:	4b9f      	ldr	r3, [pc, #636]	; (8003138 <HAL_RCC_OscConfig+0x330>)
 8002eba:	681a      	ldr	r2, [r3, #0]
 8002ebc:	4b9e      	ldr	r3, [pc, #632]	; (8003138 <HAL_RCC_OscConfig+0x330>)
 8002ebe:	49a0      	ldr	r1, [pc, #640]	; (8003140 <HAL_RCC_OscConfig+0x338>)
 8002ec0:	400a      	ands	r2, r1
 8002ec2:	601a      	str	r2, [r3, #0]

      /* Check the HSE State */
      if (RCC_OscInitStruct->HSEState != RCC_HSE_OFF)
 8002ec4:	687b      	ldr	r3, [r7, #4]
 8002ec6:	685b      	ldr	r3, [r3, #4]
 8002ec8:	2b00      	cmp	r3, #0
 8002eca:	d014      	beq.n	8002ef6 <HAL_RCC_OscConfig+0xee>
      {
        /* Get Start Tick*/
        tickstart = HAL_GetTick();
 8002ecc:	f7fe fd70 	bl	80019b0 <HAL_GetTick>
 8002ed0:	0003      	movs	r3, r0
 8002ed2:	613b      	str	r3, [r7, #16]

        /* Wait till HSE is ready */
        while (READ_BIT(RCC->CR, RCC_CR_HSERDY) == 0U)
 8002ed4:	e008      	b.n	8002ee8 <HAL_RCC_OscConfig+0xe0>
        {
          if ((HAL_GetTick() - tickstart) > HSE_TIMEOUT_VALUE)
 8002ed6:	f7fe fd6b 	bl	80019b0 <HAL_GetTick>
 8002eda:	0002      	movs	r2, r0
 8002edc:	693b      	ldr	r3, [r7, #16]
 8002ede:	1ad3      	subs	r3, r2, r3
 8002ee0:	2b64      	cmp	r3, #100	; 0x64
 8002ee2:	d901      	bls.n	8002ee8 <HAL_RCC_OscConfig+0xe0>
          {
            return HAL_TIMEOUT;
 8002ee4:	2303      	movs	r3, #3
 8002ee6:	e2e9      	b.n	80034bc <HAL_RCC_OscConfig+0x6b4>
        while (READ_BIT(RCC->CR, RCC_CR_HSERDY) == 0U)
 8002ee8:	4b93      	ldr	r3, [pc, #588]	; (8003138 <HAL_RCC_OscConfig+0x330>)
 8002eea:	681a      	ldr	r2, [r3, #0]
 8002eec:	2380      	movs	r3, #128	; 0x80
 8002eee:	029b      	lsls	r3, r3, #10
 8002ef0:	4013      	ands	r3, r2
 8002ef2:	d0f0      	beq.n	8002ed6 <HAL_RCC_OscConfig+0xce>
 8002ef4:	e015      	b.n	8002f22 <HAL_RCC_OscConfig+0x11a>
        }
      }
      else
      {
        /* Get Start Tick*/
        tickstart = HAL_GetTick();
 8002ef6:	f7fe fd5b 	bl	80019b0 <HAL_GetTick>
 8002efa:	0003      	movs	r3, r0
 8002efc:	613b      	str	r3, [r7, #16]

        /* Wait till HSE is disabled */
        while (READ_BIT(RCC->CR, RCC_CR_HSERDY) != 0U)
 8002efe:	e008      	b.n	8002f12 <HAL_RCC_OscConfig+0x10a>
        {
          if ((HAL_GetTick() - tickstart) > HSE_TIMEOUT_VALUE)
 8002f00:	f7fe fd56 	bl	80019b0 <HAL_GetTick>
 8002f04:	0002      	movs	r2, r0
 8002f06:	693b      	ldr	r3, [r7, #16]
 8002f08:	1ad3      	subs	r3, r2, r3
 8002f0a:	2b64      	cmp	r3, #100	; 0x64
 8002f0c:	d901      	bls.n	8002f12 <HAL_RCC_OscConfig+0x10a>
          {
            return HAL_TIMEOUT;
 8002f0e:	2303      	movs	r3, #3
 8002f10:	e2d4      	b.n	80034bc <HAL_RCC_OscConfig+0x6b4>
        while (READ_BIT(RCC->CR, RCC_CR_HSERDY) != 0U)
 8002f12:	4b89      	ldr	r3, [pc, #548]	; (8003138 <HAL_RCC_OscConfig+0x330>)
 8002f14:	681a      	ldr	r2, [r3, #0]
 8002f16:	2380      	movs	r3, #128	; 0x80
 8002f18:	029b      	lsls	r3, r3, #10
 8002f1a:	4013      	ands	r3, r2
 8002f1c:	d1f0      	bne.n	8002f00 <HAL_RCC_OscConfig+0xf8>
 8002f1e:	e000      	b.n	8002f22 <HAL_RCC_OscConfig+0x11a>
      if ((READ_BIT(RCC->CR, RCC_CR_HSERDY) != 0U) && (RCC_OscInitStruct->HSEState == RCC_HSE_OFF))
 8002f20:	46c0      	nop			; (mov r8, r8)
        }
      }
    }
  }
  /*----------------------------- HSI Configuration --------------------------*/
  if (((RCC_OscInitStruct->OscillatorType) & RCC_OSCILLATORTYPE_HSI) == RCC_OSCILLATORTYPE_HSI)
 8002f22:	687b      	ldr	r3, [r7, #4]
 8002f24:	681b      	ldr	r3, [r3, #0]
 8002f26:	2202      	movs	r2, #2
 8002f28:	4013      	ands	r3, r2
 8002f2a:	d100      	bne.n	8002f2e <HAL_RCC_OscConfig+0x126>
 8002f2c:	e099      	b.n	8003062 <HAL_RCC_OscConfig+0x25a>
    assert_param(IS_RCC_HSI(RCC_OscInitStruct->HSIState));
    assert_param(IS_RCC_HSI_CALIBRATION_VALUE(RCC_OscInitStruct->HSICalibrationValue));
    assert_param(IS_RCC_HSIDIV(RCC_OscInitStruct->HSIDiv));

    /* Check if HSI16 is used as system clock or as PLL source when PLL is selected as system clock */
    temp_sysclksrc = __HAL_RCC_GET_SYSCLK_SOURCE();
 8002f2e:	4b82      	ldr	r3, [pc, #520]	; (8003138 <HAL_RCC_OscConfig+0x330>)
 8002f30:	689b      	ldr	r3, [r3, #8]
 8002f32:	2238      	movs	r2, #56	; 0x38
 8002f34:	4013      	ands	r3, r2
 8002f36:	61bb      	str	r3, [r7, #24]
    temp_pllckcfg = __HAL_RCC_GET_PLL_OSCSOURCE();
 8002f38:	4b7f      	ldr	r3, [pc, #508]	; (8003138 <HAL_RCC_OscConfig+0x330>)
 8002f3a:	68db      	ldr	r3, [r3, #12]
 8002f3c:	2203      	movs	r2, #3
 8002f3e:	4013      	ands	r3, r2
 8002f40:	617b      	str	r3, [r7, #20]
    if (((temp_sysclksrc == RCC_SYSCLKSOURCE_STATUS_PLLCLK) && (temp_pllckcfg == RCC_PLLSOURCE_HSI))
 8002f42:	69bb      	ldr	r3, [r7, #24]
 8002f44:	2b10      	cmp	r3, #16
 8002f46:	d102      	bne.n	8002f4e <HAL_RCC_OscConfig+0x146>
 8002f48:	697b      	ldr	r3, [r7, #20]
 8002f4a:	2b02      	cmp	r3, #2
 8002f4c:	d002      	beq.n	8002f54 <HAL_RCC_OscConfig+0x14c>
        || (temp_sysclksrc == RCC_SYSCLKSOURCE_STATUS_HSI))
 8002f4e:	69bb      	ldr	r3, [r7, #24]
 8002f50:	2b00      	cmp	r3, #0
 8002f52:	d135      	bne.n	8002fc0 <HAL_RCC_OscConfig+0x1b8>
    {
      /* When HSI is used as system clock or as PLL input clock it can not be disabled */
      if ((READ_BIT(RCC->CR, RCC_CR_HSIRDY) != 0U) && (RCC_OscInitStruct->HSIState == RCC_HSI_OFF))
 8002f54:	4b78      	ldr	r3, [pc, #480]	; (8003138 <HAL_RCC_OscConfig+0x330>)
 8002f56:	681a      	ldr	r2, [r3, #0]
 8002f58:	2380      	movs	r3, #128	; 0x80
 8002f5a:	00db      	lsls	r3, r3, #3
 8002f5c:	4013      	ands	r3, r2
 8002f5e:	d005      	beq.n	8002f6c <HAL_RCC_OscConfig+0x164>
 8002f60:	687b      	ldr	r3, [r7, #4]
 8002f62:	68db      	ldr	r3, [r3, #12]
 8002f64:	2b00      	cmp	r3, #0
 8002f66:	d101      	bne.n	8002f6c <HAL_RCC_OscConfig+0x164>
      {
        return HAL_ERROR;
 8002f68:	2301      	movs	r3, #1
 8002f6a:	e2a7      	b.n	80034bc <HAL_RCC_OscConfig+0x6b4>
      }
      /* Otherwise, just the calibration is allowed */
      else
      {
        /* Adjusts the Internal High Speed oscillator (HSI) calibration value.*/
        __HAL_RCC_HSI_CALIBRATIONVALUE_ADJUST(RCC_OscInitStruct->HSICalibrationValue);
 8002f6c:	4b72      	ldr	r3, [pc, #456]	; (8003138 <HAL_RCC_OscConfig+0x330>)
 8002f6e:	685b      	ldr	r3, [r3, #4]
 8002f70:	4a74      	ldr	r2, [pc, #464]	; (8003144 <HAL_RCC_OscConfig+0x33c>)
 8002f72:	4013      	ands	r3, r2
 8002f74:	0019      	movs	r1, r3
 8002f76:	687b      	ldr	r3, [r7, #4]
 8002f78:	695b      	ldr	r3, [r3, #20]
 8002f7a:	021a      	lsls	r2, r3, #8
 8002f7c:	4b6e      	ldr	r3, [pc, #440]	; (8003138 <HAL_RCC_OscConfig+0x330>)
 8002f7e:	430a      	orrs	r2, r1
 8002f80:	605a      	str	r2, [r3, #4]

        if (temp_sysclksrc == RCC_SYSCLKSOURCE_STATUS_HSI)
 8002f82:	69bb      	ldr	r3, [r7, #24]
 8002f84:	2b00      	cmp	r3, #0
 8002f86:	d112      	bne.n	8002fae <HAL_RCC_OscConfig+0x1a6>
        {
          /* Adjust the HSI16 division factor */
          __HAL_RCC_HSI_CONFIG(RCC_OscInitStruct->HSIDiv);
 8002f88:	4b6b      	ldr	r3, [pc, #428]	; (8003138 <HAL_RCC_OscConfig+0x330>)
 8002f8a:	681b      	ldr	r3, [r3, #0]
 8002f8c:	4a6e      	ldr	r2, [pc, #440]	; (8003148 <HAL_RCC_OscConfig+0x340>)
 8002f8e:	4013      	ands	r3, r2
 8002f90:	0019      	movs	r1, r3
 8002f92:	687b      	ldr	r3, [r7, #4]
 8002f94:	691a      	ldr	r2, [r3, #16]
 8002f96:	4b68      	ldr	r3, [pc, #416]	; (8003138 <HAL_RCC_OscConfig+0x330>)
 8002f98:	430a      	orrs	r2, r1
 8002f9a:	601a      	str	r2, [r3, #0]

          /* Update the SystemCoreClock global variable with HSISYS value  */
          SystemCoreClock = (HSI_VALUE / (1UL << ((READ_BIT(RCC->CR, RCC_CR_HSIDIV)) >> RCC_CR_HSIDIV_Pos)));
 8002f9c:	4b66      	ldr	r3, [pc, #408]	; (8003138 <HAL_RCC_OscConfig+0x330>)
 8002f9e:	681b      	ldr	r3, [r3, #0]
 8002fa0:	0adb      	lsrs	r3, r3, #11
 8002fa2:	2207      	movs	r2, #7
 8002fa4:	4013      	ands	r3, r2
 8002fa6:	4a69      	ldr	r2, [pc, #420]	; (800314c <HAL_RCC_OscConfig+0x344>)
 8002fa8:	40da      	lsrs	r2, r3
 8002faa:	4b69      	ldr	r3, [pc, #420]	; (8003150 <HAL_RCC_OscConfig+0x348>)
 8002fac:	601a      	str	r2, [r3, #0]
        }

        /* Adapt Systick interrupt period */
        if (HAL_InitTick(uwTickPrio) != HAL_OK)
 8002fae:	4b69      	ldr	r3, [pc, #420]	; (8003154 <HAL_RCC_OscConfig+0x34c>)
 8002fb0:	681b      	ldr	r3, [r3, #0]
 8002fb2:	0018      	movs	r0, r3
 8002fb4:	f7fe fca0 	bl	80018f8 <HAL_InitTick>
 8002fb8:	1e03      	subs	r3, r0, #0
 8002fba:	d051      	beq.n	8003060 <HAL_RCC_OscConfig+0x258>
        {
          return HAL_ERROR;
 8002fbc:	2301      	movs	r3, #1
 8002fbe:	e27d      	b.n	80034bc <HAL_RCC_OscConfig+0x6b4>
      }
    }
    else
    {
      /* Check the HSI State */
      if (RCC_OscInitStruct->HSIState != RCC_HSI_OFF)
 8002fc0:	687b      	ldr	r3, [r7, #4]
 8002fc2:	68db      	ldr	r3, [r3, #12]
 8002fc4:	2b00      	cmp	r3, #0
 8002fc6:	d030      	beq.n	800302a <HAL_RCC_OscConfig+0x222>
      {
        /* Configure the HSI16 division factor */
        __HAL_RCC_HSI_CONFIG(RCC_OscInitStruct->HSIDiv);
 8002fc8:	4b5b      	ldr	r3, [pc, #364]	; (8003138 <HAL_RCC_OscConfig+0x330>)
 8002fca:	681b      	ldr	r3, [r3, #0]
 8002fcc:	4a5e      	ldr	r2, [pc, #376]	; (8003148 <HAL_RCC_OscConfig+0x340>)
 8002fce:	4013      	ands	r3, r2
 8002fd0:	0019      	movs	r1, r3
 8002fd2:	687b      	ldr	r3, [r7, #4]
 8002fd4:	691a      	ldr	r2, [r3, #16]
 8002fd6:	4b58      	ldr	r3, [pc, #352]	; (8003138 <HAL_RCC_OscConfig+0x330>)
 8002fd8:	430a      	orrs	r2, r1
 8002fda:	601a      	str	r2, [r3, #0]

        /* Enable the Internal High Speed oscillator (HSI16). */
        __HAL_RCC_HSI_ENABLE();
 8002fdc:	4b56      	ldr	r3, [pc, #344]	; (8003138 <HAL_RCC_OscConfig+0x330>)
 8002fde:	681a      	ldr	r2, [r3, #0]
 8002fe0:	4b55      	ldr	r3, [pc, #340]	; (8003138 <HAL_RCC_OscConfig+0x330>)
 8002fe2:	2180      	movs	r1, #128	; 0x80
 8002fe4:	0049      	lsls	r1, r1, #1
 8002fe6:	430a      	orrs	r2, r1
 8002fe8:	601a      	str	r2, [r3, #0]

        /* Get Start Tick*/
        tickstart = HAL_GetTick();
 8002fea:	f7fe fce1 	bl	80019b0 <HAL_GetTick>
 8002fee:	0003      	movs	r3, r0
 8002ff0:	613b      	str	r3, [r7, #16]

        /* Wait till HSI is ready */
        while (READ_BIT(RCC->CR, RCC_CR_HSIRDY) == 0U)
 8002ff2:	e008      	b.n	8003006 <HAL_RCC_OscConfig+0x1fe>
        {
          if ((HAL_GetTick() - tickstart) > HSI_TIMEOUT_VALUE)
 8002ff4:	f7fe fcdc 	bl	80019b0 <HAL_GetTick>
 8002ff8:	0002      	movs	r2, r0
 8002ffa:	693b      	ldr	r3, [r7, #16]
 8002ffc:	1ad3      	subs	r3, r2, r3
 8002ffe:	2b02      	cmp	r3, #2
 8003000:	d901      	bls.n	8003006 <HAL_RCC_OscConfig+0x1fe>
          {
            return HAL_TIMEOUT;
 8003002:	2303      	movs	r3, #3
 8003004:	e25a      	b.n	80034bc <HAL_RCC_OscConfig+0x6b4>
        while (READ_BIT(RCC->CR, RCC_CR_HSIRDY) == 0U)
 8003006:	4b4c      	ldr	r3, [pc, #304]	; (8003138 <HAL_RCC_OscConfig+0x330>)
 8003008:	681a      	ldr	r2, [r3, #0]
 800300a:	2380      	movs	r3, #128	; 0x80
 800300c:	00db      	lsls	r3, r3, #3
 800300e:	4013      	ands	r3, r2
 8003010:	d0f0      	beq.n	8002ff4 <HAL_RCC_OscConfig+0x1ec>
          }
        }

        /* Adjusts the Internal High Speed oscillator (HSI) calibration value.*/
        __HAL_RCC_HSI_CALIBRATIONVALUE_ADJUST(RCC_OscInitStruct->HSICalibrationValue);
 8003012:	4b49      	ldr	r3, [pc, #292]	; (8003138 <HAL_RCC_OscConfig+0x330>)
 8003014:	685b      	ldr	r3, [r3, #4]
 8003016:	4a4b      	ldr	r2, [pc, #300]	; (8003144 <HAL_RCC_OscConfig+0x33c>)
 8003018:	4013      	ands	r3, r2
 800301a:	0019      	movs	r1, r3
 800301c:	687b      	ldr	r3, [r7, #4]
 800301e:	695b      	ldr	r3, [r3, #20]
 8003020:	021a      	lsls	r2, r3, #8
 8003022:	4b45      	ldr	r3, [pc, #276]	; (8003138 <HAL_RCC_OscConfig+0x330>)
 8003024:	430a      	orrs	r2, r1
 8003026:	605a      	str	r2, [r3, #4]
 8003028:	e01b      	b.n	8003062 <HAL_RCC_OscConfig+0x25a>
      }
      else
      {
        /* Disable the Internal High Speed oscillator (HSI16). */
        __HAL_RCC_HSI_DISABLE();
 800302a:	4b43      	ldr	r3, [pc, #268]	; (8003138 <HAL_RCC_OscConfig+0x330>)
 800302c:	681a      	ldr	r2, [r3, #0]
 800302e:	4b42      	ldr	r3, [pc, #264]	; (8003138 <HAL_RCC_OscConfig+0x330>)
 8003030:	4949      	ldr	r1, [pc, #292]	; (8003158 <HAL_RCC_OscConfig+0x350>)
 8003032:	400a      	ands	r2, r1
 8003034:	601a      	str	r2, [r3, #0]

        /* Get Start Tick*/
        tickstart = HAL_GetTick();
 8003036:	f7fe fcbb 	bl	80019b0 <HAL_GetTick>
 800303a:	0003      	movs	r3, r0
 800303c:	613b      	str	r3, [r7, #16]

        /* Wait till HSI is disabled */
        while (READ_BIT(RCC->CR, RCC_CR_HSIRDY) != 0U)
 800303e:	e008      	b.n	8003052 <HAL_RCC_OscConfig+0x24a>
        {
          if ((HAL_GetTick() - tickstart) > HSI_TIMEOUT_VALUE)
 8003040:	f7fe fcb6 	bl	80019b0 <HAL_GetTick>
 8003044:	0002      	movs	r2, r0
 8003046:	693b      	ldr	r3, [r7, #16]
 8003048:	1ad3      	subs	r3, r2, r3
 800304a:	2b02      	cmp	r3, #2
 800304c:	d901      	bls.n	8003052 <HAL_RCC_OscConfig+0x24a>
          {
            return HAL_TIMEOUT;
 800304e:	2303      	movs	r3, #3
 8003050:	e234      	b.n	80034bc <HAL_RCC_OscConfig+0x6b4>
        while (READ_BIT(RCC->CR, RCC_CR_HSIRDY) != 0U)
 8003052:	4b39      	ldr	r3, [pc, #228]	; (8003138 <HAL_RCC_OscConfig+0x330>)
 8003054:	681a      	ldr	r2, [r3, #0]
 8003056:	2380      	movs	r3, #128	; 0x80
 8003058:	00db      	lsls	r3, r3, #3
 800305a:	4013      	ands	r3, r2
 800305c:	d1f0      	bne.n	8003040 <HAL_RCC_OscConfig+0x238>
 800305e:	e000      	b.n	8003062 <HAL_RCC_OscConfig+0x25a>
      if ((READ_BIT(RCC->CR, RCC_CR_HSIRDY) != 0U) && (RCC_OscInitStruct->HSIState == RCC_HSI_OFF))
 8003060:	46c0      	nop			; (mov r8, r8)
        }
      }
    }
  }
  /*------------------------------ LSI Configuration -------------------------*/
  if (((RCC_OscInitStruct->OscillatorType) & RCC_OSCILLATORTYPE_LSI) == RCC_OSCILLATORTYPE_LSI)
 8003062:	687b      	ldr	r3, [r7, #4]
 8003064:	681b      	ldr	r3, [r3, #0]
 8003066:	2208      	movs	r2, #8
 8003068:	4013      	ands	r3, r2
 800306a:	d047      	beq.n	80030fc <HAL_RCC_OscConfig+0x2f4>
  {
    /* Check the parameters */
    assert_param(IS_RCC_LSI(RCC_OscInitStruct->LSIState));

    /* Check if LSI is used as system clock */
    if (__HAL_RCC_GET_SYSCLK_SOURCE() == RCC_SYSCLKSOURCE_STATUS_LSI)
 800306c:	4b32      	ldr	r3, [pc, #200]	; (8003138 <HAL_RCC_OscConfig+0x330>)
 800306e:	689b      	ldr	r3, [r3, #8]
 8003070:	2238      	movs	r2, #56	; 0x38
 8003072:	4013      	ands	r3, r2
 8003074:	2b18      	cmp	r3, #24
 8003076:	d10a      	bne.n	800308e <HAL_RCC_OscConfig+0x286>
    {
      /* When LSI is used as system clock it will not be disabled */
      if ((((RCC->CSR) & RCC_CSR_LSIRDY) != 0U) && (RCC_OscInitStruct->LSIState == RCC_LSI_OFF))
 8003078:	4b2f      	ldr	r3, [pc, #188]	; (8003138 <HAL_RCC_OscConfig+0x330>)
 800307a:	6e1b      	ldr	r3, [r3, #96]	; 0x60
 800307c:	2202      	movs	r2, #2
 800307e:	4013      	ands	r3, r2
 8003080:	d03c      	beq.n	80030fc <HAL_RCC_OscConfig+0x2f4>
 8003082:	687b      	ldr	r3, [r7, #4]
 8003084:	699b      	ldr	r3, [r3, #24]
 8003086:	2b00      	cmp	r3, #0
 8003088:	d138      	bne.n	80030fc <HAL_RCC_OscConfig+0x2f4>
      {
        return HAL_ERROR;
 800308a:	2301      	movs	r3, #1
 800308c:	e216      	b.n	80034bc <HAL_RCC_OscConfig+0x6b4>
      }
    }
    else
    {
      /* Check the LSI State */
      if (RCC_OscInitStruct->LSIState != RCC_LSI_OFF)
 800308e:	687b      	ldr	r3, [r7, #4]
 8003090:	699b      	ldr	r3, [r3, #24]
 8003092:	2b00      	cmp	r3, #0
 8003094:	d019      	beq.n	80030ca <HAL_RCC_OscConfig+0x2c2>
      {
        /* Enable the Internal Low Speed oscillator (LSI). */
        __HAL_RCC_LSI_ENABLE();
 8003096:	4b28      	ldr	r3, [pc, #160]	; (8003138 <HAL_RCC_OscConfig+0x330>)
 8003098:	6e1a      	ldr	r2, [r3, #96]	; 0x60
 800309a:	4b27      	ldr	r3, [pc, #156]	; (8003138 <HAL_RCC_OscConfig+0x330>)
 800309c:	2101      	movs	r1, #1
 800309e:	430a      	orrs	r2, r1
 80030a0:	661a      	str	r2, [r3, #96]	; 0x60

        /* Get Start Tick*/
        tickstart = HAL_GetTick();
 80030a2:	f7fe fc85 	bl	80019b0 <HAL_GetTick>
 80030a6:	0003      	movs	r3, r0
 80030a8:	613b      	str	r3, [r7, #16]

        /* Wait till LSI is ready */
        while (READ_BIT(RCC->CSR, RCC_CSR_LSIRDY) == 0U)
 80030aa:	e008      	b.n	80030be <HAL_RCC_OscConfig+0x2b6>
        {
          if ((HAL_GetTick() - tickstart) > LSI_TIMEOUT_VALUE)
 80030ac:	f7fe fc80 	bl	80019b0 <HAL_GetTick>
 80030b0:	0002      	movs	r2, r0
 80030b2:	693b      	ldr	r3, [r7, #16]
 80030b4:	1ad3      	subs	r3, r2, r3
 80030b6:	2b02      	cmp	r3, #2
 80030b8:	d901      	bls.n	80030be <HAL_RCC_OscConfig+0x2b6>
          {
            return HAL_TIMEOUT;
 80030ba:	2303      	movs	r3, #3
 80030bc:	e1fe      	b.n	80034bc <HAL_RCC_OscConfig+0x6b4>
        while (READ_BIT(RCC->CSR, RCC_CSR_LSIRDY) == 0U)
 80030be:	4b1e      	ldr	r3, [pc, #120]	; (8003138 <HAL_RCC_OscConfig+0x330>)
 80030c0:	6e1b      	ldr	r3, [r3, #96]	; 0x60
 80030c2:	2202      	movs	r2, #2
 80030c4:	4013      	ands	r3, r2
 80030c6:	d0f1      	beq.n	80030ac <HAL_RCC_OscConfig+0x2a4>
 80030c8:	e018      	b.n	80030fc <HAL_RCC_OscConfig+0x2f4>
        }
      }
      else
      {
        /* Disable the Internal Low Speed oscillator (LSI). */
        __HAL_RCC_LSI_DISABLE();
 80030ca:	4b1b      	ldr	r3, [pc, #108]	; (8003138 <HAL_RCC_OscConfig+0x330>)
 80030cc:	6e1a      	ldr	r2, [r3, #96]	; 0x60
 80030ce:	4b1a      	ldr	r3, [pc, #104]	; (8003138 <HAL_RCC_OscConfig+0x330>)
 80030d0:	2101      	movs	r1, #1
 80030d2:	438a      	bics	r2, r1
 80030d4:	661a      	str	r2, [r3, #96]	; 0x60

        /* Get Start Tick*/
        tickstart = HAL_GetTick();
 80030d6:	f7fe fc6b 	bl	80019b0 <HAL_GetTick>
 80030da:	0003      	movs	r3, r0
 80030dc:	613b      	str	r3, [r7, #16]

        /* Wait till LSI is disabled */
        while (READ_BIT(RCC->CSR, RCC_CSR_LSIRDY) != 0U)
 80030de:	e008      	b.n	80030f2 <HAL_RCC_OscConfig+0x2ea>
        {
          if ((HAL_GetTick() - tickstart) > LSI_TIMEOUT_VALUE)
 80030e0:	f7fe fc66 	bl	80019b0 <HAL_GetTick>
 80030e4:	0002      	movs	r2, r0
 80030e6:	693b      	ldr	r3, [r7, #16]
 80030e8:	1ad3      	subs	r3, r2, r3
 80030ea:	2b02      	cmp	r3, #2
 80030ec:	d901      	bls.n	80030f2 <HAL_RCC_OscConfig+0x2ea>
          {
            return HAL_TIMEOUT;
 80030ee:	2303      	movs	r3, #3
 80030f0:	e1e4      	b.n	80034bc <HAL_RCC_OscConfig+0x6b4>
        while (READ_BIT(RCC->CSR, RCC_CSR_LSIRDY) != 0U)
 80030f2:	4b11      	ldr	r3, [pc, #68]	; (8003138 <HAL_RCC_OscConfig+0x330>)
 80030f4:	6e1b      	ldr	r3, [r3, #96]	; 0x60
 80030f6:	2202      	movs	r2, #2
 80030f8:	4013      	ands	r3, r2
 80030fa:	d1f1      	bne.n	80030e0 <HAL_RCC_OscConfig+0x2d8>
        }
      }
    }
  }
  /*------------------------------ LSE Configuration -------------------------*/
  if (((RCC_OscInitStruct->OscillatorType) & RCC_OSCILLATORTYPE_LSE) == RCC_OSCILLATORTYPE_LSE)
 80030fc:	687b      	ldr	r3, [r7, #4]
 80030fe:	681b      	ldr	r3, [r3, #0]
 8003100:	2204      	movs	r2, #4
 8003102:	4013      	ands	r3, r2
 8003104:	d100      	bne.n	8003108 <HAL_RCC_OscConfig+0x300>
 8003106:	e0c7      	b.n	8003298 <HAL_RCC_OscConfig+0x490>
  {
    FlagStatus       pwrclkchanged = RESET;
 8003108:	231f      	movs	r3, #31
 800310a:	18fb      	adds	r3, r7, r3
 800310c:	2200      	movs	r2, #0
 800310e:	701a      	strb	r2, [r3, #0]

    /* Check the parameters */
    assert_param(IS_RCC_LSE(RCC_OscInitStruct->LSEState));

    /* When the LSE is used as system clock, it is not allowed disable it */
    if (__HAL_RCC_GET_SYSCLK_SOURCE() == RCC_SYSCLKSOURCE_STATUS_LSE)
 8003110:	4b09      	ldr	r3, [pc, #36]	; (8003138 <HAL_RCC_OscConfig+0x330>)
 8003112:	689b      	ldr	r3, [r3, #8]
 8003114:	2238      	movs	r2, #56	; 0x38
 8003116:	4013      	ands	r3, r2
 8003118:	2b20      	cmp	r3, #32
 800311a:	d11f      	bne.n	800315c <HAL_RCC_OscConfig+0x354>
    {
      if ((((RCC->BDCR) & RCC_BDCR_LSERDY) != 0U) && (RCC_OscInitStruct->LSEState == RCC_LSE_OFF))
 800311c:	4b06      	ldr	r3, [pc, #24]	; (8003138 <HAL_RCC_OscConfig+0x330>)
 800311e:	6ddb      	ldr	r3, [r3, #92]	; 0x5c
 8003120:	2202      	movs	r2, #2
 8003122:	4013      	ands	r3, r2
 8003124:	d100      	bne.n	8003128 <HAL_RCC_OscConfig+0x320>
 8003126:	e0b7      	b.n	8003298 <HAL_RCC_OscConfig+0x490>
 8003128:	687b      	ldr	r3, [r7, #4]
 800312a:	689b      	ldr	r3, [r3, #8]
 800312c:	2b00      	cmp	r3, #0
 800312e:	d000      	beq.n	8003132 <HAL_RCC_OscConfig+0x32a>
 8003130:	e0b2      	b.n	8003298 <HAL_RCC_OscConfig+0x490>
      {
        return HAL_ERROR;
 8003132:	2301      	movs	r3, #1
 8003134:	e1c2      	b.n	80034bc <HAL_RCC_OscConfig+0x6b4>
 8003136:	46c0      	nop			; (mov r8, r8)
 8003138:	40021000 	.word	0x40021000
 800313c:	fffeffff 	.word	0xfffeffff
 8003140:	fffbffff 	.word	0xfffbffff
 8003144:	ffff80ff 	.word	0xffff80ff
 8003148:	ffffc7ff 	.word	0xffffc7ff
 800314c:	00f42400 	.word	0x00f42400
 8003150:	20000000 	.word	0x20000000
 8003154:	20000004 	.word	0x20000004
 8003158:	fffffeff 	.word	0xfffffeff
    }
    else
    {
      /* Update LSE configuration in Backup Domain control register    */
      /* Requires to enable write access to Backup Domain of necessary */
      if (__HAL_RCC_PWR_IS_CLK_DISABLED() != 0U)
 800315c:	4bb5      	ldr	r3, [pc, #724]	; (8003434 <HAL_RCC_OscConfig+0x62c>)
 800315e:	6bda      	ldr	r2, [r3, #60]	; 0x3c
 8003160:	2380      	movs	r3, #128	; 0x80
 8003162:	055b      	lsls	r3, r3, #21
 8003164:	4013      	ands	r3, r2
 8003166:	d101      	bne.n	800316c <HAL_RCC_OscConfig+0x364>
 8003168:	2301      	movs	r3, #1
 800316a:	e000      	b.n	800316e <HAL_RCC_OscConfig+0x366>
 800316c:	2300      	movs	r3, #0
 800316e:	2b00      	cmp	r3, #0
 8003170:	d011      	beq.n	8003196 <HAL_RCC_OscConfig+0x38e>
      {
        __HAL_RCC_PWR_CLK_ENABLE();
 8003172:	4bb0      	ldr	r3, [pc, #704]	; (8003434 <HAL_RCC_OscConfig+0x62c>)
 8003174:	6bda      	ldr	r2, [r3, #60]	; 0x3c
 8003176:	4baf      	ldr	r3, [pc, #700]	; (8003434 <HAL_RCC_OscConfig+0x62c>)
 8003178:	2180      	movs	r1, #128	; 0x80
 800317a:	0549      	lsls	r1, r1, #21
 800317c:	430a      	orrs	r2, r1
 800317e:	63da      	str	r2, [r3, #60]	; 0x3c
 8003180:	4bac      	ldr	r3, [pc, #688]	; (8003434 <HAL_RCC_OscConfig+0x62c>)
 8003182:	6bda      	ldr	r2, [r3, #60]	; 0x3c
 8003184:	2380      	movs	r3, #128	; 0x80
 8003186:	055b      	lsls	r3, r3, #21
 8003188:	4013      	ands	r3, r2
 800318a:	60fb      	str	r3, [r7, #12]
 800318c:	68fb      	ldr	r3, [r7, #12]
        pwrclkchanged = SET;
 800318e:	231f      	movs	r3, #31
 8003190:	18fb      	adds	r3, r7, r3
 8003192:	2201      	movs	r2, #1
 8003194:	701a      	strb	r2, [r3, #0]
      }

      if (HAL_IS_BIT_CLR(PWR->CR1, PWR_CR1_DBP))
 8003196:	4ba8      	ldr	r3, [pc, #672]	; (8003438 <HAL_RCC_OscConfig+0x630>)
 8003198:	681a      	ldr	r2, [r3, #0]
 800319a:	2380      	movs	r3, #128	; 0x80
 800319c:	005b      	lsls	r3, r3, #1
 800319e:	4013      	ands	r3, r2
 80031a0:	d11a      	bne.n	80031d8 <HAL_RCC_OscConfig+0x3d0>
      {
        /* Enable write access to Backup domain */
        SET_BIT(PWR->CR1, PWR_CR1_DBP);
 80031a2:	4ba5      	ldr	r3, [pc, #660]	; (8003438 <HAL_RCC_OscConfig+0x630>)
 80031a4:	681a      	ldr	r2, [r3, #0]
 80031a6:	4ba4      	ldr	r3, [pc, #656]	; (8003438 <HAL_RCC_OscConfig+0x630>)
 80031a8:	2180      	movs	r1, #128	; 0x80
 80031aa:	0049      	lsls	r1, r1, #1
 80031ac:	430a      	orrs	r2, r1
 80031ae:	601a      	str	r2, [r3, #0]

        /* Wait for Backup domain Write protection disable */
        tickstart = HAL_GetTick();
 80031b0:	f7fe fbfe 	bl	80019b0 <HAL_GetTick>
 80031b4:	0003      	movs	r3, r0
 80031b6:	613b      	str	r3, [r7, #16]

        while (HAL_IS_BIT_CLR(PWR->CR1, PWR_CR1_DBP))
 80031b8:	e008      	b.n	80031cc <HAL_RCC_OscConfig+0x3c4>
        {
          if ((HAL_GetTick() - tickstart) > RCC_DBP_TIMEOUT_VALUE)
 80031ba:	f7fe fbf9 	bl	80019b0 <HAL_GetTick>
 80031be:	0002      	movs	r2, r0
 80031c0:	693b      	ldr	r3, [r7, #16]
 80031c2:	1ad3      	subs	r3, r2, r3
 80031c4:	2b02      	cmp	r3, #2
 80031c6:	d901      	bls.n	80031cc <HAL_RCC_OscConfig+0x3c4>
          {
            return HAL_TIMEOUT;
 80031c8:	2303      	movs	r3, #3
 80031ca:	e177      	b.n	80034bc <HAL_RCC_OscConfig+0x6b4>
        while (HAL_IS_BIT_CLR(PWR->CR1, PWR_CR1_DBP))
 80031cc:	4b9a      	ldr	r3, [pc, #616]	; (8003438 <HAL_RCC_OscConfig+0x630>)
 80031ce:	681a      	ldr	r2, [r3, #0]
 80031d0:	2380      	movs	r3, #128	; 0x80
 80031d2:	005b      	lsls	r3, r3, #1
 80031d4:	4013      	ands	r3, r2
 80031d6:	d0f0      	beq.n	80031ba <HAL_RCC_OscConfig+0x3b2>
          }
        }
      }

      /* Set the new LSE configuration -----------------------------------------*/
      __HAL_RCC_LSE_CONFIG(RCC_OscInitStruct->LSEState);
 80031d8:	687b      	ldr	r3, [r7, #4]
 80031da:	689b      	ldr	r3, [r3, #8]
 80031dc:	2b01      	cmp	r3, #1
 80031de:	d106      	bne.n	80031ee <HAL_RCC_OscConfig+0x3e6>
 80031e0:	4b94      	ldr	r3, [pc, #592]	; (8003434 <HAL_RCC_OscConfig+0x62c>)
 80031e2:	6dda      	ldr	r2, [r3, #92]	; 0x5c
 80031e4:	4b93      	ldr	r3, [pc, #588]	; (8003434 <HAL_RCC_OscConfig+0x62c>)
 80031e6:	2101      	movs	r1, #1
 80031e8:	430a      	orrs	r2, r1
 80031ea:	65da      	str	r2, [r3, #92]	; 0x5c
 80031ec:	e01c      	b.n	8003228 <HAL_RCC_OscConfig+0x420>
 80031ee:	687b      	ldr	r3, [r7, #4]
 80031f0:	689b      	ldr	r3, [r3, #8]
 80031f2:	2b05      	cmp	r3, #5
 80031f4:	d10c      	bne.n	8003210 <HAL_RCC_OscConfig+0x408>
 80031f6:	4b8f      	ldr	r3, [pc, #572]	; (8003434 <HAL_RCC_OscConfig+0x62c>)
 80031f8:	6dda      	ldr	r2, [r3, #92]	; 0x5c
 80031fa:	4b8e      	ldr	r3, [pc, #568]	; (8003434 <HAL_RCC_OscConfig+0x62c>)
 80031fc:	2104      	movs	r1, #4
 80031fe:	430a      	orrs	r2, r1
 8003200:	65da      	str	r2, [r3, #92]	; 0x5c
 8003202:	4b8c      	ldr	r3, [pc, #560]	; (8003434 <HAL_RCC_OscConfig+0x62c>)
 8003204:	6dda      	ldr	r2, [r3, #92]	; 0x5c
 8003206:	4b8b      	ldr	r3, [pc, #556]	; (8003434 <HAL_RCC_OscConfig+0x62c>)
 8003208:	2101      	movs	r1, #1
 800320a:	430a      	orrs	r2, r1
 800320c:	65da      	str	r2, [r3, #92]	; 0x5c
 800320e:	e00b      	b.n	8003228 <HAL_RCC_OscConfig+0x420>
 8003210:	4b88      	ldr	r3, [pc, #544]	; (8003434 <HAL_RCC_OscConfig+0x62c>)
 8003212:	6dda      	ldr	r2, [r3, #92]	; 0x5c
 8003214:	4b87      	ldr	r3, [pc, #540]	; (8003434 <HAL_RCC_OscConfig+0x62c>)
 8003216:	2101      	movs	r1, #1
 8003218:	438a      	bics	r2, r1
 800321a:	65da      	str	r2, [r3, #92]	; 0x5c
 800321c:	4b85      	ldr	r3, [pc, #532]	; (8003434 <HAL_RCC_OscConfig+0x62c>)
 800321e:	6dda      	ldr	r2, [r3, #92]	; 0x5c
 8003220:	4b84      	ldr	r3, [pc, #528]	; (8003434 <HAL_RCC_OscConfig+0x62c>)
 8003222:	2104      	movs	r1, #4
 8003224:	438a      	bics	r2, r1
 8003226:	65da      	str	r2, [r3, #92]	; 0x5c

      /* Check the LSE State */
      if (RCC_OscInitStruct->LSEState != RCC_LSE_OFF)
 8003228:	687b      	ldr	r3, [r7, #4]
 800322a:	689b      	ldr	r3, [r3, #8]
 800322c:	2b00      	cmp	r3, #0
 800322e:	d014      	beq.n	800325a <HAL_RCC_OscConfig+0x452>
      {
        /* Get Start Tick*/
        tickstart = HAL_GetTick();
 8003230:	f7fe fbbe 	bl	80019b0 <HAL_GetTick>
 8003234:	0003      	movs	r3, r0
 8003236:	613b      	str	r3, [r7, #16]

        /* Wait till LSE is ready */
        while (READ_BIT(RCC->BDCR, RCC_BDCR_LSERDY) == 0U)
 8003238:	e009      	b.n	800324e <HAL_RCC_OscConfig+0x446>
        {
          if ((HAL_GetTick() - tickstart) > RCC_LSE_TIMEOUT_VALUE)
 800323a:	f7fe fbb9 	bl	80019b0 <HAL_GetTick>
 800323e:	0002      	movs	r2, r0
 8003240:	693b      	ldr	r3, [r7, #16]
 8003242:	1ad3      	subs	r3, r2, r3
 8003244:	4a7d      	ldr	r2, [pc, #500]	; (800343c <HAL_RCC_OscConfig+0x634>)
 8003246:	4293      	cmp	r3, r2
 8003248:	d901      	bls.n	800324e <HAL_RCC_OscConfig+0x446>
          {
            return HAL_TIMEOUT;
 800324a:	2303      	movs	r3, #3
 800324c:	e136      	b.n	80034bc <HAL_RCC_OscConfig+0x6b4>
        while (READ_BIT(RCC->BDCR, RCC_BDCR_LSERDY) == 0U)
 800324e:	4b79      	ldr	r3, [pc, #484]	; (8003434 <HAL_RCC_OscConfig+0x62c>)
 8003250:	6ddb      	ldr	r3, [r3, #92]	; 0x5c
 8003252:	2202      	movs	r2, #2
 8003254:	4013      	ands	r3, r2
 8003256:	d0f0      	beq.n	800323a <HAL_RCC_OscConfig+0x432>
 8003258:	e013      	b.n	8003282 <HAL_RCC_OscConfig+0x47a>
        }
      }
      else
      {
        /* Get Start Tick*/
        tickstart = HAL_GetTick();
 800325a:	f7fe fba9 	bl	80019b0 <HAL_GetTick>
 800325e:	0003      	movs	r3, r0
 8003260:	613b      	str	r3, [r7, #16]

        /* Wait till LSE is disabled */
        while (READ_BIT(RCC->BDCR, RCC_BDCR_LSERDY) != 0U)
 8003262:	e009      	b.n	8003278 <HAL_RCC_OscConfig+0x470>
        {
          if ((HAL_GetTick() - tickstart) > RCC_LSE_TIMEOUT_VALUE)
 8003264:	f7fe fba4 	bl	80019b0 <HAL_GetTick>
 8003268:	0002      	movs	r2, r0
 800326a:	693b      	ldr	r3, [r7, #16]
 800326c:	1ad3      	subs	r3, r2, r3
 800326e:	4a73      	ldr	r2, [pc, #460]	; (800343c <HAL_RCC_OscConfig+0x634>)
 8003270:	4293      	cmp	r3, r2
 8003272:	d901      	bls.n	8003278 <HAL_RCC_OscConfig+0x470>
          {
            return HAL_TIMEOUT;
 8003274:	2303      	movs	r3, #3
 8003276:	e121      	b.n	80034bc <HAL_RCC_OscConfig+0x6b4>
        while (READ_BIT(RCC->BDCR, RCC_BDCR_LSERDY) != 0U)
 8003278:	4b6e      	ldr	r3, [pc, #440]	; (8003434 <HAL_RCC_OscConfig+0x62c>)
 800327a:	6ddb      	ldr	r3, [r3, #92]	; 0x5c
 800327c:	2202      	movs	r2, #2
 800327e:	4013      	ands	r3, r2
 8003280:	d1f0      	bne.n	8003264 <HAL_RCC_OscConfig+0x45c>
          }
        }
      }

      /* Restore clock configuration if changed */
      if (pwrclkchanged == SET)
 8003282:	231f      	movs	r3, #31
 8003284:	18fb      	adds	r3, r7, r3
 8003286:	781b      	ldrb	r3, [r3, #0]
 8003288:	2b01      	cmp	r3, #1
 800328a:	d105      	bne.n	8003298 <HAL_RCC_OscConfig+0x490>
      {
        __HAL_RCC_PWR_CLK_DISABLE();
 800328c:	4b69      	ldr	r3, [pc, #420]	; (8003434 <HAL_RCC_OscConfig+0x62c>)
 800328e:	6bda      	ldr	r2, [r3, #60]	; 0x3c
 8003290:	4b68      	ldr	r3, [pc, #416]	; (8003434 <HAL_RCC_OscConfig+0x62c>)
 8003292:	496b      	ldr	r1, [pc, #428]	; (8003440 <HAL_RCC_OscConfig+0x638>)
 8003294:	400a      	ands	r2, r1
 8003296:	63da      	str	r2, [r3, #60]	; 0x3c
      }
    }
  }
#if defined(RCC_HSI48_SUPPORT)
  /*------------------------------ HSI48 Configuration -----------------------*/
  if (((RCC_OscInitStruct->OscillatorType) & RCC_OSCILLATORTYPE_HSI48) == RCC_OSCILLATORTYPE_HSI48)
 8003298:	687b      	ldr	r3, [r7, #4]
 800329a:	681b      	ldr	r3, [r3, #0]
 800329c:	2220      	movs	r2, #32
 800329e:	4013      	ands	r3, r2
 80032a0:	d039      	beq.n	8003316 <HAL_RCC_OscConfig+0x50e>
  {
    /* Check the parameters */
    assert_param(IS_RCC_HSI48(RCC_OscInitStruct->HSI48State));

    /* Check the LSI State */
    if (RCC_OscInitStruct->HSI48State != RCC_HSI48_OFF)
 80032a2:	687b      	ldr	r3, [r7, #4]
 80032a4:	69db      	ldr	r3, [r3, #28]
 80032a6:	2b00      	cmp	r3, #0
 80032a8:	d01b      	beq.n	80032e2 <HAL_RCC_OscConfig+0x4da>
    {
      /* Enable the Internal Low Speed oscillator (HSI48). */
      __HAL_RCC_HSI48_ENABLE();
 80032aa:	4b62      	ldr	r3, [pc, #392]	; (8003434 <HAL_RCC_OscConfig+0x62c>)
 80032ac:	681a      	ldr	r2, [r3, #0]
 80032ae:	4b61      	ldr	r3, [pc, #388]	; (8003434 <HAL_RCC_OscConfig+0x62c>)
 80032b0:	2180      	movs	r1, #128	; 0x80
 80032b2:	03c9      	lsls	r1, r1, #15
 80032b4:	430a      	orrs	r2, r1
 80032b6:	601a      	str	r2, [r3, #0]

      /* Get Start Tick*/
      tickstart = HAL_GetTick();
 80032b8:	f7fe fb7a 	bl	80019b0 <HAL_GetTick>
 80032bc:	0003      	movs	r3, r0
 80032be:	613b      	str	r3, [r7, #16]

      /* Wait till HSI48 is ready */
      while (READ_BIT(RCC->CR, RCC_CR_HSI48RDY) == 0U)
 80032c0:	e008      	b.n	80032d4 <HAL_RCC_OscConfig+0x4cc>
      {
        if ((HAL_GetTick() - tickstart) > HSI48_TIMEOUT_VALUE)
 80032c2:	f7fe fb75 	bl	80019b0 <HAL_GetTick>
 80032c6:	0002      	movs	r2, r0
 80032c8:	693b      	ldr	r3, [r7, #16]
 80032ca:	1ad3      	subs	r3, r2, r3
 80032cc:	2b02      	cmp	r3, #2
 80032ce:	d901      	bls.n	80032d4 <HAL_RCC_OscConfig+0x4cc>
        {
          return HAL_TIMEOUT;
 80032d0:	2303      	movs	r3, #3
 80032d2:	e0f3      	b.n	80034bc <HAL_RCC_OscConfig+0x6b4>
      while (READ_BIT(RCC->CR, RCC_CR_HSI48RDY) == 0U)
 80032d4:	4b57      	ldr	r3, [pc, #348]	; (8003434 <HAL_RCC_OscConfig+0x62c>)
 80032d6:	681a      	ldr	r2, [r3, #0]
 80032d8:	2380      	movs	r3, #128	; 0x80
 80032da:	041b      	lsls	r3, r3, #16
 80032dc:	4013      	ands	r3, r2
 80032de:	d0f0      	beq.n	80032c2 <HAL_RCC_OscConfig+0x4ba>
 80032e0:	e019      	b.n	8003316 <HAL_RCC_OscConfig+0x50e>
      }
    }
    else
    {
      /* Disable the Internal Low Speed oscillator (HSI48). */
      __HAL_RCC_HSI48_DISABLE();
 80032e2:	4b54      	ldr	r3, [pc, #336]	; (8003434 <HAL_RCC_OscConfig+0x62c>)
 80032e4:	681a      	ldr	r2, [r3, #0]
 80032e6:	4b53      	ldr	r3, [pc, #332]	; (8003434 <HAL_RCC_OscConfig+0x62c>)
 80032e8:	4956      	ldr	r1, [pc, #344]	; (8003444 <HAL_RCC_OscConfig+0x63c>)
 80032ea:	400a      	ands	r2, r1
 80032ec:	601a      	str	r2, [r3, #0]

      /* Get Start Tick*/
      tickstart = HAL_GetTick();
 80032ee:	f7fe fb5f 	bl	80019b0 <HAL_GetTick>
 80032f2:	0003      	movs	r3, r0
 80032f4:	613b      	str	r3, [r7, #16]

      /* Wait till HSI48 is disabled */
      while (READ_BIT(RCC->CR, RCC_CR_HSI48RDY) != 0U)
 80032f6:	e008      	b.n	800330a <HAL_RCC_OscConfig+0x502>
      {
        if ((HAL_GetTick() - tickstart) > HSI48_TIMEOUT_VALUE)
 80032f8:	f7fe fb5a 	bl	80019b0 <HAL_GetTick>
 80032fc:	0002      	movs	r2, r0
 80032fe:	693b      	ldr	r3, [r7, #16]
 8003300:	1ad3      	subs	r3, r2, r3
 8003302:	2b02      	cmp	r3, #2
 8003304:	d901      	bls.n	800330a <HAL_RCC_OscConfig+0x502>
        {
          return HAL_TIMEOUT;
 8003306:	2303      	movs	r3, #3
 8003308:	e0d8      	b.n	80034bc <HAL_RCC_OscConfig+0x6b4>
      while (READ_BIT(RCC->CR, RCC_CR_HSI48RDY) != 0U)
 800330a:	4b4a      	ldr	r3, [pc, #296]	; (8003434 <HAL_RCC_OscConfig+0x62c>)
 800330c:	681a      	ldr	r2, [r3, #0]
 800330e:	2380      	movs	r3, #128	; 0x80
 8003310:	041b      	lsls	r3, r3, #16
 8003312:	4013      	ands	r3, r2
 8003314:	d1f0      	bne.n	80032f8 <HAL_RCC_OscConfig+0x4f0>
#endif /* RCC_HSI48_SUPPORT */
  /*-------------------------------- PLL Configuration -----------------------*/
  /* Check the parameters */
  assert_param(IS_RCC_PLL(RCC_OscInitStruct->PLL.PLLState));

  if (RCC_OscInitStruct->PLL.PLLState != RCC_PLL_NONE)
 8003316:	687b      	ldr	r3, [r7, #4]
 8003318:	6a1b      	ldr	r3, [r3, #32]
 800331a:	2b00      	cmp	r3, #0
 800331c:	d100      	bne.n	8003320 <HAL_RCC_OscConfig+0x518>
 800331e:	e0cc      	b.n	80034ba <HAL_RCC_OscConfig+0x6b2>
  {
    /* Check if the PLL is used as system clock or not */
    if (__HAL_RCC_GET_SYSCLK_SOURCE() != RCC_SYSCLKSOURCE_STATUS_PLLCLK)
 8003320:	4b44      	ldr	r3, [pc, #272]	; (8003434 <HAL_RCC_OscConfig+0x62c>)
 8003322:	689b      	ldr	r3, [r3, #8]
 8003324:	2238      	movs	r2, #56	; 0x38
 8003326:	4013      	ands	r3, r2
 8003328:	2b10      	cmp	r3, #16
 800332a:	d100      	bne.n	800332e <HAL_RCC_OscConfig+0x526>
 800332c:	e07b      	b.n	8003426 <HAL_RCC_OscConfig+0x61e>
    {
      if (RCC_OscInitStruct->PLL.PLLState == RCC_PLL_ON)
 800332e:	687b      	ldr	r3, [r7, #4]
 8003330:	6a1b      	ldr	r3, [r3, #32]
 8003332:	2b02      	cmp	r3, #2
 8003334:	d156      	bne.n	80033e4 <HAL_RCC_OscConfig+0x5dc>
        assert_param(IS_RCC_PLLQ_VALUE(RCC_OscInitStruct->PLL.PLLQ));
#endif /* RCC_PLLQ_SUPPORT */
        assert_param(IS_RCC_PLLR_VALUE(RCC_OscInitStruct->PLL.PLLR));

        /* Disable the main PLL. */
        __HAL_RCC_PLL_DISABLE();
 8003336:	4b3f      	ldr	r3, [pc, #252]	; (8003434 <HAL_RCC_OscConfig+0x62c>)
 8003338:	681a      	ldr	r2, [r3, #0]
 800333a:	4b3e      	ldr	r3, [pc, #248]	; (8003434 <HAL_RCC_OscConfig+0x62c>)
 800333c:	4942      	ldr	r1, [pc, #264]	; (8003448 <HAL_RCC_OscConfig+0x640>)
 800333e:	400a      	ands	r2, r1
 8003340:	601a      	str	r2, [r3, #0]

        /* Get Start Tick*/
        tickstart = HAL_GetTick();
 8003342:	f7fe fb35 	bl	80019b0 <HAL_GetTick>
 8003346:	0003      	movs	r3, r0
 8003348:	613b      	str	r3, [r7, #16]

        /* Wait till PLL is ready */
        while (READ_BIT(RCC->CR, RCC_CR_PLLRDY) != 0U)
 800334a:	e008      	b.n	800335e <HAL_RCC_OscConfig+0x556>
        {
          if ((HAL_GetTick() - tickstart) > PLL_TIMEOUT_VALUE)
 800334c:	f7fe fb30 	bl	80019b0 <HAL_GetTick>
 8003350:	0002      	movs	r2, r0
 8003352:	693b      	ldr	r3, [r7, #16]
 8003354:	1ad3      	subs	r3, r2, r3
 8003356:	2b02      	cmp	r3, #2
 8003358:	d901      	bls.n	800335e <HAL_RCC_OscConfig+0x556>
          {
            return HAL_TIMEOUT;
 800335a:	2303      	movs	r3, #3
 800335c:	e0ae      	b.n	80034bc <HAL_RCC_OscConfig+0x6b4>
        while (READ_BIT(RCC->CR, RCC_CR_PLLRDY) != 0U)
 800335e:	4b35      	ldr	r3, [pc, #212]	; (8003434 <HAL_RCC_OscConfig+0x62c>)
 8003360:	681a      	ldr	r2, [r3, #0]
 8003362:	2380      	movs	r3, #128	; 0x80
 8003364:	049b      	lsls	r3, r3, #18
 8003366:	4013      	ands	r3, r2
 8003368:	d1f0      	bne.n	800334c <HAL_RCC_OscConfig+0x544>
          }
        }

        /* Configure the main PLL clock source, multiplication and division factors. */
#if defined(RCC_PLLQ_SUPPORT)
        __HAL_RCC_PLL_CONFIG(RCC_OscInitStruct->PLL.PLLSource,
 800336a:	4b32      	ldr	r3, [pc, #200]	; (8003434 <HAL_RCC_OscConfig+0x62c>)
 800336c:	68db      	ldr	r3, [r3, #12]
 800336e:	4a37      	ldr	r2, [pc, #220]	; (800344c <HAL_RCC_OscConfig+0x644>)
 8003370:	4013      	ands	r3, r2
 8003372:	0019      	movs	r1, r3
 8003374:	687b      	ldr	r3, [r7, #4]
 8003376:	6a5a      	ldr	r2, [r3, #36]	; 0x24
 8003378:	687b      	ldr	r3, [r7, #4]
 800337a:	6a9b      	ldr	r3, [r3, #40]	; 0x28
 800337c:	431a      	orrs	r2, r3
 800337e:	687b      	ldr	r3, [r7, #4]
 8003380:	6adb      	ldr	r3, [r3, #44]	; 0x2c
 8003382:	021b      	lsls	r3, r3, #8
 8003384:	431a      	orrs	r2, r3
 8003386:	687b      	ldr	r3, [r7, #4]
 8003388:	6b1b      	ldr	r3, [r3, #48]	; 0x30
 800338a:	431a      	orrs	r2, r3
 800338c:	687b      	ldr	r3, [r7, #4]
 800338e:	6b5b      	ldr	r3, [r3, #52]	; 0x34
 8003390:	431a      	orrs	r2, r3
 8003392:	687b      	ldr	r3, [r7, #4]
 8003394:	6b9b      	ldr	r3, [r3, #56]	; 0x38
 8003396:	431a      	orrs	r2, r3
 8003398:	4b26      	ldr	r3, [pc, #152]	; (8003434 <HAL_RCC_OscConfig+0x62c>)
 800339a:	430a      	orrs	r2, r1
 800339c:	60da      	str	r2, [r3, #12]
                             RCC_OscInitStruct->PLL.PLLP,
                             RCC_OscInitStruct->PLL.PLLR);
#endif /* RCC_PLLQ_SUPPORT */

        /* Enable the main PLL. */
        __HAL_RCC_PLL_ENABLE();
 800339e:	4b25      	ldr	r3, [pc, #148]	; (8003434 <HAL_RCC_OscConfig+0x62c>)
 80033a0:	681a      	ldr	r2, [r3, #0]
 80033a2:	4b24      	ldr	r3, [pc, #144]	; (8003434 <HAL_RCC_OscConfig+0x62c>)
 80033a4:	2180      	movs	r1, #128	; 0x80
 80033a6:	0449      	lsls	r1, r1, #17
 80033a8:	430a      	orrs	r2, r1
 80033aa:	601a      	str	r2, [r3, #0]

        /* Enable PLLR Clock output. */
        __HAL_RCC_PLLCLKOUT_ENABLE(RCC_PLLRCLK);
 80033ac:	4b21      	ldr	r3, [pc, #132]	; (8003434 <HAL_RCC_OscConfig+0x62c>)
 80033ae:	68da      	ldr	r2, [r3, #12]
 80033b0:	4b20      	ldr	r3, [pc, #128]	; (8003434 <HAL_RCC_OscConfig+0x62c>)
 80033b2:	2180      	movs	r1, #128	; 0x80
 80033b4:	0549      	lsls	r1, r1, #21
 80033b6:	430a      	orrs	r2, r1
 80033b8:	60da      	str	r2, [r3, #12]

        /* Get Start Tick*/
        tickstart = HAL_GetTick();
 80033ba:	f7fe faf9 	bl	80019b0 <HAL_GetTick>
 80033be:	0003      	movs	r3, r0
 80033c0:	613b      	str	r3, [r7, #16]

        /* Wait till PLL is ready */
        while (READ_BIT(RCC->CR, RCC_CR_PLLRDY) == 0U)
 80033c2:	e008      	b.n	80033d6 <HAL_RCC_OscConfig+0x5ce>
        {
          if ((HAL_GetTick() - tickstart) > PLL_TIMEOUT_VALUE)
 80033c4:	f7fe faf4 	bl	80019b0 <HAL_GetTick>
 80033c8:	0002      	movs	r2, r0
 80033ca:	693b      	ldr	r3, [r7, #16]
 80033cc:	1ad3      	subs	r3, r2, r3
 80033ce:	2b02      	cmp	r3, #2
 80033d0:	d901      	bls.n	80033d6 <HAL_RCC_OscConfig+0x5ce>
          {
            return HAL_TIMEOUT;
 80033d2:	2303      	movs	r3, #3
 80033d4:	e072      	b.n	80034bc <HAL_RCC_OscConfig+0x6b4>
        while (READ_BIT(RCC->CR, RCC_CR_PLLRDY) == 0U)
 80033d6:	4b17      	ldr	r3, [pc, #92]	; (8003434 <HAL_RCC_OscConfig+0x62c>)
 80033d8:	681a      	ldr	r2, [r3, #0]
 80033da:	2380      	movs	r3, #128	; 0x80
 80033dc:	049b      	lsls	r3, r3, #18
 80033de:	4013      	ands	r3, r2
 80033e0:	d0f0      	beq.n	80033c4 <HAL_RCC_OscConfig+0x5bc>
 80033e2:	e06a      	b.n	80034ba <HAL_RCC_OscConfig+0x6b2>
        }
      }
      else
      {
        /* Disable the main PLL. */
        __HAL_RCC_PLL_DISABLE();
 80033e4:	4b13      	ldr	r3, [pc, #76]	; (8003434 <HAL_RCC_OscConfig+0x62c>)
 80033e6:	681a      	ldr	r2, [r3, #0]
 80033e8:	4b12      	ldr	r3, [pc, #72]	; (8003434 <HAL_RCC_OscConfig+0x62c>)
 80033ea:	4917      	ldr	r1, [pc, #92]	; (8003448 <HAL_RCC_OscConfig+0x640>)
 80033ec:	400a      	ands	r2, r1
 80033ee:	601a      	str	r2, [r3, #0]

        /* Get Start Tick*/
        tickstart = HAL_GetTick();
 80033f0:	f7fe fade 	bl	80019b0 <HAL_GetTick>
 80033f4:	0003      	movs	r3, r0
 80033f6:	613b      	str	r3, [r7, #16]

        /* Wait till PLL is disabled */
        while (READ_BIT(RCC->CR, RCC_CR_PLLRDY) != 0U)
 80033f8:	e008      	b.n	800340c <HAL_RCC_OscConfig+0x604>
        {
          if ((HAL_GetTick() - tickstart) > PLL_TIMEOUT_VALUE)
 80033fa:	f7fe fad9 	bl	80019b0 <HAL_GetTick>
 80033fe:	0002      	movs	r2, r0
 8003400:	693b      	ldr	r3, [r7, #16]
 8003402:	1ad3      	subs	r3, r2, r3
 8003404:	2b02      	cmp	r3, #2
 8003406:	d901      	bls.n	800340c <HAL_RCC_OscConfig+0x604>
          {
            return HAL_TIMEOUT;
 8003408:	2303      	movs	r3, #3
 800340a:	e057      	b.n	80034bc <HAL_RCC_OscConfig+0x6b4>
        while (READ_BIT(RCC->CR, RCC_CR_PLLRDY) != 0U)
 800340c:	4b09      	ldr	r3, [pc, #36]	; (8003434 <HAL_RCC_OscConfig+0x62c>)
 800340e:	681a      	ldr	r2, [r3, #0]
 8003410:	2380      	movs	r3, #128	; 0x80
 8003412:	049b      	lsls	r3, r3, #18
 8003414:	4013      	ands	r3, r2
 8003416:	d1f0      	bne.n	80033fa <HAL_RCC_OscConfig+0x5f2>
          }
        }
        /* Unselect main PLL clock source and disable main PLL outputs to save power */
#if defined(RCC_PLLQ_SUPPORT)
        RCC->PLLCFGR &= ~(RCC_PLLCFGR_PLLSRC | RCC_PLLCFGR_PLLPEN | RCC_PLLCFGR_PLLQEN | RCC_PLLCFGR_PLLREN);
 8003418:	4b06      	ldr	r3, [pc, #24]	; (8003434 <HAL_RCC_OscConfig+0x62c>)
 800341a:	68da      	ldr	r2, [r3, #12]
 800341c:	4b05      	ldr	r3, [pc, #20]	; (8003434 <HAL_RCC_OscConfig+0x62c>)
 800341e:	490c      	ldr	r1, [pc, #48]	; (8003450 <HAL_RCC_OscConfig+0x648>)
 8003420:	400a      	ands	r2, r1
 8003422:	60da      	str	r2, [r3, #12]
 8003424:	e049      	b.n	80034ba <HAL_RCC_OscConfig+0x6b2>
      }
    }
    else
    {
      /* Check if there is a request to disable the PLL used as System clock source */
      if ((RCC_OscInitStruct->PLL.PLLState) == RCC_PLL_OFF)
 8003426:	687b      	ldr	r3, [r7, #4]
 8003428:	6a1b      	ldr	r3, [r3, #32]
 800342a:	2b01      	cmp	r3, #1
 800342c:	d112      	bne.n	8003454 <HAL_RCC_OscConfig+0x64c>
      {
        return HAL_ERROR;
 800342e:	2301      	movs	r3, #1
 8003430:	e044      	b.n	80034bc <HAL_RCC_OscConfig+0x6b4>
 8003432:	46c0      	nop			; (mov r8, r8)
 8003434:	40021000 	.word	0x40021000
 8003438:	40007000 	.word	0x40007000
 800343c:	00001388 	.word	0x00001388
 8003440:	efffffff 	.word	0xefffffff
 8003444:	ffbfffff 	.word	0xffbfffff
 8003448:	feffffff 	.word	0xfeffffff
 800344c:	11c1808c 	.word	0x11c1808c
 8003450:	eefefffc 	.word	0xeefefffc
      }
      else
      {
        /* Do not return HAL_ERROR if request repeats the current configuration */
        temp_pllckcfg = RCC->PLLCFGR;
 8003454:	4b1b      	ldr	r3, [pc, #108]	; (80034c4 <HAL_RCC_OscConfig+0x6bc>)
 8003456:	68db      	ldr	r3, [r3, #12]
 8003458:	617b      	str	r3, [r7, #20]
        if ((READ_BIT(temp_pllckcfg, RCC_PLLCFGR_PLLSRC) != RCC_OscInitStruct->PLL.PLLSource) ||
 800345a:	697b      	ldr	r3, [r7, #20]
 800345c:	2203      	movs	r2, #3
 800345e:	401a      	ands	r2, r3
 8003460:	687b      	ldr	r3, [r7, #4]
 8003462:	6a5b      	ldr	r3, [r3, #36]	; 0x24
 8003464:	429a      	cmp	r2, r3
 8003466:	d126      	bne.n	80034b6 <HAL_RCC_OscConfig+0x6ae>
            (READ_BIT(temp_pllckcfg, RCC_PLLCFGR_PLLM) != RCC_OscInitStruct->PLL.PLLM) ||
 8003468:	697b      	ldr	r3, [r7, #20]
 800346a:	2270      	movs	r2, #112	; 0x70
 800346c:	401a      	ands	r2, r3
 800346e:	687b      	ldr	r3, [r7, #4]
 8003470:	6a9b      	ldr	r3, [r3, #40]	; 0x28
        if ((READ_BIT(temp_pllckcfg, RCC_PLLCFGR_PLLSRC) != RCC_OscInitStruct->PLL.PLLSource) ||
 8003472:	429a      	cmp	r2, r3
 8003474:	d11f      	bne.n	80034b6 <HAL_RCC_OscConfig+0x6ae>
            (READ_BIT(temp_pllckcfg, RCC_PLLCFGR_PLLN) != (RCC_OscInitStruct->PLL.PLLN << RCC_PLLCFGR_PLLN_Pos)) ||
 8003476:	697a      	ldr	r2, [r7, #20]
 8003478:	23fe      	movs	r3, #254	; 0xfe
 800347a:	01db      	lsls	r3, r3, #7
 800347c:	401a      	ands	r2, r3
 800347e:	687b      	ldr	r3, [r7, #4]
 8003480:	6adb      	ldr	r3, [r3, #44]	; 0x2c
 8003482:	021b      	lsls	r3, r3, #8
            (READ_BIT(temp_pllckcfg, RCC_PLLCFGR_PLLM) != RCC_OscInitStruct->PLL.PLLM) ||
 8003484:	429a      	cmp	r2, r3
 8003486:	d116      	bne.n	80034b6 <HAL_RCC_OscConfig+0x6ae>
            (READ_BIT(temp_pllckcfg, RCC_PLLCFGR_PLLP) != RCC_OscInitStruct->PLL.PLLP) ||
 8003488:	697a      	ldr	r2, [r7, #20]
 800348a:	23f8      	movs	r3, #248	; 0xf8
 800348c:	039b      	lsls	r3, r3, #14
 800348e:	401a      	ands	r2, r3
 8003490:	687b      	ldr	r3, [r7, #4]
 8003492:	6b1b      	ldr	r3, [r3, #48]	; 0x30
            (READ_BIT(temp_pllckcfg, RCC_PLLCFGR_PLLN) != (RCC_OscInitStruct->PLL.PLLN << RCC_PLLCFGR_PLLN_Pos)) ||
 8003494:	429a      	cmp	r2, r3
 8003496:	d10e      	bne.n	80034b6 <HAL_RCC_OscConfig+0x6ae>
#if defined (RCC_PLLQ_SUPPORT)
            (READ_BIT(temp_pllckcfg, RCC_PLLCFGR_PLLQ) != RCC_OscInitStruct->PLL.PLLQ) ||
 8003498:	697a      	ldr	r2, [r7, #20]
 800349a:	23e0      	movs	r3, #224	; 0xe0
 800349c:	051b      	lsls	r3, r3, #20
 800349e:	401a      	ands	r2, r3
 80034a0:	687b      	ldr	r3, [r7, #4]
 80034a2:	6b5b      	ldr	r3, [r3, #52]	; 0x34
            (READ_BIT(temp_pllckcfg, RCC_PLLCFGR_PLLP) != RCC_OscInitStruct->PLL.PLLP) ||
 80034a4:	429a      	cmp	r2, r3
 80034a6:	d106      	bne.n	80034b6 <HAL_RCC_OscConfig+0x6ae>
#endif /* RCC_PLLQ_SUPPORT */
            (READ_BIT(temp_pllckcfg, RCC_PLLCFGR_PLLR) != RCC_OscInitStruct->PLL.PLLR))
 80034a8:	697b      	ldr	r3, [r7, #20]
 80034aa:	0f5b      	lsrs	r3, r3, #29
 80034ac:	075a      	lsls	r2, r3, #29
 80034ae:	687b      	ldr	r3, [r7, #4]
 80034b0:	6b9b      	ldr	r3, [r3, #56]	; 0x38
            (READ_BIT(temp_pllckcfg, RCC_PLLCFGR_PLLQ) != RCC_OscInitStruct->PLL.PLLQ) ||
 80034b2:	429a      	cmp	r2, r3
 80034b4:	d001      	beq.n	80034ba <HAL_RCC_OscConfig+0x6b2>
        {
          return HAL_ERROR;
 80034b6:	2301      	movs	r3, #1
 80034b8:	e000      	b.n	80034bc <HAL_RCC_OscConfig+0x6b4>
        }
      }
    }
  }
  return HAL_OK;
 80034ba:	2300      	movs	r3, #0
}
 80034bc:	0018      	movs	r0, r3
 80034be:	46bd      	mov	sp, r7
 80034c0:	b008      	add	sp, #32
 80034c2:	bd80      	pop	{r7, pc}
 80034c4:	40021000 	.word	0x40021000

080034c8 <HAL_RCC_ClockConfig>:
  *         HPRE[3:0] bits to ensure that HCLK not exceed the maximum allowed frequency
  *         (for more details refer to section above "Initialization/de-initialization functions")
  * @retval None
  */
HAL_StatusTypeDef HAL_RCC_ClockConfig(RCC_ClkInitTypeDef  *RCC_ClkInitStruct, uint32_t FLatency)
{
 80034c8:	b580      	push	{r7, lr}
 80034ca:	b084      	sub	sp, #16
 80034cc:	af00      	add	r7, sp, #0
 80034ce:	6078      	str	r0, [r7, #4]
 80034d0:	6039      	str	r1, [r7, #0]
  uint32_t tickstart;

  /* Check Null pointer */
  if (RCC_ClkInitStruct == NULL)
 80034d2:	687b      	ldr	r3, [r7, #4]
 80034d4:	2b00      	cmp	r3, #0
 80034d6:	d101      	bne.n	80034dc <HAL_RCC_ClockConfig+0x14>
  {
    return HAL_ERROR;
 80034d8:	2301      	movs	r3, #1
 80034da:	e0e9      	b.n	80036b0 <HAL_RCC_ClockConfig+0x1e8>
  /* To correctly read data from FLASH memory, the number of wait states (LATENCY)
    must be correctly programmed according to the frequency of the FLASH clock
    (HCLK) and the supply voltage of the device. */

  /* Increasing the number of wait states because of higher CPU frequency */
  if (FLatency > __HAL_FLASH_GET_LATENCY())
 80034dc:	4b76      	ldr	r3, [pc, #472]	; (80036b8 <HAL_RCC_ClockConfig+0x1f0>)
 80034de:	681b      	ldr	r3, [r3, #0]
 80034e0:	2207      	movs	r2, #7
 80034e2:	4013      	ands	r3, r2
 80034e4:	683a      	ldr	r2, [r7, #0]
 80034e6:	429a      	cmp	r2, r3
 80034e8:	d91e      	bls.n	8003528 <HAL_RCC_ClockConfig+0x60>
  {
    /* Program the new number of wait states to the LATENCY bits in the FLASH_ACR register */
    __HAL_FLASH_SET_LATENCY(FLatency);
 80034ea:	4b73      	ldr	r3, [pc, #460]	; (80036b8 <HAL_RCC_ClockConfig+0x1f0>)
 80034ec:	681b      	ldr	r3, [r3, #0]
 80034ee:	2207      	movs	r2, #7
 80034f0:	4393      	bics	r3, r2
 80034f2:	0019      	movs	r1, r3
 80034f4:	4b70      	ldr	r3, [pc, #448]	; (80036b8 <HAL_RCC_ClockConfig+0x1f0>)
 80034f6:	683a      	ldr	r2, [r7, #0]
 80034f8:	430a      	orrs	r2, r1
 80034fa:	601a      	str	r2, [r3, #0]

    /* Check that the new number of wait states is taken into account to access the Flash
    memory by polling the FLASH_ACR register */
    tickstart = HAL_GetTick();
 80034fc:	f7fe fa58 	bl	80019b0 <HAL_GetTick>
 8003500:	0003      	movs	r3, r0
 8003502:	60fb      	str	r3, [r7, #12]

    while ((FLASH->ACR & FLASH_ACR_LATENCY) != FLatency)
 8003504:	e009      	b.n	800351a <HAL_RCC_ClockConfig+0x52>
    {
      if ((HAL_GetTick() - tickstart) > CLOCKSWITCH_TIMEOUT_VALUE)
 8003506:	f7fe fa53 	bl	80019b0 <HAL_GetTick>
 800350a:	0002      	movs	r2, r0
 800350c:	68fb      	ldr	r3, [r7, #12]
 800350e:	1ad3      	subs	r3, r2, r3
 8003510:	4a6a      	ldr	r2, [pc, #424]	; (80036bc <HAL_RCC_ClockConfig+0x1f4>)
 8003512:	4293      	cmp	r3, r2
 8003514:	d901      	bls.n	800351a <HAL_RCC_ClockConfig+0x52>
      {
        return HAL_TIMEOUT;
 8003516:	2303      	movs	r3, #3
 8003518:	e0ca      	b.n	80036b0 <HAL_RCC_ClockConfig+0x1e8>
    while ((FLASH->ACR & FLASH_ACR_LATENCY) != FLatency)
 800351a:	4b67      	ldr	r3, [pc, #412]	; (80036b8 <HAL_RCC_ClockConfig+0x1f0>)
 800351c:	681b      	ldr	r3, [r3, #0]
 800351e:	2207      	movs	r2, #7
 8003520:	4013      	ands	r3, r2
 8003522:	683a      	ldr	r2, [r7, #0]
 8003524:	429a      	cmp	r2, r3
 8003526:	d1ee      	bne.n	8003506 <HAL_RCC_ClockConfig+0x3e>
      }
    }
  }

  /*-------------------------- HCLK Configuration --------------------------*/
  if (((RCC_ClkInitStruct->ClockType) & RCC_CLOCKTYPE_HCLK) == RCC_CLOCKTYPE_HCLK)
 8003528:	687b      	ldr	r3, [r7, #4]
 800352a:	681b      	ldr	r3, [r3, #0]
 800352c:	2202      	movs	r2, #2
 800352e:	4013      	ands	r3, r2
 8003530:	d015      	beq.n	800355e <HAL_RCC_ClockConfig+0x96>
  {
    /* Set the highest APB divider in order to ensure that we do not go through
       a non-spec phase whatever we decrease or increase HCLK. */
    if (((RCC_ClkInitStruct->ClockType) & RCC_CLOCKTYPE_PCLK1) == RCC_CLOCKTYPE_PCLK1)
 8003532:	687b      	ldr	r3, [r7, #4]
 8003534:	681b      	ldr	r3, [r3, #0]
 8003536:	2204      	movs	r2, #4
 8003538:	4013      	ands	r3, r2
 800353a:	d006      	beq.n	800354a <HAL_RCC_ClockConfig+0x82>
    {
      MODIFY_REG(RCC->CFGR, RCC_CFGR_PPRE, RCC_HCLK_DIV16);
 800353c:	4b60      	ldr	r3, [pc, #384]	; (80036c0 <HAL_RCC_ClockConfig+0x1f8>)
 800353e:	689a      	ldr	r2, [r3, #8]
 8003540:	4b5f      	ldr	r3, [pc, #380]	; (80036c0 <HAL_RCC_ClockConfig+0x1f8>)
 8003542:	21e0      	movs	r1, #224	; 0xe0
 8003544:	01c9      	lsls	r1, r1, #7
 8003546:	430a      	orrs	r2, r1
 8003548:	609a      	str	r2, [r3, #8]
    }

    /* Set the new HCLK clock divider */
    assert_param(IS_RCC_HCLK(RCC_ClkInitStruct->AHBCLKDivider));
    MODIFY_REG(RCC->CFGR, RCC_CFGR_HPRE, RCC_ClkInitStruct->AHBCLKDivider);
 800354a:	4b5d      	ldr	r3, [pc, #372]	; (80036c0 <HAL_RCC_ClockConfig+0x1f8>)
 800354c:	689b      	ldr	r3, [r3, #8]
 800354e:	4a5d      	ldr	r2, [pc, #372]	; (80036c4 <HAL_RCC_ClockConfig+0x1fc>)
 8003550:	4013      	ands	r3, r2
 8003552:	0019      	movs	r1, r3
 8003554:	687b      	ldr	r3, [r7, #4]
 8003556:	689a      	ldr	r2, [r3, #8]
 8003558:	4b59      	ldr	r3, [pc, #356]	; (80036c0 <HAL_RCC_ClockConfig+0x1f8>)
 800355a:	430a      	orrs	r2, r1
 800355c:	609a      	str	r2, [r3, #8]
  }

  /*------------------------- SYSCLK Configuration ---------------------------*/
  if (((RCC_ClkInitStruct->ClockType) & RCC_CLOCKTYPE_SYSCLK) == RCC_CLOCKTYPE_SYSCLK)
 800355e:	687b      	ldr	r3, [r7, #4]
 8003560:	681b      	ldr	r3, [r3, #0]
 8003562:	2201      	movs	r2, #1
 8003564:	4013      	ands	r3, r2
 8003566:	d057      	beq.n	8003618 <HAL_RCC_ClockConfig+0x150>
  {
    assert_param(IS_RCC_SYSCLKSOURCE(RCC_ClkInitStruct->SYSCLKSource));

    /* HSE is selected as System Clock Source */
    if (RCC_ClkInitStruct->SYSCLKSource == RCC_SYSCLKSOURCE_HSE)
 8003568:	687b      	ldr	r3, [r7, #4]
 800356a:	685b      	ldr	r3, [r3, #4]
 800356c:	2b01      	cmp	r3, #1
 800356e:	d107      	bne.n	8003580 <HAL_RCC_ClockConfig+0xb8>
    {
      /* Check the HSE ready flag */
      if (READ_BIT(RCC->CR, RCC_CR_HSERDY) == 0U)
 8003570:	4b53      	ldr	r3, [pc, #332]	; (80036c0 <HAL_RCC_ClockConfig+0x1f8>)
 8003572:	681a      	ldr	r2, [r3, #0]
 8003574:	2380      	movs	r3, #128	; 0x80
 8003576:	029b      	lsls	r3, r3, #10
 8003578:	4013      	ands	r3, r2
 800357a:	d12b      	bne.n	80035d4 <HAL_RCC_ClockConfig+0x10c>
      {
        return HAL_ERROR;
 800357c:	2301      	movs	r3, #1
 800357e:	e097      	b.n	80036b0 <HAL_RCC_ClockConfig+0x1e8>
      }
    }
    /* PLL is selected as System Clock Source */
    else if (RCC_ClkInitStruct->SYSCLKSource == RCC_SYSCLKSOURCE_PLLCLK)
 8003580:	687b      	ldr	r3, [r7, #4]
 8003582:	685b      	ldr	r3, [r3, #4]
 8003584:	2b02      	cmp	r3, #2
 8003586:	d107      	bne.n	8003598 <HAL_RCC_ClockConfig+0xd0>
    {
      /* Check the PLL ready flag */
      if (READ_BIT(RCC->CR, RCC_CR_PLLRDY) == 0U)
 8003588:	4b4d      	ldr	r3, [pc, #308]	; (80036c0 <HAL_RCC_ClockConfig+0x1f8>)
 800358a:	681a      	ldr	r2, [r3, #0]
 800358c:	2380      	movs	r3, #128	; 0x80
 800358e:	049b      	lsls	r3, r3, #18
 8003590:	4013      	ands	r3, r2
 8003592:	d11f      	bne.n	80035d4 <HAL_RCC_ClockConfig+0x10c>
      {
        return HAL_ERROR;
 8003594:	2301      	movs	r3, #1
 8003596:	e08b      	b.n	80036b0 <HAL_RCC_ClockConfig+0x1e8>
      }
    }
    /* HSI is selected as System Clock Source */
    else if (RCC_ClkInitStruct->SYSCLKSource == RCC_SYSCLKSOURCE_HSI)
 8003598:	687b      	ldr	r3, [r7, #4]
 800359a:	685b      	ldr	r3, [r3, #4]
 800359c:	2b00      	cmp	r3, #0
 800359e:	d107      	bne.n	80035b0 <HAL_RCC_ClockConfig+0xe8>
    {
      /* Check the HSI ready flag */
      if (READ_BIT(RCC->CR, RCC_CR_HSIRDY) == 0U)
 80035a0:	4b47      	ldr	r3, [pc, #284]	; (80036c0 <HAL_RCC_ClockConfig+0x1f8>)
 80035a2:	681a      	ldr	r2, [r3, #0]
 80035a4:	2380      	movs	r3, #128	; 0x80
 80035a6:	00db      	lsls	r3, r3, #3
 80035a8:	4013      	ands	r3, r2
 80035aa:	d113      	bne.n	80035d4 <HAL_RCC_ClockConfig+0x10c>
      {
        return HAL_ERROR;
 80035ac:	2301      	movs	r3, #1
 80035ae:	e07f      	b.n	80036b0 <HAL_RCC_ClockConfig+0x1e8>
      }
    }
    /* LSI is selected as System Clock Source */
    else if (RCC_ClkInitStruct->SYSCLKSource == RCC_SYSCLKSOURCE_LSI)
 80035b0:	687b      	ldr	r3, [r7, #4]
 80035b2:	685b      	ldr	r3, [r3, #4]
 80035b4:	2b03      	cmp	r3, #3
 80035b6:	d106      	bne.n	80035c6 <HAL_RCC_ClockConfig+0xfe>
    {
      /* Check the LSI ready flag */
      if (READ_BIT(RCC->CSR, RCC_CSR_LSIRDY) == 0U)
 80035b8:	4b41      	ldr	r3, [pc, #260]	; (80036c0 <HAL_RCC_ClockConfig+0x1f8>)
 80035ba:	6e1b      	ldr	r3, [r3, #96]	; 0x60
 80035bc:	2202      	movs	r2, #2
 80035be:	4013      	ands	r3, r2
 80035c0:	d108      	bne.n	80035d4 <HAL_RCC_ClockConfig+0x10c>
      {
        return HAL_ERROR;
 80035c2:	2301      	movs	r3, #1
 80035c4:	e074      	b.n	80036b0 <HAL_RCC_ClockConfig+0x1e8>
    }
    /* LSE is selected as System Clock Source */
    else
    {
      /* Check the LSE ready flag */
      if (READ_BIT(RCC->BDCR, RCC_BDCR_LSERDY) == 0U)
 80035c6:	4b3e      	ldr	r3, [pc, #248]	; (80036c0 <HAL_RCC_ClockConfig+0x1f8>)
 80035c8:	6ddb      	ldr	r3, [r3, #92]	; 0x5c
 80035ca:	2202      	movs	r2, #2
 80035cc:	4013      	ands	r3, r2
 80035ce:	d101      	bne.n	80035d4 <HAL_RCC_ClockConfig+0x10c>
      {
        return HAL_ERROR;
 80035d0:	2301      	movs	r3, #1
 80035d2:	e06d      	b.n	80036b0 <HAL_RCC_ClockConfig+0x1e8>
      }
    }
    MODIFY_REG(RCC->CFGR, RCC_CFGR_SW, RCC_ClkInitStruct->SYSCLKSource);
 80035d4:	4b3a      	ldr	r3, [pc, #232]	; (80036c0 <HAL_RCC_ClockConfig+0x1f8>)
 80035d6:	689b      	ldr	r3, [r3, #8]
 80035d8:	2207      	movs	r2, #7
 80035da:	4393      	bics	r3, r2
 80035dc:	0019      	movs	r1, r3
 80035de:	687b      	ldr	r3, [r7, #4]
 80035e0:	685a      	ldr	r2, [r3, #4]
 80035e2:	4b37      	ldr	r3, [pc, #220]	; (80036c0 <HAL_RCC_ClockConfig+0x1f8>)
 80035e4:	430a      	orrs	r2, r1
 80035e6:	609a      	str	r2, [r3, #8]

    /* Get Start Tick*/
    tickstart = HAL_GetTick();
 80035e8:	f7fe f9e2 	bl	80019b0 <HAL_GetTick>
 80035ec:	0003      	movs	r3, r0
 80035ee:	60fb      	str	r3, [r7, #12]

    while (__HAL_RCC_GET_SYSCLK_SOURCE() != (RCC_ClkInitStruct->SYSCLKSource << RCC_CFGR_SWS_Pos))
 80035f0:	e009      	b.n	8003606 <HAL_RCC_ClockConfig+0x13e>
    {
      if ((HAL_GetTick() - tickstart) > CLOCKSWITCH_TIMEOUT_VALUE)
 80035f2:	f7fe f9dd 	bl	80019b0 <HAL_GetTick>
 80035f6:	0002      	movs	r2, r0
 80035f8:	68fb      	ldr	r3, [r7, #12]
 80035fa:	1ad3      	subs	r3, r2, r3
 80035fc:	4a2f      	ldr	r2, [pc, #188]	; (80036bc <HAL_RCC_ClockConfig+0x1f4>)
 80035fe:	4293      	cmp	r3, r2
 8003600:	d901      	bls.n	8003606 <HAL_RCC_ClockConfig+0x13e>
      {
        return HAL_TIMEOUT;
 8003602:	2303      	movs	r3, #3
 8003604:	e054      	b.n	80036b0 <HAL_RCC_ClockConfig+0x1e8>
    while (__HAL_RCC_GET_SYSCLK_SOURCE() != (RCC_ClkInitStruct->SYSCLKSource << RCC_CFGR_SWS_Pos))
 8003606:	4b2e      	ldr	r3, [pc, #184]	; (80036c0 <HAL_RCC_ClockConfig+0x1f8>)
 8003608:	689b      	ldr	r3, [r3, #8]
 800360a:	2238      	movs	r2, #56	; 0x38
 800360c:	401a      	ands	r2, r3
 800360e:	687b      	ldr	r3, [r7, #4]
 8003610:	685b      	ldr	r3, [r3, #4]
 8003612:	00db      	lsls	r3, r3, #3
 8003614:	429a      	cmp	r2, r3
 8003616:	d1ec      	bne.n	80035f2 <HAL_RCC_ClockConfig+0x12a>
      }
    }
  }

  /* Decreasing the number of wait states because of lower CPU frequency */
  if (FLatency < __HAL_FLASH_GET_LATENCY())
 8003618:	4b27      	ldr	r3, [pc, #156]	; (80036b8 <HAL_RCC_ClockConfig+0x1f0>)
 800361a:	681b      	ldr	r3, [r3, #0]
 800361c:	2207      	movs	r2, #7
 800361e:	4013      	ands	r3, r2
 8003620:	683a      	ldr	r2, [r7, #0]
 8003622:	429a      	cmp	r2, r3
 8003624:	d21e      	bcs.n	8003664 <HAL_RCC_ClockConfig+0x19c>
  {
    /* Program the new number of wait states to the LATENCY bits in the FLASH_ACR register */
    __HAL_FLASH_SET_LATENCY(FLatency);
 8003626:	4b24      	ldr	r3, [pc, #144]	; (80036b8 <HAL_RCC_ClockConfig+0x1f0>)
 8003628:	681b      	ldr	r3, [r3, #0]
 800362a:	2207      	movs	r2, #7
 800362c:	4393      	bics	r3, r2
 800362e:	0019      	movs	r1, r3
 8003630:	4b21      	ldr	r3, [pc, #132]	; (80036b8 <HAL_RCC_ClockConfig+0x1f0>)
 8003632:	683a      	ldr	r2, [r7, #0]
 8003634:	430a      	orrs	r2, r1
 8003636:	601a      	str	r2, [r3, #0]

    /* Check that the new number of wait states is taken into account to access the Flash
    memory by polling the FLASH_ACR register */
    tickstart = HAL_GetTick();
 8003638:	f7fe f9ba 	bl	80019b0 <HAL_GetTick>
 800363c:	0003      	movs	r3, r0
 800363e:	60fb      	str	r3, [r7, #12]

    while ((FLASH->ACR & FLASH_ACR_LATENCY) != FLatency)
 8003640:	e009      	b.n	8003656 <HAL_RCC_ClockConfig+0x18e>
    {
      if ((HAL_GetTick() - tickstart) > CLOCKSWITCH_TIMEOUT_VALUE)
 8003642:	f7fe f9b5 	bl	80019b0 <HAL_GetTick>
 8003646:	0002      	movs	r2, r0
 8003648:	68fb      	ldr	r3, [r7, #12]
 800364a:	1ad3      	subs	r3, r2, r3
 800364c:	4a1b      	ldr	r2, [pc, #108]	; (80036bc <HAL_RCC_ClockConfig+0x1f4>)
 800364e:	4293      	cmp	r3, r2
 8003650:	d901      	bls.n	8003656 <HAL_RCC_ClockConfig+0x18e>
      {
        return HAL_TIMEOUT;
 8003652:	2303      	movs	r3, #3
 8003654:	e02c      	b.n	80036b0 <HAL_RCC_ClockConfig+0x1e8>
    while ((FLASH->ACR & FLASH_ACR_LATENCY) != FLatency)
 8003656:	4b18      	ldr	r3, [pc, #96]	; (80036b8 <HAL_RCC_ClockConfig+0x1f0>)
 8003658:	681b      	ldr	r3, [r3, #0]
 800365a:	2207      	movs	r2, #7
 800365c:	4013      	ands	r3, r2
 800365e:	683a      	ldr	r2, [r7, #0]
 8003660:	429a      	cmp	r2, r3
 8003662:	d1ee      	bne.n	8003642 <HAL_RCC_ClockConfig+0x17a>
      }
    }
  }

  /*-------------------------- PCLK1 Configuration ---------------------------*/
  if (((RCC_ClkInitStruct->ClockType) & RCC_CLOCKTYPE_PCLK1) == RCC_CLOCKTYPE_PCLK1)
 8003664:	687b      	ldr	r3, [r7, #4]
 8003666:	681b      	ldr	r3, [r3, #0]
 8003668:	2204      	movs	r2, #4
 800366a:	4013      	ands	r3, r2
 800366c:	d009      	beq.n	8003682 <HAL_RCC_ClockConfig+0x1ba>
  {
    assert_param(IS_RCC_PCLK(RCC_ClkInitStruct->APB1CLKDivider));
    MODIFY_REG(RCC->CFGR, RCC_CFGR_PPRE, RCC_ClkInitStruct->APB1CLKDivider);
 800366e:	4b14      	ldr	r3, [pc, #80]	; (80036c0 <HAL_RCC_ClockConfig+0x1f8>)
 8003670:	689b      	ldr	r3, [r3, #8]
 8003672:	4a15      	ldr	r2, [pc, #84]	; (80036c8 <HAL_RCC_ClockConfig+0x200>)
 8003674:	4013      	ands	r3, r2
 8003676:	0019      	movs	r1, r3
 8003678:	687b      	ldr	r3, [r7, #4]
 800367a:	68da      	ldr	r2, [r3, #12]
 800367c:	4b10      	ldr	r3, [pc, #64]	; (80036c0 <HAL_RCC_ClockConfig+0x1f8>)
 800367e:	430a      	orrs	r2, r1
 8003680:	609a      	str	r2, [r3, #8]
  }

  /* Update the SystemCoreClock global variable */
  SystemCoreClock = (HAL_RCC_GetSysClockFreq() >> ((AHBPrescTable[(RCC->CFGR & RCC_CFGR_HPRE) >> RCC_CFGR_HPRE_Pos]) & 0x1FU));
 8003682:	f000 f829 	bl	80036d8 <HAL_RCC_GetSysClockFreq>
 8003686:	0001      	movs	r1, r0
 8003688:	4b0d      	ldr	r3, [pc, #52]	; (80036c0 <HAL_RCC_ClockConfig+0x1f8>)
 800368a:	689b      	ldr	r3, [r3, #8]
 800368c:	0a1b      	lsrs	r3, r3, #8
 800368e:	220f      	movs	r2, #15
 8003690:	401a      	ands	r2, r3
 8003692:	4b0e      	ldr	r3, [pc, #56]	; (80036cc <HAL_RCC_ClockConfig+0x204>)
 8003694:	0092      	lsls	r2, r2, #2
 8003696:	58d3      	ldr	r3, [r2, r3]
 8003698:	221f      	movs	r2, #31
 800369a:	4013      	ands	r3, r2
 800369c:	000a      	movs	r2, r1
 800369e:	40da      	lsrs	r2, r3
 80036a0:	4b0b      	ldr	r3, [pc, #44]	; (80036d0 <HAL_RCC_ClockConfig+0x208>)
 80036a2:	601a      	str	r2, [r3, #0]

  /* Configure the source of time base considering new system clocks settings*/
  return HAL_InitTick(uwTickPrio);
 80036a4:	4b0b      	ldr	r3, [pc, #44]	; (80036d4 <HAL_RCC_ClockConfig+0x20c>)
 80036a6:	681b      	ldr	r3, [r3, #0]
 80036a8:	0018      	movs	r0, r3
 80036aa:	f7fe f925 	bl	80018f8 <HAL_InitTick>
 80036ae:	0003      	movs	r3, r0
}
 80036b0:	0018      	movs	r0, r3
 80036b2:	46bd      	mov	sp, r7
 80036b4:	b004      	add	sp, #16
 80036b6:	bd80      	pop	{r7, pc}
 80036b8:	40022000 	.word	0x40022000
 80036bc:	00001388 	.word	0x00001388
 80036c0:	40021000 	.word	0x40021000
 80036c4:	fffff0ff 	.word	0xfffff0ff
 80036c8:	ffff8fff 	.word	0xffff8fff
 80036cc:	08004fb8 	.word	0x08004fb8
 80036d0:	20000000 	.word	0x20000000
 80036d4:	20000004 	.word	0x20000004

080036d8 <HAL_RCC_GetSysClockFreq>:
  *
  *
  * @retval SYSCLK frequency
  */
uint32_t HAL_RCC_GetSysClockFreq(void)
{
 80036d8:	b580      	push	{r7, lr}
 80036da:	b086      	sub	sp, #24
 80036dc:	af00      	add	r7, sp, #0
  uint32_t pllvco, pllsource, pllr, pllm, hsidiv;
  uint32_t sysclockfreq;

  if (__HAL_RCC_GET_SYSCLK_SOURCE() == RCC_SYSCLKSOURCE_STATUS_HSI)
 80036de:	4b3c      	ldr	r3, [pc, #240]	; (80037d0 <HAL_RCC_GetSysClockFreq+0xf8>)
 80036e0:	689b      	ldr	r3, [r3, #8]
 80036e2:	2238      	movs	r2, #56	; 0x38
 80036e4:	4013      	ands	r3, r2
 80036e6:	d10f      	bne.n	8003708 <HAL_RCC_GetSysClockFreq+0x30>
  {
    /* HSISYS can be derived for HSI16 */
    hsidiv = (1UL << ((READ_BIT(RCC->CR, RCC_CR_HSIDIV)) >> RCC_CR_HSIDIV_Pos));
 80036e8:	4b39      	ldr	r3, [pc, #228]	; (80037d0 <HAL_RCC_GetSysClockFreq+0xf8>)
 80036ea:	681b      	ldr	r3, [r3, #0]
 80036ec:	0adb      	lsrs	r3, r3, #11
 80036ee:	2207      	movs	r2, #7
 80036f0:	4013      	ands	r3, r2
 80036f2:	2201      	movs	r2, #1
 80036f4:	409a      	lsls	r2, r3
 80036f6:	0013      	movs	r3, r2
 80036f8:	603b      	str	r3, [r7, #0]

    /* HSI used as system clock source */
    sysclockfreq = (HSI_VALUE / hsidiv);
 80036fa:	6839      	ldr	r1, [r7, #0]
 80036fc:	4835      	ldr	r0, [pc, #212]	; (80037d4 <HAL_RCC_GetSysClockFreq+0xfc>)
 80036fe:	f7fc fd01 	bl	8000104 <__udivsi3>
 8003702:	0003      	movs	r3, r0
 8003704:	613b      	str	r3, [r7, #16]
 8003706:	e05d      	b.n	80037c4 <HAL_RCC_GetSysClockFreq+0xec>
  }
  else if (__HAL_RCC_GET_SYSCLK_SOURCE() == RCC_SYSCLKSOURCE_STATUS_HSE)
 8003708:	4b31      	ldr	r3, [pc, #196]	; (80037d0 <HAL_RCC_GetSysClockFreq+0xf8>)
 800370a:	689b      	ldr	r3, [r3, #8]
 800370c:	2238      	movs	r2, #56	; 0x38
 800370e:	4013      	ands	r3, r2
 8003710:	2b08      	cmp	r3, #8
 8003712:	d102      	bne.n	800371a <HAL_RCC_GetSysClockFreq+0x42>
  {
    /* HSE used as system clock source */
    sysclockfreq = HSE_VALUE;
 8003714:	4b30      	ldr	r3, [pc, #192]	; (80037d8 <HAL_RCC_GetSysClockFreq+0x100>)
 8003716:	613b      	str	r3, [r7, #16]
 8003718:	e054      	b.n	80037c4 <HAL_RCC_GetSysClockFreq+0xec>
  }
  else if (__HAL_RCC_GET_SYSCLK_SOURCE() == RCC_SYSCLKSOURCE_STATUS_PLLCLK)
 800371a:	4b2d      	ldr	r3, [pc, #180]	; (80037d0 <HAL_RCC_GetSysClockFreq+0xf8>)
 800371c:	689b      	ldr	r3, [r3, #8]
 800371e:	2238      	movs	r2, #56	; 0x38
 8003720:	4013      	ands	r3, r2
 8003722:	2b10      	cmp	r3, #16
 8003724:	d138      	bne.n	8003798 <HAL_RCC_GetSysClockFreq+0xc0>
    /* PLL used as system clock  source */

    /* PLL_VCO = ((HSE_VALUE or HSI_VALUE)/ PLLM) * PLLN
    SYSCLK = PLL_VCO / PLLR
    */
    pllsource = (RCC->PLLCFGR & RCC_PLLCFGR_PLLSRC);
 8003726:	4b2a      	ldr	r3, [pc, #168]	; (80037d0 <HAL_RCC_GetSysClockFreq+0xf8>)
 8003728:	68db      	ldr	r3, [r3, #12]
 800372a:	2203      	movs	r2, #3
 800372c:	4013      	ands	r3, r2
 800372e:	60fb      	str	r3, [r7, #12]
    pllm = ((RCC->PLLCFGR & RCC_PLLCFGR_PLLM) >> RCC_PLLCFGR_PLLM_Pos) + 1U ;
 8003730:	4b27      	ldr	r3, [pc, #156]	; (80037d0 <HAL_RCC_GetSysClockFreq+0xf8>)
 8003732:	68db      	ldr	r3, [r3, #12]
 8003734:	091b      	lsrs	r3, r3, #4
 8003736:	2207      	movs	r2, #7
 8003738:	4013      	ands	r3, r2
 800373a:	3301      	adds	r3, #1
 800373c:	60bb      	str	r3, [r7, #8]

    switch (pllsource)
 800373e:	68fb      	ldr	r3, [r7, #12]
 8003740:	2b03      	cmp	r3, #3
 8003742:	d10d      	bne.n	8003760 <HAL_RCC_GetSysClockFreq+0x88>
    {
      case RCC_PLLSOURCE_HSE:  /* HSE used as PLL clock source */
        pllvco = (HSE_VALUE / pllm) * ((RCC->PLLCFGR & RCC_PLLCFGR_PLLN) >> RCC_PLLCFGR_PLLN_Pos);
 8003744:	68b9      	ldr	r1, [r7, #8]
 8003746:	4824      	ldr	r0, [pc, #144]	; (80037d8 <HAL_RCC_GetSysClockFreq+0x100>)
 8003748:	f7fc fcdc 	bl	8000104 <__udivsi3>
 800374c:	0003      	movs	r3, r0
 800374e:	0019      	movs	r1, r3
 8003750:	4b1f      	ldr	r3, [pc, #124]	; (80037d0 <HAL_RCC_GetSysClockFreq+0xf8>)
 8003752:	68db      	ldr	r3, [r3, #12]
 8003754:	0a1b      	lsrs	r3, r3, #8
 8003756:	227f      	movs	r2, #127	; 0x7f
 8003758:	4013      	ands	r3, r2
 800375a:	434b      	muls	r3, r1
 800375c:	617b      	str	r3, [r7, #20]
        break;
 800375e:	e00d      	b.n	800377c <HAL_RCC_GetSysClockFreq+0xa4>

      case RCC_PLLSOURCE_HSI:  /* HSI16 used as PLL clock source */
      default:                 /* HSI16 used as PLL clock source */
        pllvco = (HSI_VALUE / pllm) * ((RCC->PLLCFGR & RCC_PLLCFGR_PLLN) >> RCC_PLLCFGR_PLLN_Pos) ;
 8003760:	68b9      	ldr	r1, [r7, #8]
 8003762:	481c      	ldr	r0, [pc, #112]	; (80037d4 <HAL_RCC_GetSysClockFreq+0xfc>)
 8003764:	f7fc fcce 	bl	8000104 <__udivsi3>
 8003768:	0003      	movs	r3, r0
 800376a:	0019      	movs	r1, r3
 800376c:	4b18      	ldr	r3, [pc, #96]	; (80037d0 <HAL_RCC_GetSysClockFreq+0xf8>)
 800376e:	68db      	ldr	r3, [r3, #12]
 8003770:	0a1b      	lsrs	r3, r3, #8
 8003772:	227f      	movs	r2, #127	; 0x7f
 8003774:	4013      	ands	r3, r2
 8003776:	434b      	muls	r3, r1
 8003778:	617b      	str	r3, [r7, #20]
        break;
 800377a:	46c0      	nop			; (mov r8, r8)
    }
    pllr = (((RCC->PLLCFGR & RCC_PLLCFGR_PLLR) >> RCC_PLLCFGR_PLLR_Pos) + 1U);
 800377c:	4b14      	ldr	r3, [pc, #80]	; (80037d0 <HAL_RCC_GetSysClockFreq+0xf8>)
 800377e:	68db      	ldr	r3, [r3, #12]
 8003780:	0f5b      	lsrs	r3, r3, #29
 8003782:	2207      	movs	r2, #7
 8003784:	4013      	ands	r3, r2
 8003786:	3301      	adds	r3, #1
 8003788:	607b      	str	r3, [r7, #4]
    sysclockfreq = pllvco / pllr;
 800378a:	6879      	ldr	r1, [r7, #4]
 800378c:	6978      	ldr	r0, [r7, #20]
 800378e:	f7fc fcb9 	bl	8000104 <__udivsi3>
 8003792:	0003      	movs	r3, r0
 8003794:	613b      	str	r3, [r7, #16]
 8003796:	e015      	b.n	80037c4 <HAL_RCC_GetSysClockFreq+0xec>
  }
  else if (__HAL_RCC_GET_SYSCLK_SOURCE() == RCC_SYSCLKSOURCE_STATUS_LSE)
 8003798:	4b0d      	ldr	r3, [pc, #52]	; (80037d0 <HAL_RCC_GetSysClockFreq+0xf8>)
 800379a:	689b      	ldr	r3, [r3, #8]
 800379c:	2238      	movs	r2, #56	; 0x38
 800379e:	4013      	ands	r3, r2
 80037a0:	2b20      	cmp	r3, #32
 80037a2:	d103      	bne.n	80037ac <HAL_RCC_GetSysClockFreq+0xd4>
  {
    /* LSE used as system clock source */
    sysclockfreq = LSE_VALUE;
 80037a4:	2380      	movs	r3, #128	; 0x80
 80037a6:	021b      	lsls	r3, r3, #8
 80037a8:	613b      	str	r3, [r7, #16]
 80037aa:	e00b      	b.n	80037c4 <HAL_RCC_GetSysClockFreq+0xec>
  }
  else if (__HAL_RCC_GET_SYSCLK_SOURCE() == RCC_SYSCLKSOURCE_STATUS_LSI)
 80037ac:	4b08      	ldr	r3, [pc, #32]	; (80037d0 <HAL_RCC_GetSysClockFreq+0xf8>)
 80037ae:	689b      	ldr	r3, [r3, #8]
 80037b0:	2238      	movs	r2, #56	; 0x38
 80037b2:	4013      	ands	r3, r2
 80037b4:	2b18      	cmp	r3, #24
 80037b6:	d103      	bne.n	80037c0 <HAL_RCC_GetSysClockFreq+0xe8>
  {
    /* LSI used as system clock source */
    sysclockfreq = LSI_VALUE;
 80037b8:	23fa      	movs	r3, #250	; 0xfa
 80037ba:	01db      	lsls	r3, r3, #7
 80037bc:	613b      	str	r3, [r7, #16]
 80037be:	e001      	b.n	80037c4 <HAL_RCC_GetSysClockFreq+0xec>
  }
  else
  {
    sysclockfreq = 0U;
 80037c0:	2300      	movs	r3, #0
 80037c2:	613b      	str	r3, [r7, #16]
  }

  return sysclockfreq;
 80037c4:	693b      	ldr	r3, [r7, #16]
}
 80037c6:	0018      	movs	r0, r3
 80037c8:	46bd      	mov	sp, r7
 80037ca:	b006      	add	sp, #24
 80037cc:	bd80      	pop	{r7, pc}
 80037ce:	46c0      	nop			; (mov r8, r8)
 80037d0:	40021000 	.word	0x40021000
 80037d4:	00f42400 	.word	0x00f42400
 80037d8:	007a1200 	.word	0x007a1200

080037dc <HAL_RCC_GetHCLKFreq>:
  *
  * @note   The SystemCoreClock CMSIS variable is used to store System Clock Frequency.
  * @retval HCLK frequency in Hz
  */
uint32_t HAL_RCC_GetHCLKFreq(void)
{
 80037dc:	b580      	push	{r7, lr}
 80037de:	af00      	add	r7, sp, #0
  return SystemCoreClock;
 80037e0:	4b02      	ldr	r3, [pc, #8]	; (80037ec <HAL_RCC_GetHCLKFreq+0x10>)
 80037e2:	681b      	ldr	r3, [r3, #0]
}
 80037e4:	0018      	movs	r0, r3
 80037e6:	46bd      	mov	sp, r7
 80037e8:	bd80      	pop	{r7, pc}
 80037ea:	46c0      	nop			; (mov r8, r8)
 80037ec:	20000000 	.word	0x20000000

080037f0 <HAL_RCC_GetPCLK1Freq>:
  * @note   Each time PCLK1 changes, this function must be called to update the
  *         right PCLK1 value. Otherwise, any configuration based on this function will be incorrect.
  * @retval PCLK1 frequency in Hz
  */
uint32_t HAL_RCC_GetPCLK1Freq(void)
{
 80037f0:	b5b0      	push	{r4, r5, r7, lr}
 80037f2:	af00      	add	r7, sp, #0
  /* Get HCLK source and Compute PCLK1 frequency ---------------------------*/
  return ((uint32_t)(__LL_RCC_CALC_PCLK1_FREQ(HAL_RCC_GetHCLKFreq(), LL_RCC_GetAPB1Prescaler())));
 80037f4:	f7ff fff2 	bl	80037dc <HAL_RCC_GetHCLKFreq>
 80037f8:	0004      	movs	r4, r0
 80037fa:	f7ff faf9 	bl	8002df0 <LL_RCC_GetAPB1Prescaler>
 80037fe:	0003      	movs	r3, r0
 8003800:	0b1a      	lsrs	r2, r3, #12
 8003802:	4b05      	ldr	r3, [pc, #20]	; (8003818 <HAL_RCC_GetPCLK1Freq+0x28>)
 8003804:	0092      	lsls	r2, r2, #2
 8003806:	58d3      	ldr	r3, [r2, r3]
 8003808:	221f      	movs	r2, #31
 800380a:	4013      	ands	r3, r2
 800380c:	40dc      	lsrs	r4, r3
 800380e:	0023      	movs	r3, r4
}
 8003810:	0018      	movs	r0, r3
 8003812:	46bd      	mov	sp, r7
 8003814:	bdb0      	pop	{r4, r5, r7, pc}
 8003816:	46c0      	nop			; (mov r8, r8)
 8003818:	08004ff8 	.word	0x08004ff8

0800381c <HAL_RCCEx_PeriphCLKConfig>:
  *         the RTC clock source: in this case the access to Backup domain is enabled.
  *
  * @retval HAL status
  */
HAL_StatusTypeDef HAL_RCCEx_PeriphCLKConfig(RCC_PeriphCLKInitTypeDef  *PeriphClkInit)
{
 800381c:	b580      	push	{r7, lr}
 800381e:	b086      	sub	sp, #24
 8003820:	af00      	add	r7, sp, #0
 8003822:	6078      	str	r0, [r7, #4]
  uint32_t tmpregister;
  uint32_t tickstart;
  HAL_StatusTypeDef ret    = HAL_OK;   /* Intermediate status */
 8003824:	2313      	movs	r3, #19
 8003826:	18fb      	adds	r3, r7, r3
 8003828:	2200      	movs	r2, #0
 800382a:	701a      	strb	r2, [r3, #0]
  HAL_StatusTypeDef status = HAL_OK;   /* Final status */
 800382c:	2312      	movs	r3, #18
 800382e:	18fb      	adds	r3, r7, r3
 8003830:	2200      	movs	r2, #0
 8003832:	701a      	strb	r2, [r3, #0]

  /* Check the parameters */
  assert_param(IS_RCC_PERIPHCLOCK(PeriphClkInit->PeriphClockSelection));

  /*-------------------------- RTC clock source configuration ----------------------*/
  if ((PeriphClkInit->PeriphClockSelection & RCC_PERIPHCLK_RTC) == RCC_PERIPHCLK_RTC)
 8003834:	687b      	ldr	r3, [r7, #4]
 8003836:	681a      	ldr	r2, [r3, #0]
 8003838:	2380      	movs	r3, #128	; 0x80
 800383a:	029b      	lsls	r3, r3, #10
 800383c:	4013      	ands	r3, r2
 800383e:	d100      	bne.n	8003842 <HAL_RCCEx_PeriphCLKConfig+0x26>
 8003840:	e0ad      	b.n	800399e <HAL_RCCEx_PeriphCLKConfig+0x182>
  {
    FlagStatus       pwrclkchanged = RESET;
 8003842:	2011      	movs	r0, #17
 8003844:	183b      	adds	r3, r7, r0
 8003846:	2200      	movs	r2, #0
 8003848:	701a      	strb	r2, [r3, #0]

    /* Check for RTC Parameters used to output RTCCLK */
    assert_param(IS_RCC_RTCCLKSOURCE(PeriphClkInit->RTCClockSelection));

    /* Enable Power Clock */
    if (__HAL_RCC_PWR_IS_CLK_DISABLED())
 800384a:	4b47      	ldr	r3, [pc, #284]	; (8003968 <HAL_RCCEx_PeriphCLKConfig+0x14c>)
 800384c:	6bda      	ldr	r2, [r3, #60]	; 0x3c
 800384e:	2380      	movs	r3, #128	; 0x80
 8003850:	055b      	lsls	r3, r3, #21
 8003852:	4013      	ands	r3, r2
 8003854:	d110      	bne.n	8003878 <HAL_RCCEx_PeriphCLKConfig+0x5c>
    {
      __HAL_RCC_PWR_CLK_ENABLE();
 8003856:	4b44      	ldr	r3, [pc, #272]	; (8003968 <HAL_RCCEx_PeriphCLKConfig+0x14c>)
 8003858:	6bda      	ldr	r2, [r3, #60]	; 0x3c
 800385a:	4b43      	ldr	r3, [pc, #268]	; (8003968 <HAL_RCCEx_PeriphCLKConfig+0x14c>)
 800385c:	2180      	movs	r1, #128	; 0x80
 800385e:	0549      	lsls	r1, r1, #21
 8003860:	430a      	orrs	r2, r1
 8003862:	63da      	str	r2, [r3, #60]	; 0x3c
 8003864:	4b40      	ldr	r3, [pc, #256]	; (8003968 <HAL_RCCEx_PeriphCLKConfig+0x14c>)
 8003866:	6bda      	ldr	r2, [r3, #60]	; 0x3c
 8003868:	2380      	movs	r3, #128	; 0x80
 800386a:	055b      	lsls	r3, r3, #21
 800386c:	4013      	ands	r3, r2
 800386e:	60bb      	str	r3, [r7, #8]
 8003870:	68bb      	ldr	r3, [r7, #8]
      pwrclkchanged = SET;
 8003872:	183b      	adds	r3, r7, r0
 8003874:	2201      	movs	r2, #1
 8003876:	701a      	strb	r2, [r3, #0]
    }

    /* Enable write access to Backup domain */
    SET_BIT(PWR->CR1, PWR_CR1_DBP);
 8003878:	4b3c      	ldr	r3, [pc, #240]	; (800396c <HAL_RCCEx_PeriphCLKConfig+0x150>)
 800387a:	681a      	ldr	r2, [r3, #0]
 800387c:	4b3b      	ldr	r3, [pc, #236]	; (800396c <HAL_RCCEx_PeriphCLKConfig+0x150>)
 800387e:	2180      	movs	r1, #128	; 0x80
 8003880:	0049      	lsls	r1, r1, #1
 8003882:	430a      	orrs	r2, r1
 8003884:	601a      	str	r2, [r3, #0]

    /* Wait for Backup domain Write protection disable */
    tickstart = HAL_GetTick();
 8003886:	f7fe f893 	bl	80019b0 <HAL_GetTick>
 800388a:	0003      	movs	r3, r0
 800388c:	60fb      	str	r3, [r7, #12]

    while ((PWR->CR1 & PWR_CR1_DBP) == 0U)
 800388e:	e00b      	b.n	80038a8 <HAL_RCCEx_PeriphCLKConfig+0x8c>
    {
      if ((HAL_GetTick() - tickstart) > RCC_DBP_TIMEOUT_VALUE)
 8003890:	f7fe f88e 	bl	80019b0 <HAL_GetTick>
 8003894:	0002      	movs	r2, r0
 8003896:	68fb      	ldr	r3, [r7, #12]
 8003898:	1ad3      	subs	r3, r2, r3
 800389a:	2b02      	cmp	r3, #2
 800389c:	d904      	bls.n	80038a8 <HAL_RCCEx_PeriphCLKConfig+0x8c>
      {
        ret = HAL_TIMEOUT;
 800389e:	2313      	movs	r3, #19
 80038a0:	18fb      	adds	r3, r7, r3
 80038a2:	2203      	movs	r2, #3
 80038a4:	701a      	strb	r2, [r3, #0]
        break;
 80038a6:	e005      	b.n	80038b4 <HAL_RCCEx_PeriphCLKConfig+0x98>
    while ((PWR->CR1 & PWR_CR1_DBP) == 0U)
 80038a8:	4b30      	ldr	r3, [pc, #192]	; (800396c <HAL_RCCEx_PeriphCLKConfig+0x150>)
 80038aa:	681a      	ldr	r2, [r3, #0]
 80038ac:	2380      	movs	r3, #128	; 0x80
 80038ae:	005b      	lsls	r3, r3, #1
 80038b0:	4013      	ands	r3, r2
 80038b2:	d0ed      	beq.n	8003890 <HAL_RCCEx_PeriphCLKConfig+0x74>
      }
    }

    if (ret == HAL_OK)
 80038b4:	2313      	movs	r3, #19
 80038b6:	18fb      	adds	r3, r7, r3
 80038b8:	781b      	ldrb	r3, [r3, #0]
 80038ba:	2b00      	cmp	r3, #0
 80038bc:	d15e      	bne.n	800397c <HAL_RCCEx_PeriphCLKConfig+0x160>
    {
      /* Reset the Backup domain only if the RTC Clock source selection is modified from default */
      tmpregister = READ_BIT(RCC->BDCR, RCC_BDCR_RTCSEL);
 80038be:	4b2a      	ldr	r3, [pc, #168]	; (8003968 <HAL_RCCEx_PeriphCLKConfig+0x14c>)
 80038c0:	6dda      	ldr	r2, [r3, #92]	; 0x5c
 80038c2:	23c0      	movs	r3, #192	; 0xc0
 80038c4:	009b      	lsls	r3, r3, #2
 80038c6:	4013      	ands	r3, r2
 80038c8:	617b      	str	r3, [r7, #20]

      /* Reset the Backup domain only if the RTC Clock source selection is modified */
      if ((tmpregister != RCC_RTCCLKSOURCE_NONE) && (tmpregister != PeriphClkInit->RTCClockSelection))
 80038ca:	697b      	ldr	r3, [r7, #20]
 80038cc:	2b00      	cmp	r3, #0
 80038ce:	d019      	beq.n	8003904 <HAL_RCCEx_PeriphCLKConfig+0xe8>
 80038d0:	687b      	ldr	r3, [r7, #4]
 80038d2:	6c1b      	ldr	r3, [r3, #64]	; 0x40
 80038d4:	697a      	ldr	r2, [r7, #20]
 80038d6:	429a      	cmp	r2, r3
 80038d8:	d014      	beq.n	8003904 <HAL_RCCEx_PeriphCLKConfig+0xe8>
      {
        /* Store the content of BDCR register before the reset of Backup Domain */
        tmpregister = READ_BIT(RCC->BDCR, ~(RCC_BDCR_RTCSEL));
 80038da:	4b23      	ldr	r3, [pc, #140]	; (8003968 <HAL_RCCEx_PeriphCLKConfig+0x14c>)
 80038dc:	6ddb      	ldr	r3, [r3, #92]	; 0x5c
 80038de:	4a24      	ldr	r2, [pc, #144]	; (8003970 <HAL_RCCEx_PeriphCLKConfig+0x154>)
 80038e0:	4013      	ands	r3, r2
 80038e2:	617b      	str	r3, [r7, #20]
        /* RTC Clock selection can be changed only if the Backup Domain is reset */
        __HAL_RCC_BACKUPRESET_FORCE();
 80038e4:	4b20      	ldr	r3, [pc, #128]	; (8003968 <HAL_RCCEx_PeriphCLKConfig+0x14c>)
 80038e6:	6dda      	ldr	r2, [r3, #92]	; 0x5c
 80038e8:	4b1f      	ldr	r3, [pc, #124]	; (8003968 <HAL_RCCEx_PeriphCLKConfig+0x14c>)
 80038ea:	2180      	movs	r1, #128	; 0x80
 80038ec:	0249      	lsls	r1, r1, #9
 80038ee:	430a      	orrs	r2, r1
 80038f0:	65da      	str	r2, [r3, #92]	; 0x5c
        __HAL_RCC_BACKUPRESET_RELEASE();
 80038f2:	4b1d      	ldr	r3, [pc, #116]	; (8003968 <HAL_RCCEx_PeriphCLKConfig+0x14c>)
 80038f4:	6dda      	ldr	r2, [r3, #92]	; 0x5c
 80038f6:	4b1c      	ldr	r3, [pc, #112]	; (8003968 <HAL_RCCEx_PeriphCLKConfig+0x14c>)
 80038f8:	491e      	ldr	r1, [pc, #120]	; (8003974 <HAL_RCCEx_PeriphCLKConfig+0x158>)
 80038fa:	400a      	ands	r2, r1
 80038fc:	65da      	str	r2, [r3, #92]	; 0x5c
        /* Restore the Content of BDCR register */
        RCC->BDCR = tmpregister;
 80038fe:	4b1a      	ldr	r3, [pc, #104]	; (8003968 <HAL_RCCEx_PeriphCLKConfig+0x14c>)
 8003900:	697a      	ldr	r2, [r7, #20]
 8003902:	65da      	str	r2, [r3, #92]	; 0x5c
      }

      /* Wait for LSE reactivation if LSE was enable prior to Backup Domain reset */
      if (HAL_IS_BIT_SET(tmpregister, RCC_BDCR_LSEON))
 8003904:	697b      	ldr	r3, [r7, #20]
 8003906:	2201      	movs	r2, #1
 8003908:	4013      	ands	r3, r2
 800390a:	d016      	beq.n	800393a <HAL_RCCEx_PeriphCLKConfig+0x11e>
      {
        /* Get Start Tick*/
        tickstart = HAL_GetTick();
 800390c:	f7fe f850 	bl	80019b0 <HAL_GetTick>
 8003910:	0003      	movs	r3, r0
 8003912:	60fb      	str	r3, [r7, #12]

        /* Wait till LSE is ready */
        while (READ_BIT(RCC->BDCR, RCC_BDCR_LSERDY) == 0U)
 8003914:	e00c      	b.n	8003930 <HAL_RCCEx_PeriphCLKConfig+0x114>
        {
          if ((HAL_GetTick() - tickstart) > RCC_LSE_TIMEOUT_VALUE)
 8003916:	f7fe f84b 	bl	80019b0 <HAL_GetTick>
 800391a:	0002      	movs	r2, r0
 800391c:	68fb      	ldr	r3, [r7, #12]
 800391e:	1ad3      	subs	r3, r2, r3
 8003920:	4a15      	ldr	r2, [pc, #84]	; (8003978 <HAL_RCCEx_PeriphCLKConfig+0x15c>)
 8003922:	4293      	cmp	r3, r2
 8003924:	d904      	bls.n	8003930 <HAL_RCCEx_PeriphCLKConfig+0x114>
          {
            ret = HAL_TIMEOUT;
 8003926:	2313      	movs	r3, #19
 8003928:	18fb      	adds	r3, r7, r3
 800392a:	2203      	movs	r2, #3
 800392c:	701a      	strb	r2, [r3, #0]
            break;
 800392e:	e004      	b.n	800393a <HAL_RCCEx_PeriphCLKConfig+0x11e>
        while (READ_BIT(RCC->BDCR, RCC_BDCR_LSERDY) == 0U)
 8003930:	4b0d      	ldr	r3, [pc, #52]	; (8003968 <HAL_RCCEx_PeriphCLKConfig+0x14c>)
 8003932:	6ddb      	ldr	r3, [r3, #92]	; 0x5c
 8003934:	2202      	movs	r2, #2
 8003936:	4013      	ands	r3, r2
 8003938:	d0ed      	beq.n	8003916 <HAL_RCCEx_PeriphCLKConfig+0xfa>
          }
        }
      }

      if (ret == HAL_OK)
 800393a:	2313      	movs	r3, #19
 800393c:	18fb      	adds	r3, r7, r3
 800393e:	781b      	ldrb	r3, [r3, #0]
 8003940:	2b00      	cmp	r3, #0
 8003942:	d10a      	bne.n	800395a <HAL_RCCEx_PeriphCLKConfig+0x13e>
      {
        /* Apply new RTC clock source selection */
        __HAL_RCC_RTC_CONFIG(PeriphClkInit->RTCClockSelection);
 8003944:	4b08      	ldr	r3, [pc, #32]	; (8003968 <HAL_RCCEx_PeriphCLKConfig+0x14c>)
 8003946:	6ddb      	ldr	r3, [r3, #92]	; 0x5c
 8003948:	4a09      	ldr	r2, [pc, #36]	; (8003970 <HAL_RCCEx_PeriphCLKConfig+0x154>)
 800394a:	4013      	ands	r3, r2
 800394c:	0019      	movs	r1, r3
 800394e:	687b      	ldr	r3, [r7, #4]
 8003950:	6c1a      	ldr	r2, [r3, #64]	; 0x40
 8003952:	4b05      	ldr	r3, [pc, #20]	; (8003968 <HAL_RCCEx_PeriphCLKConfig+0x14c>)
 8003954:	430a      	orrs	r2, r1
 8003956:	65da      	str	r2, [r3, #92]	; 0x5c
 8003958:	e016      	b.n	8003988 <HAL_RCCEx_PeriphCLKConfig+0x16c>
      }
      else
      {
        /* set overall return value */
        status = ret;
 800395a:	2312      	movs	r3, #18
 800395c:	18fb      	adds	r3, r7, r3
 800395e:	2213      	movs	r2, #19
 8003960:	18ba      	adds	r2, r7, r2
 8003962:	7812      	ldrb	r2, [r2, #0]
 8003964:	701a      	strb	r2, [r3, #0]
 8003966:	e00f      	b.n	8003988 <HAL_RCCEx_PeriphCLKConfig+0x16c>
 8003968:	40021000 	.word	0x40021000
 800396c:	40007000 	.word	0x40007000
 8003970:	fffffcff 	.word	0xfffffcff
 8003974:	fffeffff 	.word	0xfffeffff
 8003978:	00001388 	.word	0x00001388
      }
    }
    else
    {
      /* set overall return value */
      status = ret;
 800397c:	2312      	movs	r3, #18
 800397e:	18fb      	adds	r3, r7, r3
 8003980:	2213      	movs	r2, #19
 8003982:	18ba      	adds	r2, r7, r2
 8003984:	7812      	ldrb	r2, [r2, #0]
 8003986:	701a      	strb	r2, [r3, #0]
    }

    /* Restore clock configuration if changed */
    if (pwrclkchanged == SET)
 8003988:	2311      	movs	r3, #17
 800398a:	18fb      	adds	r3, r7, r3
 800398c:	781b      	ldrb	r3, [r3, #0]
 800398e:	2b01      	cmp	r3, #1
 8003990:	d105      	bne.n	800399e <HAL_RCCEx_PeriphCLKConfig+0x182>
    {
      __HAL_RCC_PWR_CLK_DISABLE();
 8003992:	4bb6      	ldr	r3, [pc, #728]	; (8003c6c <HAL_RCCEx_PeriphCLKConfig+0x450>)
 8003994:	6bda      	ldr	r2, [r3, #60]	; 0x3c
 8003996:	4bb5      	ldr	r3, [pc, #724]	; (8003c6c <HAL_RCCEx_PeriphCLKConfig+0x450>)
 8003998:	49b5      	ldr	r1, [pc, #724]	; (8003c70 <HAL_RCCEx_PeriphCLKConfig+0x454>)
 800399a:	400a      	ands	r2, r1
 800399c:	63da      	str	r2, [r3, #60]	; 0x3c
    }
  }

  /*-------------------------- USART1 clock source configuration -------------------*/
  if (((PeriphClkInit->PeriphClockSelection) & RCC_PERIPHCLK_USART1) == RCC_PERIPHCLK_USART1)
 800399e:	687b      	ldr	r3, [r7, #4]
 80039a0:	681b      	ldr	r3, [r3, #0]
 80039a2:	2201      	movs	r2, #1
 80039a4:	4013      	ands	r3, r2
 80039a6:	d009      	beq.n	80039bc <HAL_RCCEx_PeriphCLKConfig+0x1a0>
  {
    /* Check the parameters */
    assert_param(IS_RCC_USART1CLKSOURCE(PeriphClkInit->Usart1ClockSelection));

    /* Configure the USART1 clock source */
    __HAL_RCC_USART1_CONFIG(PeriphClkInit->Usart1ClockSelection);
 80039a8:	4bb0      	ldr	r3, [pc, #704]	; (8003c6c <HAL_RCCEx_PeriphCLKConfig+0x450>)
 80039aa:	6d5b      	ldr	r3, [r3, #84]	; 0x54
 80039ac:	2203      	movs	r2, #3
 80039ae:	4393      	bics	r3, r2
 80039b0:	0019      	movs	r1, r3
 80039b2:	687b      	ldr	r3, [r7, #4]
 80039b4:	685a      	ldr	r2, [r3, #4]
 80039b6:	4bad      	ldr	r3, [pc, #692]	; (8003c6c <HAL_RCCEx_PeriphCLKConfig+0x450>)
 80039b8:	430a      	orrs	r2, r1
 80039ba:	655a      	str	r2, [r3, #84]	; 0x54
  }

#if defined(RCC_CCIPR_USART2SEL)
  /*-------------------------- USART2 clock source configuration -------------------*/
  if (((PeriphClkInit->PeriphClockSelection) & RCC_PERIPHCLK_USART2) == RCC_PERIPHCLK_USART2)
 80039bc:	687b      	ldr	r3, [r7, #4]
 80039be:	681b      	ldr	r3, [r3, #0]
 80039c0:	2202      	movs	r2, #2
 80039c2:	4013      	ands	r3, r2
 80039c4:	d009      	beq.n	80039da <HAL_RCCEx_PeriphCLKConfig+0x1be>
  {
    /* Check the parameters */
    assert_param(IS_RCC_USART2CLKSOURCE(PeriphClkInit->Usart2ClockSelection));

    /* Configure the USART2 clock source */
    __HAL_RCC_USART2_CONFIG(PeriphClkInit->Usart2ClockSelection);
 80039c6:	4ba9      	ldr	r3, [pc, #676]	; (8003c6c <HAL_RCCEx_PeriphCLKConfig+0x450>)
 80039c8:	6d5b      	ldr	r3, [r3, #84]	; 0x54
 80039ca:	220c      	movs	r2, #12
 80039cc:	4393      	bics	r3, r2
 80039ce:	0019      	movs	r1, r3
 80039d0:	687b      	ldr	r3, [r7, #4]
 80039d2:	689a      	ldr	r2, [r3, #8]
 80039d4:	4ba5      	ldr	r3, [pc, #660]	; (8003c6c <HAL_RCCEx_PeriphCLKConfig+0x450>)
 80039d6:	430a      	orrs	r2, r1
 80039d8:	655a      	str	r2, [r3, #84]	; 0x54
  }
#endif /* RCC_CCIPR_USART2SEL */

#if defined(RCC_CCIPR_USART3SEL)
  /*-------------------------- USART3 clock source configuration -------------------*/
  if (((PeriphClkInit->PeriphClockSelection) & RCC_PERIPHCLK_USART3) == RCC_PERIPHCLK_USART3)
 80039da:	687b      	ldr	r3, [r7, #4]
 80039dc:	681b      	ldr	r3, [r3, #0]
 80039de:	2204      	movs	r2, #4
 80039e0:	4013      	ands	r3, r2
 80039e2:	d009      	beq.n	80039f8 <HAL_RCCEx_PeriphCLKConfig+0x1dc>
  {
    /* Check the parameters */
    assert_param(IS_RCC_USART3CLKSOURCE(PeriphClkInit->Usart3ClockSelection));

    /* Configure the USART3 clock source */
    __HAL_RCC_USART3_CONFIG(PeriphClkInit->Usart3ClockSelection);
 80039e4:	4ba1      	ldr	r3, [pc, #644]	; (8003c6c <HAL_RCCEx_PeriphCLKConfig+0x450>)
 80039e6:	6d5b      	ldr	r3, [r3, #84]	; 0x54
 80039e8:	2230      	movs	r2, #48	; 0x30
 80039ea:	4393      	bics	r3, r2
 80039ec:	0019      	movs	r1, r3
 80039ee:	687b      	ldr	r3, [r7, #4]
 80039f0:	68da      	ldr	r2, [r3, #12]
 80039f2:	4b9e      	ldr	r3, [pc, #632]	; (8003c6c <HAL_RCCEx_PeriphCLKConfig+0x450>)
 80039f4:	430a      	orrs	r2, r1
 80039f6:	655a      	str	r2, [r3, #84]	; 0x54
  }
#endif /* RCC_CCIPR_USART3SEL */

#if defined(LPUART1)
  /*-------------------------- LPUART1 clock source configuration ------------------*/
  if (((PeriphClkInit->PeriphClockSelection) & RCC_PERIPHCLK_LPUART1) == RCC_PERIPHCLK_LPUART1)
 80039f8:	687b      	ldr	r3, [r7, #4]
 80039fa:	681b      	ldr	r3, [r3, #0]
 80039fc:	2210      	movs	r2, #16
 80039fe:	4013      	ands	r3, r2
 8003a00:	d009      	beq.n	8003a16 <HAL_RCCEx_PeriphCLKConfig+0x1fa>
  {
    /* Check the parameters */
    assert_param(IS_RCC_LPUART1CLKSOURCE(PeriphClkInit->Lpuart1ClockSelection));

    /* Configure the LPUART1 clock source */
    __HAL_RCC_LPUART1_CONFIG(PeriphClkInit->Lpuart1ClockSelection);
 8003a02:	4b9a      	ldr	r3, [pc, #616]	; (8003c6c <HAL_RCCEx_PeriphCLKConfig+0x450>)
 8003a04:	6d5b      	ldr	r3, [r3, #84]	; 0x54
 8003a06:	4a9b      	ldr	r2, [pc, #620]	; (8003c74 <HAL_RCCEx_PeriphCLKConfig+0x458>)
 8003a08:	4013      	ands	r3, r2
 8003a0a:	0019      	movs	r1, r3
 8003a0c:	687b      	ldr	r3, [r7, #4]
 8003a0e:	691a      	ldr	r2, [r3, #16]
 8003a10:	4b96      	ldr	r3, [pc, #600]	; (8003c6c <HAL_RCCEx_PeriphCLKConfig+0x450>)
 8003a12:	430a      	orrs	r2, r1
 8003a14:	655a      	str	r2, [r3, #84]	; 0x54
  }
#endif /* LPUART1 */

#if defined(LPUART2)
  /*-------------------------- LPUART2 clock source configuration ------------------*/
  if (((PeriphClkInit->PeriphClockSelection) & RCC_PERIPHCLK_LPUART2) == RCC_PERIPHCLK_LPUART2)
 8003a16:	687b      	ldr	r3, [r7, #4]
 8003a18:	681a      	ldr	r2, [r3, #0]
 8003a1a:	2380      	movs	r3, #128	; 0x80
 8003a1c:	015b      	lsls	r3, r3, #5
 8003a1e:	4013      	ands	r3, r2
 8003a20:	d009      	beq.n	8003a36 <HAL_RCCEx_PeriphCLKConfig+0x21a>
  {
    /* Check the parameters */
    assert_param(IS_RCC_LPUART2CLKSOURCE(PeriphClkInit->Lpuart2ClockSelection));

    /* Configure the LPUART clock source */
    __HAL_RCC_LPUART2_CONFIG(PeriphClkInit->Lpuart2ClockSelection);
 8003a22:	4b92      	ldr	r3, [pc, #584]	; (8003c6c <HAL_RCCEx_PeriphCLKConfig+0x450>)
 8003a24:	6d5b      	ldr	r3, [r3, #84]	; 0x54
 8003a26:	4a94      	ldr	r2, [pc, #592]	; (8003c78 <HAL_RCCEx_PeriphCLKConfig+0x45c>)
 8003a28:	4013      	ands	r3, r2
 8003a2a:	0019      	movs	r1, r3
 8003a2c:	687b      	ldr	r3, [r7, #4]
 8003a2e:	695a      	ldr	r2, [r3, #20]
 8003a30:	4b8e      	ldr	r3, [pc, #568]	; (8003c6c <HAL_RCCEx_PeriphCLKConfig+0x450>)
 8003a32:	430a      	orrs	r2, r1
 8003a34:	655a      	str	r2, [r3, #84]	; 0x54
  }
#endif /* LPUART2 */

#if defined(RCC_CCIPR_LPTIM1SEL)
  /*-------------------------- LPTIM1 clock source configuration -------------------*/
  if (((PeriphClkInit->PeriphClockSelection) & RCC_PERIPHCLK_LPTIM1) == (RCC_PERIPHCLK_LPTIM1))
 8003a36:	687b      	ldr	r3, [r7, #4]
 8003a38:	681a      	ldr	r2, [r3, #0]
 8003a3a:	2380      	movs	r3, #128	; 0x80
 8003a3c:	009b      	lsls	r3, r3, #2
 8003a3e:	4013      	ands	r3, r2
 8003a40:	d009      	beq.n	8003a56 <HAL_RCCEx_PeriphCLKConfig+0x23a>
  {
    assert_param(IS_RCC_LPTIM1CLKSOURCE(PeriphClkInit->Lptim1ClockSelection));
    __HAL_RCC_LPTIM1_CONFIG(PeriphClkInit->Lptim1ClockSelection);
 8003a42:	4b8a      	ldr	r3, [pc, #552]	; (8003c6c <HAL_RCCEx_PeriphCLKConfig+0x450>)
 8003a44:	6d5b      	ldr	r3, [r3, #84]	; 0x54
 8003a46:	4a8d      	ldr	r2, [pc, #564]	; (8003c7c <HAL_RCCEx_PeriphCLKConfig+0x460>)
 8003a48:	4013      	ands	r3, r2
 8003a4a:	0019      	movs	r1, r3
 8003a4c:	687b      	ldr	r3, [r7, #4]
 8003a4e:	6a9a      	ldr	r2, [r3, #40]	; 0x28
 8003a50:	4b86      	ldr	r3, [pc, #536]	; (8003c6c <HAL_RCCEx_PeriphCLKConfig+0x450>)
 8003a52:	430a      	orrs	r2, r1
 8003a54:	655a      	str	r2, [r3, #84]	; 0x54
  }
#endif /* RCC_CCIPR_LPTIM1SEL */

#if defined(RCC_CCIPR_LPTIM2SEL)
  /*-------------------------- LPTIM2 clock source configuration -------------------*/
  if (((PeriphClkInit->PeriphClockSelection) & RCC_PERIPHCLK_LPTIM2) == (RCC_PERIPHCLK_LPTIM2))
 8003a56:	687b      	ldr	r3, [r7, #4]
 8003a58:	681a      	ldr	r2, [r3, #0]
 8003a5a:	2380      	movs	r3, #128	; 0x80
 8003a5c:	00db      	lsls	r3, r3, #3
 8003a5e:	4013      	ands	r3, r2
 8003a60:	d009      	beq.n	8003a76 <HAL_RCCEx_PeriphCLKConfig+0x25a>
  {
    assert_param(IS_RCC_LPTIM2CLKSOURCE(PeriphClkInit->Lptim2ClockSelection));
    __HAL_RCC_LPTIM2_CONFIG(PeriphClkInit->Lptim2ClockSelection);
 8003a62:	4b82      	ldr	r3, [pc, #520]	; (8003c6c <HAL_RCCEx_PeriphCLKConfig+0x450>)
 8003a64:	6d5b      	ldr	r3, [r3, #84]	; 0x54
 8003a66:	4a86      	ldr	r2, [pc, #536]	; (8003c80 <HAL_RCCEx_PeriphCLKConfig+0x464>)
 8003a68:	4013      	ands	r3, r2
 8003a6a:	0019      	movs	r1, r3
 8003a6c:	687b      	ldr	r3, [r7, #4]
 8003a6e:	6ada      	ldr	r2, [r3, #44]	; 0x2c
 8003a70:	4b7e      	ldr	r3, [pc, #504]	; (8003c6c <HAL_RCCEx_PeriphCLKConfig+0x450>)
 8003a72:	430a      	orrs	r2, r1
 8003a74:	655a      	str	r2, [r3, #84]	; 0x54
  }
#endif /* RCC_CCIPR_LPTIM2SEL */

  /*-------------------------- I2C1 clock source configuration ---------------------*/
  if (((PeriphClkInit->PeriphClockSelection) & RCC_PERIPHCLK_I2C1) == RCC_PERIPHCLK_I2C1)
 8003a76:	687b      	ldr	r3, [r7, #4]
 8003a78:	681b      	ldr	r3, [r3, #0]
 8003a7a:	2220      	movs	r2, #32
 8003a7c:	4013      	ands	r3, r2
 8003a7e:	d009      	beq.n	8003a94 <HAL_RCCEx_PeriphCLKConfig+0x278>
  {
    /* Check the parameters */
    assert_param(IS_RCC_I2C1CLKSOURCE(PeriphClkInit->I2c1ClockSelection));

    /* Configure the I2C1 clock source */
    __HAL_RCC_I2C1_CONFIG(PeriphClkInit->I2c1ClockSelection);
 8003a80:	4b7a      	ldr	r3, [pc, #488]	; (8003c6c <HAL_RCCEx_PeriphCLKConfig+0x450>)
 8003a82:	6d5b      	ldr	r3, [r3, #84]	; 0x54
 8003a84:	4a7f      	ldr	r2, [pc, #508]	; (8003c84 <HAL_RCCEx_PeriphCLKConfig+0x468>)
 8003a86:	4013      	ands	r3, r2
 8003a88:	0019      	movs	r1, r3
 8003a8a:	687b      	ldr	r3, [r7, #4]
 8003a8c:	699a      	ldr	r2, [r3, #24]
 8003a8e:	4b77      	ldr	r3, [pc, #476]	; (8003c6c <HAL_RCCEx_PeriphCLKConfig+0x450>)
 8003a90:	430a      	orrs	r2, r1
 8003a92:	655a      	str	r2, [r3, #84]	; 0x54
  }

#if defined(RCC_CCIPR_I2C2SEL)
  /*-------------------------- I2C2 clock source configuration ---------------------*/
  if (((PeriphClkInit->PeriphClockSelection) & RCC_PERIPHCLK_I2C2) == RCC_PERIPHCLK_I2C2)
 8003a94:	687b      	ldr	r3, [r7, #4]
 8003a96:	681b      	ldr	r3, [r3, #0]
 8003a98:	2240      	movs	r2, #64	; 0x40
 8003a9a:	4013      	ands	r3, r2
 8003a9c:	d009      	beq.n	8003ab2 <HAL_RCCEx_PeriphCLKConfig+0x296>
  {
    /* Check the parameters */
    assert_param(IS_RCC_I2C2CLKSOURCE(PeriphClkInit->I2c2ClockSelection));

    /* Configure the I2C2 clock source */
    __HAL_RCC_I2C2_CONFIG(PeriphClkInit->I2c2ClockSelection);
 8003a9e:	4b73      	ldr	r3, [pc, #460]	; (8003c6c <HAL_RCCEx_PeriphCLKConfig+0x450>)
 8003aa0:	6d5b      	ldr	r3, [r3, #84]	; 0x54
 8003aa2:	4a79      	ldr	r2, [pc, #484]	; (8003c88 <HAL_RCCEx_PeriphCLKConfig+0x46c>)
 8003aa4:	4013      	ands	r3, r2
 8003aa6:	0019      	movs	r1, r3
 8003aa8:	687b      	ldr	r3, [r7, #4]
 8003aaa:	69da      	ldr	r2, [r3, #28]
 8003aac:	4b6f      	ldr	r3, [pc, #444]	; (8003c6c <HAL_RCCEx_PeriphCLKConfig+0x450>)
 8003aae:	430a      	orrs	r2, r1
 8003ab0:	655a      	str	r2, [r3, #84]	; 0x54
      __HAL_RCC_PLLCLKOUT_ENABLE(RCC_PLLQCLK);
    }
  }
#endif /* RNG */
  /*-------------------------- ADC clock source configuration ----------------------*/
  if (((PeriphClkInit->PeriphClockSelection) & RCC_PERIPHCLK_ADC) == RCC_PERIPHCLK_ADC)
 8003ab2:	687b      	ldr	r3, [r7, #4]
 8003ab4:	681a      	ldr	r2, [r3, #0]
 8003ab6:	2380      	movs	r3, #128	; 0x80
 8003ab8:	01db      	lsls	r3, r3, #7
 8003aba:	4013      	ands	r3, r2
 8003abc:	d015      	beq.n	8003aea <HAL_RCCEx_PeriphCLKConfig+0x2ce>
  {
    /* Check the parameters */
    assert_param(IS_RCC_ADCCLKSOURCE(PeriphClkInit->AdcClockSelection));

    /* Configure the ADC interface clock source */
    __HAL_RCC_ADC_CONFIG(PeriphClkInit->AdcClockSelection);
 8003abe:	4b6b      	ldr	r3, [pc, #428]	; (8003c6c <HAL_RCCEx_PeriphCLKConfig+0x450>)
 8003ac0:	6d5b      	ldr	r3, [r3, #84]	; 0x54
 8003ac2:	009b      	lsls	r3, r3, #2
 8003ac4:	0899      	lsrs	r1, r3, #2
 8003ac6:	687b      	ldr	r3, [r7, #4]
 8003ac8:	6b1a      	ldr	r2, [r3, #48]	; 0x30
 8003aca:	4b68      	ldr	r3, [pc, #416]	; (8003c6c <HAL_RCCEx_PeriphCLKConfig+0x450>)
 8003acc:	430a      	orrs	r2, r1
 8003ace:	655a      	str	r2, [r3, #84]	; 0x54

    if (PeriphClkInit->AdcClockSelection == RCC_ADCCLKSOURCE_PLLADC)
 8003ad0:	687b      	ldr	r3, [r7, #4]
 8003ad2:	6b1a      	ldr	r2, [r3, #48]	; 0x30
 8003ad4:	2380      	movs	r3, #128	; 0x80
 8003ad6:	05db      	lsls	r3, r3, #23
 8003ad8:	429a      	cmp	r2, r3
 8003ada:	d106      	bne.n	8003aea <HAL_RCCEx_PeriphCLKConfig+0x2ce>
    {
      /* Enable PLLPCLK output */
      __HAL_RCC_PLLCLKOUT_ENABLE(RCC_PLLPCLK);
 8003adc:	4b63      	ldr	r3, [pc, #396]	; (8003c6c <HAL_RCCEx_PeriphCLKConfig+0x450>)
 8003ade:	68da      	ldr	r2, [r3, #12]
 8003ae0:	4b62      	ldr	r3, [pc, #392]	; (8003c6c <HAL_RCCEx_PeriphCLKConfig+0x450>)
 8003ae2:	2180      	movs	r1, #128	; 0x80
 8003ae4:	0249      	lsls	r1, r1, #9
 8003ae6:	430a      	orrs	r2, r1
 8003ae8:	60da      	str	r2, [r3, #12]
    }
  }

#if defined(CEC)
  /*-------------------------- CEC clock source configuration ---------------------*/
  if (((PeriphClkInit->PeriphClockSelection) & RCC_PERIPHCLK_CEC) == RCC_PERIPHCLK_CEC)
 8003aea:	687b      	ldr	r3, [r7, #4]
 8003aec:	681a      	ldr	r2, [r3, #0]
 8003aee:	2380      	movs	r3, #128	; 0x80
 8003af0:	031b      	lsls	r3, r3, #12
 8003af2:	4013      	ands	r3, r2
 8003af4:	d009      	beq.n	8003b0a <HAL_RCCEx_PeriphCLKConfig+0x2ee>
  {
    /* Check the parameters */
    assert_param(IS_RCC_CECCLKSOURCE(PeriphClkInit->CecClockSelection));

    /* Configure the CEC clock source */
    __HAL_RCC_CEC_CONFIG(PeriphClkInit->CecClockSelection);
 8003af6:	4b5d      	ldr	r3, [pc, #372]	; (8003c6c <HAL_RCCEx_PeriphCLKConfig+0x450>)
 8003af8:	6d5b      	ldr	r3, [r3, #84]	; 0x54
 8003afa:	2240      	movs	r2, #64	; 0x40
 8003afc:	4393      	bics	r3, r2
 8003afe:	0019      	movs	r1, r3
 8003b00:	687b      	ldr	r3, [r7, #4]
 8003b02:	6b5a      	ldr	r2, [r3, #52]	; 0x34
 8003b04:	4b59      	ldr	r3, [pc, #356]	; (8003c6c <HAL_RCCEx_PeriphCLKConfig+0x450>)
 8003b06:	430a      	orrs	r2, r1
 8003b08:	655a      	str	r2, [r3, #84]	; 0x54
  }
#endif /* CEC */

#if defined(RCC_CCIPR_TIM1SEL)
  /*-------------------------- TIM1 clock source configuration ---------------------*/
  if (((PeriphClkInit->PeriphClockSelection) & RCC_PERIPHCLK_TIM1) == RCC_PERIPHCLK_TIM1)
 8003b0a:	687b      	ldr	r3, [r7, #4]
 8003b0c:	681a      	ldr	r2, [r3, #0]
 8003b0e:	2380      	movs	r3, #128	; 0x80
 8003b10:	039b      	lsls	r3, r3, #14
 8003b12:	4013      	ands	r3, r2
 8003b14:	d016      	beq.n	8003b44 <HAL_RCCEx_PeriphCLKConfig+0x328>
  {
    /* Check the parameters */
    assert_param(IS_RCC_TIM1CLKSOURCE(PeriphClkInit->Tim1ClockSelection));

    /* Configure the TIM1 clock source */
    __HAL_RCC_TIM1_CONFIG(PeriphClkInit->Tim1ClockSelection);
 8003b16:	4b55      	ldr	r3, [pc, #340]	; (8003c6c <HAL_RCCEx_PeriphCLKConfig+0x450>)
 8003b18:	6d5b      	ldr	r3, [r3, #84]	; 0x54
 8003b1a:	4a5c      	ldr	r2, [pc, #368]	; (8003c8c <HAL_RCCEx_PeriphCLKConfig+0x470>)
 8003b1c:	4013      	ands	r3, r2
 8003b1e:	0019      	movs	r1, r3
 8003b20:	687b      	ldr	r3, [r7, #4]
 8003b22:	6b9a      	ldr	r2, [r3, #56]	; 0x38
 8003b24:	4b51      	ldr	r3, [pc, #324]	; (8003c6c <HAL_RCCEx_PeriphCLKConfig+0x450>)
 8003b26:	430a      	orrs	r2, r1
 8003b28:	655a      	str	r2, [r3, #84]	; 0x54

    if (PeriphClkInit->Tim1ClockSelection == RCC_TIM1CLKSOURCE_PLL)
 8003b2a:	687b      	ldr	r3, [r7, #4]
 8003b2c:	6b9a      	ldr	r2, [r3, #56]	; 0x38
 8003b2e:	2380      	movs	r3, #128	; 0x80
 8003b30:	03db      	lsls	r3, r3, #15
 8003b32:	429a      	cmp	r2, r3
 8003b34:	d106      	bne.n	8003b44 <HAL_RCCEx_PeriphCLKConfig+0x328>
    {
      /* Enable PLLQCLK output */
      __HAL_RCC_PLLCLKOUT_ENABLE(RCC_PLLQCLK);
 8003b36:	4b4d      	ldr	r3, [pc, #308]	; (8003c6c <HAL_RCCEx_PeriphCLKConfig+0x450>)
 8003b38:	68da      	ldr	r2, [r3, #12]
 8003b3a:	4b4c      	ldr	r3, [pc, #304]	; (8003c6c <HAL_RCCEx_PeriphCLKConfig+0x450>)
 8003b3c:	2180      	movs	r1, #128	; 0x80
 8003b3e:	0449      	lsls	r1, r1, #17
 8003b40:	430a      	orrs	r2, r1
 8003b42:	60da      	str	r2, [r3, #12]
  }
#endif /* RCC_CCIPR_TIM1SEL */

#if defined(RCC_CCIPR_TIM15SEL)
  /*-------------------------- TIM15 clock source configuration ---------------------*/
  if (((PeriphClkInit->PeriphClockSelection) & RCC_PERIPHCLK_TIM15) == RCC_PERIPHCLK_TIM15)
 8003b44:	687b      	ldr	r3, [r7, #4]
 8003b46:	681a      	ldr	r2, [r3, #0]
 8003b48:	2380      	movs	r3, #128	; 0x80
 8003b4a:	03db      	lsls	r3, r3, #15
 8003b4c:	4013      	ands	r3, r2
 8003b4e:	d016      	beq.n	8003b7e <HAL_RCCEx_PeriphCLKConfig+0x362>
  {
    /* Check the parameters */
    assert_param(IS_RCC_TIM15CLKSOURCE(PeriphClkInit->Tim15ClockSelection));

    /* Configure the TIM15 clock source */
    __HAL_RCC_TIM15_CONFIG(PeriphClkInit->Tim15ClockSelection);
 8003b50:	4b46      	ldr	r3, [pc, #280]	; (8003c6c <HAL_RCCEx_PeriphCLKConfig+0x450>)
 8003b52:	6d5b      	ldr	r3, [r3, #84]	; 0x54
 8003b54:	4a4e      	ldr	r2, [pc, #312]	; (8003c90 <HAL_RCCEx_PeriphCLKConfig+0x474>)
 8003b56:	4013      	ands	r3, r2
 8003b58:	0019      	movs	r1, r3
 8003b5a:	687b      	ldr	r3, [r7, #4]
 8003b5c:	6bda      	ldr	r2, [r3, #60]	; 0x3c
 8003b5e:	4b43      	ldr	r3, [pc, #268]	; (8003c6c <HAL_RCCEx_PeriphCLKConfig+0x450>)
 8003b60:	430a      	orrs	r2, r1
 8003b62:	655a      	str	r2, [r3, #84]	; 0x54

    if (PeriphClkInit->Tim15ClockSelection == RCC_TIM15CLKSOURCE_PLL)
 8003b64:	687b      	ldr	r3, [r7, #4]
 8003b66:	6bda      	ldr	r2, [r3, #60]	; 0x3c
 8003b68:	2380      	movs	r3, #128	; 0x80
 8003b6a:	045b      	lsls	r3, r3, #17
 8003b6c:	429a      	cmp	r2, r3
 8003b6e:	d106      	bne.n	8003b7e <HAL_RCCEx_PeriphCLKConfig+0x362>
    {
      /* Enable PLLQCLK output */
      __HAL_RCC_PLLCLKOUT_ENABLE(RCC_PLLQCLK);
 8003b70:	4b3e      	ldr	r3, [pc, #248]	; (8003c6c <HAL_RCCEx_PeriphCLKConfig+0x450>)
 8003b72:	68da      	ldr	r2, [r3, #12]
 8003b74:	4b3d      	ldr	r3, [pc, #244]	; (8003c6c <HAL_RCCEx_PeriphCLKConfig+0x450>)
 8003b76:	2180      	movs	r1, #128	; 0x80
 8003b78:	0449      	lsls	r1, r1, #17
 8003b7a:	430a      	orrs	r2, r1
 8003b7c:	60da      	str	r2, [r3, #12]
    }
  }
#endif /* RCC_CCIPR_TIM15SEL */

  /*-------------------------- I2S1 clock source configuration ---------------------*/
  if (((PeriphClkInit->PeriphClockSelection) & RCC_PERIPHCLK_I2S1) == RCC_PERIPHCLK_I2S1)
 8003b7e:	687b      	ldr	r3, [r7, #4]
 8003b80:	681a      	ldr	r2, [r3, #0]
 8003b82:	2380      	movs	r3, #128	; 0x80
 8003b84:	011b      	lsls	r3, r3, #4
 8003b86:	4013      	ands	r3, r2
 8003b88:	d014      	beq.n	8003bb4 <HAL_RCCEx_PeriphCLKConfig+0x398>
  {
    /* Check the parameters */
    assert_param(IS_RCC_I2S1CLKSOURCE(PeriphClkInit->I2s1ClockSelection));

    /* Configure the I2S1 clock source */
    __HAL_RCC_I2S1_CONFIG(PeriphClkInit->I2s1ClockSelection);
 8003b8a:	4b38      	ldr	r3, [pc, #224]	; (8003c6c <HAL_RCCEx_PeriphCLKConfig+0x450>)
 8003b8c:	6d9b      	ldr	r3, [r3, #88]	; 0x58
 8003b8e:	2203      	movs	r2, #3
 8003b90:	4393      	bics	r3, r2
 8003b92:	0019      	movs	r1, r3
 8003b94:	687b      	ldr	r3, [r7, #4]
 8003b96:	6a1a      	ldr	r2, [r3, #32]
 8003b98:	4b34      	ldr	r3, [pc, #208]	; (8003c6c <HAL_RCCEx_PeriphCLKConfig+0x450>)
 8003b9a:	430a      	orrs	r2, r1
 8003b9c:	659a      	str	r2, [r3, #88]	; 0x58

    if (PeriphClkInit->I2s1ClockSelection == RCC_I2S1CLKSOURCE_PLL)
 8003b9e:	687b      	ldr	r3, [r7, #4]
 8003ba0:	6a1b      	ldr	r3, [r3, #32]
 8003ba2:	2b01      	cmp	r3, #1
 8003ba4:	d106      	bne.n	8003bb4 <HAL_RCCEx_PeriphCLKConfig+0x398>
    {
      /* Enable PLLPCLK output */
      __HAL_RCC_PLLCLKOUT_ENABLE(RCC_PLLPCLK);
 8003ba6:	4b31      	ldr	r3, [pc, #196]	; (8003c6c <HAL_RCCEx_PeriphCLKConfig+0x450>)
 8003ba8:	68da      	ldr	r2, [r3, #12]
 8003baa:	4b30      	ldr	r3, [pc, #192]	; (8003c6c <HAL_RCCEx_PeriphCLKConfig+0x450>)
 8003bac:	2180      	movs	r1, #128	; 0x80
 8003bae:	0249      	lsls	r1, r1, #9
 8003bb0:	430a      	orrs	r2, r1
 8003bb2:	60da      	str	r2, [r3, #12]
    }
  }

#if defined(RCC_CCIPR2_I2S2SEL)
  /*-------------------------- I2S2 clock source configuration ---------------------*/
  if (((PeriphClkInit->PeriphClockSelection) & RCC_PERIPHCLK_I2S2) == RCC_PERIPHCLK_I2S2)
 8003bb4:	687b      	ldr	r3, [r7, #4]
 8003bb6:	681a      	ldr	r2, [r3, #0]
 8003bb8:	2380      	movs	r3, #128	; 0x80
 8003bba:	019b      	lsls	r3, r3, #6
 8003bbc:	4013      	ands	r3, r2
 8003bbe:	d014      	beq.n	8003bea <HAL_RCCEx_PeriphCLKConfig+0x3ce>
  {
    /* Check the parameters */
    assert_param(IS_RCC_I2S2CLKSOURCE(PeriphClkInit->I2s2ClockSelection));

    /* Configure the I2S2 clock source */
    __HAL_RCC_I2S2_CONFIG(PeriphClkInit->I2s2ClockSelection);
 8003bc0:	4b2a      	ldr	r3, [pc, #168]	; (8003c6c <HAL_RCCEx_PeriphCLKConfig+0x450>)
 8003bc2:	6d9b      	ldr	r3, [r3, #88]	; 0x58
 8003bc4:	220c      	movs	r2, #12
 8003bc6:	4393      	bics	r3, r2
 8003bc8:	0019      	movs	r1, r3
 8003bca:	687b      	ldr	r3, [r7, #4]
 8003bcc:	6a5a      	ldr	r2, [r3, #36]	; 0x24
 8003bce:	4b27      	ldr	r3, [pc, #156]	; (8003c6c <HAL_RCCEx_PeriphCLKConfig+0x450>)
 8003bd0:	430a      	orrs	r2, r1
 8003bd2:	659a      	str	r2, [r3, #88]	; 0x58

    if (PeriphClkInit->I2s2ClockSelection == RCC_I2S2CLKSOURCE_PLL)
 8003bd4:	687b      	ldr	r3, [r7, #4]
 8003bd6:	6a5b      	ldr	r3, [r3, #36]	; 0x24
 8003bd8:	2b04      	cmp	r3, #4
 8003bda:	d106      	bne.n	8003bea <HAL_RCCEx_PeriphCLKConfig+0x3ce>
    {
      /* Enable PLLPCLK output */
      __HAL_RCC_PLLCLKOUT_ENABLE(RCC_PLLPCLK);
 8003bdc:	4b23      	ldr	r3, [pc, #140]	; (8003c6c <HAL_RCCEx_PeriphCLKConfig+0x450>)
 8003bde:	68da      	ldr	r2, [r3, #12]
 8003be0:	4b22      	ldr	r3, [pc, #136]	; (8003c6c <HAL_RCCEx_PeriphCLKConfig+0x450>)
 8003be2:	2180      	movs	r1, #128	; 0x80
 8003be4:	0249      	lsls	r1, r1, #9
 8003be6:	430a      	orrs	r2, r1
 8003be8:	60da      	str	r2, [r3, #12]
  }
#endif /* RCC_CCIPR2_I2S2SEL */

#if defined(STM32G0C1xx) || defined(STM32G0B1xx)  || defined(STM32G0B0xx)
  /*-------------------------- USB clock source configuration ---------------------*/
  if (((PeriphClkInit->PeriphClockSelection) & RCC_PERIPHCLK_USB) == RCC_PERIPHCLK_USB)
 8003bea:	687b      	ldr	r3, [r7, #4]
 8003bec:	681a      	ldr	r2, [r3, #0]
 8003bee:	2380      	movs	r3, #128	; 0x80
 8003bf0:	045b      	lsls	r3, r3, #17
 8003bf2:	4013      	ands	r3, r2
 8003bf4:	d016      	beq.n	8003c24 <HAL_RCCEx_PeriphCLKConfig+0x408>
  {
    /* Check the parameters */
    assert_param(IS_RCC_USBCLKSOURCE(PeriphClkInit->UsbClockSelection));

    /* Configure the USB clock source */
    __HAL_RCC_USB_CONFIG(PeriphClkInit->UsbClockSelection);
 8003bf6:	4b1d      	ldr	r3, [pc, #116]	; (8003c6c <HAL_RCCEx_PeriphCLKConfig+0x450>)
 8003bf8:	6d9b      	ldr	r3, [r3, #88]	; 0x58
 8003bfa:	4a22      	ldr	r2, [pc, #136]	; (8003c84 <HAL_RCCEx_PeriphCLKConfig+0x468>)
 8003bfc:	4013      	ands	r3, r2
 8003bfe:	0019      	movs	r1, r3
 8003c00:	687b      	ldr	r3, [r7, #4]
 8003c02:	6c5a      	ldr	r2, [r3, #68]	; 0x44
 8003c04:	4b19      	ldr	r3, [pc, #100]	; (8003c6c <HAL_RCCEx_PeriphCLKConfig+0x450>)
 8003c06:	430a      	orrs	r2, r1
 8003c08:	659a      	str	r2, [r3, #88]	; 0x58

    if (PeriphClkInit->UsbClockSelection == RCC_USBCLKSOURCE_PLL)
 8003c0a:	687b      	ldr	r3, [r7, #4]
 8003c0c:	6c5a      	ldr	r2, [r3, #68]	; 0x44
 8003c0e:	2380      	movs	r3, #128	; 0x80
 8003c10:	019b      	lsls	r3, r3, #6
 8003c12:	429a      	cmp	r2, r3
 8003c14:	d106      	bne.n	8003c24 <HAL_RCCEx_PeriphCLKConfig+0x408>
    {
      /* Enable PLLQCLK output */
      __HAL_RCC_PLLCLKOUT_ENABLE(RCC_PLLQCLK);
 8003c16:	4b15      	ldr	r3, [pc, #84]	; (8003c6c <HAL_RCCEx_PeriphCLKConfig+0x450>)
 8003c18:	68da      	ldr	r2, [r3, #12]
 8003c1a:	4b14      	ldr	r3, [pc, #80]	; (8003c6c <HAL_RCCEx_PeriphCLKConfig+0x450>)
 8003c1c:	2180      	movs	r1, #128	; 0x80
 8003c1e:	0449      	lsls	r1, r1, #17
 8003c20:	430a      	orrs	r2, r1
 8003c22:	60da      	str	r2, [r3, #12]
  }
#endif /* STM32G0C1xx || STM32G0B1xx || STM32G0B0xx */

#if defined(FDCAN1) || defined(FDCAN2)
  /*-------------------------- FDCAN clock source configuration ---------------------*/
  if (((PeriphClkInit->PeriphClockSelection) & RCC_PERIPHCLK_FDCAN) == RCC_PERIPHCLK_FDCAN)
 8003c24:	687b      	ldr	r3, [r7, #4]
 8003c26:	681a      	ldr	r2, [r3, #0]
 8003c28:	2380      	movs	r3, #128	; 0x80
 8003c2a:	049b      	lsls	r3, r3, #18
 8003c2c:	4013      	ands	r3, r2
 8003c2e:	d016      	beq.n	8003c5e <HAL_RCCEx_PeriphCLKConfig+0x442>
  {
    /* Check the parameters */
    assert_param(IS_RCC_FDCANCLKSOURCE(PeriphClkInit->FdcanClockSelection));

    /* Configure the FDCAN clock source */
    __HAL_RCC_FDCAN_CONFIG(PeriphClkInit->FdcanClockSelection);
 8003c30:	4b0e      	ldr	r3, [pc, #56]	; (8003c6c <HAL_RCCEx_PeriphCLKConfig+0x450>)
 8003c32:	6d9b      	ldr	r3, [r3, #88]	; 0x58
 8003c34:	4a10      	ldr	r2, [pc, #64]	; (8003c78 <HAL_RCCEx_PeriphCLKConfig+0x45c>)
 8003c36:	4013      	ands	r3, r2
 8003c38:	0019      	movs	r1, r3
 8003c3a:	687b      	ldr	r3, [r7, #4]
 8003c3c:	6c9a      	ldr	r2, [r3, #72]	; 0x48
 8003c3e:	4b0b      	ldr	r3, [pc, #44]	; (8003c6c <HAL_RCCEx_PeriphCLKConfig+0x450>)
 8003c40:	430a      	orrs	r2, r1
 8003c42:	659a      	str	r2, [r3, #88]	; 0x58

    if (PeriphClkInit->FdcanClockSelection == RCC_FDCANCLKSOURCE_PLL)
 8003c44:	687b      	ldr	r3, [r7, #4]
 8003c46:	6c9a      	ldr	r2, [r3, #72]	; 0x48
 8003c48:	2380      	movs	r3, #128	; 0x80
 8003c4a:	005b      	lsls	r3, r3, #1
 8003c4c:	429a      	cmp	r2, r3
 8003c4e:	d106      	bne.n	8003c5e <HAL_RCCEx_PeriphCLKConfig+0x442>
    {
      /* Enable PLLQCLK output */
      __HAL_RCC_PLLCLKOUT_ENABLE(RCC_PLLQCLK);
 8003c50:	4b06      	ldr	r3, [pc, #24]	; (8003c6c <HAL_RCCEx_PeriphCLKConfig+0x450>)
 8003c52:	68da      	ldr	r2, [r3, #12]
 8003c54:	4b05      	ldr	r3, [pc, #20]	; (8003c6c <HAL_RCCEx_PeriphCLKConfig+0x450>)
 8003c56:	2180      	movs	r1, #128	; 0x80
 8003c58:	0449      	lsls	r1, r1, #17
 8003c5a:	430a      	orrs	r2, r1
 8003c5c:	60da      	str	r2, [r3, #12]
    }
  }
#endif /* FDCAN1 || FDCAN2 */

  return status;
 8003c5e:	2312      	movs	r3, #18
 8003c60:	18fb      	adds	r3, r7, r3
 8003c62:	781b      	ldrb	r3, [r3, #0]
}
 8003c64:	0018      	movs	r0, r3
 8003c66:	46bd      	mov	sp, r7
 8003c68:	b006      	add	sp, #24
 8003c6a:	bd80      	pop	{r7, pc}
 8003c6c:	40021000 	.word	0x40021000
 8003c70:	efffffff 	.word	0xefffffff
 8003c74:	fffff3ff 	.word	0xfffff3ff
 8003c78:	fffffcff 	.word	0xfffffcff
 8003c7c:	fff3ffff 	.word	0xfff3ffff
 8003c80:	ffcfffff 	.word	0xffcfffff
 8003c84:	ffffcfff 	.word	0xffffcfff
 8003c88:	ffff3fff 	.word	0xffff3fff
 8003c8c:	ffbfffff 	.word	0xffbfffff
 8003c90:	feffffff 	.word	0xfeffffff

08003c94 <HAL_TIM_Base_Init>:
  *         Ex: call @ref HAL_TIM_Base_DeInit() before HAL_TIM_Base_Init()
  * @param  htim TIM Base handle
  * @retval HAL status
  */
HAL_StatusTypeDef HAL_TIM_Base_Init(TIM_HandleTypeDef *htim)
{
 8003c94:	b580      	push	{r7, lr}
 8003c96:	b082      	sub	sp, #8
 8003c98:	af00      	add	r7, sp, #0
 8003c9a:	6078      	str	r0, [r7, #4]
  /* Check the TIM handle allocation */
  if (htim == NULL)
 8003c9c:	687b      	ldr	r3, [r7, #4]
 8003c9e:	2b00      	cmp	r3, #0
 8003ca0:	d101      	bne.n	8003ca6 <HAL_TIM_Base_Init+0x12>
  {
    return HAL_ERROR;
 8003ca2:	2301      	movs	r3, #1
 8003ca4:	e04a      	b.n	8003d3c <HAL_TIM_Base_Init+0xa8>
  assert_param(IS_TIM_COUNTER_MODE(htim->Init.CounterMode));
  assert_param(IS_TIM_CLOCKDIVISION_DIV(htim->Init.ClockDivision));
  assert_param(IS_TIM_PERIOD(htim, htim->Init.Period));
  assert_param(IS_TIM_AUTORELOAD_PRELOAD(htim->Init.AutoReloadPreload));

  if (htim->State == HAL_TIM_STATE_RESET)
 8003ca6:	687b      	ldr	r3, [r7, #4]
 8003ca8:	223d      	movs	r2, #61	; 0x3d
 8003caa:	5c9b      	ldrb	r3, [r3, r2]
 8003cac:	b2db      	uxtb	r3, r3
 8003cae:	2b00      	cmp	r3, #0
 8003cb0:	d107      	bne.n	8003cc2 <HAL_TIM_Base_Init+0x2e>
  {
    /* Allocate lock resource and initialize it */
    htim->Lock = HAL_UNLOCKED;
 8003cb2:	687b      	ldr	r3, [r7, #4]
 8003cb4:	223c      	movs	r2, #60	; 0x3c
 8003cb6:	2100      	movs	r1, #0
 8003cb8:	5499      	strb	r1, [r3, r2]
    }
    /* Init the low level hardware : GPIO, CLOCK, NVIC */
    htim->Base_MspInitCallback(htim);
#else
    /* Init the low level hardware : GPIO, CLOCK, NVIC */
    HAL_TIM_Base_MspInit(htim);
 8003cba:	687b      	ldr	r3, [r7, #4]
 8003cbc:	0018      	movs	r0, r3
 8003cbe:	f7fd f913 	bl	8000ee8 <HAL_TIM_Base_MspInit>
#endif /* USE_HAL_TIM_REGISTER_CALLBACKS */
  }

  /* Set the TIM state */
  htim->State = HAL_TIM_STATE_BUSY;
 8003cc2:	687b      	ldr	r3, [r7, #4]
 8003cc4:	223d      	movs	r2, #61	; 0x3d
 8003cc6:	2102      	movs	r1, #2
 8003cc8:	5499      	strb	r1, [r3, r2]

  /* Set the Time Base configuration */
  TIM_Base_SetConfig(htim->Instance, &htim->Init);
 8003cca:	687b      	ldr	r3, [r7, #4]
 8003ccc:	681a      	ldr	r2, [r3, #0]
 8003cce:	687b      	ldr	r3, [r7, #4]
 8003cd0:	3304      	adds	r3, #4
 8003cd2:	0019      	movs	r1, r3
 8003cd4:	0010      	movs	r0, r2
 8003cd6:	f000 f90b 	bl	8003ef0 <TIM_Base_SetConfig>

  /* Initialize the DMA burst operation state */
  htim->DMABurstState = HAL_DMA_BURST_STATE_READY;
 8003cda:	687b      	ldr	r3, [r7, #4]
 8003cdc:	2248      	movs	r2, #72	; 0x48
 8003cde:	2101      	movs	r1, #1
 8003ce0:	5499      	strb	r1, [r3, r2]

  /* Initialize the TIM channels state */
  TIM_CHANNEL_STATE_SET_ALL(htim, HAL_TIM_CHANNEL_STATE_READY);
 8003ce2:	687b      	ldr	r3, [r7, #4]
 8003ce4:	223e      	movs	r2, #62	; 0x3e
 8003ce6:	2101      	movs	r1, #1
 8003ce8:	5499      	strb	r1, [r3, r2]
 8003cea:	687b      	ldr	r3, [r7, #4]
 8003cec:	223f      	movs	r2, #63	; 0x3f
 8003cee:	2101      	movs	r1, #1
 8003cf0:	5499      	strb	r1, [r3, r2]
 8003cf2:	687b      	ldr	r3, [r7, #4]
 8003cf4:	2240      	movs	r2, #64	; 0x40
 8003cf6:	2101      	movs	r1, #1
 8003cf8:	5499      	strb	r1, [r3, r2]
 8003cfa:	687b      	ldr	r3, [r7, #4]
 8003cfc:	2241      	movs	r2, #65	; 0x41
 8003cfe:	2101      	movs	r1, #1
 8003d00:	5499      	strb	r1, [r3, r2]
 8003d02:	687b      	ldr	r3, [r7, #4]
 8003d04:	2242      	movs	r2, #66	; 0x42
 8003d06:	2101      	movs	r1, #1
 8003d08:	5499      	strb	r1, [r3, r2]
 8003d0a:	687b      	ldr	r3, [r7, #4]
 8003d0c:	2243      	movs	r2, #67	; 0x43
 8003d0e:	2101      	movs	r1, #1
 8003d10:	5499      	strb	r1, [r3, r2]
  TIM_CHANNEL_N_STATE_SET_ALL(htim, HAL_TIM_CHANNEL_STATE_READY);
 8003d12:	687b      	ldr	r3, [r7, #4]
 8003d14:	2244      	movs	r2, #68	; 0x44
 8003d16:	2101      	movs	r1, #1
 8003d18:	5499      	strb	r1, [r3, r2]
 8003d1a:	687b      	ldr	r3, [r7, #4]
 8003d1c:	2245      	movs	r2, #69	; 0x45
 8003d1e:	2101      	movs	r1, #1
 8003d20:	5499      	strb	r1, [r3, r2]
 8003d22:	687b      	ldr	r3, [r7, #4]
 8003d24:	2246      	movs	r2, #70	; 0x46
 8003d26:	2101      	movs	r1, #1
 8003d28:	5499      	strb	r1, [r3, r2]
 8003d2a:	687b      	ldr	r3, [r7, #4]
 8003d2c:	2247      	movs	r2, #71	; 0x47
 8003d2e:	2101      	movs	r1, #1
 8003d30:	5499      	strb	r1, [r3, r2]

  /* Initialize the TIM state*/
  htim->State = HAL_TIM_STATE_READY;
 8003d32:	687b      	ldr	r3, [r7, #4]
 8003d34:	223d      	movs	r2, #61	; 0x3d
 8003d36:	2101      	movs	r1, #1
 8003d38:	5499      	strb	r1, [r3, r2]

  return HAL_OK;
 8003d3a:	2300      	movs	r3, #0
}
 8003d3c:	0018      	movs	r0, r3
 8003d3e:	46bd      	mov	sp, r7
 8003d40:	b002      	add	sp, #8
 8003d42:	bd80      	pop	{r7, pc}

08003d44 <HAL_TIM_ConfigClockSource>:
  * @param  sClockSourceConfig pointer to a TIM_ClockConfigTypeDef structure that
  *         contains the clock source information for the TIM peripheral.
  * @retval HAL status
  */
HAL_StatusTypeDef HAL_TIM_ConfigClockSource(TIM_HandleTypeDef *htim, const TIM_ClockConfigTypeDef *sClockSourceConfig)
{
 8003d44:	b580      	push	{r7, lr}
 8003d46:	b084      	sub	sp, #16
 8003d48:	af00      	add	r7, sp, #0
 8003d4a:	6078      	str	r0, [r7, #4]
 8003d4c:	6039      	str	r1, [r7, #0]
  HAL_StatusTypeDef status = HAL_OK;
 8003d4e:	230f      	movs	r3, #15
 8003d50:	18fb      	adds	r3, r7, r3
 8003d52:	2200      	movs	r2, #0
 8003d54:	701a      	strb	r2, [r3, #0]
  uint32_t tmpsmcr;

  /* Process Locked */
  __HAL_LOCK(htim);
 8003d56:	687b      	ldr	r3, [r7, #4]
 8003d58:	223c      	movs	r2, #60	; 0x3c
 8003d5a:	5c9b      	ldrb	r3, [r3, r2]
 8003d5c:	2b01      	cmp	r3, #1
 8003d5e:	d101      	bne.n	8003d64 <HAL_TIM_ConfigClockSource+0x20>
 8003d60:	2302      	movs	r3, #2
 8003d62:	e0bc      	b.n	8003ede <HAL_TIM_ConfigClockSource+0x19a>
 8003d64:	687b      	ldr	r3, [r7, #4]
 8003d66:	223c      	movs	r2, #60	; 0x3c
 8003d68:	2101      	movs	r1, #1
 8003d6a:	5499      	strb	r1, [r3, r2]

  htim->State = HAL_TIM_STATE_BUSY;
 8003d6c:	687b      	ldr	r3, [r7, #4]
 8003d6e:	223d      	movs	r2, #61	; 0x3d
 8003d70:	2102      	movs	r1, #2
 8003d72:	5499      	strb	r1, [r3, r2]

  /* Check the parameters */
  assert_param(IS_TIM_CLOCKSOURCE(sClockSourceConfig->ClockSource));

  /* Reset the SMS, TS, ECE, ETPS and ETRF bits */
  tmpsmcr = htim->Instance->SMCR;
 8003d74:	687b      	ldr	r3, [r7, #4]
 8003d76:	681b      	ldr	r3, [r3, #0]
 8003d78:	689b      	ldr	r3, [r3, #8]
 8003d7a:	60bb      	str	r3, [r7, #8]
  tmpsmcr &= ~(TIM_SMCR_SMS | TIM_SMCR_TS);
 8003d7c:	68bb      	ldr	r3, [r7, #8]
 8003d7e:	4a5a      	ldr	r2, [pc, #360]	; (8003ee8 <HAL_TIM_ConfigClockSource+0x1a4>)
 8003d80:	4013      	ands	r3, r2
 8003d82:	60bb      	str	r3, [r7, #8]
  tmpsmcr &= ~(TIM_SMCR_ETF | TIM_SMCR_ETPS | TIM_SMCR_ECE | TIM_SMCR_ETP);
 8003d84:	68bb      	ldr	r3, [r7, #8]
 8003d86:	4a59      	ldr	r2, [pc, #356]	; (8003eec <HAL_TIM_ConfigClockSource+0x1a8>)
 8003d88:	4013      	ands	r3, r2
 8003d8a:	60bb      	str	r3, [r7, #8]
  htim->Instance->SMCR = tmpsmcr;
 8003d8c:	687b      	ldr	r3, [r7, #4]
 8003d8e:	681b      	ldr	r3, [r3, #0]
 8003d90:	68ba      	ldr	r2, [r7, #8]
 8003d92:	609a      	str	r2, [r3, #8]

  switch (sClockSourceConfig->ClockSource)
 8003d94:	683b      	ldr	r3, [r7, #0]
 8003d96:	681b      	ldr	r3, [r3, #0]
 8003d98:	2280      	movs	r2, #128	; 0x80
 8003d9a:	0192      	lsls	r2, r2, #6
 8003d9c:	4293      	cmp	r3, r2
 8003d9e:	d040      	beq.n	8003e22 <HAL_TIM_ConfigClockSource+0xde>
 8003da0:	2280      	movs	r2, #128	; 0x80
 8003da2:	0192      	lsls	r2, r2, #6
 8003da4:	4293      	cmp	r3, r2
 8003da6:	d900      	bls.n	8003daa <HAL_TIM_ConfigClockSource+0x66>
 8003da8:	e088      	b.n	8003ebc <HAL_TIM_ConfigClockSource+0x178>
 8003daa:	2280      	movs	r2, #128	; 0x80
 8003dac:	0152      	lsls	r2, r2, #5
 8003dae:	4293      	cmp	r3, r2
 8003db0:	d100      	bne.n	8003db4 <HAL_TIM_ConfigClockSource+0x70>
 8003db2:	e088      	b.n	8003ec6 <HAL_TIM_ConfigClockSource+0x182>
 8003db4:	2280      	movs	r2, #128	; 0x80
 8003db6:	0152      	lsls	r2, r2, #5
 8003db8:	4293      	cmp	r3, r2
 8003dba:	d900      	bls.n	8003dbe <HAL_TIM_ConfigClockSource+0x7a>
 8003dbc:	e07e      	b.n	8003ebc <HAL_TIM_ConfigClockSource+0x178>
 8003dbe:	2b70      	cmp	r3, #112	; 0x70
 8003dc0:	d018      	beq.n	8003df4 <HAL_TIM_ConfigClockSource+0xb0>
 8003dc2:	d900      	bls.n	8003dc6 <HAL_TIM_ConfigClockSource+0x82>
 8003dc4:	e07a      	b.n	8003ebc <HAL_TIM_ConfigClockSource+0x178>
 8003dc6:	2b60      	cmp	r3, #96	; 0x60
 8003dc8:	d04f      	beq.n	8003e6a <HAL_TIM_ConfigClockSource+0x126>
 8003dca:	d900      	bls.n	8003dce <HAL_TIM_ConfigClockSource+0x8a>
 8003dcc:	e076      	b.n	8003ebc <HAL_TIM_ConfigClockSource+0x178>
 8003dce:	2b50      	cmp	r3, #80	; 0x50
 8003dd0:	d03b      	beq.n	8003e4a <HAL_TIM_ConfigClockSource+0x106>
 8003dd2:	d900      	bls.n	8003dd6 <HAL_TIM_ConfigClockSource+0x92>
 8003dd4:	e072      	b.n	8003ebc <HAL_TIM_ConfigClockSource+0x178>
 8003dd6:	2b40      	cmp	r3, #64	; 0x40
 8003dd8:	d057      	beq.n	8003e8a <HAL_TIM_ConfigClockSource+0x146>
 8003dda:	d900      	bls.n	8003dde <HAL_TIM_ConfigClockSource+0x9a>
 8003ddc:	e06e      	b.n	8003ebc <HAL_TIM_ConfigClockSource+0x178>
 8003dde:	2b30      	cmp	r3, #48	; 0x30
 8003de0:	d063      	beq.n	8003eaa <HAL_TIM_ConfigClockSource+0x166>
 8003de2:	d86b      	bhi.n	8003ebc <HAL_TIM_ConfigClockSource+0x178>
 8003de4:	2b20      	cmp	r3, #32
 8003de6:	d060      	beq.n	8003eaa <HAL_TIM_ConfigClockSource+0x166>
 8003de8:	d868      	bhi.n	8003ebc <HAL_TIM_ConfigClockSource+0x178>
 8003dea:	2b00      	cmp	r3, #0
 8003dec:	d05d      	beq.n	8003eaa <HAL_TIM_ConfigClockSource+0x166>
 8003dee:	2b10      	cmp	r3, #16
 8003df0:	d05b      	beq.n	8003eaa <HAL_TIM_ConfigClockSource+0x166>
 8003df2:	e063      	b.n	8003ebc <HAL_TIM_ConfigClockSource+0x178>
      assert_param(IS_TIM_CLOCKPRESCALER(sClockSourceConfig->ClockPrescaler));
      assert_param(IS_TIM_CLOCKPOLARITY(sClockSourceConfig->ClockPolarity));
      assert_param(IS_TIM_CLOCKFILTER(sClockSourceConfig->ClockFilter));

      /* Configure the ETR Clock source */
      TIM_ETR_SetConfig(htim->Instance,
 8003df4:	687b      	ldr	r3, [r7, #4]
 8003df6:	6818      	ldr	r0, [r3, #0]
 8003df8:	683b      	ldr	r3, [r7, #0]
 8003dfa:	6899      	ldr	r1, [r3, #8]
 8003dfc:	683b      	ldr	r3, [r7, #0]
 8003dfe:	685a      	ldr	r2, [r3, #4]
 8003e00:	683b      	ldr	r3, [r7, #0]
 8003e02:	68db      	ldr	r3, [r3, #12]
 8003e04:	f000 f97a 	bl	80040fc <TIM_ETR_SetConfig>
                        sClockSourceConfig->ClockPrescaler,
                        sClockSourceConfig->ClockPolarity,
                        sClockSourceConfig->ClockFilter);

      /* Select the External clock mode1 and the ETRF trigger */
      tmpsmcr = htim->Instance->SMCR;
 8003e08:	687b      	ldr	r3, [r7, #4]
 8003e0a:	681b      	ldr	r3, [r3, #0]
 8003e0c:	689b      	ldr	r3, [r3, #8]
 8003e0e:	60bb      	str	r3, [r7, #8]
      tmpsmcr |= (TIM_SLAVEMODE_EXTERNAL1 | TIM_CLOCKSOURCE_ETRMODE1);
 8003e10:	68bb      	ldr	r3, [r7, #8]
 8003e12:	2277      	movs	r2, #119	; 0x77
 8003e14:	4313      	orrs	r3, r2
 8003e16:	60bb      	str	r3, [r7, #8]
      /* Write to TIMx SMCR */
      htim->Instance->SMCR = tmpsmcr;
 8003e18:	687b      	ldr	r3, [r7, #4]
 8003e1a:	681b      	ldr	r3, [r3, #0]
 8003e1c:	68ba      	ldr	r2, [r7, #8]
 8003e1e:	609a      	str	r2, [r3, #8]
      break;
 8003e20:	e052      	b.n	8003ec8 <HAL_TIM_ConfigClockSource+0x184>
      assert_param(IS_TIM_CLOCKPRESCALER(sClockSourceConfig->ClockPrescaler));
      assert_param(IS_TIM_CLOCKPOLARITY(sClockSourceConfig->ClockPolarity));
      assert_param(IS_TIM_CLOCKFILTER(sClockSourceConfig->ClockFilter));

      /* Configure the ETR Clock source */
      TIM_ETR_SetConfig(htim->Instance,
 8003e22:	687b      	ldr	r3, [r7, #4]
 8003e24:	6818      	ldr	r0, [r3, #0]
 8003e26:	683b      	ldr	r3, [r7, #0]
 8003e28:	6899      	ldr	r1, [r3, #8]
 8003e2a:	683b      	ldr	r3, [r7, #0]
 8003e2c:	685a      	ldr	r2, [r3, #4]
 8003e2e:	683b      	ldr	r3, [r7, #0]
 8003e30:	68db      	ldr	r3, [r3, #12]
 8003e32:	f000 f963 	bl	80040fc <TIM_ETR_SetConfig>
                        sClockSourceConfig->ClockPrescaler,
                        sClockSourceConfig->ClockPolarity,
                        sClockSourceConfig->ClockFilter);
      /* Enable the External clock mode2 */
      htim->Instance->SMCR |= TIM_SMCR_ECE;
 8003e36:	687b      	ldr	r3, [r7, #4]
 8003e38:	681b      	ldr	r3, [r3, #0]
 8003e3a:	689a      	ldr	r2, [r3, #8]
 8003e3c:	687b      	ldr	r3, [r7, #4]
 8003e3e:	681b      	ldr	r3, [r3, #0]
 8003e40:	2180      	movs	r1, #128	; 0x80
 8003e42:	01c9      	lsls	r1, r1, #7
 8003e44:	430a      	orrs	r2, r1
 8003e46:	609a      	str	r2, [r3, #8]
      break;
 8003e48:	e03e      	b.n	8003ec8 <HAL_TIM_ConfigClockSource+0x184>

      /* Check TI1 input conditioning related parameters */
      assert_param(IS_TIM_CLOCKPOLARITY(sClockSourceConfig->ClockPolarity));
      assert_param(IS_TIM_CLOCKFILTER(sClockSourceConfig->ClockFilter));

      TIM_TI1_ConfigInputStage(htim->Instance,
 8003e4a:	687b      	ldr	r3, [r7, #4]
 8003e4c:	6818      	ldr	r0, [r3, #0]
 8003e4e:	683b      	ldr	r3, [r7, #0]
 8003e50:	6859      	ldr	r1, [r3, #4]
 8003e52:	683b      	ldr	r3, [r7, #0]
 8003e54:	68db      	ldr	r3, [r3, #12]
 8003e56:	001a      	movs	r2, r3
 8003e58:	f000 f8d4 	bl	8004004 <TIM_TI1_ConfigInputStage>
                               sClockSourceConfig->ClockPolarity,
                               sClockSourceConfig->ClockFilter);
      TIM_ITRx_SetConfig(htim->Instance, TIM_CLOCKSOURCE_TI1);
 8003e5c:	687b      	ldr	r3, [r7, #4]
 8003e5e:	681b      	ldr	r3, [r3, #0]
 8003e60:	2150      	movs	r1, #80	; 0x50
 8003e62:	0018      	movs	r0, r3
 8003e64:	f000 f92e 	bl	80040c4 <TIM_ITRx_SetConfig>
      break;
 8003e68:	e02e      	b.n	8003ec8 <HAL_TIM_ConfigClockSource+0x184>

      /* Check TI2 input conditioning related parameters */
      assert_param(IS_TIM_CLOCKPOLARITY(sClockSourceConfig->ClockPolarity));
      assert_param(IS_TIM_CLOCKFILTER(sClockSourceConfig->ClockFilter));

      TIM_TI2_ConfigInputStage(htim->Instance,
 8003e6a:	687b      	ldr	r3, [r7, #4]
 8003e6c:	6818      	ldr	r0, [r3, #0]
 8003e6e:	683b      	ldr	r3, [r7, #0]
 8003e70:	6859      	ldr	r1, [r3, #4]
 8003e72:	683b      	ldr	r3, [r7, #0]
 8003e74:	68db      	ldr	r3, [r3, #12]
 8003e76:	001a      	movs	r2, r3
 8003e78:	f000 f8f2 	bl	8004060 <TIM_TI2_ConfigInputStage>
                               sClockSourceConfig->ClockPolarity,
                               sClockSourceConfig->ClockFilter);
      TIM_ITRx_SetConfig(htim->Instance, TIM_CLOCKSOURCE_TI2);
 8003e7c:	687b      	ldr	r3, [r7, #4]
 8003e7e:	681b      	ldr	r3, [r3, #0]
 8003e80:	2160      	movs	r1, #96	; 0x60
 8003e82:	0018      	movs	r0, r3
 8003e84:	f000 f91e 	bl	80040c4 <TIM_ITRx_SetConfig>
      break;
 8003e88:	e01e      	b.n	8003ec8 <HAL_TIM_ConfigClockSource+0x184>

      /* Check TI1 input conditioning related parameters */
      assert_param(IS_TIM_CLOCKPOLARITY(sClockSourceConfig->ClockPolarity));
      assert_param(IS_TIM_CLOCKFILTER(sClockSourceConfig->ClockFilter));

      TIM_TI1_ConfigInputStage(htim->Instance,
 8003e8a:	687b      	ldr	r3, [r7, #4]
 8003e8c:	6818      	ldr	r0, [r3, #0]
 8003e8e:	683b      	ldr	r3, [r7, #0]
 8003e90:	6859      	ldr	r1, [r3, #4]
 8003e92:	683b      	ldr	r3, [r7, #0]
 8003e94:	68db      	ldr	r3, [r3, #12]
 8003e96:	001a      	movs	r2, r3
 8003e98:	f000 f8b4 	bl	8004004 <TIM_TI1_ConfigInputStage>
                               sClockSourceConfig->ClockPolarity,
                               sClockSourceConfig->ClockFilter);
      TIM_ITRx_SetConfig(htim->Instance, TIM_CLOCKSOURCE_TI1ED);
 8003e9c:	687b      	ldr	r3, [r7, #4]
 8003e9e:	681b      	ldr	r3, [r3, #0]
 8003ea0:	2140      	movs	r1, #64	; 0x40
 8003ea2:	0018      	movs	r0, r3
 8003ea4:	f000 f90e 	bl	80040c4 <TIM_ITRx_SetConfig>
      break;
 8003ea8:	e00e      	b.n	8003ec8 <HAL_TIM_ConfigClockSource+0x184>
    case TIM_CLOCKSOURCE_ITR3:
    {
      /* Check whether or not the timer instance supports internal trigger input */
      assert_param(IS_TIM_CLOCKSOURCE_ITRX_INSTANCE(htim->Instance));

      TIM_ITRx_SetConfig(htim->Instance, sClockSourceConfig->ClockSource);
 8003eaa:	687b      	ldr	r3, [r7, #4]
 8003eac:	681a      	ldr	r2, [r3, #0]
 8003eae:	683b      	ldr	r3, [r7, #0]
 8003eb0:	681b      	ldr	r3, [r3, #0]
 8003eb2:	0019      	movs	r1, r3
 8003eb4:	0010      	movs	r0, r2
 8003eb6:	f000 f905 	bl	80040c4 <TIM_ITRx_SetConfig>
      break;
 8003eba:	e005      	b.n	8003ec8 <HAL_TIM_ConfigClockSource+0x184>
    }

    default:
      status = HAL_ERROR;
 8003ebc:	230f      	movs	r3, #15
 8003ebe:	18fb      	adds	r3, r7, r3
 8003ec0:	2201      	movs	r2, #1
 8003ec2:	701a      	strb	r2, [r3, #0]
      break;
 8003ec4:	e000      	b.n	8003ec8 <HAL_TIM_ConfigClockSource+0x184>
      break;
 8003ec6:	46c0      	nop			; (mov r8, r8)
  }
  htim->State = HAL_TIM_STATE_READY;
 8003ec8:	687b      	ldr	r3, [r7, #4]
 8003eca:	223d      	movs	r2, #61	; 0x3d
 8003ecc:	2101      	movs	r1, #1
 8003ece:	5499      	strb	r1, [r3, r2]

  __HAL_UNLOCK(htim);
 8003ed0:	687b      	ldr	r3, [r7, #4]
 8003ed2:	223c      	movs	r2, #60	; 0x3c
 8003ed4:	2100      	movs	r1, #0
 8003ed6:	5499      	strb	r1, [r3, r2]

  return status;
 8003ed8:	230f      	movs	r3, #15
 8003eda:	18fb      	adds	r3, r7, r3
 8003edc:	781b      	ldrb	r3, [r3, #0]
}
 8003ede:	0018      	movs	r0, r3
 8003ee0:	46bd      	mov	sp, r7
 8003ee2:	b004      	add	sp, #16
 8003ee4:	bd80      	pop	{r7, pc}
 8003ee6:	46c0      	nop			; (mov r8, r8)
 8003ee8:	ffceff88 	.word	0xffceff88
 8003eec:	ffff00ff 	.word	0xffff00ff

08003ef0 <TIM_Base_SetConfig>:
  * @param  TIMx TIM peripheral
  * @param  Structure TIM Base configuration structure
  * @retval None
  */
void TIM_Base_SetConfig(TIM_TypeDef *TIMx, const TIM_Base_InitTypeDef *Structure)
{
 8003ef0:	b580      	push	{r7, lr}
 8003ef2:	b084      	sub	sp, #16
 8003ef4:	af00      	add	r7, sp, #0
 8003ef6:	6078      	str	r0, [r7, #4]
 8003ef8:	6039      	str	r1, [r7, #0]
  uint32_t tmpcr1;
  tmpcr1 = TIMx->CR1;
 8003efa:	687b      	ldr	r3, [r7, #4]
 8003efc:	681b      	ldr	r3, [r3, #0]
 8003efe:	60fb      	str	r3, [r7, #12]

  /* Set TIM Time Base Unit parameters ---------------------------------------*/
  if (IS_TIM_COUNTER_MODE_SELECT_INSTANCE(TIMx))
 8003f00:	687b      	ldr	r3, [r7, #4]
 8003f02:	4a38      	ldr	r2, [pc, #224]	; (8003fe4 <TIM_Base_SetConfig+0xf4>)
 8003f04:	4293      	cmp	r3, r2
 8003f06:	d00c      	beq.n	8003f22 <TIM_Base_SetConfig+0x32>
 8003f08:	687a      	ldr	r2, [r7, #4]
 8003f0a:	2380      	movs	r3, #128	; 0x80
 8003f0c:	05db      	lsls	r3, r3, #23
 8003f0e:	429a      	cmp	r2, r3
 8003f10:	d007      	beq.n	8003f22 <TIM_Base_SetConfig+0x32>
 8003f12:	687b      	ldr	r3, [r7, #4]
 8003f14:	4a34      	ldr	r2, [pc, #208]	; (8003fe8 <TIM_Base_SetConfig+0xf8>)
 8003f16:	4293      	cmp	r3, r2
 8003f18:	d003      	beq.n	8003f22 <TIM_Base_SetConfig+0x32>
 8003f1a:	687b      	ldr	r3, [r7, #4]
 8003f1c:	4a33      	ldr	r2, [pc, #204]	; (8003fec <TIM_Base_SetConfig+0xfc>)
 8003f1e:	4293      	cmp	r3, r2
 8003f20:	d108      	bne.n	8003f34 <TIM_Base_SetConfig+0x44>
  {
    /* Select the Counter Mode */
    tmpcr1 &= ~(TIM_CR1_DIR | TIM_CR1_CMS);
 8003f22:	68fb      	ldr	r3, [r7, #12]
 8003f24:	2270      	movs	r2, #112	; 0x70
 8003f26:	4393      	bics	r3, r2
 8003f28:	60fb      	str	r3, [r7, #12]
    tmpcr1 |= Structure->CounterMode;
 8003f2a:	683b      	ldr	r3, [r7, #0]
 8003f2c:	685b      	ldr	r3, [r3, #4]
 8003f2e:	68fa      	ldr	r2, [r7, #12]
 8003f30:	4313      	orrs	r3, r2
 8003f32:	60fb      	str	r3, [r7, #12]
  }

  if (IS_TIM_CLOCK_DIVISION_INSTANCE(TIMx))
 8003f34:	687b      	ldr	r3, [r7, #4]
 8003f36:	4a2b      	ldr	r2, [pc, #172]	; (8003fe4 <TIM_Base_SetConfig+0xf4>)
 8003f38:	4293      	cmp	r3, r2
 8003f3a:	d01c      	beq.n	8003f76 <TIM_Base_SetConfig+0x86>
 8003f3c:	687a      	ldr	r2, [r7, #4]
 8003f3e:	2380      	movs	r3, #128	; 0x80
 8003f40:	05db      	lsls	r3, r3, #23
 8003f42:	429a      	cmp	r2, r3
 8003f44:	d017      	beq.n	8003f76 <TIM_Base_SetConfig+0x86>
 8003f46:	687b      	ldr	r3, [r7, #4]
 8003f48:	4a27      	ldr	r2, [pc, #156]	; (8003fe8 <TIM_Base_SetConfig+0xf8>)
 8003f4a:	4293      	cmp	r3, r2
 8003f4c:	d013      	beq.n	8003f76 <TIM_Base_SetConfig+0x86>
 8003f4e:	687b      	ldr	r3, [r7, #4]
 8003f50:	4a26      	ldr	r2, [pc, #152]	; (8003fec <TIM_Base_SetConfig+0xfc>)
 8003f52:	4293      	cmp	r3, r2
 8003f54:	d00f      	beq.n	8003f76 <TIM_Base_SetConfig+0x86>
 8003f56:	687b      	ldr	r3, [r7, #4]
 8003f58:	4a25      	ldr	r2, [pc, #148]	; (8003ff0 <TIM_Base_SetConfig+0x100>)
 8003f5a:	4293      	cmp	r3, r2
 8003f5c:	d00b      	beq.n	8003f76 <TIM_Base_SetConfig+0x86>
 8003f5e:	687b      	ldr	r3, [r7, #4]
 8003f60:	4a24      	ldr	r2, [pc, #144]	; (8003ff4 <TIM_Base_SetConfig+0x104>)
 8003f62:	4293      	cmp	r3, r2
 8003f64:	d007      	beq.n	8003f76 <TIM_Base_SetConfig+0x86>
 8003f66:	687b      	ldr	r3, [r7, #4]
 8003f68:	4a23      	ldr	r2, [pc, #140]	; (8003ff8 <TIM_Base_SetConfig+0x108>)
 8003f6a:	4293      	cmp	r3, r2
 8003f6c:	d003      	beq.n	8003f76 <TIM_Base_SetConfig+0x86>
 8003f6e:	687b      	ldr	r3, [r7, #4]
 8003f70:	4a22      	ldr	r2, [pc, #136]	; (8003ffc <TIM_Base_SetConfig+0x10c>)
 8003f72:	4293      	cmp	r3, r2
 8003f74:	d108      	bne.n	8003f88 <TIM_Base_SetConfig+0x98>
  {
    /* Set the clock division */
    tmpcr1 &= ~TIM_CR1_CKD;
 8003f76:	68fb      	ldr	r3, [r7, #12]
 8003f78:	4a21      	ldr	r2, [pc, #132]	; (8004000 <TIM_Base_SetConfig+0x110>)
 8003f7a:	4013      	ands	r3, r2
 8003f7c:	60fb      	str	r3, [r7, #12]
    tmpcr1 |= (uint32_t)Structure->ClockDivision;
 8003f7e:	683b      	ldr	r3, [r7, #0]
 8003f80:	68db      	ldr	r3, [r3, #12]
 8003f82:	68fa      	ldr	r2, [r7, #12]
 8003f84:	4313      	orrs	r3, r2
 8003f86:	60fb      	str	r3, [r7, #12]
  }

  /* Set the auto-reload preload */
  MODIFY_REG(tmpcr1, TIM_CR1_ARPE, Structure->AutoReloadPreload);
 8003f88:	68fb      	ldr	r3, [r7, #12]
 8003f8a:	2280      	movs	r2, #128	; 0x80
 8003f8c:	4393      	bics	r3, r2
 8003f8e:	001a      	movs	r2, r3
 8003f90:	683b      	ldr	r3, [r7, #0]
 8003f92:	695b      	ldr	r3, [r3, #20]
 8003f94:	4313      	orrs	r3, r2
 8003f96:	60fb      	str	r3, [r7, #12]

  TIMx->CR1 = tmpcr1;
 8003f98:	687b      	ldr	r3, [r7, #4]
 8003f9a:	68fa      	ldr	r2, [r7, #12]
 8003f9c:	601a      	str	r2, [r3, #0]

  /* Set the Autoreload value */
  TIMx->ARR = (uint32_t)Structure->Period ;
 8003f9e:	683b      	ldr	r3, [r7, #0]
 8003fa0:	689a      	ldr	r2, [r3, #8]
 8003fa2:	687b      	ldr	r3, [r7, #4]
 8003fa4:	62da      	str	r2, [r3, #44]	; 0x2c

  /* Set the Prescaler value */
  TIMx->PSC = Structure->Prescaler;
 8003fa6:	683b      	ldr	r3, [r7, #0]
 8003fa8:	681a      	ldr	r2, [r3, #0]
 8003faa:	687b      	ldr	r3, [r7, #4]
 8003fac:	629a      	str	r2, [r3, #40]	; 0x28

  if (IS_TIM_REPETITION_COUNTER_INSTANCE(TIMx))
 8003fae:	687b      	ldr	r3, [r7, #4]
 8003fb0:	4a0c      	ldr	r2, [pc, #48]	; (8003fe4 <TIM_Base_SetConfig+0xf4>)
 8003fb2:	4293      	cmp	r3, r2
 8003fb4:	d00b      	beq.n	8003fce <TIM_Base_SetConfig+0xde>
 8003fb6:	687b      	ldr	r3, [r7, #4]
 8003fb8:	4a0e      	ldr	r2, [pc, #56]	; (8003ff4 <TIM_Base_SetConfig+0x104>)
 8003fba:	4293      	cmp	r3, r2
 8003fbc:	d007      	beq.n	8003fce <TIM_Base_SetConfig+0xde>
 8003fbe:	687b      	ldr	r3, [r7, #4]
 8003fc0:	4a0d      	ldr	r2, [pc, #52]	; (8003ff8 <TIM_Base_SetConfig+0x108>)
 8003fc2:	4293      	cmp	r3, r2
 8003fc4:	d003      	beq.n	8003fce <TIM_Base_SetConfig+0xde>
 8003fc6:	687b      	ldr	r3, [r7, #4]
 8003fc8:	4a0c      	ldr	r2, [pc, #48]	; (8003ffc <TIM_Base_SetConfig+0x10c>)
 8003fca:	4293      	cmp	r3, r2
 8003fcc:	d103      	bne.n	8003fd6 <TIM_Base_SetConfig+0xe6>
  {
    /* Set the Repetition Counter value */
    TIMx->RCR = Structure->RepetitionCounter;
 8003fce:	683b      	ldr	r3, [r7, #0]
 8003fd0:	691a      	ldr	r2, [r3, #16]
 8003fd2:	687b      	ldr	r3, [r7, #4]
 8003fd4:	631a      	str	r2, [r3, #48]	; 0x30
  }

  /* Generate an update event to reload the Prescaler
     and the repetition counter (only for advanced timer) value immediately */
  TIMx->EGR = TIM_EGR_UG;
 8003fd6:	687b      	ldr	r3, [r7, #4]
 8003fd8:	2201      	movs	r2, #1
 8003fda:	615a      	str	r2, [r3, #20]
}
 8003fdc:	46c0      	nop			; (mov r8, r8)
 8003fde:	46bd      	mov	sp, r7
 8003fe0:	b004      	add	sp, #16
 8003fe2:	bd80      	pop	{r7, pc}
 8003fe4:	40012c00 	.word	0x40012c00
 8003fe8:	40000400 	.word	0x40000400
 8003fec:	40000800 	.word	0x40000800
 8003ff0:	40002000 	.word	0x40002000
 8003ff4:	40014000 	.word	0x40014000
 8003ff8:	40014400 	.word	0x40014400
 8003ffc:	40014800 	.word	0x40014800
 8004000:	fffffcff 	.word	0xfffffcff

08004004 <TIM_TI1_ConfigInputStage>:
  * @param  TIM_ICFilter Specifies the Input Capture Filter.
  *          This parameter must be a value between 0x00 and 0x0F.
  * @retval None
  */
static void TIM_TI1_ConfigInputStage(TIM_TypeDef *TIMx, uint32_t TIM_ICPolarity, uint32_t TIM_ICFilter)
{
 8004004:	b580      	push	{r7, lr}
 8004006:	b086      	sub	sp, #24
 8004008:	af00      	add	r7, sp, #0
 800400a:	60f8      	str	r0, [r7, #12]
 800400c:	60b9      	str	r1, [r7, #8]
 800400e:	607a      	str	r2, [r7, #4]
  uint32_t tmpccmr1;
  uint32_t tmpccer;

  /* Disable the Channel 1: Reset the CC1E Bit */
  tmpccer = TIMx->CCER;
 8004010:	68fb      	ldr	r3, [r7, #12]
 8004012:	6a1b      	ldr	r3, [r3, #32]
 8004014:	617b      	str	r3, [r7, #20]
  TIMx->CCER &= ~TIM_CCER_CC1E;
 8004016:	68fb      	ldr	r3, [r7, #12]
 8004018:	6a1b      	ldr	r3, [r3, #32]
 800401a:	2201      	movs	r2, #1
 800401c:	4393      	bics	r3, r2
 800401e:	001a      	movs	r2, r3
 8004020:	68fb      	ldr	r3, [r7, #12]
 8004022:	621a      	str	r2, [r3, #32]
  tmpccmr1 = TIMx->CCMR1;
 8004024:	68fb      	ldr	r3, [r7, #12]
 8004026:	699b      	ldr	r3, [r3, #24]
 8004028:	613b      	str	r3, [r7, #16]

  /* Set the filter */
  tmpccmr1 &= ~TIM_CCMR1_IC1F;
 800402a:	693b      	ldr	r3, [r7, #16]
 800402c:	22f0      	movs	r2, #240	; 0xf0
 800402e:	4393      	bics	r3, r2
 8004030:	613b      	str	r3, [r7, #16]
  tmpccmr1 |= (TIM_ICFilter << 4U);
 8004032:	687b      	ldr	r3, [r7, #4]
 8004034:	011b      	lsls	r3, r3, #4
 8004036:	693a      	ldr	r2, [r7, #16]
 8004038:	4313      	orrs	r3, r2
 800403a:	613b      	str	r3, [r7, #16]

  /* Select the Polarity and set the CC1E Bit */
  tmpccer &= ~(TIM_CCER_CC1P | TIM_CCER_CC1NP);
 800403c:	697b      	ldr	r3, [r7, #20]
 800403e:	220a      	movs	r2, #10
 8004040:	4393      	bics	r3, r2
 8004042:	617b      	str	r3, [r7, #20]
  tmpccer |= TIM_ICPolarity;
 8004044:	697a      	ldr	r2, [r7, #20]
 8004046:	68bb      	ldr	r3, [r7, #8]
 8004048:	4313      	orrs	r3, r2
 800404a:	617b      	str	r3, [r7, #20]

  /* Write to TIMx CCMR1 and CCER registers */
  TIMx->CCMR1 = tmpccmr1;
 800404c:	68fb      	ldr	r3, [r7, #12]
 800404e:	693a      	ldr	r2, [r7, #16]
 8004050:	619a      	str	r2, [r3, #24]
  TIMx->CCER = tmpccer;
 8004052:	68fb      	ldr	r3, [r7, #12]
 8004054:	697a      	ldr	r2, [r7, #20]
 8004056:	621a      	str	r2, [r3, #32]
}
 8004058:	46c0      	nop			; (mov r8, r8)
 800405a:	46bd      	mov	sp, r7
 800405c:	b006      	add	sp, #24
 800405e:	bd80      	pop	{r7, pc}

08004060 <TIM_TI2_ConfigInputStage>:
  * @param  TIM_ICFilter Specifies the Input Capture Filter.
  *          This parameter must be a value between 0x00 and 0x0F.
  * @retval None
  */
static void TIM_TI2_ConfigInputStage(TIM_TypeDef *TIMx, uint32_t TIM_ICPolarity, uint32_t TIM_ICFilter)
{
 8004060:	b580      	push	{r7, lr}
 8004062:	b086      	sub	sp, #24
 8004064:	af00      	add	r7, sp, #0
 8004066:	60f8      	str	r0, [r7, #12]
 8004068:	60b9      	str	r1, [r7, #8]
 800406a:	607a      	str	r2, [r7, #4]
  uint32_t tmpccmr1;
  uint32_t tmpccer;

  /* Disable the Channel 2: Reset the CC2E Bit */
  TIMx->CCER &= ~TIM_CCER_CC2E;
 800406c:	68fb      	ldr	r3, [r7, #12]
 800406e:	6a1b      	ldr	r3, [r3, #32]
 8004070:	2210      	movs	r2, #16
 8004072:	4393      	bics	r3, r2
 8004074:	001a      	movs	r2, r3
 8004076:	68fb      	ldr	r3, [r7, #12]
 8004078:	621a      	str	r2, [r3, #32]
  tmpccmr1 = TIMx->CCMR1;
 800407a:	68fb      	ldr	r3, [r7, #12]
 800407c:	699b      	ldr	r3, [r3, #24]
 800407e:	617b      	str	r3, [r7, #20]
  tmpccer = TIMx->CCER;
 8004080:	68fb      	ldr	r3, [r7, #12]
 8004082:	6a1b      	ldr	r3, [r3, #32]
 8004084:	613b      	str	r3, [r7, #16]

  /* Set the filter */
  tmpccmr1 &= ~TIM_CCMR1_IC2F;
 8004086:	697b      	ldr	r3, [r7, #20]
 8004088:	4a0d      	ldr	r2, [pc, #52]	; (80040c0 <TIM_TI2_ConfigInputStage+0x60>)
 800408a:	4013      	ands	r3, r2
 800408c:	617b      	str	r3, [r7, #20]
  tmpccmr1 |= (TIM_ICFilter << 12U);
 800408e:	687b      	ldr	r3, [r7, #4]
 8004090:	031b      	lsls	r3, r3, #12
 8004092:	697a      	ldr	r2, [r7, #20]
 8004094:	4313      	orrs	r3, r2
 8004096:	617b      	str	r3, [r7, #20]

  /* Select the Polarity and set the CC2E Bit */
  tmpccer &= ~(TIM_CCER_CC2P | TIM_CCER_CC2NP);
 8004098:	693b      	ldr	r3, [r7, #16]
 800409a:	22a0      	movs	r2, #160	; 0xa0
 800409c:	4393      	bics	r3, r2
 800409e:	613b      	str	r3, [r7, #16]
  tmpccer |= (TIM_ICPolarity << 4U);
 80040a0:	68bb      	ldr	r3, [r7, #8]
 80040a2:	011b      	lsls	r3, r3, #4
 80040a4:	693a      	ldr	r2, [r7, #16]
 80040a6:	4313      	orrs	r3, r2
 80040a8:	613b      	str	r3, [r7, #16]

  /* Write to TIMx CCMR1 and CCER registers */
  TIMx->CCMR1 = tmpccmr1 ;
 80040aa:	68fb      	ldr	r3, [r7, #12]
 80040ac:	697a      	ldr	r2, [r7, #20]
 80040ae:	619a      	str	r2, [r3, #24]
  TIMx->CCER = tmpccer;
 80040b0:	68fb      	ldr	r3, [r7, #12]
 80040b2:	693a      	ldr	r2, [r7, #16]
 80040b4:	621a      	str	r2, [r3, #32]
}
 80040b6:	46c0      	nop			; (mov r8, r8)
 80040b8:	46bd      	mov	sp, r7
 80040ba:	b006      	add	sp, #24
 80040bc:	bd80      	pop	{r7, pc}
 80040be:	46c0      	nop			; (mov r8, r8)
 80040c0:	ffff0fff 	.word	0xffff0fff

080040c4 <TIM_ITRx_SetConfig>:
  *            @arg TIM_TS_TI2FP2: Filtered Timer Input 2
  *            @arg TIM_TS_ETRF: External Trigger input
  * @retval None
  */
static void TIM_ITRx_SetConfig(TIM_TypeDef *TIMx, uint32_t InputTriggerSource)
{
 80040c4:	b580      	push	{r7, lr}
 80040c6:	b084      	sub	sp, #16
 80040c8:	af00      	add	r7, sp, #0
 80040ca:	6078      	str	r0, [r7, #4]
 80040cc:	6039      	str	r1, [r7, #0]
  uint32_t tmpsmcr;

  /* Get the TIMx SMCR register value */
  tmpsmcr = TIMx->SMCR;
 80040ce:	687b      	ldr	r3, [r7, #4]
 80040d0:	689b      	ldr	r3, [r3, #8]
 80040d2:	60fb      	str	r3, [r7, #12]
  /* Reset the TS Bits */
  tmpsmcr &= ~TIM_SMCR_TS;
 80040d4:	68fb      	ldr	r3, [r7, #12]
 80040d6:	4a08      	ldr	r2, [pc, #32]	; (80040f8 <TIM_ITRx_SetConfig+0x34>)
 80040d8:	4013      	ands	r3, r2
 80040da:	60fb      	str	r3, [r7, #12]
  /* Set the Input Trigger source and the slave mode*/
  tmpsmcr |= (InputTriggerSource | TIM_SLAVEMODE_EXTERNAL1);
 80040dc:	683a      	ldr	r2, [r7, #0]
 80040de:	68fb      	ldr	r3, [r7, #12]
 80040e0:	4313      	orrs	r3, r2
 80040e2:	2207      	movs	r2, #7
 80040e4:	4313      	orrs	r3, r2
 80040e6:	60fb      	str	r3, [r7, #12]
  /* Write to TIMx SMCR */
  TIMx->SMCR = tmpsmcr;
 80040e8:	687b      	ldr	r3, [r7, #4]
 80040ea:	68fa      	ldr	r2, [r7, #12]
 80040ec:	609a      	str	r2, [r3, #8]
}
 80040ee:	46c0      	nop			; (mov r8, r8)
 80040f0:	46bd      	mov	sp, r7
 80040f2:	b004      	add	sp, #16
 80040f4:	bd80      	pop	{r7, pc}
 80040f6:	46c0      	nop			; (mov r8, r8)
 80040f8:	ffcfff8f 	.word	0xffcfff8f

080040fc <TIM_ETR_SetConfig>:
  *          This parameter must be a value between 0x00 and 0x0F
  * @retval None
  */
void TIM_ETR_SetConfig(TIM_TypeDef *TIMx, uint32_t TIM_ExtTRGPrescaler,
                       uint32_t TIM_ExtTRGPolarity, uint32_t ExtTRGFilter)
{
 80040fc:	b580      	push	{r7, lr}
 80040fe:	b086      	sub	sp, #24
 8004100:	af00      	add	r7, sp, #0
 8004102:	60f8      	str	r0, [r7, #12]
 8004104:	60b9      	str	r1, [r7, #8]
 8004106:	607a      	str	r2, [r7, #4]
 8004108:	603b      	str	r3, [r7, #0]
  uint32_t tmpsmcr;

  tmpsmcr = TIMx->SMCR;
 800410a:	68fb      	ldr	r3, [r7, #12]
 800410c:	689b      	ldr	r3, [r3, #8]
 800410e:	617b      	str	r3, [r7, #20]

  /* Reset the ETR Bits */
  tmpsmcr &= ~(TIM_SMCR_ETF | TIM_SMCR_ETPS | TIM_SMCR_ECE | TIM_SMCR_ETP);
 8004110:	697b      	ldr	r3, [r7, #20]
 8004112:	4a09      	ldr	r2, [pc, #36]	; (8004138 <TIM_ETR_SetConfig+0x3c>)
 8004114:	4013      	ands	r3, r2
 8004116:	617b      	str	r3, [r7, #20]

  /* Set the Prescaler, the Filter value and the Polarity */
  tmpsmcr |= (uint32_t)(TIM_ExtTRGPrescaler | (TIM_ExtTRGPolarity | (ExtTRGFilter << 8U)));
 8004118:	683b      	ldr	r3, [r7, #0]
 800411a:	021a      	lsls	r2, r3, #8
 800411c:	687b      	ldr	r3, [r7, #4]
 800411e:	431a      	orrs	r2, r3
 8004120:	68bb      	ldr	r3, [r7, #8]
 8004122:	4313      	orrs	r3, r2
 8004124:	697a      	ldr	r2, [r7, #20]
 8004126:	4313      	orrs	r3, r2
 8004128:	617b      	str	r3, [r7, #20]

  /* Write to TIMx SMCR */
  TIMx->SMCR = tmpsmcr;
 800412a:	68fb      	ldr	r3, [r7, #12]
 800412c:	697a      	ldr	r2, [r7, #20]
 800412e:	609a      	str	r2, [r3, #8]
}
 8004130:	46c0      	nop			; (mov r8, r8)
 8004132:	46bd      	mov	sp, r7
 8004134:	b006      	add	sp, #24
 8004136:	bd80      	pop	{r7, pc}
 8004138:	ffff00ff 	.word	0xffff00ff

0800413c <HAL_TIMEx_MasterConfigSynchronization>:
  *         mode.
  * @retval HAL status
  */
HAL_StatusTypeDef HAL_TIMEx_MasterConfigSynchronization(TIM_HandleTypeDef *htim,
                                                        const TIM_MasterConfigTypeDef *sMasterConfig)
{
 800413c:	b580      	push	{r7, lr}
 800413e:	b084      	sub	sp, #16
 8004140:	af00      	add	r7, sp, #0
 8004142:	6078      	str	r0, [r7, #4]
 8004144:	6039      	str	r1, [r7, #0]
  assert_param(IS_TIM_MASTER_INSTANCE(htim->Instance));
  assert_param(IS_TIM_TRGO_SOURCE(sMasterConfig->MasterOutputTrigger));
  assert_param(IS_TIM_MSM_STATE(sMasterConfig->MasterSlaveMode));

  /* Check input state */
  __HAL_LOCK(htim);
 8004146:	687b      	ldr	r3, [r7, #4]
 8004148:	223c      	movs	r2, #60	; 0x3c
 800414a:	5c9b      	ldrb	r3, [r3, r2]
 800414c:	2b01      	cmp	r3, #1
 800414e:	d101      	bne.n	8004154 <HAL_TIMEx_MasterConfigSynchronization+0x18>
 8004150:	2302      	movs	r3, #2
 8004152:	e05a      	b.n	800420a <HAL_TIMEx_MasterConfigSynchronization+0xce>
 8004154:	687b      	ldr	r3, [r7, #4]
 8004156:	223c      	movs	r2, #60	; 0x3c
 8004158:	2101      	movs	r1, #1
 800415a:	5499      	strb	r1, [r3, r2]

  /* Change the handler state */
  htim->State = HAL_TIM_STATE_BUSY;
 800415c:	687b      	ldr	r3, [r7, #4]
 800415e:	223d      	movs	r2, #61	; 0x3d
 8004160:	2102      	movs	r1, #2
 8004162:	5499      	strb	r1, [r3, r2]

  /* Get the TIMx CR2 register value */
  tmpcr2 = htim->Instance->CR2;
 8004164:	687b      	ldr	r3, [r7, #4]
 8004166:	681b      	ldr	r3, [r3, #0]
 8004168:	685b      	ldr	r3, [r3, #4]
 800416a:	60fb      	str	r3, [r7, #12]

  /* Get the TIMx SMCR register value */
  tmpsmcr = htim->Instance->SMCR;
 800416c:	687b      	ldr	r3, [r7, #4]
 800416e:	681b      	ldr	r3, [r3, #0]
 8004170:	689b      	ldr	r3, [r3, #8]
 8004172:	60bb      	str	r3, [r7, #8]

  /* If the timer supports ADC synchronization through TRGO2, set the master mode selection 2 */
  if (IS_TIM_TRGO2_INSTANCE(htim->Instance))
 8004174:	687b      	ldr	r3, [r7, #4]
 8004176:	681b      	ldr	r3, [r3, #0]
 8004178:	4a26      	ldr	r2, [pc, #152]	; (8004214 <HAL_TIMEx_MasterConfigSynchronization+0xd8>)
 800417a:	4293      	cmp	r3, r2
 800417c:	d108      	bne.n	8004190 <HAL_TIMEx_MasterConfigSynchronization+0x54>
  {
    /* Check the parameters */
    assert_param(IS_TIM_TRGO2_SOURCE(sMasterConfig->MasterOutputTrigger2));

    /* Clear the MMS2 bits */
    tmpcr2 &= ~TIM_CR2_MMS2;
 800417e:	68fb      	ldr	r3, [r7, #12]
 8004180:	4a25      	ldr	r2, [pc, #148]	; (8004218 <HAL_TIMEx_MasterConfigSynchronization+0xdc>)
 8004182:	4013      	ands	r3, r2
 8004184:	60fb      	str	r3, [r7, #12]
    /* Select the TRGO2 source*/
    tmpcr2 |= sMasterConfig->MasterOutputTrigger2;
 8004186:	683b      	ldr	r3, [r7, #0]
 8004188:	685b      	ldr	r3, [r3, #4]
 800418a:	68fa      	ldr	r2, [r7, #12]
 800418c:	4313      	orrs	r3, r2
 800418e:	60fb      	str	r3, [r7, #12]
  }

  /* Reset the MMS Bits */
  tmpcr2 &= ~TIM_CR2_MMS;
 8004190:	68fb      	ldr	r3, [r7, #12]
 8004192:	2270      	movs	r2, #112	; 0x70
 8004194:	4393      	bics	r3, r2
 8004196:	60fb      	str	r3, [r7, #12]
  /* Select the TRGO source */
  tmpcr2 |=  sMasterConfig->MasterOutputTrigger;
 8004198:	683b      	ldr	r3, [r7, #0]
 800419a:	681b      	ldr	r3, [r3, #0]
 800419c:	68fa      	ldr	r2, [r7, #12]
 800419e:	4313      	orrs	r3, r2
 80041a0:	60fb      	str	r3, [r7, #12]

  /* Update TIMx CR2 */
  htim->Instance->CR2 = tmpcr2;
 80041a2:	687b      	ldr	r3, [r7, #4]
 80041a4:	681b      	ldr	r3, [r3, #0]
 80041a6:	68fa      	ldr	r2, [r7, #12]
 80041a8:	605a      	str	r2, [r3, #4]

  if (IS_TIM_SLAVE_INSTANCE(htim->Instance))
 80041aa:	687b      	ldr	r3, [r7, #4]
 80041ac:	681b      	ldr	r3, [r3, #0]
 80041ae:	4a19      	ldr	r2, [pc, #100]	; (8004214 <HAL_TIMEx_MasterConfigSynchronization+0xd8>)
 80041b0:	4293      	cmp	r3, r2
 80041b2:	d014      	beq.n	80041de <HAL_TIMEx_MasterConfigSynchronization+0xa2>
 80041b4:	687b      	ldr	r3, [r7, #4]
 80041b6:	681a      	ldr	r2, [r3, #0]
 80041b8:	2380      	movs	r3, #128	; 0x80
 80041ba:	05db      	lsls	r3, r3, #23
 80041bc:	429a      	cmp	r2, r3
 80041be:	d00e      	beq.n	80041de <HAL_TIMEx_MasterConfigSynchronization+0xa2>
 80041c0:	687b      	ldr	r3, [r7, #4]
 80041c2:	681b      	ldr	r3, [r3, #0]
 80041c4:	4a15      	ldr	r2, [pc, #84]	; (800421c <HAL_TIMEx_MasterConfigSynchronization+0xe0>)
 80041c6:	4293      	cmp	r3, r2
 80041c8:	d009      	beq.n	80041de <HAL_TIMEx_MasterConfigSynchronization+0xa2>
 80041ca:	687b      	ldr	r3, [r7, #4]
 80041cc:	681b      	ldr	r3, [r3, #0]
 80041ce:	4a14      	ldr	r2, [pc, #80]	; (8004220 <HAL_TIMEx_MasterConfigSynchronization+0xe4>)
 80041d0:	4293      	cmp	r3, r2
 80041d2:	d004      	beq.n	80041de <HAL_TIMEx_MasterConfigSynchronization+0xa2>
 80041d4:	687b      	ldr	r3, [r7, #4]
 80041d6:	681b      	ldr	r3, [r3, #0]
 80041d8:	4a12      	ldr	r2, [pc, #72]	; (8004224 <HAL_TIMEx_MasterConfigSynchronization+0xe8>)
 80041da:	4293      	cmp	r3, r2
 80041dc:	d10c      	bne.n	80041f8 <HAL_TIMEx_MasterConfigSynchronization+0xbc>
  {
    /* Reset the MSM Bit */
    tmpsmcr &= ~TIM_SMCR_MSM;
 80041de:	68bb      	ldr	r3, [r7, #8]
 80041e0:	2280      	movs	r2, #128	; 0x80
 80041e2:	4393      	bics	r3, r2
 80041e4:	60bb      	str	r3, [r7, #8]
    /* Set master mode */
    tmpsmcr |= sMasterConfig->MasterSlaveMode;
 80041e6:	683b      	ldr	r3, [r7, #0]
 80041e8:	689b      	ldr	r3, [r3, #8]
 80041ea:	68ba      	ldr	r2, [r7, #8]
 80041ec:	4313      	orrs	r3, r2
 80041ee:	60bb      	str	r3, [r7, #8]

    /* Update TIMx SMCR */
    htim->Instance->SMCR = tmpsmcr;
 80041f0:	687b      	ldr	r3, [r7, #4]
 80041f2:	681b      	ldr	r3, [r3, #0]
 80041f4:	68ba      	ldr	r2, [r7, #8]
 80041f6:	609a      	str	r2, [r3, #8]
  }

  /* Change the htim state */
  htim->State = HAL_TIM_STATE_READY;
 80041f8:	687b      	ldr	r3, [r7, #4]
 80041fa:	223d      	movs	r2, #61	; 0x3d
 80041fc:	2101      	movs	r1, #1
 80041fe:	5499      	strb	r1, [r3, r2]

  __HAL_UNLOCK(htim);
 8004200:	687b      	ldr	r3, [r7, #4]
 8004202:	223c      	movs	r2, #60	; 0x3c
 8004204:	2100      	movs	r1, #0
 8004206:	5499      	strb	r1, [r3, r2]

  return HAL_OK;
 8004208:	2300      	movs	r3, #0
}
 800420a:	0018      	movs	r0, r3
 800420c:	46bd      	mov	sp, r7
 800420e:	b004      	add	sp, #16
 8004210:	bd80      	pop	{r7, pc}
 8004212:	46c0      	nop			; (mov r8, r8)
 8004214:	40012c00 	.word	0x40012c00
 8004218:	ff0fffff 	.word	0xff0fffff
 800421c:	40000400 	.word	0x40000400
 8004220:	40000800 	.word	0x40000800
 8004224:	40014000 	.word	0x40014000

08004228 <HAL_UART_Init>:
  *        parameters in the UART_InitTypeDef and initialize the associated handle.
  * @param huart UART handle.
  * @retval HAL status
  */
HAL_StatusTypeDef HAL_UART_Init(UART_HandleTypeDef *huart)
{
 8004228:	b580      	push	{r7, lr}
 800422a:	b082      	sub	sp, #8
 800422c:	af00      	add	r7, sp, #0
 800422e:	6078      	str	r0, [r7, #4]
  /* Check the UART handle allocation */
  if (huart == NULL)
 8004230:	687b      	ldr	r3, [r7, #4]
 8004232:	2b00      	cmp	r3, #0
 8004234:	d101      	bne.n	800423a <HAL_UART_Init+0x12>
  {
    return HAL_ERROR;
 8004236:	2301      	movs	r3, #1
 8004238:	e046      	b.n	80042c8 <HAL_UART_Init+0xa0>
  {
    /* Check the parameters */
    assert_param((IS_UART_INSTANCE(huart->Instance)) || (IS_LPUART_INSTANCE(huart->Instance)));
  }

  if (huart->gState == HAL_UART_STATE_RESET)
 800423a:	687b      	ldr	r3, [r7, #4]
 800423c:	2288      	movs	r2, #136	; 0x88
 800423e:	589b      	ldr	r3, [r3, r2]
 8004240:	2b00      	cmp	r3, #0
 8004242:	d107      	bne.n	8004254 <HAL_UART_Init+0x2c>
  {
    /* Allocate lock resource and initialize it */
    huart->Lock = HAL_UNLOCKED;
 8004244:	687b      	ldr	r3, [r7, #4]
 8004246:	2284      	movs	r2, #132	; 0x84
 8004248:	2100      	movs	r1, #0
 800424a:	5499      	strb	r1, [r3, r2]

    /* Init the low level hardware */
    huart->MspInitCallback(huart);
#else
    /* Init the low level hardware : GPIO, CLOCK */
    HAL_UART_MspInit(huart);
 800424c:	687b      	ldr	r3, [r7, #4]
 800424e:	0018      	movs	r0, r3
 8004250:	f7fc fe7a 	bl	8000f48 <HAL_UART_MspInit>
#endif /* (USE_HAL_UART_REGISTER_CALLBACKS) */
  }

  huart->gState = HAL_UART_STATE_BUSY;
 8004254:	687b      	ldr	r3, [r7, #4]
 8004256:	2288      	movs	r2, #136	; 0x88
 8004258:	2124      	movs	r1, #36	; 0x24
 800425a:	5099      	str	r1, [r3, r2]

  __HAL_UART_DISABLE(huart);
 800425c:	687b      	ldr	r3, [r7, #4]
 800425e:	681b      	ldr	r3, [r3, #0]
 8004260:	681a      	ldr	r2, [r3, #0]
 8004262:	687b      	ldr	r3, [r7, #4]
 8004264:	681b      	ldr	r3, [r3, #0]
 8004266:	2101      	movs	r1, #1
 8004268:	438a      	bics	r2, r1
 800426a:	601a      	str	r2, [r3, #0]

  /* Set the UART Communication parameters */
  if (UART_SetConfig(huart) == HAL_ERROR)
 800426c:	687b      	ldr	r3, [r7, #4]
 800426e:	0018      	movs	r0, r3
 8004270:	f000 f830 	bl	80042d4 <UART_SetConfig>
 8004274:	0003      	movs	r3, r0
 8004276:	2b01      	cmp	r3, #1
 8004278:	d101      	bne.n	800427e <HAL_UART_Init+0x56>
  {
    return HAL_ERROR;
 800427a:	2301      	movs	r3, #1
 800427c:	e024      	b.n	80042c8 <HAL_UART_Init+0xa0>
  }

  if (huart->AdvancedInit.AdvFeatureInit != UART_ADVFEATURE_NO_INIT)
 800427e:	687b      	ldr	r3, [r7, #4]
 8004280:	6a9b      	ldr	r3, [r3, #40]	; 0x28
 8004282:	2b00      	cmp	r3, #0
 8004284:	d003      	beq.n	800428e <HAL_UART_Init+0x66>
  {
    UART_AdvFeatureConfig(huart);
 8004286:	687b      	ldr	r3, [r7, #4]
 8004288:	0018      	movs	r0, r3
 800428a:	f000 fb79 	bl	8004980 <UART_AdvFeatureConfig>
  }

  /* In asynchronous mode, the following bits must be kept cleared:
  - LINEN and CLKEN bits in the USART_CR2 register,
  - SCEN, HDSEL and IREN  bits in the USART_CR3 register.*/
  CLEAR_BIT(huart->Instance->CR2, (USART_CR2_LINEN | USART_CR2_CLKEN));
 800428e:	687b      	ldr	r3, [r7, #4]
 8004290:	681b      	ldr	r3, [r3, #0]
 8004292:	685a      	ldr	r2, [r3, #4]
 8004294:	687b      	ldr	r3, [r7, #4]
 8004296:	681b      	ldr	r3, [r3, #0]
 8004298:	490d      	ldr	r1, [pc, #52]	; (80042d0 <HAL_UART_Init+0xa8>)
 800429a:	400a      	ands	r2, r1
 800429c:	605a      	str	r2, [r3, #4]
  CLEAR_BIT(huart->Instance->CR3, (USART_CR3_SCEN | USART_CR3_HDSEL | USART_CR3_IREN));
 800429e:	687b      	ldr	r3, [r7, #4]
 80042a0:	681b      	ldr	r3, [r3, #0]
 80042a2:	689a      	ldr	r2, [r3, #8]
 80042a4:	687b      	ldr	r3, [r7, #4]
 80042a6:	681b      	ldr	r3, [r3, #0]
 80042a8:	212a      	movs	r1, #42	; 0x2a
 80042aa:	438a      	bics	r2, r1
 80042ac:	609a      	str	r2, [r3, #8]

  __HAL_UART_ENABLE(huart);
 80042ae:	687b      	ldr	r3, [r7, #4]
 80042b0:	681b      	ldr	r3, [r3, #0]
 80042b2:	681a      	ldr	r2, [r3, #0]
 80042b4:	687b      	ldr	r3, [r7, #4]
 80042b6:	681b      	ldr	r3, [r3, #0]
 80042b8:	2101      	movs	r1, #1
 80042ba:	430a      	orrs	r2, r1
 80042bc:	601a      	str	r2, [r3, #0]

  /* TEACK and/or REACK to check before moving huart->gState and huart->RxState to Ready */
  return (UART_CheckIdleState(huart));
 80042be:	687b      	ldr	r3, [r7, #4]
 80042c0:	0018      	movs	r0, r3
 80042c2:	f000 fc11 	bl	8004ae8 <UART_CheckIdleState>
 80042c6:	0003      	movs	r3, r0
}
 80042c8:	0018      	movs	r0, r3
 80042ca:	46bd      	mov	sp, r7
 80042cc:	b002      	add	sp, #8
 80042ce:	bd80      	pop	{r7, pc}
 80042d0:	ffffb7ff 	.word	0xffffb7ff

080042d4 <UART_SetConfig>:
  * @brief Configure the UART peripheral.
  * @param huart UART handle.
  * @retval HAL status
  */
HAL_StatusTypeDef UART_SetConfig(UART_HandleTypeDef *huart)
{
 80042d4:	b5b0      	push	{r4, r5, r7, lr}
 80042d6:	b090      	sub	sp, #64	; 0x40
 80042d8:	af00      	add	r7, sp, #0
 80042da:	6278      	str	r0, [r7, #36]	; 0x24
  uint32_t tmpreg;
  uint16_t brrtemp;
  UART_ClockSourceTypeDef clocksource;
  uint32_t usartdiv;
  HAL_StatusTypeDef ret               = HAL_OK;
 80042dc:	231a      	movs	r3, #26
 80042de:	2220      	movs	r2, #32
 80042e0:	189b      	adds	r3, r3, r2
 80042e2:	19db      	adds	r3, r3, r7
 80042e4:	2200      	movs	r2, #0
 80042e6:	701a      	strb	r2, [r3, #0]
  *  the UART Word Length, Parity, Mode and oversampling:
  *  set the M bits according to huart->Init.WordLength value
  *  set PCE and PS bits according to huart->Init.Parity value
  *  set TE and RE bits according to huart->Init.Mode value
  *  set OVER8 bit according to huart->Init.OverSampling value */
  tmpreg = (uint32_t)huart->Init.WordLength | huart->Init.Parity | huart->Init.Mode | huart->Init.OverSampling ;
 80042e8:	6a7b      	ldr	r3, [r7, #36]	; 0x24
 80042ea:	689a      	ldr	r2, [r3, #8]
 80042ec:	6a7b      	ldr	r3, [r7, #36]	; 0x24
 80042ee:	691b      	ldr	r3, [r3, #16]
 80042f0:	431a      	orrs	r2, r3
 80042f2:	6a7b      	ldr	r3, [r7, #36]	; 0x24
 80042f4:	695b      	ldr	r3, [r3, #20]
 80042f6:	431a      	orrs	r2, r3
 80042f8:	6a7b      	ldr	r3, [r7, #36]	; 0x24
 80042fa:	69db      	ldr	r3, [r3, #28]
 80042fc:	4313      	orrs	r3, r2
 80042fe:	63fb      	str	r3, [r7, #60]	; 0x3c
  MODIFY_REG(huart->Instance->CR1, USART_CR1_FIELDS, tmpreg);
 8004300:	6a7b      	ldr	r3, [r7, #36]	; 0x24
 8004302:	681b      	ldr	r3, [r3, #0]
 8004304:	681b      	ldr	r3, [r3, #0]
 8004306:	4ac1      	ldr	r2, [pc, #772]	; (800460c <UART_SetConfig+0x338>)
 8004308:	4013      	ands	r3, r2
 800430a:	0019      	movs	r1, r3
 800430c:	6a7b      	ldr	r3, [r7, #36]	; 0x24
 800430e:	681a      	ldr	r2, [r3, #0]
 8004310:	6bfb      	ldr	r3, [r7, #60]	; 0x3c
 8004312:	430b      	orrs	r3, r1
 8004314:	6013      	str	r3, [r2, #0]

  /*-------------------------- USART CR2 Configuration -----------------------*/
  /* Configure the UART Stop Bits: Set STOP[13:12] bits according
  * to huart->Init.StopBits value */
  MODIFY_REG(huart->Instance->CR2, USART_CR2_STOP, huart->Init.StopBits);
 8004316:	6a7b      	ldr	r3, [r7, #36]	; 0x24
 8004318:	681b      	ldr	r3, [r3, #0]
 800431a:	685b      	ldr	r3, [r3, #4]
 800431c:	4abc      	ldr	r2, [pc, #752]	; (8004610 <UART_SetConfig+0x33c>)
 800431e:	4013      	ands	r3, r2
 8004320:	0018      	movs	r0, r3
 8004322:	6a7b      	ldr	r3, [r7, #36]	; 0x24
 8004324:	68d9      	ldr	r1, [r3, #12]
 8004326:	6a7b      	ldr	r3, [r7, #36]	; 0x24
 8004328:	681a      	ldr	r2, [r3, #0]
 800432a:	0003      	movs	r3, r0
 800432c:	430b      	orrs	r3, r1
 800432e:	6053      	str	r3, [r2, #4]
  /* Configure
  * - UART HardWare Flow Control: set CTSE and RTSE bits according
  *   to huart->Init.HwFlowCtl value
  * - one-bit sampling method versus three samples' majority rule according
  *   to huart->Init.OneBitSampling (not applicable to LPUART) */
  tmpreg = (uint32_t)huart->Init.HwFlowCtl;
 8004330:	6a7b      	ldr	r3, [r7, #36]	; 0x24
 8004332:	699b      	ldr	r3, [r3, #24]
 8004334:	63fb      	str	r3, [r7, #60]	; 0x3c

  if (!(UART_INSTANCE_LOWPOWER(huart)))
 8004336:	6a7b      	ldr	r3, [r7, #36]	; 0x24
 8004338:	681b      	ldr	r3, [r3, #0]
 800433a:	4ab6      	ldr	r2, [pc, #728]	; (8004614 <UART_SetConfig+0x340>)
 800433c:	4293      	cmp	r3, r2
 800433e:	d009      	beq.n	8004354 <UART_SetConfig+0x80>
 8004340:	6a7b      	ldr	r3, [r7, #36]	; 0x24
 8004342:	681b      	ldr	r3, [r3, #0]
 8004344:	4ab4      	ldr	r2, [pc, #720]	; (8004618 <UART_SetConfig+0x344>)
 8004346:	4293      	cmp	r3, r2
 8004348:	d004      	beq.n	8004354 <UART_SetConfig+0x80>
  {
    tmpreg |= huart->Init.OneBitSampling;
 800434a:	6a7b      	ldr	r3, [r7, #36]	; 0x24
 800434c:	6a1b      	ldr	r3, [r3, #32]
 800434e:	6bfa      	ldr	r2, [r7, #60]	; 0x3c
 8004350:	4313      	orrs	r3, r2
 8004352:	63fb      	str	r3, [r7, #60]	; 0x3c
  }
  MODIFY_REG(huart->Instance->CR3, USART_CR3_FIELDS, tmpreg);
 8004354:	6a7b      	ldr	r3, [r7, #36]	; 0x24
 8004356:	681b      	ldr	r3, [r3, #0]
 8004358:	689b      	ldr	r3, [r3, #8]
 800435a:	4ab0      	ldr	r2, [pc, #704]	; (800461c <UART_SetConfig+0x348>)
 800435c:	4013      	ands	r3, r2
 800435e:	0019      	movs	r1, r3
 8004360:	6a7b      	ldr	r3, [r7, #36]	; 0x24
 8004362:	681a      	ldr	r2, [r3, #0]
 8004364:	6bfb      	ldr	r3, [r7, #60]	; 0x3c
 8004366:	430b      	orrs	r3, r1
 8004368:	6093      	str	r3, [r2, #8]

  /*-------------------------- USART PRESC Configuration -----------------------*/
  /* Configure
  * - UART Clock Prescaler : set PRESCALER according to huart->Init.ClockPrescaler value */
  MODIFY_REG(huart->Instance->PRESC, USART_PRESC_PRESCALER, huart->Init.ClockPrescaler);
 800436a:	6a7b      	ldr	r3, [r7, #36]	; 0x24
 800436c:	681b      	ldr	r3, [r3, #0]
 800436e:	6adb      	ldr	r3, [r3, #44]	; 0x2c
 8004370:	220f      	movs	r2, #15
 8004372:	4393      	bics	r3, r2
 8004374:	0018      	movs	r0, r3
 8004376:	6a7b      	ldr	r3, [r7, #36]	; 0x24
 8004378:	6a59      	ldr	r1, [r3, #36]	; 0x24
 800437a:	6a7b      	ldr	r3, [r7, #36]	; 0x24
 800437c:	681a      	ldr	r2, [r3, #0]
 800437e:	0003      	movs	r3, r0
 8004380:	430b      	orrs	r3, r1
 8004382:	62d3      	str	r3, [r2, #44]	; 0x2c

  /*-------------------------- USART BRR Configuration -----------------------*/
  UART_GETCLOCKSOURCE(huart, clocksource);
 8004384:	6a7b      	ldr	r3, [r7, #36]	; 0x24
 8004386:	681b      	ldr	r3, [r3, #0]
 8004388:	4aa5      	ldr	r2, [pc, #660]	; (8004620 <UART_SetConfig+0x34c>)
 800438a:	4293      	cmp	r3, r2
 800438c:	d131      	bne.n	80043f2 <UART_SetConfig+0x11e>
 800438e:	4ba5      	ldr	r3, [pc, #660]	; (8004624 <UART_SetConfig+0x350>)
 8004390:	6d5b      	ldr	r3, [r3, #84]	; 0x54
 8004392:	2203      	movs	r2, #3
 8004394:	4013      	ands	r3, r2
 8004396:	2b03      	cmp	r3, #3
 8004398:	d01d      	beq.n	80043d6 <UART_SetConfig+0x102>
 800439a:	d823      	bhi.n	80043e4 <UART_SetConfig+0x110>
 800439c:	2b02      	cmp	r3, #2
 800439e:	d00c      	beq.n	80043ba <UART_SetConfig+0xe6>
 80043a0:	d820      	bhi.n	80043e4 <UART_SetConfig+0x110>
 80043a2:	2b00      	cmp	r3, #0
 80043a4:	d002      	beq.n	80043ac <UART_SetConfig+0xd8>
 80043a6:	2b01      	cmp	r3, #1
 80043a8:	d00e      	beq.n	80043c8 <UART_SetConfig+0xf4>
 80043aa:	e01b      	b.n	80043e4 <UART_SetConfig+0x110>
 80043ac:	231b      	movs	r3, #27
 80043ae:	2220      	movs	r2, #32
 80043b0:	189b      	adds	r3, r3, r2
 80043b2:	19db      	adds	r3, r3, r7
 80043b4:	2200      	movs	r2, #0
 80043b6:	701a      	strb	r2, [r3, #0]
 80043b8:	e154      	b.n	8004664 <UART_SetConfig+0x390>
 80043ba:	231b      	movs	r3, #27
 80043bc:	2220      	movs	r2, #32
 80043be:	189b      	adds	r3, r3, r2
 80043c0:	19db      	adds	r3, r3, r7
 80043c2:	2202      	movs	r2, #2
 80043c4:	701a      	strb	r2, [r3, #0]
 80043c6:	e14d      	b.n	8004664 <UART_SetConfig+0x390>
 80043c8:	231b      	movs	r3, #27
 80043ca:	2220      	movs	r2, #32
 80043cc:	189b      	adds	r3, r3, r2
 80043ce:	19db      	adds	r3, r3, r7
 80043d0:	2204      	movs	r2, #4
 80043d2:	701a      	strb	r2, [r3, #0]
 80043d4:	e146      	b.n	8004664 <UART_SetConfig+0x390>
 80043d6:	231b      	movs	r3, #27
 80043d8:	2220      	movs	r2, #32
 80043da:	189b      	adds	r3, r3, r2
 80043dc:	19db      	adds	r3, r3, r7
 80043de:	2208      	movs	r2, #8
 80043e0:	701a      	strb	r2, [r3, #0]
 80043e2:	e13f      	b.n	8004664 <UART_SetConfig+0x390>
 80043e4:	231b      	movs	r3, #27
 80043e6:	2220      	movs	r2, #32
 80043e8:	189b      	adds	r3, r3, r2
 80043ea:	19db      	adds	r3, r3, r7
 80043ec:	2210      	movs	r2, #16
 80043ee:	701a      	strb	r2, [r3, #0]
 80043f0:	e138      	b.n	8004664 <UART_SetConfig+0x390>
 80043f2:	6a7b      	ldr	r3, [r7, #36]	; 0x24
 80043f4:	681b      	ldr	r3, [r3, #0]
 80043f6:	4a8c      	ldr	r2, [pc, #560]	; (8004628 <UART_SetConfig+0x354>)
 80043f8:	4293      	cmp	r3, r2
 80043fa:	d131      	bne.n	8004460 <UART_SetConfig+0x18c>
 80043fc:	4b89      	ldr	r3, [pc, #548]	; (8004624 <UART_SetConfig+0x350>)
 80043fe:	6d5b      	ldr	r3, [r3, #84]	; 0x54
 8004400:	220c      	movs	r2, #12
 8004402:	4013      	ands	r3, r2
 8004404:	2b0c      	cmp	r3, #12
 8004406:	d01d      	beq.n	8004444 <UART_SetConfig+0x170>
 8004408:	d823      	bhi.n	8004452 <UART_SetConfig+0x17e>
 800440a:	2b08      	cmp	r3, #8
 800440c:	d00c      	beq.n	8004428 <UART_SetConfig+0x154>
 800440e:	d820      	bhi.n	8004452 <UART_SetConfig+0x17e>
 8004410:	2b00      	cmp	r3, #0
 8004412:	d002      	beq.n	800441a <UART_SetConfig+0x146>
 8004414:	2b04      	cmp	r3, #4
 8004416:	d00e      	beq.n	8004436 <UART_SetConfig+0x162>
 8004418:	e01b      	b.n	8004452 <UART_SetConfig+0x17e>
 800441a:	231b      	movs	r3, #27
 800441c:	2220      	movs	r2, #32
 800441e:	189b      	adds	r3, r3, r2
 8004420:	19db      	adds	r3, r3, r7
 8004422:	2200      	movs	r2, #0
 8004424:	701a      	strb	r2, [r3, #0]
 8004426:	e11d      	b.n	8004664 <UART_SetConfig+0x390>
 8004428:	231b      	movs	r3, #27
 800442a:	2220      	movs	r2, #32
 800442c:	189b      	adds	r3, r3, r2
 800442e:	19db      	adds	r3, r3, r7
 8004430:	2202      	movs	r2, #2
 8004432:	701a      	strb	r2, [r3, #0]
 8004434:	e116      	b.n	8004664 <UART_SetConfig+0x390>
 8004436:	231b      	movs	r3, #27
 8004438:	2220      	movs	r2, #32
 800443a:	189b      	adds	r3, r3, r2
 800443c:	19db      	adds	r3, r3, r7
 800443e:	2204      	movs	r2, #4
 8004440:	701a      	strb	r2, [r3, #0]
 8004442:	e10f      	b.n	8004664 <UART_SetConfig+0x390>
 8004444:	231b      	movs	r3, #27
 8004446:	2220      	movs	r2, #32
 8004448:	189b      	adds	r3, r3, r2
 800444a:	19db      	adds	r3, r3, r7
 800444c:	2208      	movs	r2, #8
 800444e:	701a      	strb	r2, [r3, #0]
 8004450:	e108      	b.n	8004664 <UART_SetConfig+0x390>
 8004452:	231b      	movs	r3, #27
 8004454:	2220      	movs	r2, #32
 8004456:	189b      	adds	r3, r3, r2
 8004458:	19db      	adds	r3, r3, r7
 800445a:	2210      	movs	r2, #16
 800445c:	701a      	strb	r2, [r3, #0]
 800445e:	e101      	b.n	8004664 <UART_SetConfig+0x390>
 8004460:	6a7b      	ldr	r3, [r7, #36]	; 0x24
 8004462:	681b      	ldr	r3, [r3, #0]
 8004464:	4a71      	ldr	r2, [pc, #452]	; (800462c <UART_SetConfig+0x358>)
 8004466:	4293      	cmp	r3, r2
 8004468:	d131      	bne.n	80044ce <UART_SetConfig+0x1fa>
 800446a:	4b6e      	ldr	r3, [pc, #440]	; (8004624 <UART_SetConfig+0x350>)
 800446c:	6d5b      	ldr	r3, [r3, #84]	; 0x54
 800446e:	2230      	movs	r2, #48	; 0x30
 8004470:	4013      	ands	r3, r2
 8004472:	2b30      	cmp	r3, #48	; 0x30
 8004474:	d01d      	beq.n	80044b2 <UART_SetConfig+0x1de>
 8004476:	d823      	bhi.n	80044c0 <UART_SetConfig+0x1ec>
 8004478:	2b20      	cmp	r3, #32
 800447a:	d00c      	beq.n	8004496 <UART_SetConfig+0x1c2>
 800447c:	d820      	bhi.n	80044c0 <UART_SetConfig+0x1ec>
 800447e:	2b00      	cmp	r3, #0
 8004480:	d002      	beq.n	8004488 <UART_SetConfig+0x1b4>
 8004482:	2b10      	cmp	r3, #16
 8004484:	d00e      	beq.n	80044a4 <UART_SetConfig+0x1d0>
 8004486:	e01b      	b.n	80044c0 <UART_SetConfig+0x1ec>
 8004488:	231b      	movs	r3, #27
 800448a:	2220      	movs	r2, #32
 800448c:	189b      	adds	r3, r3, r2
 800448e:	19db      	adds	r3, r3, r7
 8004490:	2200      	movs	r2, #0
 8004492:	701a      	strb	r2, [r3, #0]
 8004494:	e0e6      	b.n	8004664 <UART_SetConfig+0x390>
 8004496:	231b      	movs	r3, #27
 8004498:	2220      	movs	r2, #32
 800449a:	189b      	adds	r3, r3, r2
 800449c:	19db      	adds	r3, r3, r7
 800449e:	2202      	movs	r2, #2
 80044a0:	701a      	strb	r2, [r3, #0]
 80044a2:	e0df      	b.n	8004664 <UART_SetConfig+0x390>
 80044a4:	231b      	movs	r3, #27
 80044a6:	2220      	movs	r2, #32
 80044a8:	189b      	adds	r3, r3, r2
 80044aa:	19db      	adds	r3, r3, r7
 80044ac:	2204      	movs	r2, #4
 80044ae:	701a      	strb	r2, [r3, #0]
 80044b0:	e0d8      	b.n	8004664 <UART_SetConfig+0x390>
 80044b2:	231b      	movs	r3, #27
 80044b4:	2220      	movs	r2, #32
 80044b6:	189b      	adds	r3, r3, r2
 80044b8:	19db      	adds	r3, r3, r7
 80044ba:	2208      	movs	r2, #8
 80044bc:	701a      	strb	r2, [r3, #0]
 80044be:	e0d1      	b.n	8004664 <UART_SetConfig+0x390>
 80044c0:	231b      	movs	r3, #27
 80044c2:	2220      	movs	r2, #32
 80044c4:	189b      	adds	r3, r3, r2
 80044c6:	19db      	adds	r3, r3, r7
 80044c8:	2210      	movs	r2, #16
 80044ca:	701a      	strb	r2, [r3, #0]
 80044cc:	e0ca      	b.n	8004664 <UART_SetConfig+0x390>
 80044ce:	6a7b      	ldr	r3, [r7, #36]	; 0x24
 80044d0:	681b      	ldr	r3, [r3, #0]
 80044d2:	4a57      	ldr	r2, [pc, #348]	; (8004630 <UART_SetConfig+0x35c>)
 80044d4:	4293      	cmp	r3, r2
 80044d6:	d106      	bne.n	80044e6 <UART_SetConfig+0x212>
 80044d8:	231b      	movs	r3, #27
 80044da:	2220      	movs	r2, #32
 80044dc:	189b      	adds	r3, r3, r2
 80044de:	19db      	adds	r3, r3, r7
 80044e0:	2200      	movs	r2, #0
 80044e2:	701a      	strb	r2, [r3, #0]
 80044e4:	e0be      	b.n	8004664 <UART_SetConfig+0x390>
 80044e6:	6a7b      	ldr	r3, [r7, #36]	; 0x24
 80044e8:	681b      	ldr	r3, [r3, #0]
 80044ea:	4a52      	ldr	r2, [pc, #328]	; (8004634 <UART_SetConfig+0x360>)
 80044ec:	4293      	cmp	r3, r2
 80044ee:	d106      	bne.n	80044fe <UART_SetConfig+0x22a>
 80044f0:	231b      	movs	r3, #27
 80044f2:	2220      	movs	r2, #32
 80044f4:	189b      	adds	r3, r3, r2
 80044f6:	19db      	adds	r3, r3, r7
 80044f8:	2200      	movs	r2, #0
 80044fa:	701a      	strb	r2, [r3, #0]
 80044fc:	e0b2      	b.n	8004664 <UART_SetConfig+0x390>
 80044fe:	6a7b      	ldr	r3, [r7, #36]	; 0x24
 8004500:	681b      	ldr	r3, [r3, #0]
 8004502:	4a4d      	ldr	r2, [pc, #308]	; (8004638 <UART_SetConfig+0x364>)
 8004504:	4293      	cmp	r3, r2
 8004506:	d106      	bne.n	8004516 <UART_SetConfig+0x242>
 8004508:	231b      	movs	r3, #27
 800450a:	2220      	movs	r2, #32
 800450c:	189b      	adds	r3, r3, r2
 800450e:	19db      	adds	r3, r3, r7
 8004510:	2200      	movs	r2, #0
 8004512:	701a      	strb	r2, [r3, #0]
 8004514:	e0a6      	b.n	8004664 <UART_SetConfig+0x390>
 8004516:	6a7b      	ldr	r3, [r7, #36]	; 0x24
 8004518:	681b      	ldr	r3, [r3, #0]
 800451a:	4a3e      	ldr	r2, [pc, #248]	; (8004614 <UART_SetConfig+0x340>)
 800451c:	4293      	cmp	r3, r2
 800451e:	d13e      	bne.n	800459e <UART_SetConfig+0x2ca>
 8004520:	4b40      	ldr	r3, [pc, #256]	; (8004624 <UART_SetConfig+0x350>)
 8004522:	6d5a      	ldr	r2, [r3, #84]	; 0x54
 8004524:	23c0      	movs	r3, #192	; 0xc0
 8004526:	011b      	lsls	r3, r3, #4
 8004528:	4013      	ands	r3, r2
 800452a:	22c0      	movs	r2, #192	; 0xc0
 800452c:	0112      	lsls	r2, r2, #4
 800452e:	4293      	cmp	r3, r2
 8004530:	d027      	beq.n	8004582 <UART_SetConfig+0x2ae>
 8004532:	22c0      	movs	r2, #192	; 0xc0
 8004534:	0112      	lsls	r2, r2, #4
 8004536:	4293      	cmp	r3, r2
 8004538:	d82a      	bhi.n	8004590 <UART_SetConfig+0x2bc>
 800453a:	2280      	movs	r2, #128	; 0x80
 800453c:	0112      	lsls	r2, r2, #4
 800453e:	4293      	cmp	r3, r2
 8004540:	d011      	beq.n	8004566 <UART_SetConfig+0x292>
 8004542:	2280      	movs	r2, #128	; 0x80
 8004544:	0112      	lsls	r2, r2, #4
 8004546:	4293      	cmp	r3, r2
 8004548:	d822      	bhi.n	8004590 <UART_SetConfig+0x2bc>
 800454a:	2b00      	cmp	r3, #0
 800454c:	d004      	beq.n	8004558 <UART_SetConfig+0x284>
 800454e:	2280      	movs	r2, #128	; 0x80
 8004550:	00d2      	lsls	r2, r2, #3
 8004552:	4293      	cmp	r3, r2
 8004554:	d00e      	beq.n	8004574 <UART_SetConfig+0x2a0>
 8004556:	e01b      	b.n	8004590 <UART_SetConfig+0x2bc>
 8004558:	231b      	movs	r3, #27
 800455a:	2220      	movs	r2, #32
 800455c:	189b      	adds	r3, r3, r2
 800455e:	19db      	adds	r3, r3, r7
 8004560:	2200      	movs	r2, #0
 8004562:	701a      	strb	r2, [r3, #0]
 8004564:	e07e      	b.n	8004664 <UART_SetConfig+0x390>
 8004566:	231b      	movs	r3, #27
 8004568:	2220      	movs	r2, #32
 800456a:	189b      	adds	r3, r3, r2
 800456c:	19db      	adds	r3, r3, r7
 800456e:	2202      	movs	r2, #2
 8004570:	701a      	strb	r2, [r3, #0]
 8004572:	e077      	b.n	8004664 <UART_SetConfig+0x390>
 8004574:	231b      	movs	r3, #27
 8004576:	2220      	movs	r2, #32
 8004578:	189b      	adds	r3, r3, r2
 800457a:	19db      	adds	r3, r3, r7
 800457c:	2204      	movs	r2, #4
 800457e:	701a      	strb	r2, [r3, #0]
 8004580:	e070      	b.n	8004664 <UART_SetConfig+0x390>
 8004582:	231b      	movs	r3, #27
 8004584:	2220      	movs	r2, #32
 8004586:	189b      	adds	r3, r3, r2
 8004588:	19db      	adds	r3, r3, r7
 800458a:	2208      	movs	r2, #8
 800458c:	701a      	strb	r2, [r3, #0]
 800458e:	e069      	b.n	8004664 <UART_SetConfig+0x390>
 8004590:	231b      	movs	r3, #27
 8004592:	2220      	movs	r2, #32
 8004594:	189b      	adds	r3, r3, r2
 8004596:	19db      	adds	r3, r3, r7
 8004598:	2210      	movs	r2, #16
 800459a:	701a      	strb	r2, [r3, #0]
 800459c:	e062      	b.n	8004664 <UART_SetConfig+0x390>
 800459e:	6a7b      	ldr	r3, [r7, #36]	; 0x24
 80045a0:	681b      	ldr	r3, [r3, #0]
 80045a2:	4a1d      	ldr	r2, [pc, #116]	; (8004618 <UART_SetConfig+0x344>)
 80045a4:	4293      	cmp	r3, r2
 80045a6:	d157      	bne.n	8004658 <UART_SetConfig+0x384>
 80045a8:	4b1e      	ldr	r3, [pc, #120]	; (8004624 <UART_SetConfig+0x350>)
 80045aa:	6d5a      	ldr	r2, [r3, #84]	; 0x54
 80045ac:	23c0      	movs	r3, #192	; 0xc0
 80045ae:	009b      	lsls	r3, r3, #2
 80045b0:	4013      	ands	r3, r2
 80045b2:	22c0      	movs	r2, #192	; 0xc0
 80045b4:	0092      	lsls	r2, r2, #2
 80045b6:	4293      	cmp	r3, r2
 80045b8:	d040      	beq.n	800463c <UART_SetConfig+0x368>
 80045ba:	22c0      	movs	r2, #192	; 0xc0
 80045bc:	0092      	lsls	r2, r2, #2
 80045be:	4293      	cmp	r3, r2
 80045c0:	d843      	bhi.n	800464a <UART_SetConfig+0x376>
 80045c2:	2280      	movs	r2, #128	; 0x80
 80045c4:	0092      	lsls	r2, r2, #2
 80045c6:	4293      	cmp	r3, r2
 80045c8:	d011      	beq.n	80045ee <UART_SetConfig+0x31a>
 80045ca:	2280      	movs	r2, #128	; 0x80
 80045cc:	0092      	lsls	r2, r2, #2
 80045ce:	4293      	cmp	r3, r2
 80045d0:	d83b      	bhi.n	800464a <UART_SetConfig+0x376>
 80045d2:	2b00      	cmp	r3, #0
 80045d4:	d004      	beq.n	80045e0 <UART_SetConfig+0x30c>
 80045d6:	2280      	movs	r2, #128	; 0x80
 80045d8:	0052      	lsls	r2, r2, #1
 80045da:	4293      	cmp	r3, r2
 80045dc:	d00e      	beq.n	80045fc <UART_SetConfig+0x328>
 80045de:	e034      	b.n	800464a <UART_SetConfig+0x376>
 80045e0:	231b      	movs	r3, #27
 80045e2:	2220      	movs	r2, #32
 80045e4:	189b      	adds	r3, r3, r2
 80045e6:	19db      	adds	r3, r3, r7
 80045e8:	2200      	movs	r2, #0
 80045ea:	701a      	strb	r2, [r3, #0]
 80045ec:	e03a      	b.n	8004664 <UART_SetConfig+0x390>
 80045ee:	231b      	movs	r3, #27
 80045f0:	2220      	movs	r2, #32
 80045f2:	189b      	adds	r3, r3, r2
 80045f4:	19db      	adds	r3, r3, r7
 80045f6:	2202      	movs	r2, #2
 80045f8:	701a      	strb	r2, [r3, #0]
 80045fa:	e033      	b.n	8004664 <UART_SetConfig+0x390>
 80045fc:	231b      	movs	r3, #27
 80045fe:	2220      	movs	r2, #32
 8004600:	189b      	adds	r3, r3, r2
 8004602:	19db      	adds	r3, r3, r7
 8004604:	2204      	movs	r2, #4
 8004606:	701a      	strb	r2, [r3, #0]
 8004608:	e02c      	b.n	8004664 <UART_SetConfig+0x390>
 800460a:	46c0      	nop			; (mov r8, r8)
 800460c:	cfff69f3 	.word	0xcfff69f3
 8004610:	ffffcfff 	.word	0xffffcfff
 8004614:	40008000 	.word	0x40008000
 8004618:	40008400 	.word	0x40008400
 800461c:	11fff4ff 	.word	0x11fff4ff
 8004620:	40013800 	.word	0x40013800
 8004624:	40021000 	.word	0x40021000
 8004628:	40004400 	.word	0x40004400
 800462c:	40004800 	.word	0x40004800
 8004630:	40004c00 	.word	0x40004c00
 8004634:	40005000 	.word	0x40005000
 8004638:	40013c00 	.word	0x40013c00
 800463c:	231b      	movs	r3, #27
 800463e:	2220      	movs	r2, #32
 8004640:	189b      	adds	r3, r3, r2
 8004642:	19db      	adds	r3, r3, r7
 8004644:	2208      	movs	r2, #8
 8004646:	701a      	strb	r2, [r3, #0]
 8004648:	e00c      	b.n	8004664 <UART_SetConfig+0x390>
 800464a:	231b      	movs	r3, #27
 800464c:	2220      	movs	r2, #32
 800464e:	189b      	adds	r3, r3, r2
 8004650:	19db      	adds	r3, r3, r7
 8004652:	2210      	movs	r2, #16
 8004654:	701a      	strb	r2, [r3, #0]
 8004656:	e005      	b.n	8004664 <UART_SetConfig+0x390>
 8004658:	231b      	movs	r3, #27
 800465a:	2220      	movs	r2, #32
 800465c:	189b      	adds	r3, r3, r2
 800465e:	19db      	adds	r3, r3, r7
 8004660:	2210      	movs	r2, #16
 8004662:	701a      	strb	r2, [r3, #0]

  /* Check LPUART instance */
  if (UART_INSTANCE_LOWPOWER(huart))
 8004664:	6a7b      	ldr	r3, [r7, #36]	; 0x24
 8004666:	681b      	ldr	r3, [r3, #0]
 8004668:	4ac1      	ldr	r2, [pc, #772]	; (8004970 <UART_SetConfig+0x69c>)
 800466a:	4293      	cmp	r3, r2
 800466c:	d005      	beq.n	800467a <UART_SetConfig+0x3a6>
 800466e:	6a7b      	ldr	r3, [r7, #36]	; 0x24
 8004670:	681b      	ldr	r3, [r3, #0]
 8004672:	4ac0      	ldr	r2, [pc, #768]	; (8004974 <UART_SetConfig+0x6a0>)
 8004674:	4293      	cmp	r3, r2
 8004676:	d000      	beq.n	800467a <UART_SetConfig+0x3a6>
 8004678:	e093      	b.n	80047a2 <UART_SetConfig+0x4ce>
  {
    /* Retrieve frequency clock */
    switch (clocksource)
 800467a:	231b      	movs	r3, #27
 800467c:	2220      	movs	r2, #32
 800467e:	189b      	adds	r3, r3, r2
 8004680:	19db      	adds	r3, r3, r7
 8004682:	781b      	ldrb	r3, [r3, #0]
 8004684:	2b08      	cmp	r3, #8
 8004686:	d015      	beq.n	80046b4 <UART_SetConfig+0x3e0>
 8004688:	dc18      	bgt.n	80046bc <UART_SetConfig+0x3e8>
 800468a:	2b04      	cmp	r3, #4
 800468c:	d00d      	beq.n	80046aa <UART_SetConfig+0x3d6>
 800468e:	dc15      	bgt.n	80046bc <UART_SetConfig+0x3e8>
 8004690:	2b00      	cmp	r3, #0
 8004692:	d002      	beq.n	800469a <UART_SetConfig+0x3c6>
 8004694:	2b02      	cmp	r3, #2
 8004696:	d005      	beq.n	80046a4 <UART_SetConfig+0x3d0>
 8004698:	e010      	b.n	80046bc <UART_SetConfig+0x3e8>
    {
      case UART_CLOCKSOURCE_PCLK1:
        pclk = HAL_RCC_GetPCLK1Freq();
 800469a:	f7ff f8a9 	bl	80037f0 <HAL_RCC_GetPCLK1Freq>
 800469e:	0003      	movs	r3, r0
 80046a0:	637b      	str	r3, [r7, #52]	; 0x34
        break;
 80046a2:	e014      	b.n	80046ce <UART_SetConfig+0x3fa>
      case UART_CLOCKSOURCE_HSI:
        pclk = (uint32_t) HSI_VALUE;
 80046a4:	4bb4      	ldr	r3, [pc, #720]	; (8004978 <UART_SetConfig+0x6a4>)
 80046a6:	637b      	str	r3, [r7, #52]	; 0x34
        break;
 80046a8:	e011      	b.n	80046ce <UART_SetConfig+0x3fa>
      case UART_CLOCKSOURCE_SYSCLK:
        pclk = HAL_RCC_GetSysClockFreq();
 80046aa:	f7ff f815 	bl	80036d8 <HAL_RCC_GetSysClockFreq>
 80046ae:	0003      	movs	r3, r0
 80046b0:	637b      	str	r3, [r7, #52]	; 0x34
        break;
 80046b2:	e00c      	b.n	80046ce <UART_SetConfig+0x3fa>
      case UART_CLOCKSOURCE_LSE:
        pclk = (uint32_t) LSE_VALUE;
 80046b4:	2380      	movs	r3, #128	; 0x80
 80046b6:	021b      	lsls	r3, r3, #8
 80046b8:	637b      	str	r3, [r7, #52]	; 0x34
        break;
 80046ba:	e008      	b.n	80046ce <UART_SetConfig+0x3fa>
      default:
        pclk = 0U;
 80046bc:	2300      	movs	r3, #0
 80046be:	637b      	str	r3, [r7, #52]	; 0x34
        ret = HAL_ERROR;
 80046c0:	231a      	movs	r3, #26
 80046c2:	2220      	movs	r2, #32
 80046c4:	189b      	adds	r3, r3, r2
 80046c6:	19db      	adds	r3, r3, r7
 80046c8:	2201      	movs	r2, #1
 80046ca:	701a      	strb	r2, [r3, #0]
        break;
 80046cc:	46c0      	nop			; (mov r8, r8)
    }

    /* If proper clock source reported */
    if (pclk != 0U)
 80046ce:	6b7b      	ldr	r3, [r7, #52]	; 0x34
 80046d0:	2b00      	cmp	r3, #0
 80046d2:	d100      	bne.n	80046d6 <UART_SetConfig+0x402>
 80046d4:	e135      	b.n	8004942 <UART_SetConfig+0x66e>
    {
      /* Compute clock after Prescaler */
      lpuart_ker_ck_pres = (pclk / UARTPrescTable[huart->Init.ClockPrescaler]);
 80046d6:	6a7b      	ldr	r3, [r7, #36]	; 0x24
 80046d8:	6a5a      	ldr	r2, [r3, #36]	; 0x24
 80046da:	4ba8      	ldr	r3, [pc, #672]	; (800497c <UART_SetConfig+0x6a8>)
 80046dc:	0052      	lsls	r2, r2, #1
 80046de:	5ad3      	ldrh	r3, [r2, r3]
 80046e0:	0019      	movs	r1, r3
 80046e2:	6b78      	ldr	r0, [r7, #52]	; 0x34
 80046e4:	f7fb fd0e 	bl	8000104 <__udivsi3>
 80046e8:	0003      	movs	r3, r0
 80046ea:	62bb      	str	r3, [r7, #40]	; 0x28

      /* Ensure that Frequency clock is in the range [3 * baudrate, 4096 * baudrate] */
      if ((lpuart_ker_ck_pres < (3U * huart->Init.BaudRate)) ||
 80046ec:	6a7b      	ldr	r3, [r7, #36]	; 0x24
 80046ee:	685a      	ldr	r2, [r3, #4]
 80046f0:	0013      	movs	r3, r2
 80046f2:	005b      	lsls	r3, r3, #1
 80046f4:	189b      	adds	r3, r3, r2
 80046f6:	6aba      	ldr	r2, [r7, #40]	; 0x28
 80046f8:	429a      	cmp	r2, r3
 80046fa:	d305      	bcc.n	8004708 <UART_SetConfig+0x434>
          (lpuart_ker_ck_pres > (4096U * huart->Init.BaudRate)))
 80046fc:	6a7b      	ldr	r3, [r7, #36]	; 0x24
 80046fe:	685b      	ldr	r3, [r3, #4]
 8004700:	031b      	lsls	r3, r3, #12
      if ((lpuart_ker_ck_pres < (3U * huart->Init.BaudRate)) ||
 8004702:	6aba      	ldr	r2, [r7, #40]	; 0x28
 8004704:	429a      	cmp	r2, r3
 8004706:	d906      	bls.n	8004716 <UART_SetConfig+0x442>
      {
        ret = HAL_ERROR;
 8004708:	231a      	movs	r3, #26
 800470a:	2220      	movs	r2, #32
 800470c:	189b      	adds	r3, r3, r2
 800470e:	19db      	adds	r3, r3, r7
 8004710:	2201      	movs	r2, #1
 8004712:	701a      	strb	r2, [r3, #0]
 8004714:	e044      	b.n	80047a0 <UART_SetConfig+0x4cc>
      }
      else
      {
        /* Check computed UsartDiv value is in allocated range
           (it is forbidden to write values lower than 0x300 in the LPUART_BRR register) */
        usartdiv = (uint32_t)(UART_DIV_LPUART(pclk, huart->Init.BaudRate, huart->Init.ClockPrescaler));
 8004716:	6b7b      	ldr	r3, [r7, #52]	; 0x34
 8004718:	61bb      	str	r3, [r7, #24]
 800471a:	2300      	movs	r3, #0
 800471c:	61fb      	str	r3, [r7, #28]
 800471e:	6a7b      	ldr	r3, [r7, #36]	; 0x24
 8004720:	6a5a      	ldr	r2, [r3, #36]	; 0x24
 8004722:	4b96      	ldr	r3, [pc, #600]	; (800497c <UART_SetConfig+0x6a8>)
 8004724:	0052      	lsls	r2, r2, #1
 8004726:	5ad3      	ldrh	r3, [r2, r3]
 8004728:	613b      	str	r3, [r7, #16]
 800472a:	2300      	movs	r3, #0
 800472c:	617b      	str	r3, [r7, #20]
 800472e:	693a      	ldr	r2, [r7, #16]
 8004730:	697b      	ldr	r3, [r7, #20]
 8004732:	69b8      	ldr	r0, [r7, #24]
 8004734:	69f9      	ldr	r1, [r7, #28]
 8004736:	f7fb fe5b 	bl	80003f0 <__aeabi_uldivmod>
 800473a:	0002      	movs	r2, r0
 800473c:	000b      	movs	r3, r1
 800473e:	0e11      	lsrs	r1, r2, #24
 8004740:	021d      	lsls	r5, r3, #8
 8004742:	430d      	orrs	r5, r1
 8004744:	0214      	lsls	r4, r2, #8
 8004746:	6a7b      	ldr	r3, [r7, #36]	; 0x24
 8004748:	685b      	ldr	r3, [r3, #4]
 800474a:	085b      	lsrs	r3, r3, #1
 800474c:	60bb      	str	r3, [r7, #8]
 800474e:	2300      	movs	r3, #0
 8004750:	60fb      	str	r3, [r7, #12]
 8004752:	68b8      	ldr	r0, [r7, #8]
 8004754:	68f9      	ldr	r1, [r7, #12]
 8004756:	1900      	adds	r0, r0, r4
 8004758:	4169      	adcs	r1, r5
 800475a:	6a7b      	ldr	r3, [r7, #36]	; 0x24
 800475c:	685b      	ldr	r3, [r3, #4]
 800475e:	603b      	str	r3, [r7, #0]
 8004760:	2300      	movs	r3, #0
 8004762:	607b      	str	r3, [r7, #4]
 8004764:	683a      	ldr	r2, [r7, #0]
 8004766:	687b      	ldr	r3, [r7, #4]
 8004768:	f7fb fe42 	bl	80003f0 <__aeabi_uldivmod>
 800476c:	0002      	movs	r2, r0
 800476e:	000b      	movs	r3, r1
 8004770:	0013      	movs	r3, r2
 8004772:	633b      	str	r3, [r7, #48]	; 0x30
        if ((usartdiv >= LPUART_BRR_MIN) && (usartdiv <= LPUART_BRR_MAX))
 8004774:	6b3a      	ldr	r2, [r7, #48]	; 0x30
 8004776:	23c0      	movs	r3, #192	; 0xc0
 8004778:	009b      	lsls	r3, r3, #2
 800477a:	429a      	cmp	r2, r3
 800477c:	d309      	bcc.n	8004792 <UART_SetConfig+0x4be>
 800477e:	6b3a      	ldr	r2, [r7, #48]	; 0x30
 8004780:	2380      	movs	r3, #128	; 0x80
 8004782:	035b      	lsls	r3, r3, #13
 8004784:	429a      	cmp	r2, r3
 8004786:	d204      	bcs.n	8004792 <UART_SetConfig+0x4be>
        {
          huart->Instance->BRR = usartdiv;
 8004788:	6a7b      	ldr	r3, [r7, #36]	; 0x24
 800478a:	681b      	ldr	r3, [r3, #0]
 800478c:	6b3a      	ldr	r2, [r7, #48]	; 0x30
 800478e:	60da      	str	r2, [r3, #12]
 8004790:	e006      	b.n	80047a0 <UART_SetConfig+0x4cc>
        }
        else
        {
          ret = HAL_ERROR;
 8004792:	231a      	movs	r3, #26
 8004794:	2220      	movs	r2, #32
 8004796:	189b      	adds	r3, r3, r2
 8004798:	19db      	adds	r3, r3, r7
 800479a:	2201      	movs	r2, #1
 800479c:	701a      	strb	r2, [r3, #0]
    if (pclk != 0U)
 800479e:	e0d0      	b.n	8004942 <UART_SetConfig+0x66e>
 80047a0:	e0cf      	b.n	8004942 <UART_SetConfig+0x66e>
      } /* if ( (lpuart_ker_ck_pres < (3 * huart->Init.BaudRate) ) ||
                (lpuart_ker_ck_pres > (4096 * huart->Init.BaudRate) )) */
    } /* if (pclk != 0) */
  }
  /* Check UART Over Sampling to set Baud Rate Register */
  else if (huart->Init.OverSampling == UART_OVERSAMPLING_8)
 80047a2:	6a7b      	ldr	r3, [r7, #36]	; 0x24
 80047a4:	69da      	ldr	r2, [r3, #28]
 80047a6:	2380      	movs	r3, #128	; 0x80
 80047a8:	021b      	lsls	r3, r3, #8
 80047aa:	429a      	cmp	r2, r3
 80047ac:	d000      	beq.n	80047b0 <UART_SetConfig+0x4dc>
 80047ae:	e070      	b.n	8004892 <UART_SetConfig+0x5be>
  {
    switch (clocksource)
 80047b0:	231b      	movs	r3, #27
 80047b2:	2220      	movs	r2, #32
 80047b4:	189b      	adds	r3, r3, r2
 80047b6:	19db      	adds	r3, r3, r7
 80047b8:	781b      	ldrb	r3, [r3, #0]
 80047ba:	2b08      	cmp	r3, #8
 80047bc:	d015      	beq.n	80047ea <UART_SetConfig+0x516>
 80047be:	dc18      	bgt.n	80047f2 <UART_SetConfig+0x51e>
 80047c0:	2b04      	cmp	r3, #4
 80047c2:	d00d      	beq.n	80047e0 <UART_SetConfig+0x50c>
 80047c4:	dc15      	bgt.n	80047f2 <UART_SetConfig+0x51e>
 80047c6:	2b00      	cmp	r3, #0
 80047c8:	d002      	beq.n	80047d0 <UART_SetConfig+0x4fc>
 80047ca:	2b02      	cmp	r3, #2
 80047cc:	d005      	beq.n	80047da <UART_SetConfig+0x506>
 80047ce:	e010      	b.n	80047f2 <UART_SetConfig+0x51e>
    {
      case UART_CLOCKSOURCE_PCLK1:
        pclk = HAL_RCC_GetPCLK1Freq();
 80047d0:	f7ff f80e 	bl	80037f0 <HAL_RCC_GetPCLK1Freq>
 80047d4:	0003      	movs	r3, r0
 80047d6:	637b      	str	r3, [r7, #52]	; 0x34
        break;
 80047d8:	e014      	b.n	8004804 <UART_SetConfig+0x530>
      case UART_CLOCKSOURCE_HSI:
        pclk = (uint32_t) HSI_VALUE;
 80047da:	4b67      	ldr	r3, [pc, #412]	; (8004978 <UART_SetConfig+0x6a4>)
 80047dc:	637b      	str	r3, [r7, #52]	; 0x34
        break;
 80047de:	e011      	b.n	8004804 <UART_SetConfig+0x530>
      case UART_CLOCKSOURCE_SYSCLK:
        pclk = HAL_RCC_GetSysClockFreq();
 80047e0:	f7fe ff7a 	bl	80036d8 <HAL_RCC_GetSysClockFreq>
 80047e4:	0003      	movs	r3, r0
 80047e6:	637b      	str	r3, [r7, #52]	; 0x34
        break;
 80047e8:	e00c      	b.n	8004804 <UART_SetConfig+0x530>
      case UART_CLOCKSOURCE_LSE:
        pclk = (uint32_t) LSE_VALUE;
 80047ea:	2380      	movs	r3, #128	; 0x80
 80047ec:	021b      	lsls	r3, r3, #8
 80047ee:	637b      	str	r3, [r7, #52]	; 0x34
        break;
 80047f0:	e008      	b.n	8004804 <UART_SetConfig+0x530>
      default:
        pclk = 0U;
 80047f2:	2300      	movs	r3, #0
 80047f4:	637b      	str	r3, [r7, #52]	; 0x34
        ret = HAL_ERROR;
 80047f6:	231a      	movs	r3, #26
 80047f8:	2220      	movs	r2, #32
 80047fa:	189b      	adds	r3, r3, r2
 80047fc:	19db      	adds	r3, r3, r7
 80047fe:	2201      	movs	r2, #1
 8004800:	701a      	strb	r2, [r3, #0]
        break;
 8004802:	46c0      	nop			; (mov r8, r8)
    }

    /* USARTDIV must be greater than or equal to 0d16 */
    if (pclk != 0U)
 8004804:	6b7b      	ldr	r3, [r7, #52]	; 0x34
 8004806:	2b00      	cmp	r3, #0
 8004808:	d100      	bne.n	800480c <UART_SetConfig+0x538>
 800480a:	e09a      	b.n	8004942 <UART_SetConfig+0x66e>
    {
      usartdiv = (uint32_t)(UART_DIV_SAMPLING8(pclk, huart->Init.BaudRate, huart->Init.ClockPrescaler));
 800480c:	6a7b      	ldr	r3, [r7, #36]	; 0x24
 800480e:	6a5a      	ldr	r2, [r3, #36]	; 0x24
 8004810:	4b5a      	ldr	r3, [pc, #360]	; (800497c <UART_SetConfig+0x6a8>)
 8004812:	0052      	lsls	r2, r2, #1
 8004814:	5ad3      	ldrh	r3, [r2, r3]
 8004816:	0019      	movs	r1, r3
 8004818:	6b78      	ldr	r0, [r7, #52]	; 0x34
 800481a:	f7fb fc73 	bl	8000104 <__udivsi3>
 800481e:	0003      	movs	r3, r0
 8004820:	005a      	lsls	r2, r3, #1
 8004822:	6a7b      	ldr	r3, [r7, #36]	; 0x24
 8004824:	685b      	ldr	r3, [r3, #4]
 8004826:	085b      	lsrs	r3, r3, #1
 8004828:	18d2      	adds	r2, r2, r3
 800482a:	6a7b      	ldr	r3, [r7, #36]	; 0x24
 800482c:	685b      	ldr	r3, [r3, #4]
 800482e:	0019      	movs	r1, r3
 8004830:	0010      	movs	r0, r2
 8004832:	f7fb fc67 	bl	8000104 <__udivsi3>
 8004836:	0003      	movs	r3, r0
 8004838:	633b      	str	r3, [r7, #48]	; 0x30
      if ((usartdiv >= UART_BRR_MIN) && (usartdiv <= UART_BRR_MAX))
 800483a:	6b3b      	ldr	r3, [r7, #48]	; 0x30
 800483c:	2b0f      	cmp	r3, #15
 800483e:	d921      	bls.n	8004884 <UART_SetConfig+0x5b0>
 8004840:	6b3a      	ldr	r2, [r7, #48]	; 0x30
 8004842:	2380      	movs	r3, #128	; 0x80
 8004844:	025b      	lsls	r3, r3, #9
 8004846:	429a      	cmp	r2, r3
 8004848:	d21c      	bcs.n	8004884 <UART_SetConfig+0x5b0>
      {
        brrtemp = (uint16_t)(usartdiv & 0xFFF0U);
 800484a:	6b3b      	ldr	r3, [r7, #48]	; 0x30
 800484c:	b29a      	uxth	r2, r3
 800484e:	200e      	movs	r0, #14
 8004850:	2420      	movs	r4, #32
 8004852:	1903      	adds	r3, r0, r4
 8004854:	19db      	adds	r3, r3, r7
 8004856:	210f      	movs	r1, #15
 8004858:	438a      	bics	r2, r1
 800485a:	801a      	strh	r2, [r3, #0]
        brrtemp |= (uint16_t)((usartdiv & (uint16_t)0x000FU) >> 1U);
 800485c:	6b3b      	ldr	r3, [r7, #48]	; 0x30
 800485e:	085b      	lsrs	r3, r3, #1
 8004860:	b29b      	uxth	r3, r3
 8004862:	2207      	movs	r2, #7
 8004864:	4013      	ands	r3, r2
 8004866:	b299      	uxth	r1, r3
 8004868:	1903      	adds	r3, r0, r4
 800486a:	19db      	adds	r3, r3, r7
 800486c:	1902      	adds	r2, r0, r4
 800486e:	19d2      	adds	r2, r2, r7
 8004870:	8812      	ldrh	r2, [r2, #0]
 8004872:	430a      	orrs	r2, r1
 8004874:	801a      	strh	r2, [r3, #0]
        huart->Instance->BRR = brrtemp;
 8004876:	6a7b      	ldr	r3, [r7, #36]	; 0x24
 8004878:	681b      	ldr	r3, [r3, #0]
 800487a:	1902      	adds	r2, r0, r4
 800487c:	19d2      	adds	r2, r2, r7
 800487e:	8812      	ldrh	r2, [r2, #0]
 8004880:	60da      	str	r2, [r3, #12]
 8004882:	e05e      	b.n	8004942 <UART_SetConfig+0x66e>
      }
      else
      {
        ret = HAL_ERROR;
 8004884:	231a      	movs	r3, #26
 8004886:	2220      	movs	r2, #32
 8004888:	189b      	adds	r3, r3, r2
 800488a:	19db      	adds	r3, r3, r7
 800488c:	2201      	movs	r2, #1
 800488e:	701a      	strb	r2, [r3, #0]
 8004890:	e057      	b.n	8004942 <UART_SetConfig+0x66e>
      }
    }
  }
  else
  {
    switch (clocksource)
 8004892:	231b      	movs	r3, #27
 8004894:	2220      	movs	r2, #32
 8004896:	189b      	adds	r3, r3, r2
 8004898:	19db      	adds	r3, r3, r7
 800489a:	781b      	ldrb	r3, [r3, #0]
 800489c:	2b08      	cmp	r3, #8
 800489e:	d015      	beq.n	80048cc <UART_SetConfig+0x5f8>
 80048a0:	dc18      	bgt.n	80048d4 <UART_SetConfig+0x600>
 80048a2:	2b04      	cmp	r3, #4
 80048a4:	d00d      	beq.n	80048c2 <UART_SetConfig+0x5ee>
 80048a6:	dc15      	bgt.n	80048d4 <UART_SetConfig+0x600>
 80048a8:	2b00      	cmp	r3, #0
 80048aa:	d002      	beq.n	80048b2 <UART_SetConfig+0x5de>
 80048ac:	2b02      	cmp	r3, #2
 80048ae:	d005      	beq.n	80048bc <UART_SetConfig+0x5e8>
 80048b0:	e010      	b.n	80048d4 <UART_SetConfig+0x600>
    {
      case UART_CLOCKSOURCE_PCLK1:
        pclk = HAL_RCC_GetPCLK1Freq();
 80048b2:	f7fe ff9d 	bl	80037f0 <HAL_RCC_GetPCLK1Freq>
 80048b6:	0003      	movs	r3, r0
 80048b8:	637b      	str	r3, [r7, #52]	; 0x34
        break;
 80048ba:	e014      	b.n	80048e6 <UART_SetConfig+0x612>
      case UART_CLOCKSOURCE_HSI:
        pclk = (uint32_t) HSI_VALUE;
 80048bc:	4b2e      	ldr	r3, [pc, #184]	; (8004978 <UART_SetConfig+0x6a4>)
 80048be:	637b      	str	r3, [r7, #52]	; 0x34
        break;
 80048c0:	e011      	b.n	80048e6 <UART_SetConfig+0x612>
      case UART_CLOCKSOURCE_SYSCLK:
        pclk = HAL_RCC_GetSysClockFreq();
 80048c2:	f7fe ff09 	bl	80036d8 <HAL_RCC_GetSysClockFreq>
 80048c6:	0003      	movs	r3, r0
 80048c8:	637b      	str	r3, [r7, #52]	; 0x34
        break;
 80048ca:	e00c      	b.n	80048e6 <UART_SetConfig+0x612>
      case UART_CLOCKSOURCE_LSE:
        pclk = (uint32_t) LSE_VALUE;
 80048cc:	2380      	movs	r3, #128	; 0x80
 80048ce:	021b      	lsls	r3, r3, #8
 80048d0:	637b      	str	r3, [r7, #52]	; 0x34
        break;
 80048d2:	e008      	b.n	80048e6 <UART_SetConfig+0x612>
      default:
        pclk = 0U;
 80048d4:	2300      	movs	r3, #0
 80048d6:	637b      	str	r3, [r7, #52]	; 0x34
        ret = HAL_ERROR;
 80048d8:	231a      	movs	r3, #26
 80048da:	2220      	movs	r2, #32
 80048dc:	189b      	adds	r3, r3, r2
 80048de:	19db      	adds	r3, r3, r7
 80048e0:	2201      	movs	r2, #1
 80048e2:	701a      	strb	r2, [r3, #0]
        break;
 80048e4:	46c0      	nop			; (mov r8, r8)
    }

    if (pclk != 0U)
 80048e6:	6b7b      	ldr	r3, [r7, #52]	; 0x34
 80048e8:	2b00      	cmp	r3, #0
 80048ea:	d02a      	beq.n	8004942 <UART_SetConfig+0x66e>
    {
      /* USARTDIV must be greater than or equal to 0d16 */
      usartdiv = (uint32_t)(UART_DIV_SAMPLING16(pclk, huart->Init.BaudRate, huart->Init.ClockPrescaler));
 80048ec:	6a7b      	ldr	r3, [r7, #36]	; 0x24
 80048ee:	6a5a      	ldr	r2, [r3, #36]	; 0x24
 80048f0:	4b22      	ldr	r3, [pc, #136]	; (800497c <UART_SetConfig+0x6a8>)
 80048f2:	0052      	lsls	r2, r2, #1
 80048f4:	5ad3      	ldrh	r3, [r2, r3]
 80048f6:	0019      	movs	r1, r3
 80048f8:	6b78      	ldr	r0, [r7, #52]	; 0x34
 80048fa:	f7fb fc03 	bl	8000104 <__udivsi3>
 80048fe:	0003      	movs	r3, r0
 8004900:	001a      	movs	r2, r3
 8004902:	6a7b      	ldr	r3, [r7, #36]	; 0x24
 8004904:	685b      	ldr	r3, [r3, #4]
 8004906:	085b      	lsrs	r3, r3, #1
 8004908:	18d2      	adds	r2, r2, r3
 800490a:	6a7b      	ldr	r3, [r7, #36]	; 0x24
 800490c:	685b      	ldr	r3, [r3, #4]
 800490e:	0019      	movs	r1, r3
 8004910:	0010      	movs	r0, r2
 8004912:	f7fb fbf7 	bl	8000104 <__udivsi3>
 8004916:	0003      	movs	r3, r0
 8004918:	633b      	str	r3, [r7, #48]	; 0x30
      if ((usartdiv >= UART_BRR_MIN) && (usartdiv <= UART_BRR_MAX))
 800491a:	6b3b      	ldr	r3, [r7, #48]	; 0x30
 800491c:	2b0f      	cmp	r3, #15
 800491e:	d90a      	bls.n	8004936 <UART_SetConfig+0x662>
 8004920:	6b3a      	ldr	r2, [r7, #48]	; 0x30
 8004922:	2380      	movs	r3, #128	; 0x80
 8004924:	025b      	lsls	r3, r3, #9
 8004926:	429a      	cmp	r2, r3
 8004928:	d205      	bcs.n	8004936 <UART_SetConfig+0x662>
      {
        huart->Instance->BRR = (uint16_t)usartdiv;
 800492a:	6b3b      	ldr	r3, [r7, #48]	; 0x30
 800492c:	b29a      	uxth	r2, r3
 800492e:	6a7b      	ldr	r3, [r7, #36]	; 0x24
 8004930:	681b      	ldr	r3, [r3, #0]
 8004932:	60da      	str	r2, [r3, #12]
 8004934:	e005      	b.n	8004942 <UART_SetConfig+0x66e>
      }
      else
      {
        ret = HAL_ERROR;
 8004936:	231a      	movs	r3, #26
 8004938:	2220      	movs	r2, #32
 800493a:	189b      	adds	r3, r3, r2
 800493c:	19db      	adds	r3, r3, r7
 800493e:	2201      	movs	r2, #1
 8004940:	701a      	strb	r2, [r3, #0]
      }
    }
  }

  /* Initialize the number of data to process during RX/TX ISR execution */
  huart->NbTxDataToProcess = 1;
 8004942:	6a7b      	ldr	r3, [r7, #36]	; 0x24
 8004944:	226a      	movs	r2, #106	; 0x6a
 8004946:	2101      	movs	r1, #1
 8004948:	5299      	strh	r1, [r3, r2]
  huart->NbRxDataToProcess = 1;
 800494a:	6a7b      	ldr	r3, [r7, #36]	; 0x24
 800494c:	2268      	movs	r2, #104	; 0x68
 800494e:	2101      	movs	r1, #1
 8004950:	5299      	strh	r1, [r3, r2]

  /* Clear ISR function pointers */
  huart->RxISR = NULL;
 8004952:	6a7b      	ldr	r3, [r7, #36]	; 0x24
 8004954:	2200      	movs	r2, #0
 8004956:	675a      	str	r2, [r3, #116]	; 0x74
  huart->TxISR = NULL;
 8004958:	6a7b      	ldr	r3, [r7, #36]	; 0x24
 800495a:	2200      	movs	r2, #0
 800495c:	679a      	str	r2, [r3, #120]	; 0x78

  return ret;
 800495e:	231a      	movs	r3, #26
 8004960:	2220      	movs	r2, #32
 8004962:	189b      	adds	r3, r3, r2
 8004964:	19db      	adds	r3, r3, r7
 8004966:	781b      	ldrb	r3, [r3, #0]
}
 8004968:	0018      	movs	r0, r3
 800496a:	46bd      	mov	sp, r7
 800496c:	b010      	add	sp, #64	; 0x40
 800496e:	bdb0      	pop	{r4, r5, r7, pc}
 8004970:	40008000 	.word	0x40008000
 8004974:	40008400 	.word	0x40008400
 8004978:	00f42400 	.word	0x00f42400
 800497c:	08005040 	.word	0x08005040

08004980 <UART_AdvFeatureConfig>:
  * @brief Configure the UART peripheral advanced features.
  * @param huart UART handle.
  * @retval None
  */
void UART_AdvFeatureConfig(UART_HandleTypeDef *huart)
{
 8004980:	b580      	push	{r7, lr}
 8004982:	b082      	sub	sp, #8
 8004984:	af00      	add	r7, sp, #0
 8004986:	6078      	str	r0, [r7, #4]
  /* Check whether the set of advanced features to configure is properly set */
  assert_param(IS_UART_ADVFEATURE_INIT(huart->AdvancedInit.AdvFeatureInit));

  /* if required, configure TX pin active level inversion */
  if (HAL_IS_BIT_SET(huart->AdvancedInit.AdvFeatureInit, UART_ADVFEATURE_TXINVERT_INIT))
 8004988:	687b      	ldr	r3, [r7, #4]
 800498a:	6a9b      	ldr	r3, [r3, #40]	; 0x28
 800498c:	2201      	movs	r2, #1
 800498e:	4013      	ands	r3, r2
 8004990:	d00b      	beq.n	80049aa <UART_AdvFeatureConfig+0x2a>
  {
    assert_param(IS_UART_ADVFEATURE_TXINV(huart->AdvancedInit.TxPinLevelInvert));
    MODIFY_REG(huart->Instance->CR2, USART_CR2_TXINV, huart->AdvancedInit.TxPinLevelInvert);
 8004992:	687b      	ldr	r3, [r7, #4]
 8004994:	681b      	ldr	r3, [r3, #0]
 8004996:	685b      	ldr	r3, [r3, #4]
 8004998:	4a4a      	ldr	r2, [pc, #296]	; (8004ac4 <UART_AdvFeatureConfig+0x144>)
 800499a:	4013      	ands	r3, r2
 800499c:	0019      	movs	r1, r3
 800499e:	687b      	ldr	r3, [r7, #4]
 80049a0:	6ada      	ldr	r2, [r3, #44]	; 0x2c
 80049a2:	687b      	ldr	r3, [r7, #4]
 80049a4:	681b      	ldr	r3, [r3, #0]
 80049a6:	430a      	orrs	r2, r1
 80049a8:	605a      	str	r2, [r3, #4]
  }

  /* if required, configure RX pin active level inversion */
  if (HAL_IS_BIT_SET(huart->AdvancedInit.AdvFeatureInit, UART_ADVFEATURE_RXINVERT_INIT))
 80049aa:	687b      	ldr	r3, [r7, #4]
 80049ac:	6a9b      	ldr	r3, [r3, #40]	; 0x28
 80049ae:	2202      	movs	r2, #2
 80049b0:	4013      	ands	r3, r2
 80049b2:	d00b      	beq.n	80049cc <UART_AdvFeatureConfig+0x4c>
  {
    assert_param(IS_UART_ADVFEATURE_RXINV(huart->AdvancedInit.RxPinLevelInvert));
    MODIFY_REG(huart->Instance->CR2, USART_CR2_RXINV, huart->AdvancedInit.RxPinLevelInvert);
 80049b4:	687b      	ldr	r3, [r7, #4]
 80049b6:	681b      	ldr	r3, [r3, #0]
 80049b8:	685b      	ldr	r3, [r3, #4]
 80049ba:	4a43      	ldr	r2, [pc, #268]	; (8004ac8 <UART_AdvFeatureConfig+0x148>)
 80049bc:	4013      	ands	r3, r2
 80049be:	0019      	movs	r1, r3
 80049c0:	687b      	ldr	r3, [r7, #4]
 80049c2:	6b1a      	ldr	r2, [r3, #48]	; 0x30
 80049c4:	687b      	ldr	r3, [r7, #4]
 80049c6:	681b      	ldr	r3, [r3, #0]
 80049c8:	430a      	orrs	r2, r1
 80049ca:	605a      	str	r2, [r3, #4]
  }

  /* if required, configure data inversion */
  if (HAL_IS_BIT_SET(huart->AdvancedInit.AdvFeatureInit, UART_ADVFEATURE_DATAINVERT_INIT))
 80049cc:	687b      	ldr	r3, [r7, #4]
 80049ce:	6a9b      	ldr	r3, [r3, #40]	; 0x28
 80049d0:	2204      	movs	r2, #4
 80049d2:	4013      	ands	r3, r2
 80049d4:	d00b      	beq.n	80049ee <UART_AdvFeatureConfig+0x6e>
  {
    assert_param(IS_UART_ADVFEATURE_DATAINV(huart->AdvancedInit.DataInvert));
    MODIFY_REG(huart->Instance->CR2, USART_CR2_DATAINV, huart->AdvancedInit.DataInvert);
 80049d6:	687b      	ldr	r3, [r7, #4]
 80049d8:	681b      	ldr	r3, [r3, #0]
 80049da:	685b      	ldr	r3, [r3, #4]
 80049dc:	4a3b      	ldr	r2, [pc, #236]	; (8004acc <UART_AdvFeatureConfig+0x14c>)
 80049de:	4013      	ands	r3, r2
 80049e0:	0019      	movs	r1, r3
 80049e2:	687b      	ldr	r3, [r7, #4]
 80049e4:	6b5a      	ldr	r2, [r3, #52]	; 0x34
 80049e6:	687b      	ldr	r3, [r7, #4]
 80049e8:	681b      	ldr	r3, [r3, #0]
 80049ea:	430a      	orrs	r2, r1
 80049ec:	605a      	str	r2, [r3, #4]
  }

  /* if required, configure RX/TX pins swap */
  if (HAL_IS_BIT_SET(huart->AdvancedInit.AdvFeatureInit, UART_ADVFEATURE_SWAP_INIT))
 80049ee:	687b      	ldr	r3, [r7, #4]
 80049f0:	6a9b      	ldr	r3, [r3, #40]	; 0x28
 80049f2:	2208      	movs	r2, #8
 80049f4:	4013      	ands	r3, r2
 80049f6:	d00b      	beq.n	8004a10 <UART_AdvFeatureConfig+0x90>
  {
    assert_param(IS_UART_ADVFEATURE_SWAP(huart->AdvancedInit.Swap));
    MODIFY_REG(huart->Instance->CR2, USART_CR2_SWAP, huart->AdvancedInit.Swap);
 80049f8:	687b      	ldr	r3, [r7, #4]
 80049fa:	681b      	ldr	r3, [r3, #0]
 80049fc:	685b      	ldr	r3, [r3, #4]
 80049fe:	4a34      	ldr	r2, [pc, #208]	; (8004ad0 <UART_AdvFeatureConfig+0x150>)
 8004a00:	4013      	ands	r3, r2
 8004a02:	0019      	movs	r1, r3
 8004a04:	687b      	ldr	r3, [r7, #4]
 8004a06:	6b9a      	ldr	r2, [r3, #56]	; 0x38
 8004a08:	687b      	ldr	r3, [r7, #4]
 8004a0a:	681b      	ldr	r3, [r3, #0]
 8004a0c:	430a      	orrs	r2, r1
 8004a0e:	605a      	str	r2, [r3, #4]
  }

  /* if required, configure RX overrun detection disabling */
  if (HAL_IS_BIT_SET(huart->AdvancedInit.AdvFeatureInit, UART_ADVFEATURE_RXOVERRUNDISABLE_INIT))
 8004a10:	687b      	ldr	r3, [r7, #4]
 8004a12:	6a9b      	ldr	r3, [r3, #40]	; 0x28
 8004a14:	2210      	movs	r2, #16
 8004a16:	4013      	ands	r3, r2
 8004a18:	d00b      	beq.n	8004a32 <UART_AdvFeatureConfig+0xb2>
  {
    assert_param(IS_UART_OVERRUN(huart->AdvancedInit.OverrunDisable));
    MODIFY_REG(huart->Instance->CR3, USART_CR3_OVRDIS, huart->AdvancedInit.OverrunDisable);
 8004a1a:	687b      	ldr	r3, [r7, #4]
 8004a1c:	681b      	ldr	r3, [r3, #0]
 8004a1e:	689b      	ldr	r3, [r3, #8]
 8004a20:	4a2c      	ldr	r2, [pc, #176]	; (8004ad4 <UART_AdvFeatureConfig+0x154>)
 8004a22:	4013      	ands	r3, r2
 8004a24:	0019      	movs	r1, r3
 8004a26:	687b      	ldr	r3, [r7, #4]
 8004a28:	6bda      	ldr	r2, [r3, #60]	; 0x3c
 8004a2a:	687b      	ldr	r3, [r7, #4]
 8004a2c:	681b      	ldr	r3, [r3, #0]
 8004a2e:	430a      	orrs	r2, r1
 8004a30:	609a      	str	r2, [r3, #8]
  }

  /* if required, configure DMA disabling on reception error */
  if (HAL_IS_BIT_SET(huart->AdvancedInit.AdvFeatureInit, UART_ADVFEATURE_DMADISABLEONERROR_INIT))
 8004a32:	687b      	ldr	r3, [r7, #4]
 8004a34:	6a9b      	ldr	r3, [r3, #40]	; 0x28
 8004a36:	2220      	movs	r2, #32
 8004a38:	4013      	ands	r3, r2
 8004a3a:	d00b      	beq.n	8004a54 <UART_AdvFeatureConfig+0xd4>
  {
    assert_param(IS_UART_ADVFEATURE_DMAONRXERROR(huart->AdvancedInit.DMADisableonRxError));
    MODIFY_REG(huart->Instance->CR3, USART_CR3_DDRE, huart->AdvancedInit.DMADisableonRxError);
 8004a3c:	687b      	ldr	r3, [r7, #4]
 8004a3e:	681b      	ldr	r3, [r3, #0]
 8004a40:	689b      	ldr	r3, [r3, #8]
 8004a42:	4a25      	ldr	r2, [pc, #148]	; (8004ad8 <UART_AdvFeatureConfig+0x158>)
 8004a44:	4013      	ands	r3, r2
 8004a46:	0019      	movs	r1, r3
 8004a48:	687b      	ldr	r3, [r7, #4]
 8004a4a:	6c1a      	ldr	r2, [r3, #64]	; 0x40
 8004a4c:	687b      	ldr	r3, [r7, #4]
 8004a4e:	681b      	ldr	r3, [r3, #0]
 8004a50:	430a      	orrs	r2, r1
 8004a52:	609a      	str	r2, [r3, #8]
  }

  /* if required, configure auto Baud rate detection scheme */
  if (HAL_IS_BIT_SET(huart->AdvancedInit.AdvFeatureInit, UART_ADVFEATURE_AUTOBAUDRATE_INIT))
 8004a54:	687b      	ldr	r3, [r7, #4]
 8004a56:	6a9b      	ldr	r3, [r3, #40]	; 0x28
 8004a58:	2240      	movs	r2, #64	; 0x40
 8004a5a:	4013      	ands	r3, r2
 8004a5c:	d01d      	beq.n	8004a9a <UART_AdvFeatureConfig+0x11a>
  {
    assert_param(IS_USART_AUTOBAUDRATE_DETECTION_INSTANCE(huart->Instance));
    assert_param(IS_UART_ADVFEATURE_AUTOBAUDRATE(huart->AdvancedInit.AutoBaudRateEnable));
    MODIFY_REG(huart->Instance->CR2, USART_CR2_ABREN, huart->AdvancedInit.AutoBaudRateEnable);
 8004a5e:	687b      	ldr	r3, [r7, #4]
 8004a60:	681b      	ldr	r3, [r3, #0]
 8004a62:	685b      	ldr	r3, [r3, #4]
 8004a64:	4a1d      	ldr	r2, [pc, #116]	; (8004adc <UART_AdvFeatureConfig+0x15c>)
 8004a66:	4013      	ands	r3, r2
 8004a68:	0019      	movs	r1, r3
 8004a6a:	687b      	ldr	r3, [r7, #4]
 8004a6c:	6c5a      	ldr	r2, [r3, #68]	; 0x44
 8004a6e:	687b      	ldr	r3, [r7, #4]
 8004a70:	681b      	ldr	r3, [r3, #0]
 8004a72:	430a      	orrs	r2, r1
 8004a74:	605a      	str	r2, [r3, #4]
    /* set auto Baudrate detection parameters if detection is enabled */
    if (huart->AdvancedInit.AutoBaudRateEnable == UART_ADVFEATURE_AUTOBAUDRATE_ENABLE)
 8004a76:	687b      	ldr	r3, [r7, #4]
 8004a78:	6c5a      	ldr	r2, [r3, #68]	; 0x44
 8004a7a:	2380      	movs	r3, #128	; 0x80
 8004a7c:	035b      	lsls	r3, r3, #13
 8004a7e:	429a      	cmp	r2, r3
 8004a80:	d10b      	bne.n	8004a9a <UART_AdvFeatureConfig+0x11a>
    {
      assert_param(IS_UART_ADVFEATURE_AUTOBAUDRATEMODE(huart->AdvancedInit.AutoBaudRateMode));
      MODIFY_REG(huart->Instance->CR2, USART_CR2_ABRMODE, huart->AdvancedInit.AutoBaudRateMode);
 8004a82:	687b      	ldr	r3, [r7, #4]
 8004a84:	681b      	ldr	r3, [r3, #0]
 8004a86:	685b      	ldr	r3, [r3, #4]
 8004a88:	4a15      	ldr	r2, [pc, #84]	; (8004ae0 <UART_AdvFeatureConfig+0x160>)
 8004a8a:	4013      	ands	r3, r2
 8004a8c:	0019      	movs	r1, r3
 8004a8e:	687b      	ldr	r3, [r7, #4]
 8004a90:	6c9a      	ldr	r2, [r3, #72]	; 0x48
 8004a92:	687b      	ldr	r3, [r7, #4]
 8004a94:	681b      	ldr	r3, [r3, #0]
 8004a96:	430a      	orrs	r2, r1
 8004a98:	605a      	str	r2, [r3, #4]
    }
  }

  /* if required, configure MSB first on communication line */
  if (HAL_IS_BIT_SET(huart->AdvancedInit.AdvFeatureInit, UART_ADVFEATURE_MSBFIRST_INIT))
 8004a9a:	687b      	ldr	r3, [r7, #4]
 8004a9c:	6a9b      	ldr	r3, [r3, #40]	; 0x28
 8004a9e:	2280      	movs	r2, #128	; 0x80
 8004aa0:	4013      	ands	r3, r2
 8004aa2:	d00b      	beq.n	8004abc <UART_AdvFeatureConfig+0x13c>
  {
    assert_param(IS_UART_ADVFEATURE_MSBFIRST(huart->AdvancedInit.MSBFirst));
    MODIFY_REG(huart->Instance->CR2, USART_CR2_MSBFIRST, huart->AdvancedInit.MSBFirst);
 8004aa4:	687b      	ldr	r3, [r7, #4]
 8004aa6:	681b      	ldr	r3, [r3, #0]
 8004aa8:	685b      	ldr	r3, [r3, #4]
 8004aaa:	4a0e      	ldr	r2, [pc, #56]	; (8004ae4 <UART_AdvFeatureConfig+0x164>)
 8004aac:	4013      	ands	r3, r2
 8004aae:	0019      	movs	r1, r3
 8004ab0:	687b      	ldr	r3, [r7, #4]
 8004ab2:	6cda      	ldr	r2, [r3, #76]	; 0x4c
 8004ab4:	687b      	ldr	r3, [r7, #4]
 8004ab6:	681b      	ldr	r3, [r3, #0]
 8004ab8:	430a      	orrs	r2, r1
 8004aba:	605a      	str	r2, [r3, #4]
  }
}
 8004abc:	46c0      	nop			; (mov r8, r8)
 8004abe:	46bd      	mov	sp, r7
 8004ac0:	b002      	add	sp, #8
 8004ac2:	bd80      	pop	{r7, pc}
 8004ac4:	fffdffff 	.word	0xfffdffff
 8004ac8:	fffeffff 	.word	0xfffeffff
 8004acc:	fffbffff 	.word	0xfffbffff
 8004ad0:	ffff7fff 	.word	0xffff7fff
 8004ad4:	ffffefff 	.word	0xffffefff
 8004ad8:	ffffdfff 	.word	0xffffdfff
 8004adc:	ffefffff 	.word	0xffefffff
 8004ae0:	ff9fffff 	.word	0xff9fffff
 8004ae4:	fff7ffff 	.word	0xfff7ffff

08004ae8 <UART_CheckIdleState>:
  * @brief Check the UART Idle State.
  * @param huart UART handle.
  * @retval HAL status
  */
HAL_StatusTypeDef UART_CheckIdleState(UART_HandleTypeDef *huart)
{
 8004ae8:	b580      	push	{r7, lr}
 8004aea:	b086      	sub	sp, #24
 8004aec:	af02      	add	r7, sp, #8
 8004aee:	6078      	str	r0, [r7, #4]
  uint32_t tickstart;

  /* Initialize the UART ErrorCode */
  huart->ErrorCode = HAL_UART_ERROR_NONE;
 8004af0:	687b      	ldr	r3, [r7, #4]
 8004af2:	2290      	movs	r2, #144	; 0x90
 8004af4:	2100      	movs	r1, #0
 8004af6:	5099      	str	r1, [r3, r2]

  /* Init tickstart for timeout management */
  tickstart = HAL_GetTick();
 8004af8:	f7fc ff5a 	bl	80019b0 <HAL_GetTick>
 8004afc:	0003      	movs	r3, r0
 8004afe:	60fb      	str	r3, [r7, #12]

  /* Check if the Transmitter is enabled */
  if ((huart->Instance->CR1 & USART_CR1_TE) == USART_CR1_TE)
 8004b00:	687b      	ldr	r3, [r7, #4]
 8004b02:	681b      	ldr	r3, [r3, #0]
 8004b04:	681b      	ldr	r3, [r3, #0]
 8004b06:	2208      	movs	r2, #8
 8004b08:	4013      	ands	r3, r2
 8004b0a:	2b08      	cmp	r3, #8
 8004b0c:	d10c      	bne.n	8004b28 <UART_CheckIdleState+0x40>
  {
    /* Wait until TEACK flag is set */
    if (UART_WaitOnFlagUntilTimeout(huart, USART_ISR_TEACK, RESET, tickstart, HAL_UART_TIMEOUT_VALUE) != HAL_OK)
 8004b0e:	68fb      	ldr	r3, [r7, #12]
 8004b10:	2280      	movs	r2, #128	; 0x80
 8004b12:	0391      	lsls	r1, r2, #14
 8004b14:	6878      	ldr	r0, [r7, #4]
 8004b16:	4a1a      	ldr	r2, [pc, #104]	; (8004b80 <UART_CheckIdleState+0x98>)
 8004b18:	9200      	str	r2, [sp, #0]
 8004b1a:	2200      	movs	r2, #0
 8004b1c:	f000 f832 	bl	8004b84 <UART_WaitOnFlagUntilTimeout>
 8004b20:	1e03      	subs	r3, r0, #0
 8004b22:	d001      	beq.n	8004b28 <UART_CheckIdleState+0x40>
    {
      /* Timeout occurred */
      return HAL_TIMEOUT;
 8004b24:	2303      	movs	r3, #3
 8004b26:	e026      	b.n	8004b76 <UART_CheckIdleState+0x8e>
    }
  }

  /* Check if the Receiver is enabled */
  if ((huart->Instance->CR1 & USART_CR1_RE) == USART_CR1_RE)
 8004b28:	687b      	ldr	r3, [r7, #4]
 8004b2a:	681b      	ldr	r3, [r3, #0]
 8004b2c:	681b      	ldr	r3, [r3, #0]
 8004b2e:	2204      	movs	r2, #4
 8004b30:	4013      	ands	r3, r2
 8004b32:	2b04      	cmp	r3, #4
 8004b34:	d10c      	bne.n	8004b50 <UART_CheckIdleState+0x68>
  {
    /* Wait until REACK flag is set */
    if (UART_WaitOnFlagUntilTimeout(huart, USART_ISR_REACK, RESET, tickstart, HAL_UART_TIMEOUT_VALUE) != HAL_OK)
 8004b36:	68fb      	ldr	r3, [r7, #12]
 8004b38:	2280      	movs	r2, #128	; 0x80
 8004b3a:	03d1      	lsls	r1, r2, #15
 8004b3c:	6878      	ldr	r0, [r7, #4]
 8004b3e:	4a10      	ldr	r2, [pc, #64]	; (8004b80 <UART_CheckIdleState+0x98>)
 8004b40:	9200      	str	r2, [sp, #0]
 8004b42:	2200      	movs	r2, #0
 8004b44:	f000 f81e 	bl	8004b84 <UART_WaitOnFlagUntilTimeout>
 8004b48:	1e03      	subs	r3, r0, #0
 8004b4a:	d001      	beq.n	8004b50 <UART_CheckIdleState+0x68>
    {
      /* Timeout occurred */
      return HAL_TIMEOUT;
 8004b4c:	2303      	movs	r3, #3
 8004b4e:	e012      	b.n	8004b76 <UART_CheckIdleState+0x8e>
    }
  }

  /* Initialize the UART State */
  huart->gState = HAL_UART_STATE_READY;
 8004b50:	687b      	ldr	r3, [r7, #4]
 8004b52:	2288      	movs	r2, #136	; 0x88
 8004b54:	2120      	movs	r1, #32
 8004b56:	5099      	str	r1, [r3, r2]
  huart->RxState = HAL_UART_STATE_READY;
 8004b58:	687b      	ldr	r3, [r7, #4]
 8004b5a:	228c      	movs	r2, #140	; 0x8c
 8004b5c:	2120      	movs	r1, #32
 8004b5e:	5099      	str	r1, [r3, r2]
  huart->ReceptionType = HAL_UART_RECEPTION_STANDARD;
 8004b60:	687b      	ldr	r3, [r7, #4]
 8004b62:	2200      	movs	r2, #0
 8004b64:	66da      	str	r2, [r3, #108]	; 0x6c
  huart->RxEventType = HAL_UART_RXEVENT_TC;
 8004b66:	687b      	ldr	r3, [r7, #4]
 8004b68:	2200      	movs	r2, #0
 8004b6a:	671a      	str	r2, [r3, #112]	; 0x70

  __HAL_UNLOCK(huart);
 8004b6c:	687b      	ldr	r3, [r7, #4]
 8004b6e:	2284      	movs	r2, #132	; 0x84
 8004b70:	2100      	movs	r1, #0
 8004b72:	5499      	strb	r1, [r3, r2]

  return HAL_OK;
 8004b74:	2300      	movs	r3, #0
}
 8004b76:	0018      	movs	r0, r3
 8004b78:	46bd      	mov	sp, r7
 8004b7a:	b004      	add	sp, #16
 8004b7c:	bd80      	pop	{r7, pc}
 8004b7e:	46c0      	nop			; (mov r8, r8)
 8004b80:	01ffffff 	.word	0x01ffffff

08004b84 <UART_WaitOnFlagUntilTimeout>:
  * @param Timeout   Timeout duration
  * @retval HAL status
  */
HAL_StatusTypeDef UART_WaitOnFlagUntilTimeout(UART_HandleTypeDef *huart, uint32_t Flag, FlagStatus Status,
                                              uint32_t Tickstart, uint32_t Timeout)
{
 8004b84:	b580      	push	{r7, lr}
 8004b86:	b094      	sub	sp, #80	; 0x50
 8004b88:	af00      	add	r7, sp, #0
 8004b8a:	60f8      	str	r0, [r7, #12]
 8004b8c:	60b9      	str	r1, [r7, #8]
 8004b8e:	603b      	str	r3, [r7, #0]
 8004b90:	1dfb      	adds	r3, r7, #7
 8004b92:	701a      	strb	r2, [r3, #0]
  /* Wait until flag is set */
  while ((__HAL_UART_GET_FLAG(huart, Flag) ? SET : RESET) == Status)
 8004b94:	e0a7      	b.n	8004ce6 <UART_WaitOnFlagUntilTimeout+0x162>
  {
    /* Check for the Timeout */
    if (Timeout != HAL_MAX_DELAY)
 8004b96:	6dbb      	ldr	r3, [r7, #88]	; 0x58
 8004b98:	3301      	adds	r3, #1
 8004b9a:	d100      	bne.n	8004b9e <UART_WaitOnFlagUntilTimeout+0x1a>
 8004b9c:	e0a3      	b.n	8004ce6 <UART_WaitOnFlagUntilTimeout+0x162>
    {
      if (((HAL_GetTick() - Tickstart) > Timeout) || (Timeout == 0U))
 8004b9e:	f7fc ff07 	bl	80019b0 <HAL_GetTick>
 8004ba2:	0002      	movs	r2, r0
 8004ba4:	683b      	ldr	r3, [r7, #0]
 8004ba6:	1ad3      	subs	r3, r2, r3
 8004ba8:	6dba      	ldr	r2, [r7, #88]	; 0x58
 8004baa:	429a      	cmp	r2, r3
 8004bac:	d302      	bcc.n	8004bb4 <UART_WaitOnFlagUntilTimeout+0x30>
 8004bae:	6dbb      	ldr	r3, [r7, #88]	; 0x58
 8004bb0:	2b00      	cmp	r3, #0
 8004bb2:	d13f      	bne.n	8004c34 <UART_WaitOnFlagUntilTimeout+0xb0>
 */
__STATIC_FORCEINLINE uint32_t __get_PRIMASK(void)
{
  uint32_t result;

  __ASM volatile ("MRS %0, primask" : "=r" (result) :: "memory");
 8004bb4:	f3ef 8310 	mrs	r3, PRIMASK
 8004bb8:	62bb      	str	r3, [r7, #40]	; 0x28
  return(result);
 8004bba:	6abb      	ldr	r3, [r7, #40]	; 0x28
      {
        /* Disable TXE, RXNE, PE and ERR (Frame error, noise error, overrun error)
           interrupts for the interrupt process */
        ATOMIC_CLEAR_BIT(huart->Instance->CR1, (USART_CR1_RXNEIE_RXFNEIE | USART_CR1_PEIE |
 8004bbc:	647b      	str	r3, [r7, #68]	; 0x44
 8004bbe:	2301      	movs	r3, #1
 8004bc0:	62fb      	str	r3, [r7, #44]	; 0x2c
  \details Assigns the given value to the Priority Mask Register.
  \param [in]    priMask  Priority Mask
 */
__STATIC_FORCEINLINE void __set_PRIMASK(uint32_t priMask)
{
  __ASM volatile ("MSR primask, %0" : : "r" (priMask) : "memory");
 8004bc2:	6afb      	ldr	r3, [r7, #44]	; 0x2c
 8004bc4:	f383 8810 	msr	PRIMASK, r3
}
 8004bc8:	46c0      	nop			; (mov r8, r8)
 8004bca:	68fb      	ldr	r3, [r7, #12]
 8004bcc:	681b      	ldr	r3, [r3, #0]
 8004bce:	681a      	ldr	r2, [r3, #0]
 8004bd0:	68fb      	ldr	r3, [r7, #12]
 8004bd2:	681b      	ldr	r3, [r3, #0]
 8004bd4:	494e      	ldr	r1, [pc, #312]	; (8004d10 <UART_WaitOnFlagUntilTimeout+0x18c>)
 8004bd6:	400a      	ands	r2, r1
 8004bd8:	601a      	str	r2, [r3, #0]
 8004bda:	6c7b      	ldr	r3, [r7, #68]	; 0x44
 8004bdc:	633b      	str	r3, [r7, #48]	; 0x30
  __ASM volatile ("MSR primask, %0" : : "r" (priMask) : "memory");
 8004bde:	6b3b      	ldr	r3, [r7, #48]	; 0x30
 8004be0:	f383 8810 	msr	PRIMASK, r3
}
 8004be4:	46c0      	nop			; (mov r8, r8)
  __ASM volatile ("MRS %0, primask" : "=r" (result) :: "memory");
 8004be6:	f3ef 8310 	mrs	r3, PRIMASK
 8004bea:	637b      	str	r3, [r7, #52]	; 0x34
  return(result);
 8004bec:	6b7b      	ldr	r3, [r7, #52]	; 0x34
                                                USART_CR1_TXEIE_TXFNFIE));
        ATOMIC_CLEAR_BIT(huart->Instance->CR3, USART_CR3_EIE);
 8004bee:	643b      	str	r3, [r7, #64]	; 0x40
 8004bf0:	2301      	movs	r3, #1
 8004bf2:	63bb      	str	r3, [r7, #56]	; 0x38
  __ASM volatile ("MSR primask, %0" : : "r" (priMask) : "memory");
 8004bf4:	6bbb      	ldr	r3, [r7, #56]	; 0x38
 8004bf6:	f383 8810 	msr	PRIMASK, r3
}
 8004bfa:	46c0      	nop			; (mov r8, r8)
 8004bfc:	68fb      	ldr	r3, [r7, #12]
 8004bfe:	681b      	ldr	r3, [r3, #0]
 8004c00:	689a      	ldr	r2, [r3, #8]
 8004c02:	68fb      	ldr	r3, [r7, #12]
 8004c04:	681b      	ldr	r3, [r3, #0]
 8004c06:	2101      	movs	r1, #1
 8004c08:	438a      	bics	r2, r1
 8004c0a:	609a      	str	r2, [r3, #8]
 8004c0c:	6c3b      	ldr	r3, [r7, #64]	; 0x40
 8004c0e:	63fb      	str	r3, [r7, #60]	; 0x3c
  __ASM volatile ("MSR primask, %0" : : "r" (priMask) : "memory");
 8004c10:	6bfb      	ldr	r3, [r7, #60]	; 0x3c
 8004c12:	f383 8810 	msr	PRIMASK, r3
}
 8004c16:	46c0      	nop			; (mov r8, r8)

        huart->gState = HAL_UART_STATE_READY;
 8004c18:	68fb      	ldr	r3, [r7, #12]
 8004c1a:	2288      	movs	r2, #136	; 0x88
 8004c1c:	2120      	movs	r1, #32
 8004c1e:	5099      	str	r1, [r3, r2]
        huart->RxState = HAL_UART_STATE_READY;
 8004c20:	68fb      	ldr	r3, [r7, #12]
 8004c22:	228c      	movs	r2, #140	; 0x8c
 8004c24:	2120      	movs	r1, #32
 8004c26:	5099      	str	r1, [r3, r2]

        __HAL_UNLOCK(huart);
 8004c28:	68fb      	ldr	r3, [r7, #12]
 8004c2a:	2284      	movs	r2, #132	; 0x84
 8004c2c:	2100      	movs	r1, #0
 8004c2e:	5499      	strb	r1, [r3, r2]

        return HAL_TIMEOUT;
 8004c30:	2303      	movs	r3, #3
 8004c32:	e069      	b.n	8004d08 <UART_WaitOnFlagUntilTimeout+0x184>
      }

      if (READ_BIT(huart->Instance->CR1, USART_CR1_RE) != 0U)
 8004c34:	68fb      	ldr	r3, [r7, #12]
 8004c36:	681b      	ldr	r3, [r3, #0]
 8004c38:	681b      	ldr	r3, [r3, #0]
 8004c3a:	2204      	movs	r2, #4
 8004c3c:	4013      	ands	r3, r2
 8004c3e:	d052      	beq.n	8004ce6 <UART_WaitOnFlagUntilTimeout+0x162>
      {
        if (__HAL_UART_GET_FLAG(huart, UART_FLAG_RTOF) == SET)
 8004c40:	68fb      	ldr	r3, [r7, #12]
 8004c42:	681b      	ldr	r3, [r3, #0]
 8004c44:	69da      	ldr	r2, [r3, #28]
 8004c46:	2380      	movs	r3, #128	; 0x80
 8004c48:	011b      	lsls	r3, r3, #4
 8004c4a:	401a      	ands	r2, r3
 8004c4c:	2380      	movs	r3, #128	; 0x80
 8004c4e:	011b      	lsls	r3, r3, #4
 8004c50:	429a      	cmp	r2, r3
 8004c52:	d148      	bne.n	8004ce6 <UART_WaitOnFlagUntilTimeout+0x162>
        {
          /* Clear Receiver Timeout flag*/
          __HAL_UART_CLEAR_FLAG(huart, UART_CLEAR_RTOF);
 8004c54:	68fb      	ldr	r3, [r7, #12]
 8004c56:	681b      	ldr	r3, [r3, #0]
 8004c58:	2280      	movs	r2, #128	; 0x80
 8004c5a:	0112      	lsls	r2, r2, #4
 8004c5c:	621a      	str	r2, [r3, #32]
  __ASM volatile ("MRS %0, primask" : "=r" (result) :: "memory");
 8004c5e:	f3ef 8310 	mrs	r3, PRIMASK
 8004c62:	613b      	str	r3, [r7, #16]
  return(result);
 8004c64:	693b      	ldr	r3, [r7, #16]

          /* Disable TXE, RXNE, PE and ERR (Frame error, noise error, overrun error)
             interrupts for the interrupt process */
          ATOMIC_CLEAR_BIT(huart->Instance->CR1, (USART_CR1_RXNEIE_RXFNEIE | USART_CR1_PEIE |
 8004c66:	64fb      	str	r3, [r7, #76]	; 0x4c
 8004c68:	2301      	movs	r3, #1
 8004c6a:	617b      	str	r3, [r7, #20]
  __ASM volatile ("MSR primask, %0" : : "r" (priMask) : "memory");
 8004c6c:	697b      	ldr	r3, [r7, #20]
 8004c6e:	f383 8810 	msr	PRIMASK, r3
}
 8004c72:	46c0      	nop			; (mov r8, r8)
 8004c74:	68fb      	ldr	r3, [r7, #12]
 8004c76:	681b      	ldr	r3, [r3, #0]
 8004c78:	681a      	ldr	r2, [r3, #0]
 8004c7a:	68fb      	ldr	r3, [r7, #12]
 8004c7c:	681b      	ldr	r3, [r3, #0]
 8004c7e:	4924      	ldr	r1, [pc, #144]	; (8004d10 <UART_WaitOnFlagUntilTimeout+0x18c>)
 8004c80:	400a      	ands	r2, r1
 8004c82:	601a      	str	r2, [r3, #0]
 8004c84:	6cfb      	ldr	r3, [r7, #76]	; 0x4c
 8004c86:	61bb      	str	r3, [r7, #24]
  __ASM volatile ("MSR primask, %0" : : "r" (priMask) : "memory");
 8004c88:	69bb      	ldr	r3, [r7, #24]
 8004c8a:	f383 8810 	msr	PRIMASK, r3
}
 8004c8e:	46c0      	nop			; (mov r8, r8)
  __ASM volatile ("MRS %0, primask" : "=r" (result) :: "memory");
 8004c90:	f3ef 8310 	mrs	r3, PRIMASK
 8004c94:	61fb      	str	r3, [r7, #28]
  return(result);
 8004c96:	69fb      	ldr	r3, [r7, #28]
                                                  USART_CR1_TXEIE_TXFNFIE));
          ATOMIC_CLEAR_BIT(huart->Instance->CR3, USART_CR3_EIE);
 8004c98:	64bb      	str	r3, [r7, #72]	; 0x48
 8004c9a:	2301      	movs	r3, #1
 8004c9c:	623b      	str	r3, [r7, #32]
  __ASM volatile ("MSR primask, %0" : : "r" (priMask) : "memory");
 8004c9e:	6a3b      	ldr	r3, [r7, #32]
 8004ca0:	f383 8810 	msr	PRIMASK, r3
}
 8004ca4:	46c0      	nop			; (mov r8, r8)
 8004ca6:	68fb      	ldr	r3, [r7, #12]
 8004ca8:	681b      	ldr	r3, [r3, #0]
 8004caa:	689a      	ldr	r2, [r3, #8]
 8004cac:	68fb      	ldr	r3, [r7, #12]
 8004cae:	681b      	ldr	r3, [r3, #0]
 8004cb0:	2101      	movs	r1, #1
 8004cb2:	438a      	bics	r2, r1
 8004cb4:	609a      	str	r2, [r3, #8]
 8004cb6:	6cbb      	ldr	r3, [r7, #72]	; 0x48
 8004cb8:	627b      	str	r3, [r7, #36]	; 0x24
  __ASM volatile ("MSR primask, %0" : : "r" (priMask) : "memory");
 8004cba:	6a7b      	ldr	r3, [r7, #36]	; 0x24
 8004cbc:	f383 8810 	msr	PRIMASK, r3
}
 8004cc0:	46c0      	nop			; (mov r8, r8)

          huart->gState = HAL_UART_STATE_READY;
 8004cc2:	68fb      	ldr	r3, [r7, #12]
 8004cc4:	2288      	movs	r2, #136	; 0x88
 8004cc6:	2120      	movs	r1, #32
 8004cc8:	5099      	str	r1, [r3, r2]
          huart->RxState = HAL_UART_STATE_READY;
 8004cca:	68fb      	ldr	r3, [r7, #12]
 8004ccc:	228c      	movs	r2, #140	; 0x8c
 8004cce:	2120      	movs	r1, #32
 8004cd0:	5099      	str	r1, [r3, r2]
          huart->ErrorCode = HAL_UART_ERROR_RTO;
 8004cd2:	68fb      	ldr	r3, [r7, #12]
 8004cd4:	2290      	movs	r2, #144	; 0x90
 8004cd6:	2120      	movs	r1, #32
 8004cd8:	5099      	str	r1, [r3, r2]

          /* Process Unlocked */
          __HAL_UNLOCK(huart);
 8004cda:	68fb      	ldr	r3, [r7, #12]
 8004cdc:	2284      	movs	r2, #132	; 0x84
 8004cde:	2100      	movs	r1, #0
 8004ce0:	5499      	strb	r1, [r3, r2]

          return HAL_TIMEOUT;
 8004ce2:	2303      	movs	r3, #3
 8004ce4:	e010      	b.n	8004d08 <UART_WaitOnFlagUntilTimeout+0x184>
  while ((__HAL_UART_GET_FLAG(huart, Flag) ? SET : RESET) == Status)
 8004ce6:	68fb      	ldr	r3, [r7, #12]
 8004ce8:	681b      	ldr	r3, [r3, #0]
 8004cea:	69db      	ldr	r3, [r3, #28]
 8004cec:	68ba      	ldr	r2, [r7, #8]
 8004cee:	4013      	ands	r3, r2
 8004cf0:	68ba      	ldr	r2, [r7, #8]
 8004cf2:	1ad3      	subs	r3, r2, r3
 8004cf4:	425a      	negs	r2, r3
 8004cf6:	4153      	adcs	r3, r2
 8004cf8:	b2db      	uxtb	r3, r3
 8004cfa:	001a      	movs	r2, r3
 8004cfc:	1dfb      	adds	r3, r7, #7
 8004cfe:	781b      	ldrb	r3, [r3, #0]
 8004d00:	429a      	cmp	r2, r3
 8004d02:	d100      	bne.n	8004d06 <UART_WaitOnFlagUntilTimeout+0x182>
 8004d04:	e747      	b.n	8004b96 <UART_WaitOnFlagUntilTimeout+0x12>
        }
      }
    }
  }
  return HAL_OK;
 8004d06:	2300      	movs	r3, #0
}
 8004d08:	0018      	movs	r0, r3
 8004d0a:	46bd      	mov	sp, r7
 8004d0c:	b014      	add	sp, #80	; 0x50
 8004d0e:	bd80      	pop	{r7, pc}
 8004d10:	fffffe5f 	.word	0xfffffe5f

08004d14 <HAL_UARTEx_DisableFifoMode>:
  * @brief  Disable the FIFO mode.
  * @param huart      UART handle.
  * @retval HAL status
  */
HAL_StatusTypeDef HAL_UARTEx_DisableFifoMode(UART_HandleTypeDef *huart)
{
 8004d14:	b580      	push	{r7, lr}
 8004d16:	b084      	sub	sp, #16
 8004d18:	af00      	add	r7, sp, #0
 8004d1a:	6078      	str	r0, [r7, #4]

  /* Check parameters */
  assert_param(IS_UART_FIFO_INSTANCE(huart->Instance));

  /* Process Locked */
  __HAL_LOCK(huart);
 8004d1c:	687b      	ldr	r3, [r7, #4]
 8004d1e:	2284      	movs	r2, #132	; 0x84
 8004d20:	5c9b      	ldrb	r3, [r3, r2]
 8004d22:	2b01      	cmp	r3, #1
 8004d24:	d101      	bne.n	8004d2a <HAL_UARTEx_DisableFifoMode+0x16>
 8004d26:	2302      	movs	r3, #2
 8004d28:	e027      	b.n	8004d7a <HAL_UARTEx_DisableFifoMode+0x66>
 8004d2a:	687b      	ldr	r3, [r7, #4]
 8004d2c:	2284      	movs	r2, #132	; 0x84
 8004d2e:	2101      	movs	r1, #1
 8004d30:	5499      	strb	r1, [r3, r2]

  huart->gState = HAL_UART_STATE_BUSY;
 8004d32:	687b      	ldr	r3, [r7, #4]
 8004d34:	2288      	movs	r2, #136	; 0x88
 8004d36:	2124      	movs	r1, #36	; 0x24
 8004d38:	5099      	str	r1, [r3, r2]

  /* Save actual UART configuration */
  tmpcr1 = READ_REG(huart->Instance->CR1);
 8004d3a:	687b      	ldr	r3, [r7, #4]
 8004d3c:	681b      	ldr	r3, [r3, #0]
 8004d3e:	681b      	ldr	r3, [r3, #0]
 8004d40:	60fb      	str	r3, [r7, #12]

  /* Disable UART */
  __HAL_UART_DISABLE(huart);
 8004d42:	687b      	ldr	r3, [r7, #4]
 8004d44:	681b      	ldr	r3, [r3, #0]
 8004d46:	681a      	ldr	r2, [r3, #0]
 8004d48:	687b      	ldr	r3, [r7, #4]
 8004d4a:	681b      	ldr	r3, [r3, #0]
 8004d4c:	2101      	movs	r1, #1
 8004d4e:	438a      	bics	r2, r1
 8004d50:	601a      	str	r2, [r3, #0]

  /* Enable FIFO mode */
  CLEAR_BIT(tmpcr1, USART_CR1_FIFOEN);
 8004d52:	68fb      	ldr	r3, [r7, #12]
 8004d54:	4a0b      	ldr	r2, [pc, #44]	; (8004d84 <HAL_UARTEx_DisableFifoMode+0x70>)
 8004d56:	4013      	ands	r3, r2
 8004d58:	60fb      	str	r3, [r7, #12]
  huart->FifoMode = UART_FIFOMODE_DISABLE;
 8004d5a:	687b      	ldr	r3, [r7, #4]
 8004d5c:	2200      	movs	r2, #0
 8004d5e:	665a      	str	r2, [r3, #100]	; 0x64

  /* Restore UART configuration */
  WRITE_REG(huart->Instance->CR1, tmpcr1);
 8004d60:	687b      	ldr	r3, [r7, #4]
 8004d62:	681b      	ldr	r3, [r3, #0]
 8004d64:	68fa      	ldr	r2, [r7, #12]
 8004d66:	601a      	str	r2, [r3, #0]

  huart->gState = HAL_UART_STATE_READY;
 8004d68:	687b      	ldr	r3, [r7, #4]
 8004d6a:	2288      	movs	r2, #136	; 0x88
 8004d6c:	2120      	movs	r1, #32
 8004d6e:	5099      	str	r1, [r3, r2]

  /* Process Unlocked */
  __HAL_UNLOCK(huart);
 8004d70:	687b      	ldr	r3, [r7, #4]
 8004d72:	2284      	movs	r2, #132	; 0x84
 8004d74:	2100      	movs	r1, #0
 8004d76:	5499      	strb	r1, [r3, r2]

  return HAL_OK;
 8004d78:	2300      	movs	r3, #0
}
 8004d7a:	0018      	movs	r0, r3
 8004d7c:	46bd      	mov	sp, r7
 8004d7e:	b004      	add	sp, #16
 8004d80:	bd80      	pop	{r7, pc}
 8004d82:	46c0      	nop			; (mov r8, r8)
 8004d84:	dfffffff 	.word	0xdfffffff

08004d88 <HAL_UARTEx_SetTxFifoThreshold>:
  *            @arg @ref UART_TXFIFO_THRESHOLD_7_8
  *            @arg @ref UART_TXFIFO_THRESHOLD_8_8
  * @retval HAL status
  */
HAL_StatusTypeDef HAL_UARTEx_SetTxFifoThreshold(UART_HandleTypeDef *huart, uint32_t Threshold)
{
 8004d88:	b580      	push	{r7, lr}
 8004d8a:	b084      	sub	sp, #16
 8004d8c:	af00      	add	r7, sp, #0
 8004d8e:	6078      	str	r0, [r7, #4]
 8004d90:	6039      	str	r1, [r7, #0]
  /* Check parameters */
  assert_param(IS_UART_FIFO_INSTANCE(huart->Instance));
  assert_param(IS_UART_TXFIFO_THRESHOLD(Threshold));

  /* Process Locked */
  __HAL_LOCK(huart);
 8004d92:	687b      	ldr	r3, [r7, #4]
 8004d94:	2284      	movs	r2, #132	; 0x84
 8004d96:	5c9b      	ldrb	r3, [r3, r2]
 8004d98:	2b01      	cmp	r3, #1
 8004d9a:	d101      	bne.n	8004da0 <HAL_UARTEx_SetTxFifoThreshold+0x18>
 8004d9c:	2302      	movs	r3, #2
 8004d9e:	e02e      	b.n	8004dfe <HAL_UARTEx_SetTxFifoThreshold+0x76>
 8004da0:	687b      	ldr	r3, [r7, #4]
 8004da2:	2284      	movs	r2, #132	; 0x84
 8004da4:	2101      	movs	r1, #1
 8004da6:	5499      	strb	r1, [r3, r2]

  huart->gState = HAL_UART_STATE_BUSY;
 8004da8:	687b      	ldr	r3, [r7, #4]
 8004daa:	2288      	movs	r2, #136	; 0x88
 8004dac:	2124      	movs	r1, #36	; 0x24
 8004dae:	5099      	str	r1, [r3, r2]

  /* Save actual UART configuration */
  tmpcr1 = READ_REG(huart->Instance->CR1);
 8004db0:	687b      	ldr	r3, [r7, #4]
 8004db2:	681b      	ldr	r3, [r3, #0]
 8004db4:	681b      	ldr	r3, [r3, #0]
 8004db6:	60fb      	str	r3, [r7, #12]

  /* Disable UART */
  __HAL_UART_DISABLE(huart);
 8004db8:	687b      	ldr	r3, [r7, #4]
 8004dba:	681b      	ldr	r3, [r3, #0]
 8004dbc:	681a      	ldr	r2, [r3, #0]
 8004dbe:	687b      	ldr	r3, [r7, #4]
 8004dc0:	681b      	ldr	r3, [r3, #0]
 8004dc2:	2101      	movs	r1, #1
 8004dc4:	438a      	bics	r2, r1
 8004dc6:	601a      	str	r2, [r3, #0]

  /* Update TX threshold configuration */
  MODIFY_REG(huart->Instance->CR3, USART_CR3_TXFTCFG, Threshold);
 8004dc8:	687b      	ldr	r3, [r7, #4]
 8004dca:	681b      	ldr	r3, [r3, #0]
 8004dcc:	689b      	ldr	r3, [r3, #8]
 8004dce:	00db      	lsls	r3, r3, #3
 8004dd0:	08d9      	lsrs	r1, r3, #3
 8004dd2:	687b      	ldr	r3, [r7, #4]
 8004dd4:	681b      	ldr	r3, [r3, #0]
 8004dd6:	683a      	ldr	r2, [r7, #0]
 8004dd8:	430a      	orrs	r2, r1
 8004dda:	609a      	str	r2, [r3, #8]

  /* Determine the number of data to process during RX/TX ISR execution */
  UARTEx_SetNbDataToProcess(huart);
 8004ddc:	687b      	ldr	r3, [r7, #4]
 8004dde:	0018      	movs	r0, r3
 8004de0:	f000 f854 	bl	8004e8c <UARTEx_SetNbDataToProcess>

  /* Restore UART configuration */
  WRITE_REG(huart->Instance->CR1, tmpcr1);
 8004de4:	687b      	ldr	r3, [r7, #4]
 8004de6:	681b      	ldr	r3, [r3, #0]
 8004de8:	68fa      	ldr	r2, [r7, #12]
 8004dea:	601a      	str	r2, [r3, #0]

  huart->gState = HAL_UART_STATE_READY;
 8004dec:	687b      	ldr	r3, [r7, #4]
 8004dee:	2288      	movs	r2, #136	; 0x88
 8004df0:	2120      	movs	r1, #32
 8004df2:	5099      	str	r1, [r3, r2]

  /* Process Unlocked */
  __HAL_UNLOCK(huart);
 8004df4:	687b      	ldr	r3, [r7, #4]
 8004df6:	2284      	movs	r2, #132	; 0x84
 8004df8:	2100      	movs	r1, #0
 8004dfa:	5499      	strb	r1, [r3, r2]

  return HAL_OK;
 8004dfc:	2300      	movs	r3, #0
}
 8004dfe:	0018      	movs	r0, r3
 8004e00:	46bd      	mov	sp, r7
 8004e02:	b004      	add	sp, #16
 8004e04:	bd80      	pop	{r7, pc}
	...

08004e08 <HAL_UARTEx_SetRxFifoThreshold>:
  *            @arg @ref UART_RXFIFO_THRESHOLD_7_8
  *            @arg @ref UART_RXFIFO_THRESHOLD_8_8
  * @retval HAL status
  */
HAL_StatusTypeDef HAL_UARTEx_SetRxFifoThreshold(UART_HandleTypeDef *huart, uint32_t Threshold)
{
 8004e08:	b580      	push	{r7, lr}
 8004e0a:	b084      	sub	sp, #16
 8004e0c:	af00      	add	r7, sp, #0
 8004e0e:	6078      	str	r0, [r7, #4]
 8004e10:	6039      	str	r1, [r7, #0]
  /* Check the parameters */
  assert_param(IS_UART_FIFO_INSTANCE(huart->Instance));
  assert_param(IS_UART_RXFIFO_THRESHOLD(Threshold));

  /* Process Locked */
  __HAL_LOCK(huart);
 8004e12:	687b      	ldr	r3, [r7, #4]
 8004e14:	2284      	movs	r2, #132	; 0x84
 8004e16:	5c9b      	ldrb	r3, [r3, r2]
 8004e18:	2b01      	cmp	r3, #1
 8004e1a:	d101      	bne.n	8004e20 <HAL_UARTEx_SetRxFifoThreshold+0x18>
 8004e1c:	2302      	movs	r3, #2
 8004e1e:	e02f      	b.n	8004e80 <HAL_UARTEx_SetRxFifoThreshold+0x78>
 8004e20:	687b      	ldr	r3, [r7, #4]
 8004e22:	2284      	movs	r2, #132	; 0x84
 8004e24:	2101      	movs	r1, #1
 8004e26:	5499      	strb	r1, [r3, r2]

  huart->gState = HAL_UART_STATE_BUSY;
 8004e28:	687b      	ldr	r3, [r7, #4]
 8004e2a:	2288      	movs	r2, #136	; 0x88
 8004e2c:	2124      	movs	r1, #36	; 0x24
 8004e2e:	5099      	str	r1, [r3, r2]

  /* Save actual UART configuration */
  tmpcr1 = READ_REG(huart->Instance->CR1);
 8004e30:	687b      	ldr	r3, [r7, #4]
 8004e32:	681b      	ldr	r3, [r3, #0]
 8004e34:	681b      	ldr	r3, [r3, #0]
 8004e36:	60fb      	str	r3, [r7, #12]

  /* Disable UART */
  __HAL_UART_DISABLE(huart);
 8004e38:	687b      	ldr	r3, [r7, #4]
 8004e3a:	681b      	ldr	r3, [r3, #0]
 8004e3c:	681a      	ldr	r2, [r3, #0]
 8004e3e:	687b      	ldr	r3, [r7, #4]
 8004e40:	681b      	ldr	r3, [r3, #0]
 8004e42:	2101      	movs	r1, #1
 8004e44:	438a      	bics	r2, r1
 8004e46:	601a      	str	r2, [r3, #0]

  /* Update RX threshold configuration */
  MODIFY_REG(huart->Instance->CR3, USART_CR3_RXFTCFG, Threshold);
 8004e48:	687b      	ldr	r3, [r7, #4]
 8004e4a:	681b      	ldr	r3, [r3, #0]
 8004e4c:	689b      	ldr	r3, [r3, #8]
 8004e4e:	4a0e      	ldr	r2, [pc, #56]	; (8004e88 <HAL_UARTEx_SetRxFifoThreshold+0x80>)
 8004e50:	4013      	ands	r3, r2
 8004e52:	0019      	movs	r1, r3
 8004e54:	687b      	ldr	r3, [r7, #4]
 8004e56:	681b      	ldr	r3, [r3, #0]
 8004e58:	683a      	ldr	r2, [r7, #0]
 8004e5a:	430a      	orrs	r2, r1
 8004e5c:	609a      	str	r2, [r3, #8]

  /* Determine the number of data to process during RX/TX ISR execution */
  UARTEx_SetNbDataToProcess(huart);
 8004e5e:	687b      	ldr	r3, [r7, #4]
 8004e60:	0018      	movs	r0, r3
 8004e62:	f000 f813 	bl	8004e8c <UARTEx_SetNbDataToProcess>

  /* Restore UART configuration */
  WRITE_REG(huart->Instance->CR1, tmpcr1);
 8004e66:	687b      	ldr	r3, [r7, #4]
 8004e68:	681b      	ldr	r3, [r3, #0]
 8004e6a:	68fa      	ldr	r2, [r7, #12]
 8004e6c:	601a      	str	r2, [r3, #0]

  huart->gState = HAL_UART_STATE_READY;
 8004e6e:	687b      	ldr	r3, [r7, #4]
 8004e70:	2288      	movs	r2, #136	; 0x88
 8004e72:	2120      	movs	r1, #32
 8004e74:	5099      	str	r1, [r3, r2]

  /* Process Unlocked */
  __HAL_UNLOCK(huart);
 8004e76:	687b      	ldr	r3, [r7, #4]
 8004e78:	2284      	movs	r2, #132	; 0x84
 8004e7a:	2100      	movs	r1, #0
 8004e7c:	5499      	strb	r1, [r3, r2]

  return HAL_OK;
 8004e7e:	2300      	movs	r3, #0
}
 8004e80:	0018      	movs	r0, r3
 8004e82:	46bd      	mov	sp, r7
 8004e84:	b004      	add	sp, #16
 8004e86:	bd80      	pop	{r7, pc}
 8004e88:	f1ffffff 	.word	0xf1ffffff

08004e8c <UARTEx_SetNbDataToProcess>:
  *       the UART configuration registers.
  * @param huart UART handle.
  * @retval None
  */
static void UARTEx_SetNbDataToProcess(UART_HandleTypeDef *huart)
{
 8004e8c:	b5f0      	push	{r4, r5, r6, r7, lr}
 8004e8e:	b085      	sub	sp, #20
 8004e90:	af00      	add	r7, sp, #0
 8004e92:	6078      	str	r0, [r7, #4]
  uint8_t rx_fifo_threshold;
  uint8_t tx_fifo_threshold;
  static const uint8_t numerator[] = {1U, 1U, 1U, 3U, 7U, 1U, 0U, 0U};
  static const uint8_t denominator[] = {8U, 4U, 2U, 4U, 8U, 1U, 1U, 1U};

  if (huart->FifoMode == UART_FIFOMODE_DISABLE)
 8004e94:	687b      	ldr	r3, [r7, #4]
 8004e96:	6e5b      	ldr	r3, [r3, #100]	; 0x64
 8004e98:	2b00      	cmp	r3, #0
 8004e9a:	d108      	bne.n	8004eae <UARTEx_SetNbDataToProcess+0x22>
  {
    huart->NbTxDataToProcess = 1U;
 8004e9c:	687b      	ldr	r3, [r7, #4]
 8004e9e:	226a      	movs	r2, #106	; 0x6a
 8004ea0:	2101      	movs	r1, #1
 8004ea2:	5299      	strh	r1, [r3, r2]
    huart->NbRxDataToProcess = 1U;
 8004ea4:	687b      	ldr	r3, [r7, #4]
 8004ea6:	2268      	movs	r2, #104	; 0x68
 8004ea8:	2101      	movs	r1, #1
 8004eaa:	5299      	strh	r1, [r3, r2]
    huart->NbTxDataToProcess = ((uint16_t)tx_fifo_depth * numerator[tx_fifo_threshold]) /
                               (uint16_t)denominator[tx_fifo_threshold];
    huart->NbRxDataToProcess = ((uint16_t)rx_fifo_depth * numerator[rx_fifo_threshold]) /
                               (uint16_t)denominator[rx_fifo_threshold];
  }
}
 8004eac:	e043      	b.n	8004f36 <UARTEx_SetNbDataToProcess+0xaa>
    rx_fifo_depth = RX_FIFO_DEPTH;
 8004eae:	260f      	movs	r6, #15
 8004eb0:	19bb      	adds	r3, r7, r6
 8004eb2:	2208      	movs	r2, #8
 8004eb4:	701a      	strb	r2, [r3, #0]
    tx_fifo_depth = TX_FIFO_DEPTH;
 8004eb6:	200e      	movs	r0, #14
 8004eb8:	183b      	adds	r3, r7, r0
 8004eba:	2208      	movs	r2, #8
 8004ebc:	701a      	strb	r2, [r3, #0]
    rx_fifo_threshold = (uint8_t)(READ_BIT(huart->Instance->CR3, USART_CR3_RXFTCFG) >> USART_CR3_RXFTCFG_Pos);
 8004ebe:	687b      	ldr	r3, [r7, #4]
 8004ec0:	681b      	ldr	r3, [r3, #0]
 8004ec2:	689b      	ldr	r3, [r3, #8]
 8004ec4:	0e5b      	lsrs	r3, r3, #25
 8004ec6:	b2da      	uxtb	r2, r3
 8004ec8:	240d      	movs	r4, #13
 8004eca:	193b      	adds	r3, r7, r4
 8004ecc:	2107      	movs	r1, #7
 8004ece:	400a      	ands	r2, r1
 8004ed0:	701a      	strb	r2, [r3, #0]
    tx_fifo_threshold = (uint8_t)(READ_BIT(huart->Instance->CR3, USART_CR3_TXFTCFG) >> USART_CR3_TXFTCFG_Pos);
 8004ed2:	687b      	ldr	r3, [r7, #4]
 8004ed4:	681b      	ldr	r3, [r3, #0]
 8004ed6:	689b      	ldr	r3, [r3, #8]
 8004ed8:	0f5b      	lsrs	r3, r3, #29
 8004eda:	b2da      	uxtb	r2, r3
 8004edc:	250c      	movs	r5, #12
 8004ede:	197b      	adds	r3, r7, r5
 8004ee0:	2107      	movs	r1, #7
 8004ee2:	400a      	ands	r2, r1
 8004ee4:	701a      	strb	r2, [r3, #0]
    huart->NbTxDataToProcess = ((uint16_t)tx_fifo_depth * numerator[tx_fifo_threshold]) /
 8004ee6:	183b      	adds	r3, r7, r0
 8004ee8:	781b      	ldrb	r3, [r3, #0]
 8004eea:	197a      	adds	r2, r7, r5
 8004eec:	7812      	ldrb	r2, [r2, #0]
 8004eee:	4914      	ldr	r1, [pc, #80]	; (8004f40 <UARTEx_SetNbDataToProcess+0xb4>)
 8004ef0:	5c8a      	ldrb	r2, [r1, r2]
 8004ef2:	435a      	muls	r2, r3
 8004ef4:	0010      	movs	r0, r2
                               (uint16_t)denominator[tx_fifo_threshold];
 8004ef6:	197b      	adds	r3, r7, r5
 8004ef8:	781b      	ldrb	r3, [r3, #0]
 8004efa:	4a12      	ldr	r2, [pc, #72]	; (8004f44 <UARTEx_SetNbDataToProcess+0xb8>)
 8004efc:	5cd3      	ldrb	r3, [r2, r3]
    huart->NbTxDataToProcess = ((uint16_t)tx_fifo_depth * numerator[tx_fifo_threshold]) /
 8004efe:	0019      	movs	r1, r3
 8004f00:	f7fb f98a 	bl	8000218 <__divsi3>
 8004f04:	0003      	movs	r3, r0
 8004f06:	b299      	uxth	r1, r3
 8004f08:	687b      	ldr	r3, [r7, #4]
 8004f0a:	226a      	movs	r2, #106	; 0x6a
 8004f0c:	5299      	strh	r1, [r3, r2]
    huart->NbRxDataToProcess = ((uint16_t)rx_fifo_depth * numerator[rx_fifo_threshold]) /
 8004f0e:	19bb      	adds	r3, r7, r6
 8004f10:	781b      	ldrb	r3, [r3, #0]
 8004f12:	193a      	adds	r2, r7, r4
 8004f14:	7812      	ldrb	r2, [r2, #0]
 8004f16:	490a      	ldr	r1, [pc, #40]	; (8004f40 <UARTEx_SetNbDataToProcess+0xb4>)
 8004f18:	5c8a      	ldrb	r2, [r1, r2]
 8004f1a:	435a      	muls	r2, r3
 8004f1c:	0010      	movs	r0, r2
                               (uint16_t)denominator[rx_fifo_threshold];
 8004f1e:	193b      	adds	r3, r7, r4
 8004f20:	781b      	ldrb	r3, [r3, #0]
 8004f22:	4a08      	ldr	r2, [pc, #32]	; (8004f44 <UARTEx_SetNbDataToProcess+0xb8>)
 8004f24:	5cd3      	ldrb	r3, [r2, r3]
    huart->NbRxDataToProcess = ((uint16_t)rx_fifo_depth * numerator[rx_fifo_threshold]) /
 8004f26:	0019      	movs	r1, r3
 8004f28:	f7fb f976 	bl	8000218 <__divsi3>
 8004f2c:	0003      	movs	r3, r0
 8004f2e:	b299      	uxth	r1, r3
 8004f30:	687b      	ldr	r3, [r7, #4]
 8004f32:	2268      	movs	r2, #104	; 0x68
 8004f34:	5299      	strh	r1, [r3, r2]
}
 8004f36:	46c0      	nop			; (mov r8, r8)
 8004f38:	46bd      	mov	sp, r7
 8004f3a:	b005      	add	sp, #20
 8004f3c:	bdf0      	pop	{r4, r5, r6, r7, pc}
 8004f3e:	46c0      	nop			; (mov r8, r8)
 8004f40:	08005058 	.word	0x08005058
 8004f44:	08005060 	.word	0x08005060

08004f48 <__libc_init_array>:
 8004f48:	b570      	push	{r4, r5, r6, lr}
 8004f4a:	2600      	movs	r6, #0
 8004f4c:	4d0c      	ldr	r5, [pc, #48]	; (8004f80 <__libc_init_array+0x38>)
 8004f4e:	4c0d      	ldr	r4, [pc, #52]	; (8004f84 <__libc_init_array+0x3c>)
 8004f50:	1b64      	subs	r4, r4, r5
 8004f52:	10a4      	asrs	r4, r4, #2
 8004f54:	42a6      	cmp	r6, r4
 8004f56:	d109      	bne.n	8004f6c <__libc_init_array+0x24>
 8004f58:	2600      	movs	r6, #0
 8004f5a:	f000 f821 	bl	8004fa0 <_init>
 8004f5e:	4d0a      	ldr	r5, [pc, #40]	; (8004f88 <__libc_init_array+0x40>)
 8004f60:	4c0a      	ldr	r4, [pc, #40]	; (8004f8c <__libc_init_array+0x44>)
 8004f62:	1b64      	subs	r4, r4, r5
 8004f64:	10a4      	asrs	r4, r4, #2
 8004f66:	42a6      	cmp	r6, r4
 8004f68:	d105      	bne.n	8004f76 <__libc_init_array+0x2e>
 8004f6a:	bd70      	pop	{r4, r5, r6, pc}
 8004f6c:	00b3      	lsls	r3, r6, #2
 8004f6e:	58eb      	ldr	r3, [r5, r3]
 8004f70:	4798      	blx	r3
 8004f72:	3601      	adds	r6, #1
 8004f74:	e7ee      	b.n	8004f54 <__libc_init_array+0xc>
 8004f76:	00b3      	lsls	r3, r6, #2
 8004f78:	58eb      	ldr	r3, [r5, r3]
 8004f7a:	4798      	blx	r3
 8004f7c:	3601      	adds	r6, #1
 8004f7e:	e7f2      	b.n	8004f66 <__libc_init_array+0x1e>
 8004f80:	08005070 	.word	0x08005070
 8004f84:	08005070 	.word	0x08005070
 8004f88:	08005070 	.word	0x08005070
 8004f8c:	08005074 	.word	0x08005074

08004f90 <memset>:
 8004f90:	0003      	movs	r3, r0
 8004f92:	1882      	adds	r2, r0, r2
 8004f94:	4293      	cmp	r3, r2
 8004f96:	d100      	bne.n	8004f9a <memset+0xa>
 8004f98:	4770      	bx	lr
 8004f9a:	7019      	strb	r1, [r3, #0]
 8004f9c:	3301      	adds	r3, #1
 8004f9e:	e7f9      	b.n	8004f94 <memset+0x4>

08004fa0 <_init>:
 8004fa0:	b5f8      	push	{r3, r4, r5, r6, r7, lr}
 8004fa2:	46c0      	nop			; (mov r8, r8)
 8004fa4:	bcf8      	pop	{r3, r4, r5, r6, r7}
 8004fa6:	bc08      	pop	{r3}
 8004fa8:	469e      	mov	lr, r3
 8004faa:	4770      	bx	lr

08004fac <_fini>:
 8004fac:	b5f8      	push	{r3, r4, r5, r6, r7, lr}
 8004fae:	46c0      	nop			; (mov r8, r8)
 8004fb0:	bcf8      	pop	{r3, r4, r5, r6, r7}
 8004fb2:	bc08      	pop	{r3}
 8004fb4:	469e      	mov	lr, r3
 8004fb6:	4770      	bx	lr
