
HackKosice2023.elf:     file format elf32-littlearm

Sections:
Idx Name          Size      VMA       LMA       File off  Algn
  0 .isr_vector   000000bc  08000000  08000000  00010000  2**0
                  CONTENTS, ALLOC, LOAD, READONLY, DATA
  1 .text         00002b3c  080000bc  080000bc  000100bc  2**2
                  CONTENTS, ALLOC, LOAD, READONLY, CODE
  2 .rodata       00000098  08002bf8  08002bf8  00012bf8  2**2
                  CONTENTS, ALLOC, LOAD, READONLY, DATA
  3 .ARM.extab    00000000  08002c90  08002c90  0002000c  2**0
                  CONTENTS
  4 .ARM          00000008  08002c90  08002c90  00012c90  2**2
                  CONTENTS, ALLOC, LOAD, READONLY, DATA
  5 .preinit_array 00000000  08002c98  08002c98  0002000c  2**0
                  CONTENTS, ALLOC, LOAD, DATA
  6 .init_array   00000004  08002c98  08002c98  00012c98  2**2
                  CONTENTS, ALLOC, LOAD, DATA
  7 .fini_array   00000004  08002c9c  08002c9c  00012c9c  2**2
                  CONTENTS, ALLOC, LOAD, DATA
  8 .data         0000000c  20000000  08002ca0  00020000  2**2
                  CONTENTS, ALLOC, LOAD, DATA
  9 .bss          0000025c  2000000c  08002cac  0002000c  2**2
                  ALLOC
 10 ._user_heap_stack 00000600  20000268  08002cac  00020268  2**0
                  ALLOC
 11 .ARM.attributes 00000028  00000000  00000000  0002000c  2**0
                  CONTENTS, READONLY
 12 .comment      00000050  00000000  00000000  00020034  2**0
                  CONTENTS, READONLY
 13 .debug_frame  000000c8  00000000  00000000  00020084  2**2
                  CONTENTS, READONLY, DEBUGGING, OCTETS

Disassembly of section .text:

080000bc <__do_global_dtors_aux>:
 80000bc:	b510      	push	{r4, lr}
 80000be:	4c06      	ldr	r4, [pc, #24]	; (80000d8 <__do_global_dtors_aux+0x1c>)
 80000c0:	7823      	ldrb	r3, [r4, #0]
 80000c2:	2b00      	cmp	r3, #0
 80000c4:	d107      	bne.n	80000d6 <__do_global_dtors_aux+0x1a>
 80000c6:	4b05      	ldr	r3, [pc, #20]	; (80000dc <__do_global_dtors_aux+0x20>)
 80000c8:	2b00      	cmp	r3, #0
 80000ca:	d002      	beq.n	80000d2 <__do_global_dtors_aux+0x16>
 80000cc:	4804      	ldr	r0, [pc, #16]	; (80000e0 <__do_global_dtors_aux+0x24>)
 80000ce:	e000      	b.n	80000d2 <__do_global_dtors_aux+0x16>
 80000d0:	bf00      	nop
 80000d2:	2301      	movs	r3, #1
 80000d4:	7023      	strb	r3, [r4, #0]
 80000d6:	bd10      	pop	{r4, pc}
 80000d8:	2000000c 	.word	0x2000000c
 80000dc:	00000000 	.word	0x00000000
 80000e0:	08002be0 	.word	0x08002be0

080000e4 <frame_dummy>:
 80000e4:	4b04      	ldr	r3, [pc, #16]	; (80000f8 <frame_dummy+0x14>)
 80000e6:	b510      	push	{r4, lr}
 80000e8:	2b00      	cmp	r3, #0
 80000ea:	d003      	beq.n	80000f4 <frame_dummy+0x10>
 80000ec:	4903      	ldr	r1, [pc, #12]	; (80000fc <frame_dummy+0x18>)
 80000ee:	4804      	ldr	r0, [pc, #16]	; (8000100 <frame_dummy+0x1c>)
 80000f0:	e000      	b.n	80000f4 <frame_dummy+0x10>
 80000f2:	bf00      	nop
 80000f4:	bd10      	pop	{r4, pc}
 80000f6:	46c0      	nop			; (mov r8, r8)
 80000f8:	00000000 	.word	0x00000000
 80000fc:	20000010 	.word	0x20000010
 8000100:	08002be0 	.word	0x08002be0

08000104 <__gnu_thumb1_case_uqi>:
 8000104:	b402      	push	{r1}
 8000106:	4671      	mov	r1, lr
 8000108:	0849      	lsrs	r1, r1, #1
 800010a:	0049      	lsls	r1, r1, #1
 800010c:	5c09      	ldrb	r1, [r1, r0]
 800010e:	0049      	lsls	r1, r1, #1
 8000110:	448e      	add	lr, r1
 8000112:	bc02      	pop	{r1}
 8000114:	4770      	bx	lr
 8000116:	46c0      	nop			; (mov r8, r8)

08000118 <__gnu_thumb1_case_shi>:
 8000118:	b403      	push	{r0, r1}
 800011a:	4671      	mov	r1, lr
 800011c:	0849      	lsrs	r1, r1, #1
 800011e:	0040      	lsls	r0, r0, #1
 8000120:	0049      	lsls	r1, r1, #1
 8000122:	5e09      	ldrsh	r1, [r1, r0]
 8000124:	0049      	lsls	r1, r1, #1
 8000126:	448e      	add	lr, r1
 8000128:	bc03      	pop	{r0, r1}
 800012a:	4770      	bx	lr

0800012c <__udivsi3>:
 800012c:	2200      	movs	r2, #0
 800012e:	0843      	lsrs	r3, r0, #1
 8000130:	428b      	cmp	r3, r1
 8000132:	d374      	bcc.n	800021e <__udivsi3+0xf2>
 8000134:	0903      	lsrs	r3, r0, #4
 8000136:	428b      	cmp	r3, r1
 8000138:	d35f      	bcc.n	80001fa <__udivsi3+0xce>
 800013a:	0a03      	lsrs	r3, r0, #8
 800013c:	428b      	cmp	r3, r1
 800013e:	d344      	bcc.n	80001ca <__udivsi3+0x9e>
 8000140:	0b03      	lsrs	r3, r0, #12
 8000142:	428b      	cmp	r3, r1
 8000144:	d328      	bcc.n	8000198 <__udivsi3+0x6c>
 8000146:	0c03      	lsrs	r3, r0, #16
 8000148:	428b      	cmp	r3, r1
 800014a:	d30d      	bcc.n	8000168 <__udivsi3+0x3c>
 800014c:	22ff      	movs	r2, #255	; 0xff
 800014e:	0209      	lsls	r1, r1, #8
 8000150:	ba12      	rev	r2, r2
 8000152:	0c03      	lsrs	r3, r0, #16
 8000154:	428b      	cmp	r3, r1
 8000156:	d302      	bcc.n	800015e <__udivsi3+0x32>
 8000158:	1212      	asrs	r2, r2, #8
 800015a:	0209      	lsls	r1, r1, #8
 800015c:	d065      	beq.n	800022a <__udivsi3+0xfe>
 800015e:	0b03      	lsrs	r3, r0, #12
 8000160:	428b      	cmp	r3, r1
 8000162:	d319      	bcc.n	8000198 <__udivsi3+0x6c>
 8000164:	e000      	b.n	8000168 <__udivsi3+0x3c>
 8000166:	0a09      	lsrs	r1, r1, #8
 8000168:	0bc3      	lsrs	r3, r0, #15
 800016a:	428b      	cmp	r3, r1
 800016c:	d301      	bcc.n	8000172 <__udivsi3+0x46>
 800016e:	03cb      	lsls	r3, r1, #15
 8000170:	1ac0      	subs	r0, r0, r3
 8000172:	4152      	adcs	r2, r2
 8000174:	0b83      	lsrs	r3, r0, #14
 8000176:	428b      	cmp	r3, r1
 8000178:	d301      	bcc.n	800017e <__udivsi3+0x52>
 800017a:	038b      	lsls	r3, r1, #14
 800017c:	1ac0      	subs	r0, r0, r3
 800017e:	4152      	adcs	r2, r2
 8000180:	0b43      	lsrs	r3, r0, #13
 8000182:	428b      	cmp	r3, r1
 8000184:	d301      	bcc.n	800018a <__udivsi3+0x5e>
 8000186:	034b      	lsls	r3, r1, #13
 8000188:	1ac0      	subs	r0, r0, r3
 800018a:	4152      	adcs	r2, r2
 800018c:	0b03      	lsrs	r3, r0, #12
 800018e:	428b      	cmp	r3, r1
 8000190:	d301      	bcc.n	8000196 <__udivsi3+0x6a>
 8000192:	030b      	lsls	r3, r1, #12
 8000194:	1ac0      	subs	r0, r0, r3
 8000196:	4152      	adcs	r2, r2
 8000198:	0ac3      	lsrs	r3, r0, #11
 800019a:	428b      	cmp	r3, r1
 800019c:	d301      	bcc.n	80001a2 <__udivsi3+0x76>
 800019e:	02cb      	lsls	r3, r1, #11
 80001a0:	1ac0      	subs	r0, r0, r3
 80001a2:	4152      	adcs	r2, r2
 80001a4:	0a83      	lsrs	r3, r0, #10
 80001a6:	428b      	cmp	r3, r1
 80001a8:	d301      	bcc.n	80001ae <__udivsi3+0x82>
 80001aa:	028b      	lsls	r3, r1, #10
 80001ac:	1ac0      	subs	r0, r0, r3
 80001ae:	4152      	adcs	r2, r2
 80001b0:	0a43      	lsrs	r3, r0, #9
 80001b2:	428b      	cmp	r3, r1
 80001b4:	d301      	bcc.n	80001ba <__udivsi3+0x8e>
 80001b6:	024b      	lsls	r3, r1, #9
 80001b8:	1ac0      	subs	r0, r0, r3
 80001ba:	4152      	adcs	r2, r2
 80001bc:	0a03      	lsrs	r3, r0, #8
 80001be:	428b      	cmp	r3, r1
 80001c0:	d301      	bcc.n	80001c6 <__udivsi3+0x9a>
 80001c2:	020b      	lsls	r3, r1, #8
 80001c4:	1ac0      	subs	r0, r0, r3
 80001c6:	4152      	adcs	r2, r2
 80001c8:	d2cd      	bcs.n	8000166 <__udivsi3+0x3a>
 80001ca:	09c3      	lsrs	r3, r0, #7
 80001cc:	428b      	cmp	r3, r1
 80001ce:	d301      	bcc.n	80001d4 <__udivsi3+0xa8>
 80001d0:	01cb      	lsls	r3, r1, #7
 80001d2:	1ac0      	subs	r0, r0, r3
 80001d4:	4152      	adcs	r2, r2
 80001d6:	0983      	lsrs	r3, r0, #6
 80001d8:	428b      	cmp	r3, r1
 80001da:	d301      	bcc.n	80001e0 <__udivsi3+0xb4>
 80001dc:	018b      	lsls	r3, r1, #6
 80001de:	1ac0      	subs	r0, r0, r3
 80001e0:	4152      	adcs	r2, r2
 80001e2:	0943      	lsrs	r3, r0, #5
 80001e4:	428b      	cmp	r3, r1
 80001e6:	d301      	bcc.n	80001ec <__udivsi3+0xc0>
 80001e8:	014b      	lsls	r3, r1, #5
 80001ea:	1ac0      	subs	r0, r0, r3
 80001ec:	4152      	adcs	r2, r2
 80001ee:	0903      	lsrs	r3, r0, #4
 80001f0:	428b      	cmp	r3, r1
 80001f2:	d301      	bcc.n	80001f8 <__udivsi3+0xcc>
 80001f4:	010b      	lsls	r3, r1, #4
 80001f6:	1ac0      	subs	r0, r0, r3
 80001f8:	4152      	adcs	r2, r2
 80001fa:	08c3      	lsrs	r3, r0, #3
 80001fc:	428b      	cmp	r3, r1
 80001fe:	d301      	bcc.n	8000204 <__udivsi3+0xd8>
 8000200:	00cb      	lsls	r3, r1, #3
 8000202:	1ac0      	subs	r0, r0, r3
 8000204:	4152      	adcs	r2, r2
 8000206:	0883      	lsrs	r3, r0, #2
 8000208:	428b      	cmp	r3, r1
 800020a:	d301      	bcc.n	8000210 <__udivsi3+0xe4>
 800020c:	008b      	lsls	r3, r1, #2
 800020e:	1ac0      	subs	r0, r0, r3
 8000210:	4152      	adcs	r2, r2
 8000212:	0843      	lsrs	r3, r0, #1
 8000214:	428b      	cmp	r3, r1
 8000216:	d301      	bcc.n	800021c <__udivsi3+0xf0>
 8000218:	004b      	lsls	r3, r1, #1
 800021a:	1ac0      	subs	r0, r0, r3
 800021c:	4152      	adcs	r2, r2
 800021e:	1a41      	subs	r1, r0, r1
 8000220:	d200      	bcs.n	8000224 <__udivsi3+0xf8>
 8000222:	4601      	mov	r1, r0
 8000224:	4152      	adcs	r2, r2
 8000226:	4610      	mov	r0, r2
 8000228:	4770      	bx	lr
 800022a:	e7ff      	b.n	800022c <__udivsi3+0x100>
 800022c:	b501      	push	{r0, lr}
 800022e:	2000      	movs	r0, #0
 8000230:	f000 f8f0 	bl	8000414 <__aeabi_idiv0>
 8000234:	bd02      	pop	{r1, pc}
 8000236:	46c0      	nop			; (mov r8, r8)

08000238 <__aeabi_uidivmod>:
 8000238:	2900      	cmp	r1, #0
 800023a:	d0f7      	beq.n	800022c <__udivsi3+0x100>
 800023c:	e776      	b.n	800012c <__udivsi3>
 800023e:	4770      	bx	lr

08000240 <__divsi3>:
 8000240:	4603      	mov	r3, r0
 8000242:	430b      	orrs	r3, r1
 8000244:	d47f      	bmi.n	8000346 <__divsi3+0x106>
 8000246:	2200      	movs	r2, #0
 8000248:	0843      	lsrs	r3, r0, #1
 800024a:	428b      	cmp	r3, r1
 800024c:	d374      	bcc.n	8000338 <__divsi3+0xf8>
 800024e:	0903      	lsrs	r3, r0, #4
 8000250:	428b      	cmp	r3, r1
 8000252:	d35f      	bcc.n	8000314 <__divsi3+0xd4>
 8000254:	0a03      	lsrs	r3, r0, #8
 8000256:	428b      	cmp	r3, r1
 8000258:	d344      	bcc.n	80002e4 <__divsi3+0xa4>
 800025a:	0b03      	lsrs	r3, r0, #12
 800025c:	428b      	cmp	r3, r1
 800025e:	d328      	bcc.n	80002b2 <__divsi3+0x72>
 8000260:	0c03      	lsrs	r3, r0, #16
 8000262:	428b      	cmp	r3, r1
 8000264:	d30d      	bcc.n	8000282 <__divsi3+0x42>
 8000266:	22ff      	movs	r2, #255	; 0xff
 8000268:	0209      	lsls	r1, r1, #8
 800026a:	ba12      	rev	r2, r2
 800026c:	0c03      	lsrs	r3, r0, #16
 800026e:	428b      	cmp	r3, r1
 8000270:	d302      	bcc.n	8000278 <__divsi3+0x38>
 8000272:	1212      	asrs	r2, r2, #8
 8000274:	0209      	lsls	r1, r1, #8
 8000276:	d065      	beq.n	8000344 <__divsi3+0x104>
 8000278:	0b03      	lsrs	r3, r0, #12
 800027a:	428b      	cmp	r3, r1
 800027c:	d319      	bcc.n	80002b2 <__divsi3+0x72>
 800027e:	e000      	b.n	8000282 <__divsi3+0x42>
 8000280:	0a09      	lsrs	r1, r1, #8
 8000282:	0bc3      	lsrs	r3, r0, #15
 8000284:	428b      	cmp	r3, r1
 8000286:	d301      	bcc.n	800028c <__divsi3+0x4c>
 8000288:	03cb      	lsls	r3, r1, #15
 800028a:	1ac0      	subs	r0, r0, r3
 800028c:	4152      	adcs	r2, r2
 800028e:	0b83      	lsrs	r3, r0, #14
 8000290:	428b      	cmp	r3, r1
 8000292:	d301      	bcc.n	8000298 <__divsi3+0x58>
 8000294:	038b      	lsls	r3, r1, #14
 8000296:	1ac0      	subs	r0, r0, r3
 8000298:	4152      	adcs	r2, r2
 800029a:	0b43      	lsrs	r3, r0, #13
 800029c:	428b      	cmp	r3, r1
 800029e:	d301      	bcc.n	80002a4 <__divsi3+0x64>
 80002a0:	034b      	lsls	r3, r1, #13
 80002a2:	1ac0      	subs	r0, r0, r3
 80002a4:	4152      	adcs	r2, r2
 80002a6:	0b03      	lsrs	r3, r0, #12
 80002a8:	428b      	cmp	r3, r1
 80002aa:	d301      	bcc.n	80002b0 <__divsi3+0x70>
 80002ac:	030b      	lsls	r3, r1, #12
 80002ae:	1ac0      	subs	r0, r0, r3
 80002b0:	4152      	adcs	r2, r2
 80002b2:	0ac3      	lsrs	r3, r0, #11
 80002b4:	428b      	cmp	r3, r1
 80002b6:	d301      	bcc.n	80002bc <__divsi3+0x7c>
 80002b8:	02cb      	lsls	r3, r1, #11
 80002ba:	1ac0      	subs	r0, r0, r3
 80002bc:	4152      	adcs	r2, r2
 80002be:	0a83      	lsrs	r3, r0, #10
 80002c0:	428b      	cmp	r3, r1
 80002c2:	d301      	bcc.n	80002c8 <__divsi3+0x88>
 80002c4:	028b      	lsls	r3, r1, #10
 80002c6:	1ac0      	subs	r0, r0, r3
 80002c8:	4152      	adcs	r2, r2
 80002ca:	0a43      	lsrs	r3, r0, #9
 80002cc:	428b      	cmp	r3, r1
 80002ce:	d301      	bcc.n	80002d4 <__divsi3+0x94>
 80002d0:	024b      	lsls	r3, r1, #9
 80002d2:	1ac0      	subs	r0, r0, r3
 80002d4:	4152      	adcs	r2, r2
 80002d6:	0a03      	lsrs	r3, r0, #8
 80002d8:	428b      	cmp	r3, r1
 80002da:	d301      	bcc.n	80002e0 <__divsi3+0xa0>
 80002dc:	020b      	lsls	r3, r1, #8
 80002de:	1ac0      	subs	r0, r0, r3
 80002e0:	4152      	adcs	r2, r2
 80002e2:	d2cd      	bcs.n	8000280 <__divsi3+0x40>
 80002e4:	09c3      	lsrs	r3, r0, #7
 80002e6:	428b      	cmp	r3, r1
 80002e8:	d301      	bcc.n	80002ee <__divsi3+0xae>
 80002ea:	01cb      	lsls	r3, r1, #7
 80002ec:	1ac0      	subs	r0, r0, r3
 80002ee:	4152      	adcs	r2, r2
 80002f0:	0983      	lsrs	r3, r0, #6
 80002f2:	428b      	cmp	r3, r1
 80002f4:	d301      	bcc.n	80002fa <__divsi3+0xba>
 80002f6:	018b      	lsls	r3, r1, #6
 80002f8:	1ac0      	subs	r0, r0, r3
 80002fa:	4152      	adcs	r2, r2
 80002fc:	0943      	lsrs	r3, r0, #5
 80002fe:	428b      	cmp	r3, r1
 8000300:	d301      	bcc.n	8000306 <__divsi3+0xc6>
 8000302:	014b      	lsls	r3, r1, #5
 8000304:	1ac0      	subs	r0, r0, r3
 8000306:	4152      	adcs	r2, r2
 8000308:	0903      	lsrs	r3, r0, #4
 800030a:	428b      	cmp	r3, r1
 800030c:	d301      	bcc.n	8000312 <__divsi3+0xd2>
 800030e:	010b      	lsls	r3, r1, #4
 8000310:	1ac0      	subs	r0, r0, r3
 8000312:	4152      	adcs	r2, r2
 8000314:	08c3      	lsrs	r3, r0, #3
 8000316:	428b      	cmp	r3, r1
 8000318:	d301      	bcc.n	800031e <__divsi3+0xde>
 800031a:	00cb      	lsls	r3, r1, #3
 800031c:	1ac0      	subs	r0, r0, r3
 800031e:	4152      	adcs	r2, r2
 8000320:	0883      	lsrs	r3, r0, #2
 8000322:	428b      	cmp	r3, r1
 8000324:	d301      	bcc.n	800032a <__divsi3+0xea>
 8000326:	008b      	lsls	r3, r1, #2
 8000328:	1ac0      	subs	r0, r0, r3
 800032a:	4152      	adcs	r2, r2
 800032c:	0843      	lsrs	r3, r0, #1
 800032e:	428b      	cmp	r3, r1
 8000330:	d301      	bcc.n	8000336 <__divsi3+0xf6>
 8000332:	004b      	lsls	r3, r1, #1
 8000334:	1ac0      	subs	r0, r0, r3
 8000336:	4152      	adcs	r2, r2
 8000338:	1a41      	subs	r1, r0, r1
 800033a:	d200      	bcs.n	800033e <__divsi3+0xfe>
 800033c:	4601      	mov	r1, r0
 800033e:	4152      	adcs	r2, r2
 8000340:	4610      	mov	r0, r2
 8000342:	4770      	bx	lr
 8000344:	e05d      	b.n	8000402 <__divsi3+0x1c2>
 8000346:	0fca      	lsrs	r2, r1, #31
 8000348:	d000      	beq.n	800034c <__divsi3+0x10c>
 800034a:	4249      	negs	r1, r1
 800034c:	1003      	asrs	r3, r0, #32
 800034e:	d300      	bcc.n	8000352 <__divsi3+0x112>
 8000350:	4240      	negs	r0, r0
 8000352:	4053      	eors	r3, r2
 8000354:	2200      	movs	r2, #0
 8000356:	469c      	mov	ip, r3
 8000358:	0903      	lsrs	r3, r0, #4
 800035a:	428b      	cmp	r3, r1
 800035c:	d32d      	bcc.n	80003ba <__divsi3+0x17a>
 800035e:	0a03      	lsrs	r3, r0, #8
 8000360:	428b      	cmp	r3, r1
 8000362:	d312      	bcc.n	800038a <__divsi3+0x14a>
 8000364:	22fc      	movs	r2, #252	; 0xfc
 8000366:	0189      	lsls	r1, r1, #6
 8000368:	ba12      	rev	r2, r2
 800036a:	0a03      	lsrs	r3, r0, #8
 800036c:	428b      	cmp	r3, r1
 800036e:	d30c      	bcc.n	800038a <__divsi3+0x14a>
 8000370:	0189      	lsls	r1, r1, #6
 8000372:	1192      	asrs	r2, r2, #6
 8000374:	428b      	cmp	r3, r1
 8000376:	d308      	bcc.n	800038a <__divsi3+0x14a>
 8000378:	0189      	lsls	r1, r1, #6
 800037a:	1192      	asrs	r2, r2, #6
 800037c:	428b      	cmp	r3, r1
 800037e:	d304      	bcc.n	800038a <__divsi3+0x14a>
 8000380:	0189      	lsls	r1, r1, #6
 8000382:	d03a      	beq.n	80003fa <__divsi3+0x1ba>
 8000384:	1192      	asrs	r2, r2, #6
 8000386:	e000      	b.n	800038a <__divsi3+0x14a>
 8000388:	0989      	lsrs	r1, r1, #6
 800038a:	09c3      	lsrs	r3, r0, #7
 800038c:	428b      	cmp	r3, r1
 800038e:	d301      	bcc.n	8000394 <__divsi3+0x154>
 8000390:	01cb      	lsls	r3, r1, #7
 8000392:	1ac0      	subs	r0, r0, r3
 8000394:	4152      	adcs	r2, r2
 8000396:	0983      	lsrs	r3, r0, #6
 8000398:	428b      	cmp	r3, r1
 800039a:	d301      	bcc.n	80003a0 <__divsi3+0x160>
 800039c:	018b      	lsls	r3, r1, #6
 800039e:	1ac0      	subs	r0, r0, r3
 80003a0:	4152      	adcs	r2, r2
 80003a2:	0943      	lsrs	r3, r0, #5
 80003a4:	428b      	cmp	r3, r1
 80003a6:	d301      	bcc.n	80003ac <__divsi3+0x16c>
 80003a8:	014b      	lsls	r3, r1, #5
 80003aa:	1ac0      	subs	r0, r0, r3
 80003ac:	4152      	adcs	r2, r2
 80003ae:	0903      	lsrs	r3, r0, #4
 80003b0:	428b      	cmp	r3, r1
 80003b2:	d301      	bcc.n	80003b8 <__divsi3+0x178>
 80003b4:	010b      	lsls	r3, r1, #4
 80003b6:	1ac0      	subs	r0, r0, r3
 80003b8:	4152      	adcs	r2, r2
 80003ba:	08c3      	lsrs	r3, r0, #3
 80003bc:	428b      	cmp	r3, r1
 80003be:	d301      	bcc.n	80003c4 <__divsi3+0x184>
 80003c0:	00cb      	lsls	r3, r1, #3
 80003c2:	1ac0      	subs	r0, r0, r3
 80003c4:	4152      	adcs	r2, r2
 80003c6:	0883      	lsrs	r3, r0, #2
 80003c8:	428b      	cmp	r3, r1
 80003ca:	d301      	bcc.n	80003d0 <__divsi3+0x190>
 80003cc:	008b      	lsls	r3, r1, #2
 80003ce:	1ac0      	subs	r0, r0, r3
 80003d0:	4152      	adcs	r2, r2
 80003d2:	d2d9      	bcs.n	8000388 <__divsi3+0x148>
 80003d4:	0843      	lsrs	r3, r0, #1
 80003d6:	428b      	cmp	r3, r1
 80003d8:	d301      	bcc.n	80003de <__divsi3+0x19e>
 80003da:	004b      	lsls	r3, r1, #1
 80003dc:	1ac0      	subs	r0, r0, r3
 80003de:	4152      	adcs	r2, r2
 80003e0:	1a41      	subs	r1, r0, r1
 80003e2:	d200      	bcs.n	80003e6 <__divsi3+0x1a6>
 80003e4:	4601      	mov	r1, r0
 80003e6:	4663      	mov	r3, ip
 80003e8:	4152      	adcs	r2, r2
 80003ea:	105b      	asrs	r3, r3, #1
 80003ec:	4610      	mov	r0, r2
 80003ee:	d301      	bcc.n	80003f4 <__divsi3+0x1b4>
 80003f0:	4240      	negs	r0, r0
 80003f2:	2b00      	cmp	r3, #0
 80003f4:	d500      	bpl.n	80003f8 <__divsi3+0x1b8>
 80003f6:	4249      	negs	r1, r1
 80003f8:	4770      	bx	lr
 80003fa:	4663      	mov	r3, ip
 80003fc:	105b      	asrs	r3, r3, #1
 80003fe:	d300      	bcc.n	8000402 <__divsi3+0x1c2>
 8000400:	4240      	negs	r0, r0
 8000402:	b501      	push	{r0, lr}
 8000404:	2000      	movs	r0, #0
 8000406:	f000 f805 	bl	8000414 <__aeabi_idiv0>
 800040a:	bd02      	pop	{r1, pc}

0800040c <__aeabi_idivmod>:
 800040c:	2900      	cmp	r1, #0
 800040e:	d0f8      	beq.n	8000402 <__divsi3+0x1c2>
 8000410:	e716      	b.n	8000240 <__divsi3>
 8000412:	4770      	bx	lr

08000414 <__aeabi_idiv0>:
 8000414:	4770      	bx	lr
 8000416:	46c0      	nop			; (mov r8, r8)

08000418 <__aeabi_uldivmod>:
 8000418:	2b00      	cmp	r3, #0
 800041a:	d111      	bne.n	8000440 <__aeabi_uldivmod+0x28>
 800041c:	2a00      	cmp	r2, #0
 800041e:	d10f      	bne.n	8000440 <__aeabi_uldivmod+0x28>
 8000420:	2900      	cmp	r1, #0
 8000422:	d100      	bne.n	8000426 <__aeabi_uldivmod+0xe>
 8000424:	2800      	cmp	r0, #0
 8000426:	d002      	beq.n	800042e <__aeabi_uldivmod+0x16>
 8000428:	2100      	movs	r1, #0
 800042a:	43c9      	mvns	r1, r1
 800042c:	0008      	movs	r0, r1
 800042e:	b407      	push	{r0, r1, r2}
 8000430:	4802      	ldr	r0, [pc, #8]	; (800043c <__aeabi_uldivmod+0x24>)
 8000432:	a102      	add	r1, pc, #8	; (adr r1, 800043c <__aeabi_uldivmod+0x24>)
 8000434:	1840      	adds	r0, r0, r1
 8000436:	9002      	str	r0, [sp, #8]
 8000438:	bd03      	pop	{r0, r1, pc}
 800043a:	46c0      	nop			; (mov r8, r8)
 800043c:	ffffffd9 	.word	0xffffffd9
 8000440:	b403      	push	{r0, r1}
 8000442:	4668      	mov	r0, sp
 8000444:	b501      	push	{r0, lr}
 8000446:	9802      	ldr	r0, [sp, #8]
 8000448:	f000 f806 	bl	8000458 <__udivmoddi4>
 800044c:	9b01      	ldr	r3, [sp, #4]
 800044e:	469e      	mov	lr, r3
 8000450:	b002      	add	sp, #8
 8000452:	bc0c      	pop	{r2, r3}
 8000454:	4770      	bx	lr
 8000456:	46c0      	nop			; (mov r8, r8)

08000458 <__udivmoddi4>:
 8000458:	b5f0      	push	{r4, r5, r6, r7, lr}
 800045a:	4657      	mov	r7, sl
 800045c:	464e      	mov	r6, r9
 800045e:	4645      	mov	r5, r8
 8000460:	46de      	mov	lr, fp
 8000462:	b5e0      	push	{r5, r6, r7, lr}
 8000464:	0004      	movs	r4, r0
 8000466:	000d      	movs	r5, r1
 8000468:	4692      	mov	sl, r2
 800046a:	4699      	mov	r9, r3
 800046c:	b083      	sub	sp, #12
 800046e:	428b      	cmp	r3, r1
 8000470:	d830      	bhi.n	80004d4 <__udivmoddi4+0x7c>
 8000472:	d02d      	beq.n	80004d0 <__udivmoddi4+0x78>
 8000474:	4649      	mov	r1, r9
 8000476:	4650      	mov	r0, sl
 8000478:	f000 f8ba 	bl	80005f0 <__clzdi2>
 800047c:	0029      	movs	r1, r5
 800047e:	0006      	movs	r6, r0
 8000480:	0020      	movs	r0, r4
 8000482:	f000 f8b5 	bl	80005f0 <__clzdi2>
 8000486:	1a33      	subs	r3, r6, r0
 8000488:	4698      	mov	r8, r3
 800048a:	3b20      	subs	r3, #32
 800048c:	469b      	mov	fp, r3
 800048e:	d433      	bmi.n	80004f8 <__udivmoddi4+0xa0>
 8000490:	465a      	mov	r2, fp
 8000492:	4653      	mov	r3, sl
 8000494:	4093      	lsls	r3, r2
 8000496:	4642      	mov	r2, r8
 8000498:	001f      	movs	r7, r3
 800049a:	4653      	mov	r3, sl
 800049c:	4093      	lsls	r3, r2
 800049e:	001e      	movs	r6, r3
 80004a0:	42af      	cmp	r7, r5
 80004a2:	d83a      	bhi.n	800051a <__udivmoddi4+0xc2>
 80004a4:	42af      	cmp	r7, r5
 80004a6:	d100      	bne.n	80004aa <__udivmoddi4+0x52>
 80004a8:	e078      	b.n	800059c <__udivmoddi4+0x144>
 80004aa:	465b      	mov	r3, fp
 80004ac:	1ba4      	subs	r4, r4, r6
 80004ae:	41bd      	sbcs	r5, r7
 80004b0:	2b00      	cmp	r3, #0
 80004b2:	da00      	bge.n	80004b6 <__udivmoddi4+0x5e>
 80004b4:	e075      	b.n	80005a2 <__udivmoddi4+0x14a>
 80004b6:	2200      	movs	r2, #0
 80004b8:	2300      	movs	r3, #0
 80004ba:	9200      	str	r2, [sp, #0]
 80004bc:	9301      	str	r3, [sp, #4]
 80004be:	2301      	movs	r3, #1
 80004c0:	465a      	mov	r2, fp
 80004c2:	4093      	lsls	r3, r2
 80004c4:	9301      	str	r3, [sp, #4]
 80004c6:	2301      	movs	r3, #1
 80004c8:	4642      	mov	r2, r8
 80004ca:	4093      	lsls	r3, r2
 80004cc:	9300      	str	r3, [sp, #0]
 80004ce:	e028      	b.n	8000522 <__udivmoddi4+0xca>
 80004d0:	4282      	cmp	r2, r0
 80004d2:	d9cf      	bls.n	8000474 <__udivmoddi4+0x1c>
 80004d4:	2200      	movs	r2, #0
 80004d6:	2300      	movs	r3, #0
 80004d8:	9200      	str	r2, [sp, #0]
 80004da:	9301      	str	r3, [sp, #4]
 80004dc:	9b0c      	ldr	r3, [sp, #48]	; 0x30
 80004de:	2b00      	cmp	r3, #0
 80004e0:	d001      	beq.n	80004e6 <__udivmoddi4+0x8e>
 80004e2:	601c      	str	r4, [r3, #0]
 80004e4:	605d      	str	r5, [r3, #4]
 80004e6:	9800      	ldr	r0, [sp, #0]
 80004e8:	9901      	ldr	r1, [sp, #4]
 80004ea:	b003      	add	sp, #12
 80004ec:	bcf0      	pop	{r4, r5, r6, r7}
 80004ee:	46bb      	mov	fp, r7
 80004f0:	46b2      	mov	sl, r6
 80004f2:	46a9      	mov	r9, r5
 80004f4:	46a0      	mov	r8, r4
 80004f6:	bdf0      	pop	{r4, r5, r6, r7, pc}
 80004f8:	4642      	mov	r2, r8
 80004fa:	2320      	movs	r3, #32
 80004fc:	1a9b      	subs	r3, r3, r2
 80004fe:	4652      	mov	r2, sl
 8000500:	40da      	lsrs	r2, r3
 8000502:	4641      	mov	r1, r8
 8000504:	0013      	movs	r3, r2
 8000506:	464a      	mov	r2, r9
 8000508:	408a      	lsls	r2, r1
 800050a:	0017      	movs	r7, r2
 800050c:	4642      	mov	r2, r8
 800050e:	431f      	orrs	r7, r3
 8000510:	4653      	mov	r3, sl
 8000512:	4093      	lsls	r3, r2
 8000514:	001e      	movs	r6, r3
 8000516:	42af      	cmp	r7, r5
 8000518:	d9c4      	bls.n	80004a4 <__udivmoddi4+0x4c>
 800051a:	2200      	movs	r2, #0
 800051c:	2300      	movs	r3, #0
 800051e:	9200      	str	r2, [sp, #0]
 8000520:	9301      	str	r3, [sp, #4]
 8000522:	4643      	mov	r3, r8
 8000524:	2b00      	cmp	r3, #0
 8000526:	d0d9      	beq.n	80004dc <__udivmoddi4+0x84>
 8000528:	07fb      	lsls	r3, r7, #31
 800052a:	0872      	lsrs	r2, r6, #1
 800052c:	431a      	orrs	r2, r3
 800052e:	4646      	mov	r6, r8
 8000530:	087b      	lsrs	r3, r7, #1
 8000532:	e00e      	b.n	8000552 <__udivmoddi4+0xfa>
 8000534:	42ab      	cmp	r3, r5
 8000536:	d101      	bne.n	800053c <__udivmoddi4+0xe4>
 8000538:	42a2      	cmp	r2, r4
 800053a:	d80c      	bhi.n	8000556 <__udivmoddi4+0xfe>
 800053c:	1aa4      	subs	r4, r4, r2
 800053e:	419d      	sbcs	r5, r3
 8000540:	2001      	movs	r0, #1
 8000542:	1924      	adds	r4, r4, r4
 8000544:	416d      	adcs	r5, r5
 8000546:	2100      	movs	r1, #0
 8000548:	3e01      	subs	r6, #1
 800054a:	1824      	adds	r4, r4, r0
 800054c:	414d      	adcs	r5, r1
 800054e:	2e00      	cmp	r6, #0
 8000550:	d006      	beq.n	8000560 <__udivmoddi4+0x108>
 8000552:	42ab      	cmp	r3, r5
 8000554:	d9ee      	bls.n	8000534 <__udivmoddi4+0xdc>
 8000556:	3e01      	subs	r6, #1
 8000558:	1924      	adds	r4, r4, r4
 800055a:	416d      	adcs	r5, r5
 800055c:	2e00      	cmp	r6, #0
 800055e:	d1f8      	bne.n	8000552 <__udivmoddi4+0xfa>
 8000560:	9800      	ldr	r0, [sp, #0]
 8000562:	9901      	ldr	r1, [sp, #4]
 8000564:	465b      	mov	r3, fp
 8000566:	1900      	adds	r0, r0, r4
 8000568:	4169      	adcs	r1, r5
 800056a:	2b00      	cmp	r3, #0
 800056c:	db24      	blt.n	80005b8 <__udivmoddi4+0x160>
 800056e:	002b      	movs	r3, r5
 8000570:	465a      	mov	r2, fp
 8000572:	4644      	mov	r4, r8
 8000574:	40d3      	lsrs	r3, r2
 8000576:	002a      	movs	r2, r5
 8000578:	40e2      	lsrs	r2, r4
 800057a:	001c      	movs	r4, r3
 800057c:	465b      	mov	r3, fp
 800057e:	0015      	movs	r5, r2
 8000580:	2b00      	cmp	r3, #0
 8000582:	db2a      	blt.n	80005da <__udivmoddi4+0x182>
 8000584:	0026      	movs	r6, r4
 8000586:	409e      	lsls	r6, r3
 8000588:	0033      	movs	r3, r6
 800058a:	0026      	movs	r6, r4
 800058c:	4647      	mov	r7, r8
 800058e:	40be      	lsls	r6, r7
 8000590:	0032      	movs	r2, r6
 8000592:	1a80      	subs	r0, r0, r2
 8000594:	4199      	sbcs	r1, r3
 8000596:	9000      	str	r0, [sp, #0]
 8000598:	9101      	str	r1, [sp, #4]
 800059a:	e79f      	b.n	80004dc <__udivmoddi4+0x84>
 800059c:	42a3      	cmp	r3, r4
 800059e:	d8bc      	bhi.n	800051a <__udivmoddi4+0xc2>
 80005a0:	e783      	b.n	80004aa <__udivmoddi4+0x52>
 80005a2:	4642      	mov	r2, r8
 80005a4:	2320      	movs	r3, #32
 80005a6:	2100      	movs	r1, #0
 80005a8:	1a9b      	subs	r3, r3, r2
 80005aa:	2200      	movs	r2, #0
 80005ac:	9100      	str	r1, [sp, #0]
 80005ae:	9201      	str	r2, [sp, #4]
 80005b0:	2201      	movs	r2, #1
 80005b2:	40da      	lsrs	r2, r3
 80005b4:	9201      	str	r2, [sp, #4]
 80005b6:	e786      	b.n	80004c6 <__udivmoddi4+0x6e>
 80005b8:	4642      	mov	r2, r8
 80005ba:	2320      	movs	r3, #32
 80005bc:	1a9b      	subs	r3, r3, r2
 80005be:	002a      	movs	r2, r5
 80005c0:	4646      	mov	r6, r8
 80005c2:	409a      	lsls	r2, r3
 80005c4:	0023      	movs	r3, r4
 80005c6:	40f3      	lsrs	r3, r6
 80005c8:	4644      	mov	r4, r8
 80005ca:	4313      	orrs	r3, r2
 80005cc:	002a      	movs	r2, r5
 80005ce:	40e2      	lsrs	r2, r4
 80005d0:	001c      	movs	r4, r3
 80005d2:	465b      	mov	r3, fp
 80005d4:	0015      	movs	r5, r2
 80005d6:	2b00      	cmp	r3, #0
 80005d8:	dad4      	bge.n	8000584 <__udivmoddi4+0x12c>
 80005da:	4642      	mov	r2, r8
 80005dc:	002f      	movs	r7, r5
 80005de:	2320      	movs	r3, #32
 80005e0:	0026      	movs	r6, r4
 80005e2:	4097      	lsls	r7, r2
 80005e4:	1a9b      	subs	r3, r3, r2
 80005e6:	40de      	lsrs	r6, r3
 80005e8:	003b      	movs	r3, r7
 80005ea:	4333      	orrs	r3, r6
 80005ec:	e7cd      	b.n	800058a <__udivmoddi4+0x132>
 80005ee:	46c0      	nop			; (mov r8, r8)

080005f0 <__clzdi2>:
 80005f0:	b510      	push	{r4, lr}
 80005f2:	2900      	cmp	r1, #0
 80005f4:	d103      	bne.n	80005fe <__clzdi2+0xe>
 80005f6:	f000 f807 	bl	8000608 <__clzsi2>
 80005fa:	3020      	adds	r0, #32
 80005fc:	e002      	b.n	8000604 <__clzdi2+0x14>
 80005fe:	0008      	movs	r0, r1
 8000600:	f000 f802 	bl	8000608 <__clzsi2>
 8000604:	bd10      	pop	{r4, pc}
 8000606:	46c0      	nop			; (mov r8, r8)

08000608 <__clzsi2>:
 8000608:	211c      	movs	r1, #28
 800060a:	2301      	movs	r3, #1
 800060c:	041b      	lsls	r3, r3, #16
 800060e:	4298      	cmp	r0, r3
 8000610:	d301      	bcc.n	8000616 <__clzsi2+0xe>
 8000612:	0c00      	lsrs	r0, r0, #16
 8000614:	3910      	subs	r1, #16
 8000616:	0a1b      	lsrs	r3, r3, #8
 8000618:	4298      	cmp	r0, r3
 800061a:	d301      	bcc.n	8000620 <__clzsi2+0x18>
 800061c:	0a00      	lsrs	r0, r0, #8
 800061e:	3908      	subs	r1, #8
 8000620:	091b      	lsrs	r3, r3, #4
 8000622:	4298      	cmp	r0, r3
 8000624:	d301      	bcc.n	800062a <__clzsi2+0x22>
 8000626:	0900      	lsrs	r0, r0, #4
 8000628:	3904      	subs	r1, #4
 800062a:	a202      	add	r2, pc, #8	; (adr r2, 8000634 <__clzsi2+0x2c>)
 800062c:	5c10      	ldrb	r0, [r2, r0]
 800062e:	1840      	adds	r0, r0, r1
 8000630:	4770      	bx	lr
 8000632:	46c0      	nop			; (mov r8, r8)
 8000634:	02020304 	.word	0x02020304
 8000638:	01010101 	.word	0x01010101
	...

08000644 <setup>:
 8000644:	b570      	push	{r4, r5, r6, lr}
 8000646:	2400      	movs	r4, #0
 8000648:	2064      	movs	r0, #100	; 0x64
 800064a:	f000 fbed 	bl	8000e28 <HAL_Delay>
 800064e:	4b0e      	ldr	r3, [pc, #56]	; (8000688 <setup+0x44>)
 8000650:	701c      	strb	r4, [r3, #0]
 8000652:	f000 f825 	bl	80006a0 <ClearBuffers>
 8000656:	f000 fb1b 	bl	8000c90 <LED12A1_Init>
 800065a:	4d0c      	ldr	r5, [pc, #48]	; (800068c <setup+0x48>)
 800065c:	490c      	ldr	r1, [pc, #48]	; (8000690 <setup+0x4c>)
 800065e:	0028      	movs	r0, r5
 8000660:	f000 fb6a 	bl	8000d38 <LED12A1_ScanAvailDevice>
 8000664:	4e0b      	ldr	r6, [pc, #44]	; (8000694 <setup+0x50>)
 8000666:	7030      	strb	r0, [r6, #0]
 8000668:	7833      	ldrb	r3, [r6, #0]
 800066a:	42a3      	cmp	r3, r4
 800066c:	d800      	bhi.n	8000670 <setup+0x2c>
 800066e:	bd70      	pop	{r4, r5, r6, pc}
 8000670:	0021      	movs	r1, r4
 8000672:	0028      	movs	r0, r5
 8000674:	f000 fb3e 	bl	8000cf4 <LED12A1_DeviceEnable>
 8000678:	0022      	movs	r2, r4
 800067a:	0028      	movs	r0, r5
 800067c:	4906      	ldr	r1, [pc, #24]	; (8000698 <setup+0x54>)
 800067e:	3401      	adds	r4, #1
 8000680:	f000 fb72 	bl	8000d68 <LED12A1_ChannelDisable>
 8000684:	b2e4      	uxtb	r4, r4
 8000686:	e7ef      	b.n	8000668 <setup+0x24>
 8000688:	200000b3 	.word	0x200000b3
 800068c:	20000238 	.word	0x20000238
 8000690:	20000028 	.word	0x20000028
 8000694:	20000032 	.word	0x20000032
 8000698:	00000fff 	.word	0x00000fff

0800069c <mainLoop>:
 800069c:	4770      	bx	lr
	...

080006a0 <ClearBuffers>:
 80006a0:	b510      	push	{r4, lr}
 80006a2:	2440      	movs	r4, #64	; 0x40
 80006a4:	0022      	movs	r2, r4
 80006a6:	2100      	movs	r1, #0
 80006a8:	4804      	ldr	r0, [pc, #16]	; (80006bc <ClearBuffers+0x1c>)
 80006aa:	f002 fa91 	bl	8002bd0 <memset>
 80006ae:	0022      	movs	r2, r4
 80006b0:	2100      	movs	r1, #0
 80006b2:	4803      	ldr	r0, [pc, #12]	; (80006c0 <ClearBuffers+0x20>)
 80006b4:	f002 fa8c 	bl	8002bd0 <memset>
 80006b8:	bd10      	pop	{r4, pc}
 80006ba:	46c0      	nop			; (mov r8, r8)
 80006bc:	20000033 	.word	0x20000033
 80006c0:	20000073 	.word	0x20000073

080006c4 <SystemClock_Config>:
 80006c4:	b500      	push	{lr}
 80006c6:	b095      	sub	sp, #84	; 0x54
 80006c8:	223c      	movs	r2, #60	; 0x3c
 80006ca:	2100      	movs	r1, #0
 80006cc:	a805      	add	r0, sp, #20
 80006ce:	f002 fa7f 	bl	8002bd0 <memset>
 80006d2:	2100      	movs	r1, #0
 80006d4:	2210      	movs	r2, #16
 80006d6:	a801      	add	r0, sp, #4
 80006d8:	f002 fa7a 	bl	8002bd0 <memset>
 80006dc:	2080      	movs	r0, #128	; 0x80
 80006de:	0080      	lsls	r0, r0, #2
 80006e0:	f001 f8d0 	bl	8001884 <HAL_PWREx_ControlVoltageScaling>
 80006e4:	2302      	movs	r3, #2
 80006e6:	9305      	str	r3, [sp, #20]
 80006e8:	33fe      	adds	r3, #254	; 0xfe
 80006ea:	2240      	movs	r2, #64	; 0x40
 80006ec:	9308      	str	r3, [sp, #32]
 80006ee:	2300      	movs	r3, #0
 80006f0:	a805      	add	r0, sp, #20
 80006f2:	9309      	str	r3, [sp, #36]	; 0x24
 80006f4:	920a      	str	r2, [sp, #40]	; 0x28
 80006f6:	930d      	str	r3, [sp, #52]	; 0x34
 80006f8:	f001 f8f0 	bl	80018dc <HAL_RCC_OscConfig>
 80006fc:	1e01      	subs	r1, r0, #0
 80006fe:	d001      	beq.n	8000704 <SystemClock_Config+0x40>
 8000700:	b672      	cpsid	i
 8000702:	e7fe      	b.n	8000702 <SystemClock_Config+0x3e>
 8000704:	2307      	movs	r3, #7
 8000706:	9002      	str	r0, [sp, #8]
 8000708:	9003      	str	r0, [sp, #12]
 800070a:	9004      	str	r0, [sp, #16]
 800070c:	a801      	add	r0, sp, #4
 800070e:	9301      	str	r3, [sp, #4]
 8000710:	f001 fb80 	bl	8001e14 <HAL_RCC_ClockConfig>
 8000714:	2800      	cmp	r0, #0
 8000716:	d001      	beq.n	800071c <SystemClock_Config+0x58>
 8000718:	b672      	cpsid	i
 800071a:	e7fe      	b.n	800071a <SystemClock_Config+0x56>
 800071c:	b015      	add	sp, #84	; 0x54
 800071e:	bd00      	pop	{pc}

08000720 <MX_I2C1_Init>:
 8000720:	b510      	push	{r4, lr}
 8000722:	4b12      	ldr	r3, [pc, #72]	; (800076c <MX_I2C1_Init+0x4c>)
 8000724:	4c12      	ldr	r4, [pc, #72]	; (8000770 <MX_I2C1_Init+0x50>)
 8000726:	2201      	movs	r2, #1
 8000728:	6023      	str	r3, [r4, #0]
 800072a:	4b12      	ldr	r3, [pc, #72]	; (8000774 <MX_I2C1_Init+0x54>)
 800072c:	0020      	movs	r0, r4
 800072e:	6063      	str	r3, [r4, #4]
 8000730:	2300      	movs	r3, #0
 8000732:	60e2      	str	r2, [r4, #12]
 8000734:	60a3      	str	r3, [r4, #8]
 8000736:	6123      	str	r3, [r4, #16]
 8000738:	6163      	str	r3, [r4, #20]
 800073a:	61a3      	str	r3, [r4, #24]
 800073c:	61e3      	str	r3, [r4, #28]
 800073e:	6223      	str	r3, [r4, #32]
 8000740:	f000 fe26 	bl	8001390 <HAL_I2C_Init>
 8000744:	1e01      	subs	r1, r0, #0
 8000746:	d001      	beq.n	800074c <MX_I2C1_Init+0x2c>
 8000748:	b672      	cpsid	i
 800074a:	e7fe      	b.n	800074a <MX_I2C1_Init+0x2a>
 800074c:	0020      	movs	r0, r4
 800074e:	f001 f84f 	bl	80017f0 <HAL_I2CEx_ConfigAnalogFilter>
 8000752:	1e01      	subs	r1, r0, #0
 8000754:	d001      	beq.n	800075a <MX_I2C1_Init+0x3a>
 8000756:	b672      	cpsid	i
 8000758:	e7fe      	b.n	8000758 <MX_I2C1_Init+0x38>
 800075a:	0020      	movs	r0, r4
 800075c:	f001 f86e 	bl	800183c <HAL_I2CEx_ConfigDigitalFilter>
 8000760:	2800      	cmp	r0, #0
 8000762:	d001      	beq.n	8000768 <MX_I2C1_Init+0x48>
 8000764:	b672      	cpsid	i
 8000766:	e7fe      	b.n	8000766 <MX_I2C1_Init+0x46>
 8000768:	bd10      	pop	{r4, pc}
 800076a:	46c0      	nop			; (mov r8, r8)
 800076c:	40005400 	.word	0x40005400
 8000770:	200000b4 	.word	0x200000b4
 8000774:	00303d5b 	.word	0x00303d5b

08000778 <main>:
 8000778:	b5f0      	push	{r4, r5, r6, r7, lr}
 800077a:	b08d      	sub	sp, #52	; 0x34
 800077c:	f000 fb2e 	bl	8000ddc <HAL_Init>
 8000780:	f7ff ffa0 	bl	80006c4 <SystemClock_Config>
 8000784:	2214      	movs	r2, #20
 8000786:	2100      	movs	r1, #0
 8000788:	a807      	add	r0, sp, #28
 800078a:	f002 fa21 	bl	8002bd0 <memset>
 800078e:	2004      	movs	r0, #4
 8000790:	2420      	movs	r4, #32
 8000792:	2501      	movs	r5, #1
 8000794:	4b62      	ldr	r3, [pc, #392]	; (8000920 <main+0x1a8>)
 8000796:	2602      	movs	r6, #2
 8000798:	6b59      	ldr	r1, [r3, #52]	; 0x34
 800079a:	4301      	orrs	r1, r0
 800079c:	6359      	str	r1, [r3, #52]	; 0x34
 800079e:	6b5a      	ldr	r2, [r3, #52]	; 0x34
 80007a0:	0021      	movs	r1, r4
 80007a2:	4002      	ands	r2, r0
 80007a4:	20a0      	movs	r0, #160	; 0xa0
 80007a6:	9200      	str	r2, [sp, #0]
 80007a8:	9a00      	ldr	r2, [sp, #0]
 80007aa:	6b5a      	ldr	r2, [r3, #52]	; 0x34
 80007ac:	05c0      	lsls	r0, r0, #23
 80007ae:	4322      	orrs	r2, r4
 80007b0:	635a      	str	r2, [r3, #52]	; 0x34
 80007b2:	6b5a      	ldr	r2, [r3, #52]	; 0x34
 80007b4:	4022      	ands	r2, r4
 80007b6:	9201      	str	r2, [sp, #4]
 80007b8:	9a01      	ldr	r2, [sp, #4]
 80007ba:	6b5a      	ldr	r2, [r3, #52]	; 0x34
 80007bc:	432a      	orrs	r2, r5
 80007be:	635a      	str	r2, [r3, #52]	; 0x34
 80007c0:	6b5a      	ldr	r2, [r3, #52]	; 0x34
 80007c2:	402a      	ands	r2, r5
 80007c4:	9202      	str	r2, [sp, #8]
 80007c6:	9a02      	ldr	r2, [sp, #8]
 80007c8:	6b5a      	ldr	r2, [r3, #52]	; 0x34
 80007ca:	4332      	orrs	r2, r6
 80007cc:	635a      	str	r2, [r3, #52]	; 0x34
 80007ce:	6b5b      	ldr	r3, [r3, #52]	; 0x34
 80007d0:	2200      	movs	r2, #0
 80007d2:	4033      	ands	r3, r6
 80007d4:	9303      	str	r3, [sp, #12]
 80007d6:	9b03      	ldr	r3, [sp, #12]
 80007d8:	f000 fcb2 	bl	8001140 <HAL_GPIO_WritePin>
 80007dc:	20a0      	movs	r0, #160	; 0xa0
 80007de:	9508      	str	r5, [sp, #32]
 80007e0:	2500      	movs	r5, #0
 80007e2:	a907      	add	r1, sp, #28
 80007e4:	05c0      	lsls	r0, r0, #23
 80007e6:	9407      	str	r4, [sp, #28]
 80007e8:	960a      	str	r6, [sp, #40]	; 0x28
 80007ea:	9509      	str	r5, [sp, #36]	; 0x24
 80007ec:	f000 fb72 	bl	8000ed4 <HAL_GPIO_Init>
 80007f0:	4c4c      	ldr	r4, [pc, #304]	; (8000924 <main+0x1ac>)
 80007f2:	4b4d      	ldr	r3, [pc, #308]	; (8000928 <main+0x1b0>)
 80007f4:	0020      	movs	r0, r4
 80007f6:	6023      	str	r3, [r4, #0]
 80007f8:	23e1      	movs	r3, #225	; 0xe1
 80007fa:	360a      	adds	r6, #10
 80007fc:	025b      	lsls	r3, r3, #9
 80007fe:	6063      	str	r3, [r4, #4]
 8000800:	60a5      	str	r5, [r4, #8]
 8000802:	60e5      	str	r5, [r4, #12]
 8000804:	6125      	str	r5, [r4, #16]
 8000806:	6166      	str	r6, [r4, #20]
 8000808:	61a5      	str	r5, [r4, #24]
 800080a:	61e5      	str	r5, [r4, #28]
 800080c:	6225      	str	r5, [r4, #32]
 800080e:	6265      	str	r5, [r4, #36]	; 0x24
 8000810:	62a5      	str	r5, [r4, #40]	; 0x28
 8000812:	f002 f8f7 	bl	8002a04 <HAL_UART_Init>
 8000816:	0001      	movs	r1, r0
 8000818:	42a8      	cmp	r0, r5
 800081a:	d001      	beq.n	8000820 <main+0xa8>
 800081c:	b672      	cpsid	i
 800081e:	e7fe      	b.n	800081e <main+0xa6>
 8000820:	0020      	movs	r0, r4
 8000822:	f002 f967 	bl	8002af4 <HAL_UARTEx_SetTxFifoThreshold>
 8000826:	1e01      	subs	r1, r0, #0
 8000828:	d001      	beq.n	800082e <main+0xb6>
 800082a:	b672      	cpsid	i
 800082c:	e7fe      	b.n	800082c <main+0xb4>
 800082e:	0020      	movs	r0, r4
 8000830:	f002 f984 	bl	8002b3c <HAL_UARTEx_SetRxFifoThreshold>
 8000834:	2800      	cmp	r0, #0
 8000836:	d001      	beq.n	800083c <main+0xc4>
 8000838:	b672      	cpsid	i
 800083a:	e7fe      	b.n	800083a <main+0xc2>
 800083c:	0020      	movs	r0, r4
 800083e:	f002 f93b 	bl	8002ab8 <HAL_UARTEx_DisableFifoMode>
 8000842:	1e05      	subs	r5, r0, #0
 8000844:	d001      	beq.n	800084a <main+0xd2>
 8000846:	b672      	cpsid	i
 8000848:	e7fe      	b.n	8000848 <main+0xd0>
 800084a:	f7ff ff69 	bl	8000720 <MX_I2C1_Init>
 800084e:	2210      	movs	r2, #16
 8000850:	0029      	movs	r1, r5
 8000852:	a807      	add	r0, sp, #28
 8000854:	f002 f9bc 	bl	8002bd0 <memset>
 8000858:	0032      	movs	r2, r6
 800085a:	0029      	movs	r1, r5
 800085c:	a804      	add	r0, sp, #16
 800085e:	f002 f9b7 	bl	8002bd0 <memset>
 8000862:	2380      	movs	r3, #128	; 0x80
 8000864:	4c31      	ldr	r4, [pc, #196]	; (800092c <main+0x1b4>)
 8000866:	05db      	lsls	r3, r3, #23
 8000868:	6023      	str	r3, [r4, #0]
 800086a:	2301      	movs	r3, #1
 800086c:	0020      	movs	r0, r4
 800086e:	425b      	negs	r3, r3
 8000870:	6065      	str	r5, [r4, #4]
 8000872:	60a5      	str	r5, [r4, #8]
 8000874:	60e3      	str	r3, [r4, #12]
 8000876:	6125      	str	r5, [r4, #16]
 8000878:	61a5      	str	r5, [r4, #24]
 800087a:	f001 fd37 	bl	80022ec <HAL_TIM_Base_Init>
 800087e:	2800      	cmp	r0, #0
 8000880:	d001      	beq.n	8000886 <main+0x10e>
 8000882:	b672      	cpsid	i
 8000884:	e7fe      	b.n	8000884 <main+0x10c>
 8000886:	2780      	movs	r7, #128	; 0x80
 8000888:	0020      	movs	r0, r4
 800088a:	017f      	lsls	r7, r7, #5
 800088c:	a907      	add	r1, sp, #28
 800088e:	9707      	str	r7, [sp, #28]
 8000890:	f001 fd62 	bl	8002358 <HAL_TIM_ConfigClockSource>
 8000894:	2800      	cmp	r0, #0
 8000896:	d001      	beq.n	800089c <main+0x124>
 8000898:	b672      	cpsid	i
 800089a:	e7fe      	b.n	800089a <main+0x122>
 800089c:	9004      	str	r0, [sp, #16]
 800089e:	9006      	str	r0, [sp, #24]
 80008a0:	a904      	add	r1, sp, #16
 80008a2:	0020      	movs	r0, r4
 80008a4:	f001 fdfc 	bl	80024a0 <HAL_TIMEx_MasterConfigSynchronization>
 80008a8:	1e05      	subs	r5, r0, #0
 80008aa:	d001      	beq.n	80008b0 <main+0x138>
 80008ac:	b672      	cpsid	i
 80008ae:	e7fe      	b.n	80008ae <main+0x136>
 80008b0:	0001      	movs	r1, r0
 80008b2:	2210      	movs	r2, #16
 80008b4:	a807      	add	r0, sp, #28
 80008b6:	f002 f98b 	bl	8002bd0 <memset>
 80008ba:	0032      	movs	r2, r6
 80008bc:	0029      	movs	r1, r5
 80008be:	a804      	add	r0, sp, #16
 80008c0:	f002 f986 	bl	8002bd0 <memset>
 80008c4:	4e1a      	ldr	r6, [pc, #104]	; (8000930 <main+0x1b8>)
 80008c6:	4b1b      	ldr	r3, [pc, #108]	; (8000934 <main+0x1bc>)
 80008c8:	0030      	movs	r0, r6
 80008ca:	6033      	str	r3, [r6, #0]
 80008cc:	4b1a      	ldr	r3, [pc, #104]	; (8000938 <main+0x1c0>)
 80008ce:	6075      	str	r5, [r6, #4]
 80008d0:	60b5      	str	r5, [r6, #8]
 80008d2:	60f3      	str	r3, [r6, #12]
 80008d4:	6135      	str	r5, [r6, #16]
 80008d6:	61b5      	str	r5, [r6, #24]
 80008d8:	f001 fd08 	bl	80022ec <HAL_TIM_Base_Init>
 80008dc:	2800      	cmp	r0, #0
 80008de:	d001      	beq.n	80008e4 <main+0x16c>
 80008e0:	b672      	cpsid	i
 80008e2:	e7fe      	b.n	80008e2 <main+0x16a>
 80008e4:	0030      	movs	r0, r6
 80008e6:	a907      	add	r1, sp, #28
 80008e8:	9707      	str	r7, [sp, #28]
 80008ea:	f001 fd35 	bl	8002358 <HAL_TIM_ConfigClockSource>
 80008ee:	2800      	cmp	r0, #0
 80008f0:	d001      	beq.n	80008f6 <main+0x17e>
 80008f2:	b672      	cpsid	i
 80008f4:	e7fe      	b.n	80008f4 <main+0x17c>
 80008f6:	9004      	str	r0, [sp, #16]
 80008f8:	9006      	str	r0, [sp, #24]
 80008fa:	a904      	add	r1, sp, #16
 80008fc:	0030      	movs	r0, r6
 80008fe:	f001 fdcf 	bl	80024a0 <HAL_TIMEx_MasterConfigSynchronization>
 8000902:	2800      	cmp	r0, #0
 8000904:	d001      	beq.n	800090a <main+0x192>
 8000906:	b672      	cpsid	i
 8000908:	e7fe      	b.n	8000908 <main+0x190>
 800090a:	2302      	movs	r3, #2
 800090c:	6822      	ldr	r2, [r4, #0]
 800090e:	425b      	negs	r3, r3
 8000910:	6113      	str	r3, [r2, #16]
 8000912:	6832      	ldr	r2, [r6, #0]
 8000914:	6113      	str	r3, [r2, #16]
 8000916:	f7ff fe95 	bl	8000644 <setup>
 800091a:	f7ff febf 	bl	800069c <mainLoop>
 800091e:	e7fc      	b.n	800091a <main+0x1a2>
 8000920:	40021000 	.word	0x40021000
 8000924:	200001a0 	.word	0x200001a0
 8000928:	40004400 	.word	0x40004400
 800092c:	20000108 	.word	0x20000108
 8000930:	20000154 	.word	0x20000154
 8000934:	40000400 	.word	0x40000400
 8000938:	0000ffff 	.word	0x0000ffff

0800093c <Error_Handler>:
 800093c:	b672      	cpsid	i
 800093e:	e7fe      	b.n	800093e <Error_Handler+0x2>

08000940 <HAL_MspInit>:
 8000940:	2001      	movs	r0, #1
 8000942:	4b0a      	ldr	r3, [pc, #40]	; (800096c <HAL_MspInit+0x2c>)
 8000944:	b082      	sub	sp, #8
 8000946:	6c19      	ldr	r1, [r3, #64]	; 0x40
 8000948:	4301      	orrs	r1, r0
 800094a:	6419      	str	r1, [r3, #64]	; 0x40
 800094c:	2180      	movs	r1, #128	; 0x80
 800094e:	6c1a      	ldr	r2, [r3, #64]	; 0x40
 8000950:	0549      	lsls	r1, r1, #21
 8000952:	4002      	ands	r2, r0
 8000954:	9200      	str	r2, [sp, #0]
 8000956:	9a00      	ldr	r2, [sp, #0]
 8000958:	6bda      	ldr	r2, [r3, #60]	; 0x3c
 800095a:	430a      	orrs	r2, r1
 800095c:	63da      	str	r2, [r3, #60]	; 0x3c
 800095e:	6bdb      	ldr	r3, [r3, #60]	; 0x3c
 8000960:	400b      	ands	r3, r1
 8000962:	9301      	str	r3, [sp, #4]
 8000964:	9b01      	ldr	r3, [sp, #4]
 8000966:	b002      	add	sp, #8
 8000968:	4770      	bx	lr
 800096a:	46c0      	nop			; (mov r8, r8)
 800096c:	40021000 	.word	0x40021000

08000970 <HAL_I2C_MspInit>:
 8000970:	b510      	push	{r4, lr}
 8000972:	0004      	movs	r4, r0
 8000974:	b09a      	sub	sp, #104	; 0x68
 8000976:	2214      	movs	r2, #20
 8000978:	2100      	movs	r1, #0
 800097a:	a802      	add	r0, sp, #8
 800097c:	f002 f928 	bl	8002bd0 <memset>
 8000980:	224c      	movs	r2, #76	; 0x4c
 8000982:	2100      	movs	r1, #0
 8000984:	a807      	add	r0, sp, #28
 8000986:	f002 f923 	bl	8002bd0 <memset>
 800098a:	4b17      	ldr	r3, [pc, #92]	; (80009e8 <HAL_I2C_MspInit+0x78>)
 800098c:	6822      	ldr	r2, [r4, #0]
 800098e:	429a      	cmp	r2, r3
 8000990:	d128      	bne.n	80009e4 <HAL_I2C_MspInit+0x74>
 8000992:	2320      	movs	r3, #32
 8000994:	a807      	add	r0, sp, #28
 8000996:	9307      	str	r3, [sp, #28]
 8000998:	f001 fafe 	bl	8001f98 <HAL_RCCEx_PeriphCLKConfig>
 800099c:	2800      	cmp	r0, #0
 800099e:	d001      	beq.n	80009a4 <HAL_I2C_MspInit+0x34>
 80009a0:	f7ff ffcc 	bl	800093c <Error_Handler>
 80009a4:	2102      	movs	r1, #2
 80009a6:	4c11      	ldr	r4, [pc, #68]	; (80009ec <HAL_I2C_MspInit+0x7c>)
 80009a8:	4811      	ldr	r0, [pc, #68]	; (80009f0 <HAL_I2C_MspInit+0x80>)
 80009aa:	6b62      	ldr	r2, [r4, #52]	; 0x34
 80009ac:	430a      	orrs	r2, r1
 80009ae:	6362      	str	r2, [r4, #52]	; 0x34
 80009b0:	6b63      	ldr	r3, [r4, #52]	; 0x34
 80009b2:	400b      	ands	r3, r1
 80009b4:	9300      	str	r3, [sp, #0]
 80009b6:	9b00      	ldr	r3, [sp, #0]
 80009b8:	23c0      	movs	r3, #192	; 0xc0
 80009ba:	009b      	lsls	r3, r3, #2
 80009bc:	9302      	str	r3, [sp, #8]
 80009be:	2312      	movs	r3, #18
 80009c0:	9303      	str	r3, [sp, #12]
 80009c2:	2300      	movs	r3, #0
 80009c4:	a902      	add	r1, sp, #8
 80009c6:	9304      	str	r3, [sp, #16]
 80009c8:	9305      	str	r3, [sp, #20]
 80009ca:	3306      	adds	r3, #6
 80009cc:	9306      	str	r3, [sp, #24]
 80009ce:	f000 fa81 	bl	8000ed4 <HAL_GPIO_Init>
 80009d2:	2180      	movs	r1, #128	; 0x80
 80009d4:	6be2      	ldr	r2, [r4, #60]	; 0x3c
 80009d6:	0389      	lsls	r1, r1, #14
 80009d8:	430a      	orrs	r2, r1
 80009da:	63e2      	str	r2, [r4, #60]	; 0x3c
 80009dc:	6be3      	ldr	r3, [r4, #60]	; 0x3c
 80009de:	400b      	ands	r3, r1
 80009e0:	9301      	str	r3, [sp, #4]
 80009e2:	9b01      	ldr	r3, [sp, #4]
 80009e4:	b01a      	add	sp, #104	; 0x68
 80009e6:	bd10      	pop	{r4, pc}
 80009e8:	40005400 	.word	0x40005400
 80009ec:	40021000 	.word	0x40021000
 80009f0:	50000400 	.word	0x50000400

080009f4 <HAL_I2C_MspDeInit>:
 80009f4:	4b0a      	ldr	r3, [pc, #40]	; (8000a20 <HAL_I2C_MspDeInit+0x2c>)
 80009f6:	6802      	ldr	r2, [r0, #0]
 80009f8:	b510      	push	{r4, lr}
 80009fa:	429a      	cmp	r2, r3
 80009fc:	d10e      	bne.n	8000a1c <HAL_I2C_MspDeInit+0x28>
 80009fe:	4a09      	ldr	r2, [pc, #36]	; (8000a24 <HAL_I2C_MspDeInit+0x30>)
 8000a00:	4909      	ldr	r1, [pc, #36]	; (8000a28 <HAL_I2C_MspDeInit+0x34>)
 8000a02:	6bd3      	ldr	r3, [r2, #60]	; 0x3c
 8000a04:	4809      	ldr	r0, [pc, #36]	; (8000a2c <HAL_I2C_MspDeInit+0x38>)
 8000a06:	400b      	ands	r3, r1
 8000a08:	2180      	movs	r1, #128	; 0x80
 8000a0a:	63d3      	str	r3, [r2, #60]	; 0x3c
 8000a0c:	0049      	lsls	r1, r1, #1
 8000a0e:	f000 fb19 	bl	8001044 <HAL_GPIO_DeInit>
 8000a12:	2180      	movs	r1, #128	; 0x80
 8000a14:	4805      	ldr	r0, [pc, #20]	; (8000a2c <HAL_I2C_MspDeInit+0x38>)
 8000a16:	0089      	lsls	r1, r1, #2
 8000a18:	f000 fb14 	bl	8001044 <HAL_GPIO_DeInit>
 8000a1c:	bd10      	pop	{r4, pc}
 8000a1e:	46c0      	nop			; (mov r8, r8)
 8000a20:	40005400 	.word	0x40005400
 8000a24:	40021000 	.word	0x40021000
 8000a28:	ffdfffff 	.word	0xffdfffff
 8000a2c:	50000400 	.word	0x50000400

08000a30 <HAL_TIM_Base_MspInit>:
 8000a30:	2280      	movs	r2, #128	; 0x80
 8000a32:	6803      	ldr	r3, [r0, #0]
 8000a34:	b082      	sub	sp, #8
 8000a36:	05d2      	lsls	r2, r2, #23
 8000a38:	4293      	cmp	r3, r2
 8000a3a:	d10a      	bne.n	8000a52 <HAL_TIM_Base_MspInit+0x22>
 8000a3c:	2001      	movs	r0, #1
 8000a3e:	4a0b      	ldr	r2, [pc, #44]	; (8000a6c <HAL_TIM_Base_MspInit+0x3c>)
 8000a40:	6bd1      	ldr	r1, [r2, #60]	; 0x3c
 8000a42:	4301      	orrs	r1, r0
 8000a44:	63d1      	str	r1, [r2, #60]	; 0x3c
 8000a46:	6bd3      	ldr	r3, [r2, #60]	; 0x3c
 8000a48:	4003      	ands	r3, r0
 8000a4a:	9300      	str	r3, [sp, #0]
 8000a4c:	9b00      	ldr	r3, [sp, #0]
 8000a4e:	b002      	add	sp, #8
 8000a50:	4770      	bx	lr
 8000a52:	4a07      	ldr	r2, [pc, #28]	; (8000a70 <HAL_TIM_Base_MspInit+0x40>)
 8000a54:	4293      	cmp	r3, r2
 8000a56:	d1fa      	bne.n	8000a4e <HAL_TIM_Base_MspInit+0x1e>
 8000a58:	2002      	movs	r0, #2
 8000a5a:	4a04      	ldr	r2, [pc, #16]	; (8000a6c <HAL_TIM_Base_MspInit+0x3c>)
 8000a5c:	6bd1      	ldr	r1, [r2, #60]	; 0x3c
 8000a5e:	4301      	orrs	r1, r0
 8000a60:	63d1      	str	r1, [r2, #60]	; 0x3c
 8000a62:	6bd3      	ldr	r3, [r2, #60]	; 0x3c
 8000a64:	4003      	ands	r3, r0
 8000a66:	9301      	str	r3, [sp, #4]
 8000a68:	9b01      	ldr	r3, [sp, #4]
 8000a6a:	e7f0      	b.n	8000a4e <HAL_TIM_Base_MspInit+0x1e>
 8000a6c:	40021000 	.word	0x40021000
 8000a70:	40000400 	.word	0x40000400

08000a74 <HAL_UART_MspInit>:
 8000a74:	b510      	push	{r4, lr}
 8000a76:	0004      	movs	r4, r0
 8000a78:	b09a      	sub	sp, #104	; 0x68
 8000a7a:	2214      	movs	r2, #20
 8000a7c:	2100      	movs	r1, #0
 8000a7e:	a802      	add	r0, sp, #8
 8000a80:	f002 f8a6 	bl	8002bd0 <memset>
 8000a84:	224c      	movs	r2, #76	; 0x4c
 8000a86:	2100      	movs	r1, #0
 8000a88:	a807      	add	r0, sp, #28
 8000a8a:	f002 f8a1 	bl	8002bd0 <memset>
 8000a8e:	4b17      	ldr	r3, [pc, #92]	; (8000aec <HAL_UART_MspInit+0x78>)
 8000a90:	6822      	ldr	r2, [r4, #0]
 8000a92:	429a      	cmp	r2, r3
 8000a94:	d127      	bne.n	8000ae6 <HAL_UART_MspInit+0x72>
 8000a96:	2302      	movs	r3, #2
 8000a98:	a807      	add	r0, sp, #28
 8000a9a:	9307      	str	r3, [sp, #28]
 8000a9c:	f001 fa7c 	bl	8001f98 <HAL_RCCEx_PeriphCLKConfig>
 8000aa0:	2800      	cmp	r0, #0
 8000aa2:	d001      	beq.n	8000aa8 <HAL_UART_MspInit+0x34>
 8000aa4:	f7ff ff4a 	bl	800093c <Error_Handler>
 8000aa8:	2080      	movs	r0, #128	; 0x80
 8000aaa:	4b11      	ldr	r3, [pc, #68]	; (8000af0 <HAL_UART_MspInit+0x7c>)
 8000aac:	0280      	lsls	r0, r0, #10
 8000aae:	6bd9      	ldr	r1, [r3, #60]	; 0x3c
 8000ab0:	4301      	orrs	r1, r0
 8000ab2:	63d9      	str	r1, [r3, #60]	; 0x3c
 8000ab4:	6bda      	ldr	r2, [r3, #60]	; 0x3c
 8000ab6:	4002      	ands	r2, r0
 8000ab8:	9200      	str	r2, [sp, #0]
 8000aba:	9a00      	ldr	r2, [sp, #0]
 8000abc:	2201      	movs	r2, #1
 8000abe:	6b59      	ldr	r1, [r3, #52]	; 0x34
 8000ac0:	20a0      	movs	r0, #160	; 0xa0
 8000ac2:	4311      	orrs	r1, r2
 8000ac4:	6359      	str	r1, [r3, #52]	; 0x34
 8000ac6:	6b5b      	ldr	r3, [r3, #52]	; 0x34
 8000ac8:	a902      	add	r1, sp, #8
 8000aca:	4013      	ands	r3, r2
 8000acc:	9301      	str	r3, [sp, #4]
 8000ace:	9b01      	ldr	r3, [sp, #4]
 8000ad0:	230c      	movs	r3, #12
 8000ad2:	9302      	str	r3, [sp, #8]
 8000ad4:	3b0a      	subs	r3, #10
 8000ad6:	9303      	str	r3, [sp, #12]
 8000ad8:	2300      	movs	r3, #0
 8000ada:	05c0      	lsls	r0, r0, #23
 8000adc:	9304      	str	r3, [sp, #16]
 8000ade:	9305      	str	r3, [sp, #20]
 8000ae0:	9206      	str	r2, [sp, #24]
 8000ae2:	f000 f9f7 	bl	8000ed4 <HAL_GPIO_Init>
 8000ae6:	b01a      	add	sp, #104	; 0x68
 8000ae8:	bd10      	pop	{r4, pc}
 8000aea:	46c0      	nop			; (mov r8, r8)
 8000aec:	40004400 	.word	0x40004400
 8000af0:	40021000 	.word	0x40021000

08000af4 <NMI_Handler>:
 8000af4:	e7fe      	b.n	8000af4 <NMI_Handler>

08000af6 <HardFault_Handler>:
 8000af6:	e7fe      	b.n	8000af6 <HardFault_Handler>

08000af8 <SVC_Handler>:
 8000af8:	4770      	bx	lr

08000afa <PendSV_Handler>:
 8000afa:	4770      	bx	lr

08000afc <SysTick_Handler>:
 8000afc:	b510      	push	{r4, lr}
 8000afe:	f000 f981 	bl	8000e04 <HAL_IncTick>
 8000b02:	bd10      	pop	{r4, pc}

08000b04 <SystemInit>:
 8000b04:	4770      	bx	lr
	...

08000b08 <Reset_Handler>:
 8000b08:	480d      	ldr	r0, [pc, #52]	; (8000b40 <LoopForever+0x2>)
 8000b0a:	4685      	mov	sp, r0
 8000b0c:	f7ff fffa 	bl	8000b04 <SystemInit>
 8000b10:	480c      	ldr	r0, [pc, #48]	; (8000b44 <LoopForever+0x6>)
 8000b12:	490d      	ldr	r1, [pc, #52]	; (8000b48 <LoopForever+0xa>)
 8000b14:	4a0d      	ldr	r2, [pc, #52]	; (8000b4c <LoopForever+0xe>)
 8000b16:	2300      	movs	r3, #0
 8000b18:	e002      	b.n	8000b20 <LoopCopyDataInit>

08000b1a <CopyDataInit>:
 8000b1a:	58d4      	ldr	r4, [r2, r3]
 8000b1c:	50c4      	str	r4, [r0, r3]
 8000b1e:	3304      	adds	r3, #4

08000b20 <LoopCopyDataInit>:
 8000b20:	18c4      	adds	r4, r0, r3
 8000b22:	428c      	cmp	r4, r1
 8000b24:	d3f9      	bcc.n	8000b1a <CopyDataInit>
 8000b26:	4a0a      	ldr	r2, [pc, #40]	; (8000b50 <LoopForever+0x12>)
 8000b28:	4c0a      	ldr	r4, [pc, #40]	; (8000b54 <LoopForever+0x16>)
 8000b2a:	2300      	movs	r3, #0
 8000b2c:	e001      	b.n	8000b32 <LoopFillZerobss>

08000b2e <FillZerobss>:
 8000b2e:	6013      	str	r3, [r2, #0]
 8000b30:	3204      	adds	r2, #4

08000b32 <LoopFillZerobss>:
 8000b32:	42a2      	cmp	r2, r4
 8000b34:	d3fb      	bcc.n	8000b2e <FillZerobss>
 8000b36:	f002 f827 	bl	8002b88 <__libc_init_array>
 8000b3a:	f7ff fe1d 	bl	8000778 <main>

08000b3e <LoopForever>:
 8000b3e:	e7fe      	b.n	8000b3e <LoopForever>
 8000b40:	20024000 	.word	0x20024000
 8000b44:	20000000 	.word	0x20000000
 8000b48:	2000000c 	.word	0x2000000c
 8000b4c:	08002ca0 	.word	0x08002ca0
 8000b50:	2000000c 	.word	0x2000000c
 8000b54:	20000268 	.word	0x20000268

08000b58 <ADC1_COMP_IRQHandler>:
 8000b58:	e7fe      	b.n	8000b58 <ADC1_COMP_IRQHandler>
	...

08000b5c <LED1202_RegisterBusIO>:
 8000b5c:	b510      	push	{r4, lr}
 8000b5e:	2800      	cmp	r0, #0
 8000b60:	d017      	beq.n	8000b92 <LED1202_RegisterBusIO+0x36>
 8000b62:	680b      	ldr	r3, [r1, #0]
 8000b64:	6003      	str	r3, [r0, #0]
 8000b66:	790b      	ldrb	r3, [r1, #4]
 8000b68:	7103      	strb	r3, [r0, #4]
 8000b6a:	68ca      	ldr	r2, [r1, #12]
 8000b6c:	688b      	ldr	r3, [r1, #8]
 8000b6e:	60c2      	str	r2, [r0, #12]
 8000b70:	690a      	ldr	r2, [r1, #16]
 8000b72:	6083      	str	r3, [r0, #8]
 8000b74:	6102      	str	r2, [r0, #16]
 8000b76:	694a      	ldr	r2, [r1, #20]
 8000b78:	6142      	str	r2, [r0, #20]
 8000b7a:	698a      	ldr	r2, [r1, #24]
 8000b7c:	6240      	str	r0, [r0, #36]	; 0x24
 8000b7e:	6182      	str	r2, [r0, #24]
 8000b80:	4a05      	ldr	r2, [pc, #20]	; (8000b98 <LED1202_RegisterBusIO+0x3c>)
 8000b82:	6202      	str	r2, [r0, #32]
 8000b84:	4a05      	ldr	r2, [pc, #20]	; (8000b9c <LED1202_RegisterBusIO+0x40>)
 8000b86:	61c2      	str	r2, [r0, #28]
 8000b88:	2b00      	cmp	r3, #0
 8000b8a:	d002      	beq.n	8000b92 <LED1202_RegisterBusIO+0x36>
 8000b8c:	4798      	blx	r3
 8000b8e:	2800      	cmp	r0, #0
 8000b90:	d000      	beq.n	8000b94 <LED1202_RegisterBusIO+0x38>
 8000b92:	2003      	movs	r0, #3
 8000b94:	bd10      	pop	{r4, pc}
 8000b96:	46c0      	nop			; (mov r8, r8)
 8000b98:	08000cdd 	.word	0x08000cdd
 8000b9c:	08000ce9 	.word	0x08000ce9

08000ba0 <LED1202_ReadID>:
 8000ba0:	0052      	lsls	r2, r2, #1
 8000ba2:	b510      	push	{r4, lr}
 8000ba4:	2301      	movs	r3, #1
 8000ba6:	7102      	strb	r2, [r0, #4]
 8000ba8:	000c      	movs	r4, r1
 8000baa:	000a      	movs	r2, r1
 8000bac:	301c      	adds	r0, #28
 8000bae:	2100      	movs	r1, #0
 8000bb0:	f000 f82a 	bl	8000c08 <LED1202_ReadReg>
 8000bb4:	4b03      	ldr	r3, [pc, #12]	; (8000bc4 <LED1202_ReadID+0x24>)
 8000bb6:	6018      	str	r0, [r3, #0]
 8000bb8:	7823      	ldrb	r3, [r4, #0]
 8000bba:	2000      	movs	r0, #0
 8000bbc:	2b12      	cmp	r3, #18
 8000bbe:	d000      	beq.n	8000bc2 <LED1202_ReadID+0x22>
 8000bc0:	3003      	adds	r0, #3
 8000bc2:	bd10      	pop	{r4, pc}
 8000bc4:	20000234 	.word	0x20000234

08000bc8 <LED1202_SetChannelState>:
 8000bc8:	005b      	lsls	r3, r3, #1
 8000bca:	b573      	push	{r0, r1, r4, r5, r6, lr}
 8000bcc:	7103      	strb	r3, [r0, #4]
 8000bce:	2302      	movs	r3, #2
 8000bd0:	301c      	adds	r0, #28
 8000bd2:	000e      	movs	r6, r1
 8000bd4:	0015      	movs	r5, r2
 8000bd6:	0019      	movs	r1, r3
 8000bd8:	466a      	mov	r2, sp
 8000bda:	0004      	movs	r4, r0
 8000bdc:	f000 f814 	bl	8000c08 <LED1202_ReadReg>
 8000be0:	466b      	mov	r3, sp
 8000be2:	9001      	str	r0, [sp, #4]
 8000be4:	8819      	ldrh	r1, [r3, #0]
 8000be6:	2d00      	cmp	r5, #0
 8000be8:	d10b      	bne.n	8000c02 <LED1202_SetChannelState+0x3a>
 8000bea:	4331      	orrs	r1, r6
 8000bec:	8059      	strh	r1, [r3, #2]
 8000bee:	466a      	mov	r2, sp
 8000bf0:	2302      	movs	r3, #2
 8000bf2:	0020      	movs	r0, r4
 8000bf4:	0019      	movs	r1, r3
 8000bf6:	18d2      	adds	r2, r2, r3
 8000bf8:	f000 f80c 	bl	8000c14 <LED1202_WriteReg>
 8000bfc:	9001      	str	r0, [sp, #4]
 8000bfe:	9801      	ldr	r0, [sp, #4]
 8000c00:	bd76      	pop	{r1, r2, r4, r5, r6, pc}
 8000c02:	466b      	mov	r3, sp
 8000c04:	43b1      	bics	r1, r6
 8000c06:	e7f1      	b.n	8000bec <LED1202_SetChannelState+0x24>

08000c08 <LED1202_ReadReg>:
 8000c08:	b510      	push	{r4, lr}
 8000c0a:	b2c9      	uxtb	r1, r1
 8000c0c:	6844      	ldr	r4, [r0, #4]
 8000c0e:	6880      	ldr	r0, [r0, #8]
 8000c10:	47a0      	blx	r4
 8000c12:	bd10      	pop	{r4, pc}

08000c14 <LED1202_WriteReg>:
 8000c14:	b510      	push	{r4, lr}
 8000c16:	b2c9      	uxtb	r1, r1
 8000c18:	6804      	ldr	r4, [r0, #0]
 8000c1a:	6880      	ldr	r0, [r0, #8]
 8000c1c:	47a0      	blx	r4
 8000c1e:	bd10      	pop	{r4, pc}

08000c20 <BSP_I2C_Init>:
 8000c20:	b510      	push	{r4, lr}
 8000c22:	f7ff fd7d 	bl	8000720 <MX_I2C1_Init>
 8000c26:	2000      	movs	r0, #0
 8000c28:	bd10      	pop	{r4, pc}
	...

08000c2c <BSP_I2C_DeInit>:
 8000c2c:	b510      	push	{r4, lr}
 8000c2e:	4802      	ldr	r0, [pc, #8]	; (8000c38 <BSP_I2C_DeInit+0xc>)
 8000c30:	f000 fc04 	bl	800143c <HAL_I2C_DeInit>
 8000c34:	bd10      	pop	{r4, pc}
 8000c36:	46c0      	nop			; (mov r8, r8)
 8000c38:	200000b4 	.word	0x200000b4

08000c3c <BSP_I2C_Write>:
 8000c3c:	b51f      	push	{r0, r1, r2, r3, r4, lr}
 8000c3e:	000c      	movs	r4, r1
 8000c40:	b2c1      	uxtb	r1, r0
 8000c42:	20fa      	movs	r0, #250	; 0xfa
 8000c44:	0080      	lsls	r0, r0, #2
 8000c46:	9002      	str	r0, [sp, #8]
 8000c48:	9301      	str	r3, [sp, #4]
 8000c4a:	9200      	str	r2, [sp, #0]
 8000c4c:	2301      	movs	r3, #1
 8000c4e:	0022      	movs	r2, r4
 8000c50:	4804      	ldr	r0, [pc, #16]	; (8000c64 <BSP_I2C_Write+0x28>)
 8000c52:	f000 fc0d 	bl	8001470 <HAL_I2C_Mem_Write>
 8000c56:	2800      	cmp	r0, #0
 8000c58:	d001      	beq.n	8000c5e <BSP_I2C_Write+0x22>
 8000c5a:	2008      	movs	r0, #8
 8000c5c:	4240      	negs	r0, r0
 8000c5e:	b004      	add	sp, #16
 8000c60:	bd10      	pop	{r4, pc}
 8000c62:	46c0      	nop			; (mov r8, r8)
 8000c64:	200000b4 	.word	0x200000b4

08000c68 <BSP_I2C_Read>:
 8000c68:	b51f      	push	{r0, r1, r2, r3, r4, lr}
 8000c6a:	24fa      	movs	r4, #250	; 0xfa
 8000c6c:	00a4      	lsls	r4, r4, #2
 8000c6e:	9301      	str	r3, [sp, #4]
 8000c70:	9200      	str	r2, [sp, #0]
 8000c72:	2301      	movs	r3, #1
 8000c74:	000a      	movs	r2, r1
 8000c76:	9402      	str	r4, [sp, #8]
 8000c78:	0001      	movs	r1, r0
 8000c7a:	4804      	ldr	r0, [pc, #16]	; (8000c8c <BSP_I2C_Read+0x24>)
 8000c7c:	f000 fcd6 	bl	800162c <HAL_I2C_Mem_Read>
 8000c80:	2800      	cmp	r0, #0
 8000c82:	d001      	beq.n	8000c88 <BSP_I2C_Read+0x20>
 8000c84:	2008      	movs	r0, #8
 8000c86:	4240      	negs	r0, r0
 8000c88:	b004      	add	sp, #16
 8000c8a:	bd10      	pop	{r4, pc}
 8000c8c:	200000b4 	.word	0x200000b4

08000c90 <LED12A1_Init>:
 8000c90:	2300      	movs	r3, #0
 8000c92:	b500      	push	{lr}
 8000c94:	b089      	sub	sp, #36	; 0x24
 8000c96:	a901      	add	r1, sp, #4
 8000c98:	9300      	str	r3, [sp, #0]
 8000c9a:	9301      	str	r3, [sp, #4]
 8000c9c:	335c      	adds	r3, #92	; 0x5c
 8000c9e:	710b      	strb	r3, [r1, #4]
 8000ca0:	4b08      	ldr	r3, [pc, #32]	; (8000cc4 <LED12A1_Init+0x34>)
 8000ca2:	4809      	ldr	r0, [pc, #36]	; (8000cc8 <LED12A1_Init+0x38>)
 8000ca4:	608b      	str	r3, [r1, #8]
 8000ca6:	4b09      	ldr	r3, [pc, #36]	; (8000ccc <LED12A1_Init+0x3c>)
 8000ca8:	60cb      	str	r3, [r1, #12]
 8000caa:	4b09      	ldr	r3, [pc, #36]	; (8000cd0 <LED12A1_Init+0x40>)
 8000cac:	610b      	str	r3, [r1, #16]
 8000cae:	4b09      	ldr	r3, [pc, #36]	; (8000cd4 <LED12A1_Init+0x44>)
 8000cb0:	614b      	str	r3, [r1, #20]
 8000cb2:	4b09      	ldr	r3, [pc, #36]	; (8000cd8 <LED12A1_Init+0x48>)
 8000cb4:	618b      	str	r3, [r1, #24]
 8000cb6:	f7ff ff51 	bl	8000b5c <LED1202_RegisterBusIO>
 8000cba:	9000      	str	r0, [sp, #0]
 8000cbc:	9800      	ldr	r0, [sp, #0]
 8000cbe:	b009      	add	sp, #36	; 0x24
 8000cc0:	bd00      	pop	{pc}
 8000cc2:	46c0      	nop			; (mov r8, r8)
 8000cc4:	08000c21 	.word	0x08000c21
 8000cc8:	20000238 	.word	0x20000238
 8000ccc:	08000c2d 	.word	0x08000c2d
 8000cd0:	08000c3d 	.word	0x08000c3d
 8000cd4:	08000c69 	.word	0x08000c69
 8000cd8:	08000e29 	.word	0x08000e29

08000cdc <ReadRegWrap>:
 8000cdc:	b510      	push	{r4, lr}
 8000cde:	0004      	movs	r4, r0
 8000ce0:	6964      	ldr	r4, [r4, #20]
 8000ce2:	7900      	ldrb	r0, [r0, #4]
 8000ce4:	47a0      	blx	r4
 8000ce6:	bd10      	pop	{r4, pc}

08000ce8 <WriteRegWrap>:
 8000ce8:	b510      	push	{r4, lr}
 8000cea:	0004      	movs	r4, r0
 8000cec:	6924      	ldr	r4, [r4, #16]
 8000cee:	7900      	ldrb	r0, [r0, #4]
 8000cf0:	47a0      	blx	r4
 8000cf2:	bd10      	pop	{r4, pc}

08000cf4 <LED12A1_DeviceEnable>:
 8000cf4:	2300      	movs	r3, #0
 8000cf6:	b507      	push	{r0, r1, r2, lr}
 8000cf8:	9301      	str	r3, [sp, #4]
 8000cfa:	466b      	mov	r3, sp
 8000cfc:	1cda      	adds	r2, r3, #3
 8000cfe:	2301      	movs	r3, #1
 8000d00:	7013      	strb	r3, [r2, #0]
 8000d02:	335b      	adds	r3, #91	; 0x5b
 8000d04:	2904      	cmp	r1, #4
 8000d06:	d801      	bhi.n	8000d0c <LED12A1_DeviceEnable+0x18>
 8000d08:	3158      	adds	r1, #88	; 0x58
 8000d0a:	b2cb      	uxtb	r3, r1
 8000d0c:	005b      	lsls	r3, r3, #1
 8000d0e:	7103      	strb	r3, [r0, #4]
 8000d10:	2301      	movs	r3, #1
 8000d12:	0019      	movs	r1, r3
 8000d14:	301c      	adds	r0, #28
 8000d16:	f7ff ff7d 	bl	8000c14 <LED1202_WriteReg>
 8000d1a:	9001      	str	r0, [sp, #4]
 8000d1c:	9801      	ldr	r0, [sp, #4]
 8000d1e:	bd0e      	pop	{r1, r2, r3, pc}

08000d20 <LED12A1_SetDeviceAddr>:
 8000d20:	2300      	movs	r3, #0
 8000d22:	b082      	sub	sp, #8
 8000d24:	9301      	str	r3, [sp, #4]
 8000d26:	335c      	adds	r3, #92	; 0x5c
 8000d28:	2904      	cmp	r1, #4
 8000d2a:	d801      	bhi.n	8000d30 <LED12A1_SetDeviceAddr+0x10>
 8000d2c:	3158      	adds	r1, #88	; 0x58
 8000d2e:	b2cb      	uxtb	r3, r1
 8000d30:	7103      	strb	r3, [r0, #4]
 8000d32:	9801      	ldr	r0, [sp, #4]
 8000d34:	b002      	add	sp, #8
 8000d36:	4770      	bx	lr

08000d38 <LED12A1_ScanAvailDevice>:
 8000d38:	b5f7      	push	{r0, r1, r2, r4, r5, r6, r7, lr}
 8000d3a:	0007      	movs	r7, r0
 8000d3c:	000d      	movs	r5, r1
 8000d3e:	2600      	movs	r6, #0
 8000d40:	2458      	movs	r4, #88	; 0x58
 8000d42:	466b      	mov	r3, sp
 8000d44:	1dd9      	adds	r1, r3, #7
 8000d46:	2300      	movs	r3, #0
 8000d48:	0022      	movs	r2, r4
 8000d4a:	0038      	movs	r0, r7
 8000d4c:	700b      	strb	r3, [r1, #0]
 8000d4e:	f7ff ff27 	bl	8000ba0 <LED1202_ReadID>
 8000d52:	2800      	cmp	r0, #0
 8000d54:	d102      	bne.n	8000d5c <LED12A1_ScanAvailDevice+0x24>
 8000d56:	702c      	strb	r4, [r5, #0]
 8000d58:	3601      	adds	r6, #1
 8000d5a:	3501      	adds	r5, #1
 8000d5c:	3401      	adds	r4, #1
 8000d5e:	b2e4      	uxtb	r4, r4
 8000d60:	2c61      	cmp	r4, #97	; 0x61
 8000d62:	d1ee      	bne.n	8000d42 <LED12A1_ScanAvailDevice+0xa>
 8000d64:	0030      	movs	r0, r6
 8000d66:	bdfe      	pop	{r1, r2, r3, r4, r5, r6, r7, pc}

08000d68 <LED12A1_ChannelDisable>:
 8000d68:	2300      	movs	r3, #0
 8000d6a:	b537      	push	{r0, r1, r2, r4, r5, lr}
 8000d6c:	000d      	movs	r5, r1
 8000d6e:	0011      	movs	r1, r2
 8000d70:	0004      	movs	r4, r0
 8000d72:	9301      	str	r3, [sp, #4]
 8000d74:	f7ff ffd4 	bl	8000d20 <LED12A1_SetDeviceAddr>
 8000d78:	0029      	movs	r1, r5
 8000d7a:	9001      	str	r0, [sp, #4]
 8000d7c:	2201      	movs	r2, #1
 8000d7e:	0020      	movs	r0, r4
 8000d80:	7923      	ldrb	r3, [r4, #4]
 8000d82:	f7ff ff21 	bl	8000bc8 <LED1202_SetChannelState>
 8000d86:	9001      	str	r0, [sp, #4]
 8000d88:	9801      	ldr	r0, [sp, #4]
 8000d8a:	bd3e      	pop	{r1, r2, r3, r4, r5, pc}

08000d8c <HAL_InitTick>:
 8000d8c:	b570      	push	{r4, r5, r6, lr}
 8000d8e:	4b10      	ldr	r3, [pc, #64]	; (8000dd0 <HAL_InitTick+0x44>)
 8000d90:	0005      	movs	r5, r0
 8000d92:	7819      	ldrb	r1, [r3, #0]
 8000d94:	2900      	cmp	r1, #0
 8000d96:	d101      	bne.n	8000d9c <HAL_InitTick+0x10>
 8000d98:	2001      	movs	r0, #1
 8000d9a:	bd70      	pop	{r4, r5, r6, pc}
 8000d9c:	20fa      	movs	r0, #250	; 0xfa
 8000d9e:	0080      	lsls	r0, r0, #2
 8000da0:	f7ff f9c4 	bl	800012c <__udivsi3>
 8000da4:	4b0b      	ldr	r3, [pc, #44]	; (8000dd4 <HAL_InitTick+0x48>)
 8000da6:	0001      	movs	r1, r0
 8000da8:	6818      	ldr	r0, [r3, #0]
 8000daa:	f7ff f9bf 	bl	800012c <__udivsi3>
 8000dae:	f000 f877 	bl	8000ea0 <HAL_SYSTICK_Config>
 8000db2:	1e04      	subs	r4, r0, #0
 8000db4:	d1f0      	bne.n	8000d98 <HAL_InitTick+0xc>
 8000db6:	2d03      	cmp	r5, #3
 8000db8:	d8ee      	bhi.n	8000d98 <HAL_InitTick+0xc>
 8000dba:	0002      	movs	r2, r0
 8000dbc:	2001      	movs	r0, #1
 8000dbe:	0029      	movs	r1, r5
 8000dc0:	4240      	negs	r0, r0
 8000dc2:	f000 f843 	bl	8000e4c <HAL_NVIC_SetPriority>
 8000dc6:	4b04      	ldr	r3, [pc, #16]	; (8000dd8 <HAL_InitTick+0x4c>)
 8000dc8:	0020      	movs	r0, r4
 8000dca:	601d      	str	r5, [r3, #0]
 8000dcc:	e7e5      	b.n	8000d9a <HAL_InitTick+0xe>
 8000dce:	46c0      	nop			; (mov r8, r8)
 8000dd0:	20000004 	.word	0x20000004
 8000dd4:	20000000 	.word	0x20000000
 8000dd8:	20000008 	.word	0x20000008

08000ddc <HAL_Init>:
 8000ddc:	2380      	movs	r3, #128	; 0x80
 8000dde:	4a08      	ldr	r2, [pc, #32]	; (8000e00 <HAL_Init+0x24>)
 8000de0:	005b      	lsls	r3, r3, #1
 8000de2:	6811      	ldr	r1, [r2, #0]
 8000de4:	b510      	push	{r4, lr}
 8000de6:	430b      	orrs	r3, r1
 8000de8:	2000      	movs	r0, #0
 8000dea:	6013      	str	r3, [r2, #0]
 8000dec:	f7ff ffce 	bl	8000d8c <HAL_InitTick>
 8000df0:	1e04      	subs	r4, r0, #0
 8000df2:	d103      	bne.n	8000dfc <HAL_Init+0x20>
 8000df4:	f7ff fda4 	bl	8000940 <HAL_MspInit>
 8000df8:	0020      	movs	r0, r4
 8000dfa:	bd10      	pop	{r4, pc}
 8000dfc:	2401      	movs	r4, #1
 8000dfe:	e7fb      	b.n	8000df8 <HAL_Init+0x1c>
 8000e00:	40022000 	.word	0x40022000

08000e04 <HAL_IncTick>:
 8000e04:	4a03      	ldr	r2, [pc, #12]	; (8000e14 <HAL_IncTick+0x10>)
 8000e06:	4b04      	ldr	r3, [pc, #16]	; (8000e18 <HAL_IncTick+0x14>)
 8000e08:	6811      	ldr	r1, [r2, #0]
 8000e0a:	781b      	ldrb	r3, [r3, #0]
 8000e0c:	185b      	adds	r3, r3, r1
 8000e0e:	6013      	str	r3, [r2, #0]
 8000e10:	4770      	bx	lr
 8000e12:	46c0      	nop			; (mov r8, r8)
 8000e14:	20000264 	.word	0x20000264
 8000e18:	20000004 	.word	0x20000004

08000e1c <HAL_GetTick>:
 8000e1c:	4b01      	ldr	r3, [pc, #4]	; (8000e24 <HAL_GetTick+0x8>)
 8000e1e:	6818      	ldr	r0, [r3, #0]
 8000e20:	4770      	bx	lr
 8000e22:	46c0      	nop			; (mov r8, r8)
 8000e24:	20000264 	.word	0x20000264

08000e28 <HAL_Delay>:
 8000e28:	b570      	push	{r4, r5, r6, lr}
 8000e2a:	0004      	movs	r4, r0
 8000e2c:	f7ff fff6 	bl	8000e1c <HAL_GetTick>
 8000e30:	0005      	movs	r5, r0
 8000e32:	1c63      	adds	r3, r4, #1
 8000e34:	d002      	beq.n	8000e3c <HAL_Delay+0x14>
 8000e36:	4b04      	ldr	r3, [pc, #16]	; (8000e48 <HAL_Delay+0x20>)
 8000e38:	781b      	ldrb	r3, [r3, #0]
 8000e3a:	18e4      	adds	r4, r4, r3
 8000e3c:	f7ff ffee 	bl	8000e1c <HAL_GetTick>
 8000e40:	1b40      	subs	r0, r0, r5
 8000e42:	42a0      	cmp	r0, r4
 8000e44:	d3fa      	bcc.n	8000e3c <HAL_Delay+0x14>
 8000e46:	bd70      	pop	{r4, r5, r6, pc}
 8000e48:	20000004 	.word	0x20000004

08000e4c <HAL_NVIC_SetPriority>:
 8000e4c:	b530      	push	{r4, r5, lr}
 8000e4e:	25ff      	movs	r5, #255	; 0xff
 8000e50:	2403      	movs	r4, #3
 8000e52:	002a      	movs	r2, r5
 8000e54:	4004      	ands	r4, r0
 8000e56:	00e4      	lsls	r4, r4, #3
 8000e58:	40a2      	lsls	r2, r4
 8000e5a:	0189      	lsls	r1, r1, #6
 8000e5c:	4029      	ands	r1, r5
 8000e5e:	43d2      	mvns	r2, r2
 8000e60:	40a1      	lsls	r1, r4
 8000e62:	b2c3      	uxtb	r3, r0
 8000e64:	2800      	cmp	r0, #0
 8000e66:	db0a      	blt.n	8000e7e <HAL_NVIC_SetPriority+0x32>
 8000e68:	24c0      	movs	r4, #192	; 0xc0
 8000e6a:	4b0b      	ldr	r3, [pc, #44]	; (8000e98 <HAL_NVIC_SetPriority+0x4c>)
 8000e6c:	0880      	lsrs	r0, r0, #2
 8000e6e:	0080      	lsls	r0, r0, #2
 8000e70:	18c0      	adds	r0, r0, r3
 8000e72:	00a4      	lsls	r4, r4, #2
 8000e74:	5903      	ldr	r3, [r0, r4]
 8000e76:	401a      	ands	r2, r3
 8000e78:	4311      	orrs	r1, r2
 8000e7a:	5101      	str	r1, [r0, r4]
 8000e7c:	bd30      	pop	{r4, r5, pc}
 8000e7e:	200f      	movs	r0, #15
 8000e80:	4003      	ands	r3, r0
 8000e82:	3b08      	subs	r3, #8
 8000e84:	4805      	ldr	r0, [pc, #20]	; (8000e9c <HAL_NVIC_SetPriority+0x50>)
 8000e86:	089b      	lsrs	r3, r3, #2
 8000e88:	009b      	lsls	r3, r3, #2
 8000e8a:	181b      	adds	r3, r3, r0
 8000e8c:	69d8      	ldr	r0, [r3, #28]
 8000e8e:	4002      	ands	r2, r0
 8000e90:	4311      	orrs	r1, r2
 8000e92:	61d9      	str	r1, [r3, #28]
 8000e94:	e7f2      	b.n	8000e7c <HAL_NVIC_SetPriority+0x30>
 8000e96:	46c0      	nop			; (mov r8, r8)
 8000e98:	e000e100 	.word	0xe000e100
 8000e9c:	e000ed00 	.word	0xe000ed00

08000ea0 <HAL_SYSTICK_Config>:
 8000ea0:	2280      	movs	r2, #128	; 0x80
 8000ea2:	1e43      	subs	r3, r0, #1
 8000ea4:	0452      	lsls	r2, r2, #17
 8000ea6:	2001      	movs	r0, #1
 8000ea8:	4293      	cmp	r3, r2
 8000eaa:	d20d      	bcs.n	8000ec8 <HAL_SYSTICK_Config+0x28>
 8000eac:	21c0      	movs	r1, #192	; 0xc0
 8000eae:	4a07      	ldr	r2, [pc, #28]	; (8000ecc <HAL_SYSTICK_Config+0x2c>)
 8000eb0:	4807      	ldr	r0, [pc, #28]	; (8000ed0 <HAL_SYSTICK_Config+0x30>)
 8000eb2:	6053      	str	r3, [r2, #4]
 8000eb4:	6a03      	ldr	r3, [r0, #32]
 8000eb6:	0609      	lsls	r1, r1, #24
 8000eb8:	021b      	lsls	r3, r3, #8
 8000eba:	0a1b      	lsrs	r3, r3, #8
 8000ebc:	430b      	orrs	r3, r1
 8000ebe:	6203      	str	r3, [r0, #32]
 8000ec0:	2000      	movs	r0, #0
 8000ec2:	2307      	movs	r3, #7
 8000ec4:	6090      	str	r0, [r2, #8]
 8000ec6:	6013      	str	r3, [r2, #0]
 8000ec8:	4770      	bx	lr
 8000eca:	46c0      	nop			; (mov r8, r8)
 8000ecc:	e000e010 	.word	0xe000e010
 8000ed0:	e000ed00 	.word	0xe000ed00

08000ed4 <HAL_GPIO_Init>:
 8000ed4:	4a54      	ldr	r2, [pc, #336]	; (8001028 <HAL_GPIO_Init+0x154>)
 8000ed6:	b5f0      	push	{r4, r5, r6, r7, lr}
 8000ed8:	1882      	adds	r2, r0, r2
 8000eda:	1e54      	subs	r4, r2, #1
 8000edc:	41a2      	sbcs	r2, r4
 8000ede:	2300      	movs	r3, #0
 8000ee0:	b087      	sub	sp, #28
 8000ee2:	3204      	adds	r2, #4
 8000ee4:	9205      	str	r2, [sp, #20]
 8000ee6:	680a      	ldr	r2, [r1, #0]
 8000ee8:	0014      	movs	r4, r2
 8000eea:	40dc      	lsrs	r4, r3
 8000eec:	d101      	bne.n	8000ef2 <HAL_GPIO_Init+0x1e>
 8000eee:	b007      	add	sp, #28
 8000ef0:	bdf0      	pop	{r4, r5, r6, r7, pc}
 8000ef2:	2401      	movs	r4, #1
 8000ef4:	0025      	movs	r5, r4
 8000ef6:	46a4      	mov	ip, r4
 8000ef8:	409d      	lsls	r5, r3
 8000efa:	0014      	movs	r4, r2
 8000efc:	402c      	ands	r4, r5
 8000efe:	9402      	str	r4, [sp, #8]
 8000f00:	422a      	tst	r2, r5
 8000f02:	d100      	bne.n	8000f06 <HAL_GPIO_Init+0x32>
 8000f04:	e08e      	b.n	8001024 <HAL_GPIO_Init+0x150>
 8000f06:	2403      	movs	r4, #3
 8000f08:	684a      	ldr	r2, [r1, #4]
 8000f0a:	005e      	lsls	r6, r3, #1
 8000f0c:	9201      	str	r2, [sp, #4]
 8000f0e:	4022      	ands	r2, r4
 8000f10:	40b4      	lsls	r4, r6
 8000f12:	43e4      	mvns	r4, r4
 8000f14:	9403      	str	r4, [sp, #12]
 8000f16:	1e54      	subs	r4, r2, #1
 8000f18:	4564      	cmp	r4, ip
 8000f1a:	d82a      	bhi.n	8000f72 <HAL_GPIO_Init+0x9e>
 8000f1c:	6887      	ldr	r7, [r0, #8]
 8000f1e:	9c03      	ldr	r4, [sp, #12]
 8000f20:	4027      	ands	r7, r4
 8000f22:	68cc      	ldr	r4, [r1, #12]
 8000f24:	40b4      	lsls	r4, r6
 8000f26:	433c      	orrs	r4, r7
 8000f28:	4667      	mov	r7, ip
 8000f2a:	6084      	str	r4, [r0, #8]
 8000f2c:	6844      	ldr	r4, [r0, #4]
 8000f2e:	43ac      	bics	r4, r5
 8000f30:	0025      	movs	r5, r4
 8000f32:	9c01      	ldr	r4, [sp, #4]
 8000f34:	0924      	lsrs	r4, r4, #4
 8000f36:	403c      	ands	r4, r7
 8000f38:	409c      	lsls	r4, r3
 8000f3a:	432c      	orrs	r4, r5
 8000f3c:	6044      	str	r4, [r0, #4]
 8000f3e:	68c5      	ldr	r5, [r0, #12]
 8000f40:	9c03      	ldr	r4, [sp, #12]
 8000f42:	4025      	ands	r5, r4
 8000f44:	688c      	ldr	r4, [r1, #8]
 8000f46:	40b4      	lsls	r4, r6
 8000f48:	432c      	orrs	r4, r5
 8000f4a:	60c4      	str	r4, [r0, #12]
 8000f4c:	2a02      	cmp	r2, #2
 8000f4e:	d112      	bne.n	8000f76 <HAL_GPIO_Init+0xa2>
 8000f50:	08dc      	lsrs	r4, r3, #3
 8000f52:	2507      	movs	r5, #7
 8000f54:	00a4      	lsls	r4, r4, #2
 8000f56:	1904      	adds	r4, r0, r4
 8000f58:	6a27      	ldr	r7, [r4, #32]
 8000f5a:	9404      	str	r4, [sp, #16]
 8000f5c:	240f      	movs	r4, #15
 8000f5e:	401d      	ands	r5, r3
 8000f60:	00ad      	lsls	r5, r5, #2
 8000f62:	40ac      	lsls	r4, r5
 8000f64:	43a7      	bics	r7, r4
 8000f66:	690c      	ldr	r4, [r1, #16]
 8000f68:	40ac      	lsls	r4, r5
 8000f6a:	4327      	orrs	r7, r4
 8000f6c:	9c04      	ldr	r4, [sp, #16]
 8000f6e:	6227      	str	r7, [r4, #32]
 8000f70:	e001      	b.n	8000f76 <HAL_GPIO_Init+0xa2>
 8000f72:	2a03      	cmp	r2, #3
 8000f74:	d1e3      	bne.n	8000f3e <HAL_GPIO_Init+0x6a>
 8000f76:	40b2      	lsls	r2, r6
 8000f78:	6804      	ldr	r4, [r0, #0]
 8000f7a:	9d03      	ldr	r5, [sp, #12]
 8000f7c:	4025      	ands	r5, r4
 8000f7e:	432a      	orrs	r2, r5
 8000f80:	6002      	str	r2, [r0, #0]
 8000f82:	22c0      	movs	r2, #192	; 0xc0
 8000f84:	9c01      	ldr	r4, [sp, #4]
 8000f86:	0292      	lsls	r2, r2, #10
 8000f88:	4214      	tst	r4, r2
 8000f8a:	d04b      	beq.n	8001024 <HAL_GPIO_Init+0x150>
 8000f8c:	2603      	movs	r6, #3
 8000f8e:	001d      	movs	r5, r3
 8000f90:	4a26      	ldr	r2, [pc, #152]	; (800102c <HAL_GPIO_Init+0x158>)
 8000f92:	089c      	lsrs	r4, r3, #2
 8000f94:	00a4      	lsls	r4, r4, #2
 8000f96:	4035      	ands	r5, r6
 8000f98:	18a4      	adds	r4, r4, r2
 8000f9a:	40b5      	lsls	r5, r6
 8000f9c:	220f      	movs	r2, #15
 8000f9e:	40aa      	lsls	r2, r5
 8000fa0:	6e27      	ldr	r7, [r4, #96]	; 0x60
 8000fa2:	4397      	bics	r7, r2
 8000fa4:	46bc      	mov	ip, r7
 8000fa6:	27a0      	movs	r7, #160	; 0xa0
 8000fa8:	2200      	movs	r2, #0
 8000faa:	05ff      	lsls	r7, r7, #23
 8000fac:	42b8      	cmp	r0, r7
 8000fae:	d00c      	beq.n	8000fca <HAL_GPIO_Init+0xf6>
 8000fb0:	4f1f      	ldr	r7, [pc, #124]	; (8001030 <HAL_GPIO_Init+0x15c>)
 8000fb2:	3201      	adds	r2, #1
 8000fb4:	42b8      	cmp	r0, r7
 8000fb6:	d008      	beq.n	8000fca <HAL_GPIO_Init+0xf6>
 8000fb8:	4f1e      	ldr	r7, [pc, #120]	; (8001034 <HAL_GPIO_Init+0x160>)
 8000fba:	3201      	adds	r2, #1
 8000fbc:	42b8      	cmp	r0, r7
 8000fbe:	d004      	beq.n	8000fca <HAL_GPIO_Init+0xf6>
 8000fc0:	4f1d      	ldr	r7, [pc, #116]	; (8001038 <HAL_GPIO_Init+0x164>)
 8000fc2:	0032      	movs	r2, r6
 8000fc4:	42b8      	cmp	r0, r7
 8000fc6:	d000      	beq.n	8000fca <HAL_GPIO_Init+0xf6>
 8000fc8:	9a05      	ldr	r2, [sp, #20]
 8000fca:	40aa      	lsls	r2, r5
 8000fcc:	4665      	mov	r5, ip
 8000fce:	432a      	orrs	r2, r5
 8000fd0:	6622      	str	r2, [r4, #96]	; 0x60
 8000fd2:	4c16      	ldr	r4, [pc, #88]	; (800102c <HAL_GPIO_Init+0x158>)
 8000fd4:	9a02      	ldr	r2, [sp, #8]
 8000fd6:	6826      	ldr	r6, [r4, #0]
 8000fd8:	9d02      	ldr	r5, [sp, #8]
 8000fda:	9f01      	ldr	r7, [sp, #4]
 8000fdc:	43d2      	mvns	r2, r2
 8000fde:	4335      	orrs	r5, r6
 8000fe0:	02ff      	lsls	r7, r7, #11
 8000fe2:	d401      	bmi.n	8000fe8 <HAL_GPIO_Init+0x114>
 8000fe4:	0035      	movs	r5, r6
 8000fe6:	4015      	ands	r5, r2
 8000fe8:	6025      	str	r5, [r4, #0]
 8000fea:	6866      	ldr	r6, [r4, #4]
 8000fec:	9d02      	ldr	r5, [sp, #8]
 8000fee:	9f01      	ldr	r7, [sp, #4]
 8000ff0:	4335      	orrs	r5, r6
 8000ff2:	02bf      	lsls	r7, r7, #10
 8000ff4:	d401      	bmi.n	8000ffa <HAL_GPIO_Init+0x126>
 8000ff6:	0035      	movs	r5, r6
 8000ff8:	4015      	ands	r5, r2
 8000ffa:	6065      	str	r5, [r4, #4]
 8000ffc:	4c0f      	ldr	r4, [pc, #60]	; (800103c <HAL_GPIO_Init+0x168>)
 8000ffe:	9d02      	ldr	r5, [sp, #8]
 8001000:	6fe6      	ldr	r6, [r4, #124]	; 0x7c
 8001002:	9f01      	ldr	r7, [sp, #4]
 8001004:	4335      	orrs	r5, r6
 8001006:	03bf      	lsls	r7, r7, #14
 8001008:	d401      	bmi.n	800100e <HAL_GPIO_Init+0x13a>
 800100a:	0035      	movs	r5, r6
 800100c:	4015      	ands	r5, r2
 800100e:	67e5      	str	r5, [r4, #124]	; 0x7c
 8001010:	4c0b      	ldr	r4, [pc, #44]	; (8001040 <HAL_GPIO_Init+0x16c>)
 8001012:	9e02      	ldr	r6, [sp, #8]
 8001014:	6fe5      	ldr	r5, [r4, #124]	; 0x7c
 8001016:	9f01      	ldr	r7, [sp, #4]
 8001018:	432e      	orrs	r6, r5
 800101a:	03ff      	lsls	r7, r7, #15
 800101c:	d401      	bmi.n	8001022 <HAL_GPIO_Init+0x14e>
 800101e:	4015      	ands	r5, r2
 8001020:	002e      	movs	r6, r5
 8001022:	67e6      	str	r6, [r4, #124]	; 0x7c
 8001024:	3301      	adds	r3, #1
 8001026:	e75e      	b.n	8000ee6 <HAL_GPIO_Init+0x12>
 8001028:	affff000 	.word	0xaffff000
 800102c:	40021800 	.word	0x40021800
 8001030:	50000400 	.word	0x50000400
 8001034:	50000800 	.word	0x50000800
 8001038:	50000c00 	.word	0x50000c00
 800103c:	40021808 	.word	0x40021808
 8001040:	40021804 	.word	0x40021804

08001044 <HAL_GPIO_DeInit>:
 8001044:	b5f0      	push	{r4, r5, r6, r7, lr}
 8001046:	4a37      	ldr	r2, [pc, #220]	; (8001124 <HAL_GPIO_DeInit+0xe0>)
 8001048:	b085      	sub	sp, #20
 800104a:	1882      	adds	r2, r0, r2
 800104c:	9101      	str	r1, [sp, #4]
 800104e:	1e51      	subs	r1, r2, #1
 8001050:	418a      	sbcs	r2, r1
 8001052:	2300      	movs	r3, #0
 8001054:	3204      	adds	r2, #4
 8001056:	9203      	str	r2, [sp, #12]
 8001058:	9a01      	ldr	r2, [sp, #4]
 800105a:	40da      	lsrs	r2, r3
 800105c:	d101      	bne.n	8001062 <HAL_GPIO_DeInit+0x1e>
 800105e:	b005      	add	sp, #20
 8001060:	bdf0      	pop	{r4, r5, r6, r7, pc}
 8001062:	2701      	movs	r7, #1
 8001064:	003a      	movs	r2, r7
 8001066:	409a      	lsls	r2, r3
 8001068:	9c01      	ldr	r4, [sp, #4]
 800106a:	9200      	str	r2, [sp, #0]
 800106c:	4014      	ands	r4, r2
 800106e:	9900      	ldr	r1, [sp, #0]
 8001070:	9a01      	ldr	r2, [sp, #4]
 8001072:	420a      	tst	r2, r1
 8001074:	d053      	beq.n	800111e <HAL_GPIO_DeInit+0xda>
 8001076:	492c      	ldr	r1, [pc, #176]	; (8001128 <HAL_GPIO_DeInit+0xe4>)
 8001078:	089a      	lsrs	r2, r3, #2
 800107a:	0092      	lsls	r2, r2, #2
 800107c:	1852      	adds	r2, r2, r1
 800107e:	6e11      	ldr	r1, [r2, #96]	; 0x60
 8001080:	001d      	movs	r5, r3
 8001082:	000e      	movs	r6, r1
 8001084:	2103      	movs	r1, #3
 8001086:	400d      	ands	r5, r1
 8001088:	408d      	lsls	r5, r1
 800108a:	310c      	adds	r1, #12
 800108c:	40a9      	lsls	r1, r5
 800108e:	9102      	str	r1, [sp, #8]
 8001090:	4031      	ands	r1, r6
 8001092:	000e      	movs	r6, r1
 8001094:	21a0      	movs	r1, #160	; 0xa0
 8001096:	05c9      	lsls	r1, r1, #23
 8001098:	468c      	mov	ip, r1
 800109a:	2100      	movs	r1, #0
 800109c:	4560      	cmp	r0, ip
 800109e:	d00d      	beq.n	80010bc <HAL_GPIO_DeInit+0x78>
 80010a0:	4922      	ldr	r1, [pc, #136]	; (800112c <HAL_GPIO_DeInit+0xe8>)
 80010a2:	468c      	mov	ip, r1
 80010a4:	0039      	movs	r1, r7
 80010a6:	4560      	cmp	r0, ip
 80010a8:	d008      	beq.n	80010bc <HAL_GPIO_DeInit+0x78>
 80010aa:	4f21      	ldr	r7, [pc, #132]	; (8001130 <HAL_GPIO_DeInit+0xec>)
 80010ac:	1849      	adds	r1, r1, r1
 80010ae:	42b8      	cmp	r0, r7
 80010b0:	d004      	beq.n	80010bc <HAL_GPIO_DeInit+0x78>
 80010b2:	4f20      	ldr	r7, [pc, #128]	; (8001134 <HAL_GPIO_DeInit+0xf0>)
 80010b4:	3101      	adds	r1, #1
 80010b6:	42b8      	cmp	r0, r7
 80010b8:	d000      	beq.n	80010bc <HAL_GPIO_DeInit+0x78>
 80010ba:	9903      	ldr	r1, [sp, #12]
 80010bc:	40a9      	lsls	r1, r5
 80010be:	42b1      	cmp	r1, r6
 80010c0:	d112      	bne.n	80010e8 <HAL_GPIO_DeInit+0xa4>
 80010c2:	4e1d      	ldr	r6, [pc, #116]	; (8001138 <HAL_GPIO_DeInit+0xf4>)
 80010c4:	4918      	ldr	r1, [pc, #96]	; (8001128 <HAL_GPIO_DeInit+0xe4>)
 80010c6:	6ff5      	ldr	r5, [r6, #124]	; 0x7c
 80010c8:	43a5      	bics	r5, r4
 80010ca:	67f5      	str	r5, [r6, #124]	; 0x7c
 80010cc:	4e1b      	ldr	r6, [pc, #108]	; (800113c <HAL_GPIO_DeInit+0xf8>)
 80010ce:	6ff5      	ldr	r5, [r6, #124]	; 0x7c
 80010d0:	43a5      	bics	r5, r4
 80010d2:	67f5      	str	r5, [r6, #124]	; 0x7c
 80010d4:	684d      	ldr	r5, [r1, #4]
 80010d6:	43a5      	bics	r5, r4
 80010d8:	604d      	str	r5, [r1, #4]
 80010da:	680d      	ldr	r5, [r1, #0]
 80010dc:	43a5      	bics	r5, r4
 80010de:	600d      	str	r5, [r1, #0]
 80010e0:	6e11      	ldr	r1, [r2, #96]	; 0x60
 80010e2:	9c02      	ldr	r4, [sp, #8]
 80010e4:	43a1      	bics	r1, r4
 80010e6:	6611      	str	r1, [r2, #96]	; 0x60
 80010e8:	2103      	movs	r1, #3
 80010ea:	005c      	lsls	r4, r3, #1
 80010ec:	40a1      	lsls	r1, r4
 80010ee:	2407      	movs	r4, #7
 80010f0:	260f      	movs	r6, #15
 80010f2:	401c      	ands	r4, r3
 80010f4:	00a4      	lsls	r4, r4, #2
 80010f6:	40a6      	lsls	r6, r4
 80010f8:	6802      	ldr	r2, [r0, #0]
 80010fa:	9c00      	ldr	r4, [sp, #0]
 80010fc:	430a      	orrs	r2, r1
 80010fe:	6002      	str	r2, [r0, #0]
 8001100:	08da      	lsrs	r2, r3, #3
 8001102:	0092      	lsls	r2, r2, #2
 8001104:	1882      	adds	r2, r0, r2
 8001106:	6a15      	ldr	r5, [r2, #32]
 8001108:	43b5      	bics	r5, r6
 800110a:	6215      	str	r5, [r2, #32]
 800110c:	6882      	ldr	r2, [r0, #8]
 800110e:	438a      	bics	r2, r1
 8001110:	6082      	str	r2, [r0, #8]
 8001112:	6842      	ldr	r2, [r0, #4]
 8001114:	43a2      	bics	r2, r4
 8001116:	6042      	str	r2, [r0, #4]
 8001118:	68c2      	ldr	r2, [r0, #12]
 800111a:	438a      	bics	r2, r1
 800111c:	60c2      	str	r2, [r0, #12]
 800111e:	3301      	adds	r3, #1
 8001120:	e79a      	b.n	8001058 <HAL_GPIO_DeInit+0x14>
 8001122:	46c0      	nop			; (mov r8, r8)
 8001124:	affff000 	.word	0xaffff000
 8001128:	40021800 	.word	0x40021800
 800112c:	50000400 	.word	0x50000400
 8001130:	50000800 	.word	0x50000800
 8001134:	50000c00 	.word	0x50000c00
 8001138:	40021804 	.word	0x40021804
 800113c:	40021808 	.word	0x40021808

08001140 <HAL_GPIO_WritePin>:
 8001140:	2a00      	cmp	r2, #0
 8001142:	d001      	beq.n	8001148 <HAL_GPIO_WritePin+0x8>
 8001144:	6181      	str	r1, [r0, #24]
 8001146:	4770      	bx	lr
 8001148:	6281      	str	r1, [r0, #40]	; 0x28
 800114a:	e7fc      	b.n	8001146 <HAL_GPIO_WritePin+0x6>

0800114c <I2C_Flush_TXDR>:
 800114c:	6803      	ldr	r3, [r0, #0]
 800114e:	699a      	ldr	r2, [r3, #24]
 8001150:	0792      	lsls	r2, r2, #30
 8001152:	d501      	bpl.n	8001158 <I2C_Flush_TXDR+0xc>
 8001154:	2200      	movs	r2, #0
 8001156:	629a      	str	r2, [r3, #40]	; 0x28
 8001158:	2201      	movs	r2, #1
 800115a:	6999      	ldr	r1, [r3, #24]
 800115c:	4211      	tst	r1, r2
 800115e:	d102      	bne.n	8001166 <I2C_Flush_TXDR+0x1a>
 8001160:	6999      	ldr	r1, [r3, #24]
 8001162:	430a      	orrs	r2, r1
 8001164:	619a      	str	r2, [r3, #24]
 8001166:	4770      	bx	lr

08001168 <I2C_TransferConfig>:
 8001168:	b530      	push	{r4, r5, lr}
 800116a:	9c03      	ldr	r4, [sp, #12]
 800116c:	6800      	ldr	r0, [r0, #0]
 800116e:	4323      	orrs	r3, r4
 8001170:	0412      	lsls	r2, r2, #16
 8001172:	0589      	lsls	r1, r1, #22
 8001174:	431a      	orrs	r2, r3
 8001176:	0d89      	lsrs	r1, r1, #22
 8001178:	4b05      	ldr	r3, [pc, #20]	; (8001190 <I2C_TransferConfig+0x28>)
 800117a:	6845      	ldr	r5, [r0, #4]
 800117c:	430a      	orrs	r2, r1
 800117e:	0d64      	lsrs	r4, r4, #21
 8001180:	431c      	orrs	r4, r3
 8001182:	0052      	lsls	r2, r2, #1
 8001184:	43a5      	bics	r5, r4
 8001186:	0852      	lsrs	r2, r2, #1
 8001188:	432a      	orrs	r2, r5
 800118a:	6042      	str	r2, [r0, #4]
 800118c:	bd30      	pop	{r4, r5, pc}
 800118e:	46c0      	nop			; (mov r8, r8)
 8001190:	03ff63ff 	.word	0x03ff63ff

08001194 <I2C_IsErrorOccurred>:
 8001194:	b5f7      	push	{r0, r1, r2, r4, r5, r6, r7, lr}
 8001196:	0015      	movs	r5, r2
 8001198:	6802      	ldr	r2, [r0, #0]
 800119a:	000e      	movs	r6, r1
 800119c:	6991      	ldr	r1, [r2, #24]
 800119e:	2310      	movs	r3, #16
 80011a0:	000f      	movs	r7, r1
 80011a2:	0004      	movs	r4, r0
 80011a4:	401f      	ands	r7, r3
 80011a6:	2000      	movs	r0, #0
 80011a8:	4219      	tst	r1, r3
 80011aa:	d00e      	beq.n	80011ca <I2C_IsErrorOccurred+0x36>
 80011ac:	2720      	movs	r7, #32
 80011ae:	61d3      	str	r3, [r2, #28]
 80011b0:	9000      	str	r0, [sp, #0]
 80011b2:	9001      	str	r0, [sp, #4]
 80011b4:	6823      	ldr	r3, [r4, #0]
 80011b6:	699a      	ldr	r2, [r3, #24]
 80011b8:	423a      	tst	r2, r7
 80011ba:	d164      	bne.n	8001286 <I2C_IsErrorOccurred+0xf2>
 80011bc:	9a01      	ldr	r2, [sp, #4]
 80011be:	2a00      	cmp	r2, #0
 80011c0:	d032      	beq.n	8001228 <I2C_IsErrorOccurred+0x94>
 80011c2:	2704      	movs	r7, #4
 80011c4:	2001      	movs	r0, #1
 80011c6:	9b00      	ldr	r3, [sp, #0]
 80011c8:	431f      	orrs	r7, r3
 80011ca:	2180      	movs	r1, #128	; 0x80
 80011cc:	6823      	ldr	r3, [r4, #0]
 80011ce:	0049      	lsls	r1, r1, #1
 80011d0:	699a      	ldr	r2, [r3, #24]
 80011d2:	420a      	tst	r2, r1
 80011d4:	d002      	beq.n	80011dc <I2C_IsErrorOccurred+0x48>
 80011d6:	2001      	movs	r0, #1
 80011d8:	61d9      	str	r1, [r3, #28]
 80011da:	4307      	orrs	r7, r0
 80011dc:	2180      	movs	r1, #128	; 0x80
 80011de:	00c9      	lsls	r1, r1, #3
 80011e0:	420a      	tst	r2, r1
 80011e2:	d003      	beq.n	80011ec <I2C_IsErrorOccurred+0x58>
 80011e4:	2008      	movs	r0, #8
 80011e6:	61d9      	str	r1, [r3, #28]
 80011e8:	4307      	orrs	r7, r0
 80011ea:	3807      	subs	r0, #7
 80011ec:	2180      	movs	r1, #128	; 0x80
 80011ee:	0089      	lsls	r1, r1, #2
 80011f0:	420a      	tst	r2, r1
 80011f2:	d04d      	beq.n	8001290 <I2C_IsErrorOccurred+0xfc>
 80011f4:	2202      	movs	r2, #2
 80011f6:	61d9      	str	r1, [r3, #28]
 80011f8:	4317      	orrs	r7, r2
 80011fa:	0020      	movs	r0, r4
 80011fc:	f7ff ffa6 	bl	800114c <I2C_Flush_TXDR>
 8001200:	6822      	ldr	r2, [r4, #0]
 8001202:	4925      	ldr	r1, [pc, #148]	; (8001298 <I2C_IsErrorOccurred+0x104>)
 8001204:	6853      	ldr	r3, [r2, #4]
 8001206:	400b      	ands	r3, r1
 8001208:	6053      	str	r3, [r2, #4]
 800120a:	0023      	movs	r3, r4
 800120c:	2220      	movs	r2, #32
 800120e:	6c60      	ldr	r0, [r4, #68]	; 0x44
 8001210:	3341      	adds	r3, #65	; 0x41
 8001212:	4307      	orrs	r7, r0
 8001214:	6467      	str	r7, [r4, #68]	; 0x44
 8001216:	701a      	strb	r2, [r3, #0]
 8001218:	0022      	movs	r2, r4
 800121a:	2300      	movs	r3, #0
 800121c:	3242      	adds	r2, #66	; 0x42
 800121e:	3440      	adds	r4, #64	; 0x40
 8001220:	7013      	strb	r3, [r2, #0]
 8001222:	2001      	movs	r0, #1
 8001224:	7023      	strb	r3, [r4, #0]
 8001226:	e035      	b.n	8001294 <I2C_IsErrorOccurred+0x100>
 8001228:	1c72      	adds	r2, r6, #1
 800122a:	d0c4      	beq.n	80011b6 <I2C_IsErrorOccurred+0x22>
 800122c:	f7ff fdf6 	bl	8000e1c <HAL_GetTick>
 8001230:	1b40      	subs	r0, r0, r5
 8001232:	42b0      	cmp	r0, r6
 8001234:	d801      	bhi.n	800123a <I2C_IsErrorOccurred+0xa6>
 8001236:	2e00      	cmp	r6, #0
 8001238:	d1bc      	bne.n	80011b4 <I2C_IsErrorOccurred+0x20>
 800123a:	0022      	movs	r2, r4
 800123c:	6823      	ldr	r3, [r4, #0]
 800123e:	3242      	adds	r2, #66	; 0x42
 8001240:	6858      	ldr	r0, [r3, #4]
 8001242:	7811      	ldrb	r1, [r2, #0]
 8001244:	b2ca      	uxtb	r2, r1
 8001246:	2180      	movs	r1, #128	; 0x80
 8001248:	4694      	mov	ip, r2
 800124a:	699a      	ldr	r2, [r3, #24]
 800124c:	0209      	lsls	r1, r1, #8
 800124e:	420a      	tst	r2, r1
 8001250:	d00c      	beq.n	800126c <I2C_IsErrorOccurred+0xd8>
 8001252:	2280      	movs	r2, #128	; 0x80
 8001254:	01d2      	lsls	r2, r2, #7
 8001256:	4210      	tst	r0, r2
 8001258:	d108      	bne.n	800126c <I2C_IsErrorOccurred+0xd8>
 800125a:	4661      	mov	r1, ip
 800125c:	2920      	cmp	r1, #32
 800125e:	d005      	beq.n	800126c <I2C_IsErrorOccurred+0xd8>
 8001260:	6859      	ldr	r1, [r3, #4]
 8001262:	430a      	orrs	r2, r1
 8001264:	605a      	str	r2, [r3, #4]
 8001266:	f7ff fdd9 	bl	8000e1c <HAL_GetTick>
 800126a:	0005      	movs	r5, r0
 800126c:	6823      	ldr	r3, [r4, #0]
 800126e:	699b      	ldr	r3, [r3, #24]
 8001270:	423b      	tst	r3, r7
 8001272:	d19f      	bne.n	80011b4 <I2C_IsErrorOccurred+0x20>
 8001274:	f7ff fdd2 	bl	8000e1c <HAL_GetTick>
 8001278:	1b40      	subs	r0, r0, r5
 800127a:	2819      	cmp	r0, #25
 800127c:	d9f6      	bls.n	800126c <I2C_IsErrorOccurred+0xd8>
 800127e:	2301      	movs	r3, #1
 8001280:	9700      	str	r7, [sp, #0]
 8001282:	9301      	str	r3, [sp, #4]
 8001284:	e796      	b.n	80011b4 <I2C_IsErrorOccurred+0x20>
 8001286:	9a01      	ldr	r2, [sp, #4]
 8001288:	2a00      	cmp	r2, #0
 800128a:	d19a      	bne.n	80011c2 <I2C_IsErrorOccurred+0x2e>
 800128c:	61df      	str	r7, [r3, #28]
 800128e:	e798      	b.n	80011c2 <I2C_IsErrorOccurred+0x2e>
 8001290:	2800      	cmp	r0, #0
 8001292:	d1b2      	bne.n	80011fa <I2C_IsErrorOccurred+0x66>
 8001294:	bdfe      	pop	{r1, r2, r3, r4, r5, r6, r7, pc}
 8001296:	46c0      	nop			; (mov r8, r8)
 8001298:	fe00e800 	.word	0xfe00e800

0800129c <I2C_WaitOnTXISFlagUntilTimeout>:
 800129c:	b5f8      	push	{r3, r4, r5, r6, r7, lr}
 800129e:	0004      	movs	r4, r0
 80012a0:	000d      	movs	r5, r1
 80012a2:	0016      	movs	r6, r2
 80012a4:	2702      	movs	r7, #2
 80012a6:	6823      	ldr	r3, [r4, #0]
 80012a8:	699b      	ldr	r3, [r3, #24]
 80012aa:	423b      	tst	r3, r7
 80012ac:	d001      	beq.n	80012b2 <I2C_WaitOnTXISFlagUntilTimeout+0x16>
 80012ae:	2000      	movs	r0, #0
 80012b0:	bdf8      	pop	{r3, r4, r5, r6, r7, pc}
 80012b2:	0032      	movs	r2, r6
 80012b4:	0029      	movs	r1, r5
 80012b6:	0020      	movs	r0, r4
 80012b8:	f7ff ff6c 	bl	8001194 <I2C_IsErrorOccurred>
 80012bc:	2800      	cmp	r0, #0
 80012be:	d115      	bne.n	80012ec <I2C_WaitOnTXISFlagUntilTimeout+0x50>
 80012c0:	1c6b      	adds	r3, r5, #1
 80012c2:	d0f0      	beq.n	80012a6 <I2C_WaitOnTXISFlagUntilTimeout+0xa>
 80012c4:	f7ff fdaa 	bl	8000e1c <HAL_GetTick>
 80012c8:	1b80      	subs	r0, r0, r6
 80012ca:	42a8      	cmp	r0, r5
 80012cc:	d801      	bhi.n	80012d2 <I2C_WaitOnTXISFlagUntilTimeout+0x36>
 80012ce:	2d00      	cmp	r5, #0
 80012d0:	d1e9      	bne.n	80012a6 <I2C_WaitOnTXISFlagUntilTimeout+0xa>
 80012d2:	2220      	movs	r2, #32
 80012d4:	6c63      	ldr	r3, [r4, #68]	; 0x44
 80012d6:	4313      	orrs	r3, r2
 80012d8:	6463      	str	r3, [r4, #68]	; 0x44
 80012da:	0023      	movs	r3, r4
 80012dc:	3341      	adds	r3, #65	; 0x41
 80012de:	701a      	strb	r2, [r3, #0]
 80012e0:	0022      	movs	r2, r4
 80012e2:	2300      	movs	r3, #0
 80012e4:	3242      	adds	r2, #66	; 0x42
 80012e6:	3440      	adds	r4, #64	; 0x40
 80012e8:	7013      	strb	r3, [r2, #0]
 80012ea:	7023      	strb	r3, [r4, #0]
 80012ec:	2001      	movs	r0, #1
 80012ee:	e7df      	b.n	80012b0 <I2C_WaitOnTXISFlagUntilTimeout+0x14>

080012f0 <I2C_WaitOnFlagUntilTimeout>:
 80012f0:	b5f8      	push	{r3, r4, r5, r6, r7, lr}
 80012f2:	0004      	movs	r4, r0
 80012f4:	000e      	movs	r6, r1
 80012f6:	0017      	movs	r7, r2
 80012f8:	001d      	movs	r5, r3
 80012fa:	6822      	ldr	r2, [r4, #0]
 80012fc:	6993      	ldr	r3, [r2, #24]
 80012fe:	4033      	ands	r3, r6
 8001300:	1b9b      	subs	r3, r3, r6
 8001302:	4259      	negs	r1, r3
 8001304:	414b      	adcs	r3, r1
 8001306:	42bb      	cmp	r3, r7
 8001308:	d001      	beq.n	800130e <I2C_WaitOnFlagUntilTimeout+0x1e>
 800130a:	2000      	movs	r0, #0
 800130c:	e017      	b.n	800133e <I2C_WaitOnFlagUntilTimeout+0x4e>
 800130e:	1c6b      	adds	r3, r5, #1
 8001310:	d0f4      	beq.n	80012fc <I2C_WaitOnFlagUntilTimeout+0xc>
 8001312:	f7ff fd83 	bl	8000e1c <HAL_GetTick>
 8001316:	9b06      	ldr	r3, [sp, #24]
 8001318:	1ac0      	subs	r0, r0, r3
 800131a:	42a8      	cmp	r0, r5
 800131c:	d801      	bhi.n	8001322 <I2C_WaitOnFlagUntilTimeout+0x32>
 800131e:	2d00      	cmp	r5, #0
 8001320:	d1eb      	bne.n	80012fa <I2C_WaitOnFlagUntilTimeout+0xa>
 8001322:	2220      	movs	r2, #32
 8001324:	6c63      	ldr	r3, [r4, #68]	; 0x44
 8001326:	2001      	movs	r0, #1
 8001328:	4313      	orrs	r3, r2
 800132a:	6463      	str	r3, [r4, #68]	; 0x44
 800132c:	0023      	movs	r3, r4
 800132e:	3341      	adds	r3, #65	; 0x41
 8001330:	701a      	strb	r2, [r3, #0]
 8001332:	0022      	movs	r2, r4
 8001334:	2300      	movs	r3, #0
 8001336:	3242      	adds	r2, #66	; 0x42
 8001338:	3440      	adds	r4, #64	; 0x40
 800133a:	7013      	strb	r3, [r2, #0]
 800133c:	7023      	strb	r3, [r4, #0]
 800133e:	bdf8      	pop	{r3, r4, r5, r6, r7, pc}

08001340 <I2C_WaitOnSTOPFlagUntilTimeout>:
 8001340:	b5f8      	push	{r3, r4, r5, r6, r7, lr}
 8001342:	0004      	movs	r4, r0
 8001344:	000d      	movs	r5, r1
 8001346:	0016      	movs	r6, r2
 8001348:	2720      	movs	r7, #32
 800134a:	6823      	ldr	r3, [r4, #0]
 800134c:	699b      	ldr	r3, [r3, #24]
 800134e:	423b      	tst	r3, r7
 8001350:	d001      	beq.n	8001356 <I2C_WaitOnSTOPFlagUntilTimeout+0x16>
 8001352:	2000      	movs	r0, #0
 8001354:	bdf8      	pop	{r3, r4, r5, r6, r7, pc}
 8001356:	0032      	movs	r2, r6
 8001358:	0029      	movs	r1, r5
 800135a:	0020      	movs	r0, r4
 800135c:	f7ff ff1a 	bl	8001194 <I2C_IsErrorOccurred>
 8001360:	2800      	cmp	r0, #0
 8001362:	d113      	bne.n	800138c <I2C_WaitOnSTOPFlagUntilTimeout+0x4c>
 8001364:	f7ff fd5a 	bl	8000e1c <HAL_GetTick>
 8001368:	1b80      	subs	r0, r0, r6
 800136a:	42a8      	cmp	r0, r5
 800136c:	d801      	bhi.n	8001372 <I2C_WaitOnSTOPFlagUntilTimeout+0x32>
 800136e:	2d00      	cmp	r5, #0
 8001370:	d1eb      	bne.n	800134a <I2C_WaitOnSTOPFlagUntilTimeout+0xa>
 8001372:	2220      	movs	r2, #32
 8001374:	6c63      	ldr	r3, [r4, #68]	; 0x44
 8001376:	4313      	orrs	r3, r2
 8001378:	6463      	str	r3, [r4, #68]	; 0x44
 800137a:	0023      	movs	r3, r4
 800137c:	3341      	adds	r3, #65	; 0x41
 800137e:	701a      	strb	r2, [r3, #0]
 8001380:	0022      	movs	r2, r4
 8001382:	2300      	movs	r3, #0
 8001384:	3242      	adds	r2, #66	; 0x42
 8001386:	3440      	adds	r4, #64	; 0x40
 8001388:	7013      	strb	r3, [r2, #0]
 800138a:	7023      	strb	r3, [r4, #0]
 800138c:	2001      	movs	r0, #1
 800138e:	e7e1      	b.n	8001354 <I2C_WaitOnSTOPFlagUntilTimeout+0x14>

08001390 <HAL_I2C_Init>:
 8001390:	b570      	push	{r4, r5, r6, lr}
 8001392:	0004      	movs	r4, r0
 8001394:	2001      	movs	r0, #1
 8001396:	2c00      	cmp	r4, #0
 8001398:	d03f      	beq.n	800141a <HAL_I2C_Init+0x8a>
 800139a:	0025      	movs	r5, r4
 800139c:	3541      	adds	r5, #65	; 0x41
 800139e:	782b      	ldrb	r3, [r5, #0]
 80013a0:	b2da      	uxtb	r2, r3
 80013a2:	2b00      	cmp	r3, #0
 80013a4:	d105      	bne.n	80013b2 <HAL_I2C_Init+0x22>
 80013a6:	0023      	movs	r3, r4
 80013a8:	3340      	adds	r3, #64	; 0x40
 80013aa:	0020      	movs	r0, r4
 80013ac:	701a      	strb	r2, [r3, #0]
 80013ae:	f7ff fadf 	bl	8000970 <HAL_I2C_MspInit>
 80013b2:	2324      	movs	r3, #36	; 0x24
 80013b4:	2101      	movs	r1, #1
 80013b6:	702b      	strb	r3, [r5, #0]
 80013b8:	6823      	ldr	r3, [r4, #0]
 80013ba:	481d      	ldr	r0, [pc, #116]	; (8001430 <HAL_I2C_Init+0xa0>)
 80013bc:	681a      	ldr	r2, [r3, #0]
 80013be:	68a6      	ldr	r6, [r4, #8]
 80013c0:	438a      	bics	r2, r1
 80013c2:	601a      	str	r2, [r3, #0]
 80013c4:	6861      	ldr	r1, [r4, #4]
 80013c6:	4a1b      	ldr	r2, [pc, #108]	; (8001434 <HAL_I2C_Init+0xa4>)
 80013c8:	400a      	ands	r2, r1
 80013ca:	611a      	str	r2, [r3, #16]
 80013cc:	689a      	ldr	r2, [r3, #8]
 80013ce:	4002      	ands	r2, r0
 80013d0:	609a      	str	r2, [r3, #8]
 80013d2:	68e2      	ldr	r2, [r4, #12]
 80013d4:	2a01      	cmp	r2, #1
 80013d6:	d121      	bne.n	800141c <HAL_I2C_Init+0x8c>
 80013d8:	2180      	movs	r1, #128	; 0x80
 80013da:	0209      	lsls	r1, r1, #8
 80013dc:	4331      	orrs	r1, r6
 80013de:	6099      	str	r1, [r3, #8]
 80013e0:	685a      	ldr	r2, [r3, #4]
 80013e2:	4915      	ldr	r1, [pc, #84]	; (8001438 <HAL_I2C_Init+0xa8>)
 80013e4:	4311      	orrs	r1, r2
 80013e6:	6059      	str	r1, [r3, #4]
 80013e8:	68da      	ldr	r2, [r3, #12]
 80013ea:	6961      	ldr	r1, [r4, #20]
 80013ec:	4002      	ands	r2, r0
 80013ee:	60da      	str	r2, [r3, #12]
 80013f0:	6922      	ldr	r2, [r4, #16]
 80013f2:	2000      	movs	r0, #0
 80013f4:	430a      	orrs	r2, r1
 80013f6:	69a1      	ldr	r1, [r4, #24]
 80013f8:	0209      	lsls	r1, r1, #8
 80013fa:	430a      	orrs	r2, r1
 80013fc:	60da      	str	r2, [r3, #12]
 80013fe:	6a21      	ldr	r1, [r4, #32]
 8001400:	69e2      	ldr	r2, [r4, #28]
 8001402:	430a      	orrs	r2, r1
 8001404:	601a      	str	r2, [r3, #0]
 8001406:	2201      	movs	r2, #1
 8001408:	6819      	ldr	r1, [r3, #0]
 800140a:	430a      	orrs	r2, r1
 800140c:	601a      	str	r2, [r3, #0]
 800140e:	2320      	movs	r3, #32
 8001410:	6460      	str	r0, [r4, #68]	; 0x44
 8001412:	702b      	strb	r3, [r5, #0]
 8001414:	6320      	str	r0, [r4, #48]	; 0x30
 8001416:	3442      	adds	r4, #66	; 0x42
 8001418:	7020      	strb	r0, [r4, #0]
 800141a:	bd70      	pop	{r4, r5, r6, pc}
 800141c:	2184      	movs	r1, #132	; 0x84
 800141e:	0209      	lsls	r1, r1, #8
 8001420:	4331      	orrs	r1, r6
 8001422:	6099      	str	r1, [r3, #8]
 8001424:	2a02      	cmp	r2, #2
 8001426:	d1db      	bne.n	80013e0 <HAL_I2C_Init+0x50>
 8001428:	2280      	movs	r2, #128	; 0x80
 800142a:	0112      	lsls	r2, r2, #4
 800142c:	605a      	str	r2, [r3, #4]
 800142e:	e7d7      	b.n	80013e0 <HAL_I2C_Init+0x50>
 8001430:	ffff7fff 	.word	0xffff7fff
 8001434:	f0ffffff 	.word	0xf0ffffff
 8001438:	02008000 	.word	0x02008000

0800143c <HAL_I2C_DeInit>:
 800143c:	b570      	push	{r4, r5, r6, lr}
 800143e:	0004      	movs	r4, r0
 8001440:	2001      	movs	r0, #1
 8001442:	2c00      	cmp	r4, #0
 8001444:	d013      	beq.n	800146e <HAL_I2C_DeInit+0x32>
 8001446:	0025      	movs	r5, r4
 8001448:	2324      	movs	r3, #36	; 0x24
 800144a:	3541      	adds	r5, #65	; 0x41
 800144c:	702b      	strb	r3, [r5, #0]
 800144e:	6822      	ldr	r2, [r4, #0]
 8001450:	6813      	ldr	r3, [r2, #0]
 8001452:	4383      	bics	r3, r0
 8001454:	6013      	str	r3, [r2, #0]
 8001456:	0020      	movs	r0, r4
 8001458:	f7ff facc 	bl	80009f4 <HAL_I2C_MspDeInit>
 800145c:	2000      	movs	r0, #0
 800145e:	0023      	movs	r3, r4
 8001460:	6460      	str	r0, [r4, #68]	; 0x44
 8001462:	3342      	adds	r3, #66	; 0x42
 8001464:	7028      	strb	r0, [r5, #0]
 8001466:	6320      	str	r0, [r4, #48]	; 0x30
 8001468:	3440      	adds	r4, #64	; 0x40
 800146a:	7018      	strb	r0, [r3, #0]
 800146c:	7020      	strb	r0, [r4, #0]
 800146e:	bd70      	pop	{r4, r5, r6, pc}

08001470 <HAL_I2C_Mem_Write>:
 8001470:	b5f0      	push	{r4, r5, r6, r7, lr}
 8001472:	b089      	sub	sp, #36	; 0x24
 8001474:	9304      	str	r3, [sp, #16]
 8001476:	ab0e      	add	r3, sp, #56	; 0x38
 8001478:	9203      	str	r2, [sp, #12]
 800147a:	cb04      	ldmia	r3!, {r2}
 800147c:	0004      	movs	r4, r0
 800147e:	881b      	ldrh	r3, [r3, #0]
 8001480:	9205      	str	r2, [sp, #20]
 8001482:	9306      	str	r3, [sp, #24]
 8001484:	0003      	movs	r3, r0
 8001486:	3341      	adds	r3, #65	; 0x41
 8001488:	9307      	str	r3, [sp, #28]
 800148a:	781b      	ldrb	r3, [r3, #0]
 800148c:	000f      	movs	r7, r1
 800148e:	2002      	movs	r0, #2
 8001490:	9e10      	ldr	r6, [sp, #64]	; 0x40
 8001492:	2b20      	cmp	r3, #32
 8001494:	d108      	bne.n	80014a8 <HAL_I2C_Mem_Write+0x38>
 8001496:	2a00      	cmp	r2, #0
 8001498:	d002      	beq.n	80014a0 <HAL_I2C_Mem_Write+0x30>
 800149a:	9b06      	ldr	r3, [sp, #24]
 800149c:	2b00      	cmp	r3, #0
 800149e:	d105      	bne.n	80014ac <HAL_I2C_Mem_Write+0x3c>
 80014a0:	2380      	movs	r3, #128	; 0x80
 80014a2:	009b      	lsls	r3, r3, #2
 80014a4:	6463      	str	r3, [r4, #68]	; 0x44
 80014a6:	2001      	movs	r0, #1
 80014a8:	b009      	add	sp, #36	; 0x24
 80014aa:	bdf0      	pop	{r4, r5, r6, r7, pc}
 80014ac:	0023      	movs	r3, r4
 80014ae:	3340      	adds	r3, #64	; 0x40
 80014b0:	781a      	ldrb	r2, [r3, #0]
 80014b2:	2002      	movs	r0, #2
 80014b4:	2a01      	cmp	r2, #1
 80014b6:	d0f7      	beq.n	80014a8 <HAL_I2C_Mem_Write+0x38>
 80014b8:	2201      	movs	r2, #1
 80014ba:	701a      	strb	r2, [r3, #0]
 80014bc:	f7ff fcae 	bl	8000e1c <HAL_GetTick>
 80014c0:	2180      	movs	r1, #128	; 0x80
 80014c2:	0005      	movs	r5, r0
 80014c4:	9000      	str	r0, [sp, #0]
 80014c6:	2319      	movs	r3, #25
 80014c8:	2201      	movs	r2, #1
 80014ca:	0020      	movs	r0, r4
 80014cc:	0209      	lsls	r1, r1, #8
 80014ce:	f7ff ff0f 	bl	80012f0 <I2C_WaitOnFlagUntilTimeout>
 80014d2:	2800      	cmp	r0, #0
 80014d4:	d1e7      	bne.n	80014a6 <HAL_I2C_Mem_Write+0x36>
 80014d6:	2321      	movs	r3, #33	; 0x21
 80014d8:	9a07      	ldr	r2, [sp, #28]
 80014da:	0039      	movs	r1, r7
 80014dc:	7013      	strb	r3, [r2, #0]
 80014de:	0023      	movs	r3, r4
 80014e0:	3342      	adds	r3, #66	; 0x42
 80014e2:	9307      	str	r3, [sp, #28]
 80014e4:	2340      	movs	r3, #64	; 0x40
 80014e6:	9a07      	ldr	r2, [sp, #28]
 80014e8:	7013      	strb	r3, [r2, #0]
 80014ea:	9b05      	ldr	r3, [sp, #20]
 80014ec:	6460      	str	r0, [r4, #68]	; 0x44
 80014ee:	6263      	str	r3, [r4, #36]	; 0x24
 80014f0:	9b06      	ldr	r3, [sp, #24]
 80014f2:	6360      	str	r0, [r4, #52]	; 0x34
 80014f4:	8563      	strh	r3, [r4, #42]	; 0x2a
 80014f6:	466b      	mov	r3, sp
 80014f8:	7c1a      	ldrb	r2, [r3, #16]
 80014fa:	4b4a      	ldr	r3, [pc, #296]	; (8001624 <HAL_I2C_Mem_Write+0x1b4>)
 80014fc:	0020      	movs	r0, r4
 80014fe:	9300      	str	r3, [sp, #0]
 8001500:	2380      	movs	r3, #128	; 0x80
 8001502:	045b      	lsls	r3, r3, #17
 8001504:	f7ff fe30 	bl	8001168 <I2C_TransferConfig>
 8001508:	002a      	movs	r2, r5
 800150a:	0031      	movs	r1, r6
 800150c:	0020      	movs	r0, r4
 800150e:	f7ff fec5 	bl	800129c <I2C_WaitOnTXISFlagUntilTimeout>
 8001512:	2800      	cmp	r0, #0
 8001514:	d126      	bne.n	8001564 <HAL_I2C_Mem_Write+0xf4>
 8001516:	9a04      	ldr	r2, [sp, #16]
 8001518:	6823      	ldr	r3, [r4, #0]
 800151a:	2a01      	cmp	r2, #1
 800151c:	d116      	bne.n	800154c <HAL_I2C_Mem_Write+0xdc>
 800151e:	466a      	mov	r2, sp
 8001520:	7b12      	ldrb	r2, [r2, #12]
 8001522:	2180      	movs	r1, #128	; 0x80
 8001524:	629a      	str	r2, [r3, #40]	; 0x28
 8001526:	0020      	movs	r0, r4
 8001528:	0033      	movs	r3, r6
 800152a:	2200      	movs	r2, #0
 800152c:	9500      	str	r5, [sp, #0]
 800152e:	f7ff fedf 	bl	80012f0 <I2C_WaitOnFlagUntilTimeout>
 8001532:	2800      	cmp	r0, #0
 8001534:	d116      	bne.n	8001564 <HAL_I2C_Mem_Write+0xf4>
 8001536:	8d63      	ldrh	r3, [r4, #42]	; 0x2a
 8001538:	2bff      	cmp	r3, #255	; 0xff
 800153a:	d817      	bhi.n	800156c <HAL_I2C_Mem_Write+0xfc>
 800153c:	2380      	movs	r3, #128	; 0x80
 800153e:	8d62      	ldrh	r2, [r4, #42]	; 0x2a
 8001540:	049b      	lsls	r3, r3, #18
 8001542:	b292      	uxth	r2, r2
 8001544:	8522      	strh	r2, [r4, #40]	; 0x28
 8001546:	b2d2      	uxtb	r2, r2
 8001548:	9000      	str	r0, [sp, #0]
 800154a:	e014      	b.n	8001576 <HAL_I2C_Mem_Write+0x106>
 800154c:	9a03      	ldr	r2, [sp, #12]
 800154e:	0031      	movs	r1, r6
 8001550:	0a12      	lsrs	r2, r2, #8
 8001552:	629a      	str	r2, [r3, #40]	; 0x28
 8001554:	0020      	movs	r0, r4
 8001556:	002a      	movs	r2, r5
 8001558:	f7ff fea0 	bl	800129c <I2C_WaitOnTXISFlagUntilTimeout>
 800155c:	2800      	cmp	r0, #0
 800155e:	d101      	bne.n	8001564 <HAL_I2C_Mem_Write+0xf4>
 8001560:	6823      	ldr	r3, [r4, #0]
 8001562:	e7dc      	b.n	800151e <HAL_I2C_Mem_Write+0xae>
 8001564:	2300      	movs	r3, #0
 8001566:	3440      	adds	r4, #64	; 0x40
 8001568:	7023      	strb	r3, [r4, #0]
 800156a:	e79c      	b.n	80014a6 <HAL_I2C_Mem_Write+0x36>
 800156c:	22ff      	movs	r2, #255	; 0xff
 800156e:	2380      	movs	r3, #128	; 0x80
 8001570:	8522      	strh	r2, [r4, #40]	; 0x28
 8001572:	045b      	lsls	r3, r3, #17
 8001574:	9000      	str	r0, [sp, #0]
 8001576:	0039      	movs	r1, r7
 8001578:	0020      	movs	r0, r4
 800157a:	f7ff fdf5 	bl	8001168 <I2C_TransferConfig>
 800157e:	002a      	movs	r2, r5
 8001580:	0031      	movs	r1, r6
 8001582:	0020      	movs	r0, r4
 8001584:	f7ff fe8a 	bl	800129c <I2C_WaitOnTXISFlagUntilTimeout>
 8001588:	2800      	cmp	r0, #0
 800158a:	d000      	beq.n	800158e <HAL_I2C_Mem_Write+0x11e>
 800158c:	e78b      	b.n	80014a6 <HAL_I2C_Mem_Write+0x36>
 800158e:	6a63      	ldr	r3, [r4, #36]	; 0x24
 8001590:	6822      	ldr	r2, [r4, #0]
 8001592:	7819      	ldrb	r1, [r3, #0]
 8001594:	3301      	adds	r3, #1
 8001596:	6291      	str	r1, [r2, #40]	; 0x28
 8001598:	6263      	str	r3, [r4, #36]	; 0x24
 800159a:	8d63      	ldrh	r3, [r4, #42]	; 0x2a
 800159c:	8d22      	ldrh	r2, [r4, #40]	; 0x28
 800159e:	3b01      	subs	r3, #1
 80015a0:	b29b      	uxth	r3, r3
 80015a2:	8563      	strh	r3, [r4, #42]	; 0x2a
 80015a4:	3a01      	subs	r2, #1
 80015a6:	8d63      	ldrh	r3, [r4, #42]	; 0x2a
 80015a8:	b292      	uxth	r2, r2
 80015aa:	8522      	strh	r2, [r4, #40]	; 0x28
 80015ac:	2b00      	cmp	r3, #0
 80015ae:	d017      	beq.n	80015e0 <HAL_I2C_Mem_Write+0x170>
 80015b0:	2a00      	cmp	r2, #0
 80015b2:	d115      	bne.n	80015e0 <HAL_I2C_Mem_Write+0x170>
 80015b4:	0033      	movs	r3, r6
 80015b6:	2180      	movs	r1, #128	; 0x80
 80015b8:	0020      	movs	r0, r4
 80015ba:	9500      	str	r5, [sp, #0]
 80015bc:	f7ff fe98 	bl	80012f0 <I2C_WaitOnFlagUntilTimeout>
 80015c0:	2800      	cmp	r0, #0
 80015c2:	d000      	beq.n	80015c6 <HAL_I2C_Mem_Write+0x156>
 80015c4:	e76f      	b.n	80014a6 <HAL_I2C_Mem_Write+0x36>
 80015c6:	8d63      	ldrh	r3, [r4, #42]	; 0x2a
 80015c8:	2bff      	cmp	r3, #255	; 0xff
 80015ca:	d923      	bls.n	8001614 <HAL_I2C_Mem_Write+0x1a4>
 80015cc:	23ff      	movs	r3, #255	; 0xff
 80015ce:	8523      	strh	r3, [r4, #40]	; 0x28
 80015d0:	2380      	movs	r3, #128	; 0x80
 80015d2:	22ff      	movs	r2, #255	; 0xff
 80015d4:	9000      	str	r0, [sp, #0]
 80015d6:	045b      	lsls	r3, r3, #17
 80015d8:	0039      	movs	r1, r7
 80015da:	0020      	movs	r0, r4
 80015dc:	f7ff fdc4 	bl	8001168 <I2C_TransferConfig>
 80015e0:	8d63      	ldrh	r3, [r4, #42]	; 0x2a
 80015e2:	2b00      	cmp	r3, #0
 80015e4:	d1cb      	bne.n	800157e <HAL_I2C_Mem_Write+0x10e>
 80015e6:	002a      	movs	r2, r5
 80015e8:	0031      	movs	r1, r6
 80015ea:	0020      	movs	r0, r4
 80015ec:	f7ff fea8 	bl	8001340 <I2C_WaitOnSTOPFlagUntilTimeout>
 80015f0:	2800      	cmp	r0, #0
 80015f2:	d000      	beq.n	80015f6 <HAL_I2C_Mem_Write+0x186>
 80015f4:	e757      	b.n	80014a6 <HAL_I2C_Mem_Write+0x36>
 80015f6:	2120      	movs	r1, #32
 80015f8:	6823      	ldr	r3, [r4, #0]
 80015fa:	4d0b      	ldr	r5, [pc, #44]	; (8001628 <HAL_I2C_Mem_Write+0x1b8>)
 80015fc:	61d9      	str	r1, [r3, #28]
 80015fe:	685a      	ldr	r2, [r3, #4]
 8001600:	402a      	ands	r2, r5
 8001602:	605a      	str	r2, [r3, #4]
 8001604:	0023      	movs	r3, r4
 8001606:	3341      	adds	r3, #65	; 0x41
 8001608:	7019      	strb	r1, [r3, #0]
 800160a:	9b07      	ldr	r3, [sp, #28]
 800160c:	3440      	adds	r4, #64	; 0x40
 800160e:	7018      	strb	r0, [r3, #0]
 8001610:	7020      	strb	r0, [r4, #0]
 8001612:	e749      	b.n	80014a8 <HAL_I2C_Mem_Write+0x38>
 8001614:	2380      	movs	r3, #128	; 0x80
 8001616:	8d62      	ldrh	r2, [r4, #42]	; 0x2a
 8001618:	049b      	lsls	r3, r3, #18
 800161a:	b292      	uxth	r2, r2
 800161c:	8522      	strh	r2, [r4, #40]	; 0x28
 800161e:	b2d2      	uxtb	r2, r2
 8001620:	9000      	str	r0, [sp, #0]
 8001622:	e7d9      	b.n	80015d8 <HAL_I2C_Mem_Write+0x168>
 8001624:	80002000 	.word	0x80002000
 8001628:	fe00e800 	.word	0xfe00e800

0800162c <HAL_I2C_Mem_Read>:
 800162c:	b5f0      	push	{r4, r5, r6, r7, lr}
 800162e:	b089      	sub	sp, #36	; 0x24
 8001630:	9304      	str	r3, [sp, #16]
 8001632:	ab0e      	add	r3, sp, #56	; 0x38
 8001634:	9203      	str	r2, [sp, #12]
 8001636:	cb04      	ldmia	r3!, {r2}
 8001638:	0004      	movs	r4, r0
 800163a:	881b      	ldrh	r3, [r3, #0]
 800163c:	9205      	str	r2, [sp, #20]
 800163e:	9306      	str	r3, [sp, #24]
 8001640:	0003      	movs	r3, r0
 8001642:	3341      	adds	r3, #65	; 0x41
 8001644:	9307      	str	r3, [sp, #28]
 8001646:	781b      	ldrb	r3, [r3, #0]
 8001648:	000f      	movs	r7, r1
 800164a:	2002      	movs	r0, #2
 800164c:	9e10      	ldr	r6, [sp, #64]	; 0x40
 800164e:	2b20      	cmp	r3, #32
 8001650:	d108      	bne.n	8001664 <HAL_I2C_Mem_Read+0x38>
 8001652:	2a00      	cmp	r2, #0
 8001654:	d002      	beq.n	800165c <HAL_I2C_Mem_Read+0x30>
 8001656:	9b06      	ldr	r3, [sp, #24]
 8001658:	2b00      	cmp	r3, #0
 800165a:	d105      	bne.n	8001668 <HAL_I2C_Mem_Read+0x3c>
 800165c:	2380      	movs	r3, #128	; 0x80
 800165e:	009b      	lsls	r3, r3, #2
 8001660:	6463      	str	r3, [r4, #68]	; 0x44
 8001662:	2001      	movs	r0, #1
 8001664:	b009      	add	sp, #36	; 0x24
 8001666:	bdf0      	pop	{r4, r5, r6, r7, pc}
 8001668:	0023      	movs	r3, r4
 800166a:	3340      	adds	r3, #64	; 0x40
 800166c:	781a      	ldrb	r2, [r3, #0]
 800166e:	2002      	movs	r0, #2
 8001670:	2a01      	cmp	r2, #1
 8001672:	d0f7      	beq.n	8001664 <HAL_I2C_Mem_Read+0x38>
 8001674:	2201      	movs	r2, #1
 8001676:	701a      	strb	r2, [r3, #0]
 8001678:	f7ff fbd0 	bl	8000e1c <HAL_GetTick>
 800167c:	2180      	movs	r1, #128	; 0x80
 800167e:	2319      	movs	r3, #25
 8001680:	9000      	str	r0, [sp, #0]
 8001682:	0005      	movs	r5, r0
 8001684:	2201      	movs	r2, #1
 8001686:	0020      	movs	r0, r4
 8001688:	0209      	lsls	r1, r1, #8
 800168a:	f7ff fe31 	bl	80012f0 <I2C_WaitOnFlagUntilTimeout>
 800168e:	1e03      	subs	r3, r0, #0
 8001690:	d1e7      	bne.n	8001662 <HAL_I2C_Mem_Read+0x36>
 8001692:	2222      	movs	r2, #34	; 0x22
 8001694:	9907      	ldr	r1, [sp, #28]
 8001696:	700a      	strb	r2, [r1, #0]
 8001698:	0022      	movs	r2, r4
 800169a:	3242      	adds	r2, #66	; 0x42
 800169c:	9207      	str	r2, [sp, #28]
 800169e:	2240      	movs	r2, #64	; 0x40
 80016a0:	9907      	ldr	r1, [sp, #28]
 80016a2:	700a      	strb	r2, [r1, #0]
 80016a4:	9a05      	ldr	r2, [sp, #20]
 80016a6:	6460      	str	r0, [r4, #68]	; 0x44
 80016a8:	6262      	str	r2, [r4, #36]	; 0x24
 80016aa:	9a06      	ldr	r2, [sp, #24]
 80016ac:	494d      	ldr	r1, [pc, #308]	; (80017e4 <HAL_I2C_Mem_Read+0x1b8>)
 80016ae:	8562      	strh	r2, [r4, #42]	; 0x2a
 80016b0:	466a      	mov	r2, sp
 80016b2:	6360      	str	r0, [r4, #52]	; 0x34
 80016b4:	7c12      	ldrb	r2, [r2, #16]
 80016b6:	0020      	movs	r0, r4
 80016b8:	9100      	str	r1, [sp, #0]
 80016ba:	0039      	movs	r1, r7
 80016bc:	f7ff fd54 	bl	8001168 <I2C_TransferConfig>
 80016c0:	002a      	movs	r2, r5
 80016c2:	0031      	movs	r1, r6
 80016c4:	0020      	movs	r0, r4
 80016c6:	f7ff fde9 	bl	800129c <I2C_WaitOnTXISFlagUntilTimeout>
 80016ca:	2800      	cmp	r0, #0
 80016cc:	d127      	bne.n	800171e <HAL_I2C_Mem_Read+0xf2>
 80016ce:	9a04      	ldr	r2, [sp, #16]
 80016d0:	6823      	ldr	r3, [r4, #0]
 80016d2:	2a01      	cmp	r2, #1
 80016d4:	d117      	bne.n	8001706 <HAL_I2C_Mem_Read+0xda>
 80016d6:	466a      	mov	r2, sp
 80016d8:	7b12      	ldrb	r2, [r2, #12]
 80016da:	2140      	movs	r1, #64	; 0x40
 80016dc:	629a      	str	r2, [r3, #40]	; 0x28
 80016de:	0020      	movs	r0, r4
 80016e0:	0033      	movs	r3, r6
 80016e2:	2200      	movs	r2, #0
 80016e4:	9500      	str	r5, [sp, #0]
 80016e6:	f7ff fe03 	bl	80012f0 <I2C_WaitOnFlagUntilTimeout>
 80016ea:	2800      	cmp	r0, #0
 80016ec:	d117      	bne.n	800171e <HAL_I2C_Mem_Read+0xf2>
 80016ee:	8d62      	ldrh	r2, [r4, #42]	; 0x2a
 80016f0:	4b3d      	ldr	r3, [pc, #244]	; (80017e8 <HAL_I2C_Mem_Read+0x1bc>)
 80016f2:	2aff      	cmp	r2, #255	; 0xff
 80016f4:	d817      	bhi.n	8001726 <HAL_I2C_Mem_Read+0xfa>
 80016f6:	8d62      	ldrh	r2, [r4, #42]	; 0x2a
 80016f8:	b292      	uxth	r2, r2
 80016fa:	8522      	strh	r2, [r4, #40]	; 0x28
 80016fc:	9300      	str	r3, [sp, #0]
 80016fe:	2380      	movs	r3, #128	; 0x80
 8001700:	b2d2      	uxtb	r2, r2
 8001702:	049b      	lsls	r3, r3, #18
 8001704:	e014      	b.n	8001730 <HAL_I2C_Mem_Read+0x104>
 8001706:	9a03      	ldr	r2, [sp, #12]
 8001708:	0031      	movs	r1, r6
 800170a:	0a12      	lsrs	r2, r2, #8
 800170c:	629a      	str	r2, [r3, #40]	; 0x28
 800170e:	0020      	movs	r0, r4
 8001710:	002a      	movs	r2, r5
 8001712:	f7ff fdc3 	bl	800129c <I2C_WaitOnTXISFlagUntilTimeout>
 8001716:	2800      	cmp	r0, #0
 8001718:	d101      	bne.n	800171e <HAL_I2C_Mem_Read+0xf2>
 800171a:	6823      	ldr	r3, [r4, #0]
 800171c:	e7db      	b.n	80016d6 <HAL_I2C_Mem_Read+0xaa>
 800171e:	2300      	movs	r3, #0
 8001720:	3440      	adds	r4, #64	; 0x40
 8001722:	7023      	strb	r3, [r4, #0]
 8001724:	e79d      	b.n	8001662 <HAL_I2C_Mem_Read+0x36>
 8001726:	22ff      	movs	r2, #255	; 0xff
 8001728:	8522      	strh	r2, [r4, #40]	; 0x28
 800172a:	9300      	str	r3, [sp, #0]
 800172c:	2380      	movs	r3, #128	; 0x80
 800172e:	045b      	lsls	r3, r3, #17
 8001730:	0039      	movs	r1, r7
 8001732:	0020      	movs	r0, r4
 8001734:	f7ff fd18 	bl	8001168 <I2C_TransferConfig>
 8001738:	0033      	movs	r3, r6
 800173a:	2200      	movs	r2, #0
 800173c:	2104      	movs	r1, #4
 800173e:	0020      	movs	r0, r4
 8001740:	9500      	str	r5, [sp, #0]
 8001742:	f7ff fdd5 	bl	80012f0 <I2C_WaitOnFlagUntilTimeout>
 8001746:	2800      	cmp	r0, #0
 8001748:	d000      	beq.n	800174c <HAL_I2C_Mem_Read+0x120>
 800174a:	e78a      	b.n	8001662 <HAL_I2C_Mem_Read+0x36>
 800174c:	6823      	ldr	r3, [r4, #0]
 800174e:	6a62      	ldr	r2, [r4, #36]	; 0x24
 8001750:	6a5b      	ldr	r3, [r3, #36]	; 0x24
 8001752:	7013      	strb	r3, [r2, #0]
 8001754:	6a63      	ldr	r3, [r4, #36]	; 0x24
 8001756:	8d22      	ldrh	r2, [r4, #40]	; 0x28
 8001758:	3301      	adds	r3, #1
 800175a:	6263      	str	r3, [r4, #36]	; 0x24
 800175c:	8d63      	ldrh	r3, [r4, #42]	; 0x2a
 800175e:	3a01      	subs	r2, #1
 8001760:	3b01      	subs	r3, #1
 8001762:	b29b      	uxth	r3, r3
 8001764:	8563      	strh	r3, [r4, #42]	; 0x2a
 8001766:	8d63      	ldrh	r3, [r4, #42]	; 0x2a
 8001768:	b292      	uxth	r2, r2
 800176a:	8522      	strh	r2, [r4, #40]	; 0x28
 800176c:	2b00      	cmp	r3, #0
 800176e:	d017      	beq.n	80017a0 <HAL_I2C_Mem_Read+0x174>
 8001770:	2a00      	cmp	r2, #0
 8001772:	d115      	bne.n	80017a0 <HAL_I2C_Mem_Read+0x174>
 8001774:	0033      	movs	r3, r6
 8001776:	2180      	movs	r1, #128	; 0x80
 8001778:	0020      	movs	r0, r4
 800177a:	9500      	str	r5, [sp, #0]
 800177c:	f7ff fdb8 	bl	80012f0 <I2C_WaitOnFlagUntilTimeout>
 8001780:	2800      	cmp	r0, #0
 8001782:	d000      	beq.n	8001786 <HAL_I2C_Mem_Read+0x15a>
 8001784:	e76d      	b.n	8001662 <HAL_I2C_Mem_Read+0x36>
 8001786:	8d63      	ldrh	r3, [r4, #42]	; 0x2a
 8001788:	2bff      	cmp	r3, #255	; 0xff
 800178a:	d923      	bls.n	80017d4 <HAL_I2C_Mem_Read+0x1a8>
 800178c:	23ff      	movs	r3, #255	; 0xff
 800178e:	8523      	strh	r3, [r4, #40]	; 0x28
 8001790:	2380      	movs	r3, #128	; 0x80
 8001792:	22ff      	movs	r2, #255	; 0xff
 8001794:	9000      	str	r0, [sp, #0]
 8001796:	045b      	lsls	r3, r3, #17
 8001798:	0039      	movs	r1, r7
 800179a:	0020      	movs	r0, r4
 800179c:	f7ff fce4 	bl	8001168 <I2C_TransferConfig>
 80017a0:	8d63      	ldrh	r3, [r4, #42]	; 0x2a
 80017a2:	2b00      	cmp	r3, #0
 80017a4:	d1c8      	bne.n	8001738 <HAL_I2C_Mem_Read+0x10c>
 80017a6:	002a      	movs	r2, r5
 80017a8:	0031      	movs	r1, r6
 80017aa:	0020      	movs	r0, r4
 80017ac:	f7ff fdc8 	bl	8001340 <I2C_WaitOnSTOPFlagUntilTimeout>
 80017b0:	2800      	cmp	r0, #0
 80017b2:	d000      	beq.n	80017b6 <HAL_I2C_Mem_Read+0x18a>
 80017b4:	e755      	b.n	8001662 <HAL_I2C_Mem_Read+0x36>
 80017b6:	2120      	movs	r1, #32
 80017b8:	6823      	ldr	r3, [r4, #0]
 80017ba:	4d0c      	ldr	r5, [pc, #48]	; (80017ec <HAL_I2C_Mem_Read+0x1c0>)
 80017bc:	61d9      	str	r1, [r3, #28]
 80017be:	685a      	ldr	r2, [r3, #4]
 80017c0:	402a      	ands	r2, r5
 80017c2:	605a      	str	r2, [r3, #4]
 80017c4:	0023      	movs	r3, r4
 80017c6:	3341      	adds	r3, #65	; 0x41
 80017c8:	7019      	strb	r1, [r3, #0]
 80017ca:	9b07      	ldr	r3, [sp, #28]
 80017cc:	3440      	adds	r4, #64	; 0x40
 80017ce:	7018      	strb	r0, [r3, #0]
 80017d0:	7020      	strb	r0, [r4, #0]
 80017d2:	e747      	b.n	8001664 <HAL_I2C_Mem_Read+0x38>
 80017d4:	2380      	movs	r3, #128	; 0x80
 80017d6:	8d62      	ldrh	r2, [r4, #42]	; 0x2a
 80017d8:	049b      	lsls	r3, r3, #18
 80017da:	b292      	uxth	r2, r2
 80017dc:	8522      	strh	r2, [r4, #40]	; 0x28
 80017de:	b2d2      	uxtb	r2, r2
 80017e0:	9000      	str	r0, [sp, #0]
 80017e2:	e7d9      	b.n	8001798 <HAL_I2C_Mem_Read+0x16c>
 80017e4:	80002000 	.word	0x80002000
 80017e8:	80002400 	.word	0x80002400
 80017ec:	fe00e800 	.word	0xfe00e800

080017f0 <HAL_I2CEx_ConfigAnalogFilter>:
 80017f0:	b5f0      	push	{r4, r5, r6, r7, lr}
 80017f2:	0004      	movs	r4, r0
 80017f4:	3441      	adds	r4, #65	; 0x41
 80017f6:	7822      	ldrb	r2, [r4, #0]
 80017f8:	0003      	movs	r3, r0
 80017fa:	000f      	movs	r7, r1
 80017fc:	2002      	movs	r0, #2
 80017fe:	b2d6      	uxtb	r6, r2
 8001800:	2a20      	cmp	r2, #32
 8001802:	d118      	bne.n	8001836 <HAL_I2CEx_ConfigAnalogFilter+0x46>
 8001804:	001d      	movs	r5, r3
 8001806:	3540      	adds	r5, #64	; 0x40
 8001808:	782a      	ldrb	r2, [r5, #0]
 800180a:	2a01      	cmp	r2, #1
 800180c:	d013      	beq.n	8001836 <HAL_I2CEx_ConfigAnalogFilter+0x46>
 800180e:	2224      	movs	r2, #36	; 0x24
 8001810:	7022      	strb	r2, [r4, #0]
 8001812:	681b      	ldr	r3, [r3, #0]
 8001814:	3a23      	subs	r2, #35	; 0x23
 8001816:	6819      	ldr	r1, [r3, #0]
 8001818:	4807      	ldr	r0, [pc, #28]	; (8001838 <HAL_I2CEx_ConfigAnalogFilter+0x48>)
 800181a:	4391      	bics	r1, r2
 800181c:	6019      	str	r1, [r3, #0]
 800181e:	6819      	ldr	r1, [r3, #0]
 8001820:	4001      	ands	r1, r0
 8001822:	2000      	movs	r0, #0
 8001824:	6019      	str	r1, [r3, #0]
 8001826:	6819      	ldr	r1, [r3, #0]
 8001828:	4339      	orrs	r1, r7
 800182a:	6019      	str	r1, [r3, #0]
 800182c:	6819      	ldr	r1, [r3, #0]
 800182e:	430a      	orrs	r2, r1
 8001830:	601a      	str	r2, [r3, #0]
 8001832:	7026      	strb	r6, [r4, #0]
 8001834:	7028      	strb	r0, [r5, #0]
 8001836:	bdf0      	pop	{r4, r5, r6, r7, pc}
 8001838:	ffffefff 	.word	0xffffefff

0800183c <HAL_I2CEx_ConfigDigitalFilter>:
 800183c:	0002      	movs	r2, r0
 800183e:	b5f0      	push	{r4, r5, r6, r7, lr}
 8001840:	3241      	adds	r2, #65	; 0x41
 8001842:	7814      	ldrb	r4, [r2, #0]
 8001844:	0003      	movs	r3, r0
 8001846:	b2e5      	uxtb	r5, r4
 8001848:	2002      	movs	r0, #2
 800184a:	2c20      	cmp	r4, #32
 800184c:	d117      	bne.n	800187e <HAL_I2CEx_ConfigDigitalFilter+0x42>
 800184e:	001c      	movs	r4, r3
 8001850:	3440      	adds	r4, #64	; 0x40
 8001852:	7826      	ldrb	r6, [r4, #0]
 8001854:	2e01      	cmp	r6, #1
 8001856:	d012      	beq.n	800187e <HAL_I2CEx_ConfigDigitalFilter+0x42>
 8001858:	3022      	adds	r0, #34	; 0x22
 800185a:	7010      	strb	r0, [r2, #0]
 800185c:	681b      	ldr	r3, [r3, #0]
 800185e:	3823      	subs	r0, #35	; 0x23
 8001860:	681e      	ldr	r6, [r3, #0]
 8001862:	4f07      	ldr	r7, [pc, #28]	; (8001880 <HAL_I2CEx_ConfigDigitalFilter+0x44>)
 8001864:	4386      	bics	r6, r0
 8001866:	601e      	str	r6, [r3, #0]
 8001868:	681e      	ldr	r6, [r3, #0]
 800186a:	0209      	lsls	r1, r1, #8
 800186c:	403e      	ands	r6, r7
 800186e:	4331      	orrs	r1, r6
 8001870:	6019      	str	r1, [r3, #0]
 8001872:	6819      	ldr	r1, [r3, #0]
 8001874:	4308      	orrs	r0, r1
 8001876:	6018      	str	r0, [r3, #0]
 8001878:	2000      	movs	r0, #0
 800187a:	7015      	strb	r5, [r2, #0]
 800187c:	7020      	strb	r0, [r4, #0]
 800187e:	bdf0      	pop	{r4, r5, r6, r7, pc}
 8001880:	fffff0ff 	.word	0xfffff0ff

08001884 <HAL_PWREx_ControlVoltageScaling>:
 8001884:	b510      	push	{r4, lr}
 8001886:	4c11      	ldr	r4, [pc, #68]	; (80018cc <HAL_PWREx_ControlVoltageScaling+0x48>)
 8001888:	4911      	ldr	r1, [pc, #68]	; (80018d0 <HAL_PWREx_ControlVoltageScaling+0x4c>)
 800188a:	6823      	ldr	r3, [r4, #0]
 800188c:	0002      	movs	r2, r0
 800188e:	400b      	ands	r3, r1
 8001890:	4303      	orrs	r3, r0
 8001892:	6023      	str	r3, [r4, #0]
 8001894:	2380      	movs	r3, #128	; 0x80
 8001896:	2000      	movs	r0, #0
 8001898:	009b      	lsls	r3, r3, #2
 800189a:	429a      	cmp	r2, r3
 800189c:	d10e      	bne.n	80018bc <HAL_PWREx_ControlVoltageScaling+0x38>
 800189e:	4b0d      	ldr	r3, [pc, #52]	; (80018d4 <HAL_PWREx_ControlVoltageScaling+0x50>)
 80018a0:	490d      	ldr	r1, [pc, #52]	; (80018d8 <HAL_PWREx_ControlVoltageScaling+0x54>)
 80018a2:	6818      	ldr	r0, [r3, #0]
 80018a4:	2306      	movs	r3, #6
 80018a6:	4358      	muls	r0, r3
 80018a8:	f7fe fc40 	bl	800012c <__udivsi3>
 80018ac:	2280      	movs	r2, #128	; 0x80
 80018ae:	1c43      	adds	r3, r0, #1
 80018b0:	00d2      	lsls	r2, r2, #3
 80018b2:	6961      	ldr	r1, [r4, #20]
 80018b4:	0008      	movs	r0, r1
 80018b6:	4010      	ands	r0, r2
 80018b8:	4211      	tst	r1, r2
 80018ba:	d100      	bne.n	80018be <HAL_PWREx_ControlVoltageScaling+0x3a>
 80018bc:	bd10      	pop	{r4, pc}
 80018be:	2b00      	cmp	r3, #0
 80018c0:	d001      	beq.n	80018c6 <HAL_PWREx_ControlVoltageScaling+0x42>
 80018c2:	3b01      	subs	r3, #1
 80018c4:	e7f5      	b.n	80018b2 <HAL_PWREx_ControlVoltageScaling+0x2e>
 80018c6:	2003      	movs	r0, #3
 80018c8:	e7f8      	b.n	80018bc <HAL_PWREx_ControlVoltageScaling+0x38>
 80018ca:	46c0      	nop			; (mov r8, r8)
 80018cc:	40007000 	.word	0x40007000
 80018d0:	fffff9ff 	.word	0xfffff9ff
 80018d4:	20000000 	.word	0x20000000
 80018d8:	000f4240 	.word	0x000f4240

080018dc <HAL_RCC_OscConfig>:
 80018dc:	b5f0      	push	{r4, r5, r6, r7, lr}
 80018de:	0004      	movs	r4, r0
 80018e0:	b085      	sub	sp, #20
 80018e2:	2800      	cmp	r0, #0
 80018e4:	d027      	beq.n	8001936 <HAL_RCC_OscConfig+0x5a>
 80018e6:	6803      	ldr	r3, [r0, #0]
 80018e8:	07db      	lsls	r3, r3, #31
 80018ea:	d414      	bmi.n	8001916 <HAL_RCC_OscConfig+0x3a>
 80018ec:	6823      	ldr	r3, [r4, #0]
 80018ee:	079b      	lsls	r3, r3, #30
 80018f0:	d462      	bmi.n	80019b8 <HAL_RCC_OscConfig+0xdc>
 80018f2:	6823      	ldr	r3, [r4, #0]
 80018f4:	071b      	lsls	r3, r3, #28
 80018f6:	d500      	bpl.n	80018fa <HAL_RCC_OscConfig+0x1e>
 80018f8:	e0c7      	b.n	8001a8a <HAL_RCC_OscConfig+0x1ae>
 80018fa:	6823      	ldr	r3, [r4, #0]
 80018fc:	075b      	lsls	r3, r3, #29
 80018fe:	d500      	bpl.n	8001902 <HAL_RCC_OscConfig+0x26>
 8001900:	e0f8      	b.n	8001af4 <HAL_RCC_OscConfig+0x218>
 8001902:	6823      	ldr	r3, [r4, #0]
 8001904:	069b      	lsls	r3, r3, #26
 8001906:	d500      	bpl.n	800190a <HAL_RCC_OscConfig+0x2e>
 8001908:	e166      	b.n	8001bd8 <HAL_RCC_OscConfig+0x2fc>
 800190a:	6a23      	ldr	r3, [r4, #32]
 800190c:	2b00      	cmp	r3, #0
 800190e:	d000      	beq.n	8001912 <HAL_RCC_OscConfig+0x36>
 8001910:	e1a5      	b.n	8001c5e <HAL_RCC_OscConfig+0x382>
 8001912:	2000      	movs	r0, #0
 8001914:	e029      	b.n	800196a <HAL_RCC_OscConfig+0x8e>
 8001916:	2238      	movs	r2, #56	; 0x38
 8001918:	4dbb      	ldr	r5, [pc, #748]	; (8001c08 <HAL_RCC_OscConfig+0x32c>)
 800191a:	68ab      	ldr	r3, [r5, #8]
 800191c:	4013      	ands	r3, r2
 800191e:	68ea      	ldr	r2, [r5, #12]
 8001920:	2b10      	cmp	r3, #16
 8001922:	d10a      	bne.n	800193a <HAL_RCC_OscConfig+0x5e>
 8001924:	43d2      	mvns	r2, r2
 8001926:	0793      	lsls	r3, r2, #30
 8001928:	d109      	bne.n	800193e <HAL_RCC_OscConfig+0x62>
 800192a:	682b      	ldr	r3, [r5, #0]
 800192c:	039b      	lsls	r3, r3, #14
 800192e:	d5dd      	bpl.n	80018ec <HAL_RCC_OscConfig+0x10>
 8001930:	6863      	ldr	r3, [r4, #4]
 8001932:	2b00      	cmp	r3, #0
 8001934:	d1da      	bne.n	80018ec <HAL_RCC_OscConfig+0x10>
 8001936:	2001      	movs	r0, #1
 8001938:	e017      	b.n	800196a <HAL_RCC_OscConfig+0x8e>
 800193a:	2b08      	cmp	r3, #8
 800193c:	d0f5      	beq.n	800192a <HAL_RCC_OscConfig+0x4e>
 800193e:	2280      	movs	r2, #128	; 0x80
 8001940:	6863      	ldr	r3, [r4, #4]
 8001942:	0252      	lsls	r2, r2, #9
 8001944:	4293      	cmp	r3, r2
 8001946:	d112      	bne.n	800196e <HAL_RCC_OscConfig+0x92>
 8001948:	682a      	ldr	r2, [r5, #0]
 800194a:	4313      	orrs	r3, r2
 800194c:	602b      	str	r3, [r5, #0]
 800194e:	f7ff fa65 	bl	8000e1c <HAL_GetTick>
 8001952:	2780      	movs	r7, #128	; 0x80
 8001954:	0006      	movs	r6, r0
 8001956:	02bf      	lsls	r7, r7, #10
 8001958:	682b      	ldr	r3, [r5, #0]
 800195a:	423b      	tst	r3, r7
 800195c:	d1c6      	bne.n	80018ec <HAL_RCC_OscConfig+0x10>
 800195e:	f7ff fa5d 	bl	8000e1c <HAL_GetTick>
 8001962:	1b80      	subs	r0, r0, r6
 8001964:	2864      	cmp	r0, #100	; 0x64
 8001966:	d9f7      	bls.n	8001958 <HAL_RCC_OscConfig+0x7c>
 8001968:	2003      	movs	r0, #3
 800196a:	b005      	add	sp, #20
 800196c:	bdf0      	pop	{r4, r5, r6, r7, pc}
 800196e:	21a0      	movs	r1, #160	; 0xa0
 8001970:	02c9      	lsls	r1, r1, #11
 8001972:	428b      	cmp	r3, r1
 8001974:	d108      	bne.n	8001988 <HAL_RCC_OscConfig+0xac>
 8001976:	2380      	movs	r3, #128	; 0x80
 8001978:	6829      	ldr	r1, [r5, #0]
 800197a:	02db      	lsls	r3, r3, #11
 800197c:	430b      	orrs	r3, r1
 800197e:	602b      	str	r3, [r5, #0]
 8001980:	682b      	ldr	r3, [r5, #0]
 8001982:	431a      	orrs	r2, r3
 8001984:	602a      	str	r2, [r5, #0]
 8001986:	e7e2      	b.n	800194e <HAL_RCC_OscConfig+0x72>
 8001988:	682a      	ldr	r2, [r5, #0]
 800198a:	49a0      	ldr	r1, [pc, #640]	; (8001c0c <HAL_RCC_OscConfig+0x330>)
 800198c:	400a      	ands	r2, r1
 800198e:	602a      	str	r2, [r5, #0]
 8001990:	682a      	ldr	r2, [r5, #0]
 8001992:	499f      	ldr	r1, [pc, #636]	; (8001c10 <HAL_RCC_OscConfig+0x334>)
 8001994:	400a      	ands	r2, r1
 8001996:	602a      	str	r2, [r5, #0]
 8001998:	2b00      	cmp	r3, #0
 800199a:	d1d8      	bne.n	800194e <HAL_RCC_OscConfig+0x72>
 800199c:	f7ff fa3e 	bl	8000e1c <HAL_GetTick>
 80019a0:	2780      	movs	r7, #128	; 0x80
 80019a2:	0006      	movs	r6, r0
 80019a4:	02bf      	lsls	r7, r7, #10
 80019a6:	682b      	ldr	r3, [r5, #0]
 80019a8:	423b      	tst	r3, r7
 80019aa:	d09f      	beq.n	80018ec <HAL_RCC_OscConfig+0x10>
 80019ac:	f7ff fa36 	bl	8000e1c <HAL_GetTick>
 80019b0:	1b80      	subs	r0, r0, r6
 80019b2:	2864      	cmp	r0, #100	; 0x64
 80019b4:	d9f7      	bls.n	80019a6 <HAL_RCC_OscConfig+0xca>
 80019b6:	e7d7      	b.n	8001968 <HAL_RCC_OscConfig+0x8c>
 80019b8:	2338      	movs	r3, #56	; 0x38
 80019ba:	4d93      	ldr	r5, [pc, #588]	; (8001c08 <HAL_RCC_OscConfig+0x32c>)
 80019bc:	68aa      	ldr	r2, [r5, #8]
 80019be:	4013      	ands	r3, r2
 80019c0:	68ea      	ldr	r2, [r5, #12]
 80019c2:	2b10      	cmp	r3, #16
 80019c4:	d128      	bne.n	8001a18 <HAL_RCC_OscConfig+0x13c>
 80019c6:	2103      	movs	r1, #3
 80019c8:	400a      	ands	r2, r1
 80019ca:	2a02      	cmp	r2, #2
 80019cc:	d126      	bne.n	8001a1c <HAL_RCC_OscConfig+0x140>
 80019ce:	682a      	ldr	r2, [r5, #0]
 80019d0:	0552      	lsls	r2, r2, #21
 80019d2:	d502      	bpl.n	80019da <HAL_RCC_OscConfig+0xfe>
 80019d4:	68e2      	ldr	r2, [r4, #12]
 80019d6:	2a00      	cmp	r2, #0
 80019d8:	d0ad      	beq.n	8001936 <HAL_RCC_OscConfig+0x5a>
 80019da:	6869      	ldr	r1, [r5, #4]
 80019dc:	6962      	ldr	r2, [r4, #20]
 80019de:	488d      	ldr	r0, [pc, #564]	; (8001c14 <HAL_RCC_OscConfig+0x338>)
 80019e0:	0212      	lsls	r2, r2, #8
 80019e2:	4001      	ands	r1, r0
 80019e4:	430a      	orrs	r2, r1
 80019e6:	606a      	str	r2, [r5, #4]
 80019e8:	2b00      	cmp	r3, #0
 80019ea:	d10d      	bne.n	8001a08 <HAL_RCC_OscConfig+0x12c>
 80019ec:	682b      	ldr	r3, [r5, #0]
 80019ee:	4a8a      	ldr	r2, [pc, #552]	; (8001c18 <HAL_RCC_OscConfig+0x33c>)
 80019f0:	4013      	ands	r3, r2
 80019f2:	6922      	ldr	r2, [r4, #16]
 80019f4:	4313      	orrs	r3, r2
 80019f6:	602b      	str	r3, [r5, #0]
 80019f8:	682b      	ldr	r3, [r5, #0]
 80019fa:	4a88      	ldr	r2, [pc, #544]	; (8001c1c <HAL_RCC_OscConfig+0x340>)
 80019fc:	049b      	lsls	r3, r3, #18
 80019fe:	0f5b      	lsrs	r3, r3, #29
 8001a00:	40da      	lsrs	r2, r3
 8001a02:	0013      	movs	r3, r2
 8001a04:	4a86      	ldr	r2, [pc, #536]	; (8001c20 <HAL_RCC_OscConfig+0x344>)
 8001a06:	6013      	str	r3, [r2, #0]
 8001a08:	4b86      	ldr	r3, [pc, #536]	; (8001c24 <HAL_RCC_OscConfig+0x348>)
 8001a0a:	6818      	ldr	r0, [r3, #0]
 8001a0c:	f7ff f9be 	bl	8000d8c <HAL_InitTick>
 8001a10:	2800      	cmp	r0, #0
 8001a12:	d100      	bne.n	8001a16 <HAL_RCC_OscConfig+0x13a>
 8001a14:	e76d      	b.n	80018f2 <HAL_RCC_OscConfig+0x16>
 8001a16:	e78e      	b.n	8001936 <HAL_RCC_OscConfig+0x5a>
 8001a18:	2b00      	cmp	r3, #0
 8001a1a:	d0d8      	beq.n	80019ce <HAL_RCC_OscConfig+0xf2>
 8001a1c:	68e3      	ldr	r3, [r4, #12]
 8001a1e:	2b00      	cmp	r3, #0
 8001a20:	d020      	beq.n	8001a64 <HAL_RCC_OscConfig+0x188>
 8001a22:	682b      	ldr	r3, [r5, #0]
 8001a24:	4a7c      	ldr	r2, [pc, #496]	; (8001c18 <HAL_RCC_OscConfig+0x33c>)
 8001a26:	2780      	movs	r7, #128	; 0x80
 8001a28:	4013      	ands	r3, r2
 8001a2a:	6922      	ldr	r2, [r4, #16]
 8001a2c:	00ff      	lsls	r7, r7, #3
 8001a2e:	4313      	orrs	r3, r2
 8001a30:	602b      	str	r3, [r5, #0]
 8001a32:	2380      	movs	r3, #128	; 0x80
 8001a34:	682a      	ldr	r2, [r5, #0]
 8001a36:	005b      	lsls	r3, r3, #1
 8001a38:	4313      	orrs	r3, r2
 8001a3a:	602b      	str	r3, [r5, #0]
 8001a3c:	f7ff f9ee 	bl	8000e1c <HAL_GetTick>
 8001a40:	0006      	movs	r6, r0
 8001a42:	682b      	ldr	r3, [r5, #0]
 8001a44:	423b      	tst	r3, r7
 8001a46:	d007      	beq.n	8001a58 <HAL_RCC_OscConfig+0x17c>
 8001a48:	686a      	ldr	r2, [r5, #4]
 8001a4a:	6963      	ldr	r3, [r4, #20]
 8001a4c:	4971      	ldr	r1, [pc, #452]	; (8001c14 <HAL_RCC_OscConfig+0x338>)
 8001a4e:	021b      	lsls	r3, r3, #8
 8001a50:	400a      	ands	r2, r1
 8001a52:	4313      	orrs	r3, r2
 8001a54:	606b      	str	r3, [r5, #4]
 8001a56:	e74c      	b.n	80018f2 <HAL_RCC_OscConfig+0x16>
 8001a58:	f7ff f9e0 	bl	8000e1c <HAL_GetTick>
 8001a5c:	1b80      	subs	r0, r0, r6
 8001a5e:	2802      	cmp	r0, #2
 8001a60:	d9ef      	bls.n	8001a42 <HAL_RCC_OscConfig+0x166>
 8001a62:	e781      	b.n	8001968 <HAL_RCC_OscConfig+0x8c>
 8001a64:	682b      	ldr	r3, [r5, #0]
 8001a66:	4a70      	ldr	r2, [pc, #448]	; (8001c28 <HAL_RCC_OscConfig+0x34c>)
 8001a68:	2780      	movs	r7, #128	; 0x80
 8001a6a:	4013      	ands	r3, r2
 8001a6c:	602b      	str	r3, [r5, #0]
 8001a6e:	f7ff f9d5 	bl	8000e1c <HAL_GetTick>
 8001a72:	0006      	movs	r6, r0
 8001a74:	00ff      	lsls	r7, r7, #3
 8001a76:	682b      	ldr	r3, [r5, #0]
 8001a78:	423b      	tst	r3, r7
 8001a7a:	d100      	bne.n	8001a7e <HAL_RCC_OscConfig+0x1a2>
 8001a7c:	e739      	b.n	80018f2 <HAL_RCC_OscConfig+0x16>
 8001a7e:	f7ff f9cd 	bl	8000e1c <HAL_GetTick>
 8001a82:	1b80      	subs	r0, r0, r6
 8001a84:	2802      	cmp	r0, #2
 8001a86:	d9f6      	bls.n	8001a76 <HAL_RCC_OscConfig+0x19a>
 8001a88:	e76e      	b.n	8001968 <HAL_RCC_OscConfig+0x8c>
 8001a8a:	2238      	movs	r2, #56	; 0x38
 8001a8c:	4d5e      	ldr	r5, [pc, #376]	; (8001c08 <HAL_RCC_OscConfig+0x32c>)
 8001a8e:	68ab      	ldr	r3, [r5, #8]
 8001a90:	4013      	ands	r3, r2
 8001a92:	2b18      	cmp	r3, #24
 8001a94:	d108      	bne.n	8001aa8 <HAL_RCC_OscConfig+0x1cc>
 8001a96:	6e2b      	ldr	r3, [r5, #96]	; 0x60
 8001a98:	079b      	lsls	r3, r3, #30
 8001a9a:	d400      	bmi.n	8001a9e <HAL_RCC_OscConfig+0x1c2>
 8001a9c:	e72d      	b.n	80018fa <HAL_RCC_OscConfig+0x1e>
 8001a9e:	69a3      	ldr	r3, [r4, #24]
 8001aa0:	2b00      	cmp	r3, #0
 8001aa2:	d000      	beq.n	8001aa6 <HAL_RCC_OscConfig+0x1ca>
 8001aa4:	e729      	b.n	80018fa <HAL_RCC_OscConfig+0x1e>
 8001aa6:	e746      	b.n	8001936 <HAL_RCC_OscConfig+0x5a>
 8001aa8:	69a2      	ldr	r2, [r4, #24]
 8001aaa:	2301      	movs	r3, #1
 8001aac:	2a00      	cmp	r2, #0
 8001aae:	d010      	beq.n	8001ad2 <HAL_RCC_OscConfig+0x1f6>
 8001ab0:	6e2a      	ldr	r2, [r5, #96]	; 0x60
 8001ab2:	2702      	movs	r7, #2
 8001ab4:	4313      	orrs	r3, r2
 8001ab6:	662b      	str	r3, [r5, #96]	; 0x60
 8001ab8:	f7ff f9b0 	bl	8000e1c <HAL_GetTick>
 8001abc:	0006      	movs	r6, r0
 8001abe:	6e2b      	ldr	r3, [r5, #96]	; 0x60
 8001ac0:	423b      	tst	r3, r7
 8001ac2:	d000      	beq.n	8001ac6 <HAL_RCC_OscConfig+0x1ea>
 8001ac4:	e719      	b.n	80018fa <HAL_RCC_OscConfig+0x1e>
 8001ac6:	f7ff f9a9 	bl	8000e1c <HAL_GetTick>
 8001aca:	1b80      	subs	r0, r0, r6
 8001acc:	2802      	cmp	r0, #2
 8001ace:	d9f6      	bls.n	8001abe <HAL_RCC_OscConfig+0x1e2>
 8001ad0:	e74a      	b.n	8001968 <HAL_RCC_OscConfig+0x8c>
 8001ad2:	6e2a      	ldr	r2, [r5, #96]	; 0x60
 8001ad4:	2702      	movs	r7, #2
 8001ad6:	439a      	bics	r2, r3
 8001ad8:	662a      	str	r2, [r5, #96]	; 0x60
 8001ada:	f7ff f99f 	bl	8000e1c <HAL_GetTick>
 8001ade:	0006      	movs	r6, r0
 8001ae0:	6e2b      	ldr	r3, [r5, #96]	; 0x60
 8001ae2:	423b      	tst	r3, r7
 8001ae4:	d100      	bne.n	8001ae8 <HAL_RCC_OscConfig+0x20c>
 8001ae6:	e708      	b.n	80018fa <HAL_RCC_OscConfig+0x1e>
 8001ae8:	f7ff f998 	bl	8000e1c <HAL_GetTick>
 8001aec:	1b80      	subs	r0, r0, r6
 8001aee:	2802      	cmp	r0, #2
 8001af0:	d9f6      	bls.n	8001ae0 <HAL_RCC_OscConfig+0x204>
 8001af2:	e739      	b.n	8001968 <HAL_RCC_OscConfig+0x8c>
 8001af4:	2238      	movs	r2, #56	; 0x38
 8001af6:	4d44      	ldr	r5, [pc, #272]	; (8001c08 <HAL_RCC_OscConfig+0x32c>)
 8001af8:	68ab      	ldr	r3, [r5, #8]
 8001afa:	4013      	ands	r3, r2
 8001afc:	2b20      	cmp	r3, #32
 8001afe:	d108      	bne.n	8001b12 <HAL_RCC_OscConfig+0x236>
 8001b00:	6deb      	ldr	r3, [r5, #92]	; 0x5c
 8001b02:	079b      	lsls	r3, r3, #30
 8001b04:	d400      	bmi.n	8001b08 <HAL_RCC_OscConfig+0x22c>
 8001b06:	e6fc      	b.n	8001902 <HAL_RCC_OscConfig+0x26>
 8001b08:	68a3      	ldr	r3, [r4, #8]
 8001b0a:	2b00      	cmp	r3, #0
 8001b0c:	d000      	beq.n	8001b10 <HAL_RCC_OscConfig+0x234>
 8001b0e:	e6f8      	b.n	8001902 <HAL_RCC_OscConfig+0x26>
 8001b10:	e711      	b.n	8001936 <HAL_RCC_OscConfig+0x5a>
 8001b12:	2280      	movs	r2, #128	; 0x80
 8001b14:	2100      	movs	r1, #0
 8001b16:	6beb      	ldr	r3, [r5, #60]	; 0x3c
 8001b18:	0552      	lsls	r2, r2, #21
 8001b1a:	9100      	str	r1, [sp, #0]
 8001b1c:	4213      	tst	r3, r2
 8001b1e:	d108      	bne.n	8001b32 <HAL_RCC_OscConfig+0x256>
 8001b20:	6beb      	ldr	r3, [r5, #60]	; 0x3c
 8001b22:	4313      	orrs	r3, r2
 8001b24:	63eb      	str	r3, [r5, #60]	; 0x3c
 8001b26:	6beb      	ldr	r3, [r5, #60]	; 0x3c
 8001b28:	4013      	ands	r3, r2
 8001b2a:	9303      	str	r3, [sp, #12]
 8001b2c:	9b03      	ldr	r3, [sp, #12]
 8001b2e:	2301      	movs	r3, #1
 8001b30:	9300      	str	r3, [sp, #0]
 8001b32:	2780      	movs	r7, #128	; 0x80
 8001b34:	4e3d      	ldr	r6, [pc, #244]	; (8001c2c <HAL_RCC_OscConfig+0x350>)
 8001b36:	007f      	lsls	r7, r7, #1
 8001b38:	6833      	ldr	r3, [r6, #0]
 8001b3a:	423b      	tst	r3, r7
 8001b3c:	d015      	beq.n	8001b6a <HAL_RCC_OscConfig+0x28e>
 8001b3e:	68a3      	ldr	r3, [r4, #8]
 8001b40:	2b01      	cmp	r3, #1
 8001b42:	d122      	bne.n	8001b8a <HAL_RCC_OscConfig+0x2ae>
 8001b44:	6dea      	ldr	r2, [r5, #92]	; 0x5c
 8001b46:	4313      	orrs	r3, r2
 8001b48:	65eb      	str	r3, [r5, #92]	; 0x5c
 8001b4a:	f7ff f967 	bl	8000e1c <HAL_GetTick>
 8001b4e:	2702      	movs	r7, #2
 8001b50:	0006      	movs	r6, r0
 8001b52:	6deb      	ldr	r3, [r5, #92]	; 0x5c
 8001b54:	423b      	tst	r3, r7
 8001b56:	d038      	beq.n	8001bca <HAL_RCC_OscConfig+0x2ee>
 8001b58:	9b00      	ldr	r3, [sp, #0]
 8001b5a:	2b01      	cmp	r3, #1
 8001b5c:	d000      	beq.n	8001b60 <HAL_RCC_OscConfig+0x284>
 8001b5e:	e6d0      	b.n	8001902 <HAL_RCC_OscConfig+0x26>
 8001b60:	6beb      	ldr	r3, [r5, #60]	; 0x3c
 8001b62:	4a33      	ldr	r2, [pc, #204]	; (8001c30 <HAL_RCC_OscConfig+0x354>)
 8001b64:	4013      	ands	r3, r2
 8001b66:	63eb      	str	r3, [r5, #60]	; 0x3c
 8001b68:	e6cb      	b.n	8001902 <HAL_RCC_OscConfig+0x26>
 8001b6a:	6833      	ldr	r3, [r6, #0]
 8001b6c:	433b      	orrs	r3, r7
 8001b6e:	6033      	str	r3, [r6, #0]
 8001b70:	f7ff f954 	bl	8000e1c <HAL_GetTick>
 8001b74:	9001      	str	r0, [sp, #4]
 8001b76:	6833      	ldr	r3, [r6, #0]
 8001b78:	423b      	tst	r3, r7
 8001b7a:	d1e0      	bne.n	8001b3e <HAL_RCC_OscConfig+0x262>
 8001b7c:	f7ff f94e 	bl	8000e1c <HAL_GetTick>
 8001b80:	9b01      	ldr	r3, [sp, #4]
 8001b82:	1ac0      	subs	r0, r0, r3
 8001b84:	2802      	cmp	r0, #2
 8001b86:	d9f6      	bls.n	8001b76 <HAL_RCC_OscConfig+0x29a>
 8001b88:	e6ee      	b.n	8001968 <HAL_RCC_OscConfig+0x8c>
 8001b8a:	6dea      	ldr	r2, [r5, #92]	; 0x5c
 8001b8c:	2b05      	cmp	r3, #5
 8001b8e:	d105      	bne.n	8001b9c <HAL_RCC_OscConfig+0x2c0>
 8001b90:	3b01      	subs	r3, #1
 8001b92:	4313      	orrs	r3, r2
 8001b94:	65eb      	str	r3, [r5, #92]	; 0x5c
 8001b96:	6dea      	ldr	r2, [r5, #92]	; 0x5c
 8001b98:	2301      	movs	r3, #1
 8001b9a:	e7d4      	b.n	8001b46 <HAL_RCC_OscConfig+0x26a>
 8001b9c:	2101      	movs	r1, #1
 8001b9e:	438a      	bics	r2, r1
 8001ba0:	65ea      	str	r2, [r5, #92]	; 0x5c
 8001ba2:	6dea      	ldr	r2, [r5, #92]	; 0x5c
 8001ba4:	3103      	adds	r1, #3
 8001ba6:	438a      	bics	r2, r1
 8001ba8:	65ea      	str	r2, [r5, #92]	; 0x5c
 8001baa:	2b00      	cmp	r3, #0
 8001bac:	d1cd      	bne.n	8001b4a <HAL_RCC_OscConfig+0x26e>
 8001bae:	f7ff f935 	bl	8000e1c <HAL_GetTick>
 8001bb2:	2702      	movs	r7, #2
 8001bb4:	0006      	movs	r6, r0
 8001bb6:	6deb      	ldr	r3, [r5, #92]	; 0x5c
 8001bb8:	423b      	tst	r3, r7
 8001bba:	d0cd      	beq.n	8001b58 <HAL_RCC_OscConfig+0x27c>
 8001bbc:	f7ff f92e 	bl	8000e1c <HAL_GetTick>
 8001bc0:	4b1c      	ldr	r3, [pc, #112]	; (8001c34 <HAL_RCC_OscConfig+0x358>)
 8001bc2:	1b80      	subs	r0, r0, r6
 8001bc4:	4298      	cmp	r0, r3
 8001bc6:	d9f6      	bls.n	8001bb6 <HAL_RCC_OscConfig+0x2da>
 8001bc8:	e6ce      	b.n	8001968 <HAL_RCC_OscConfig+0x8c>
 8001bca:	f7ff f927 	bl	8000e1c <HAL_GetTick>
 8001bce:	4b19      	ldr	r3, [pc, #100]	; (8001c34 <HAL_RCC_OscConfig+0x358>)
 8001bd0:	1b80      	subs	r0, r0, r6
 8001bd2:	4298      	cmp	r0, r3
 8001bd4:	d9bd      	bls.n	8001b52 <HAL_RCC_OscConfig+0x276>
 8001bd6:	e6c7      	b.n	8001968 <HAL_RCC_OscConfig+0x8c>
 8001bd8:	69e3      	ldr	r3, [r4, #28]
 8001bda:	4d0b      	ldr	r5, [pc, #44]	; (8001c08 <HAL_RCC_OscConfig+0x32c>)
 8001bdc:	2b00      	cmp	r3, #0
 8001bde:	d02b      	beq.n	8001c38 <HAL_RCC_OscConfig+0x35c>
 8001be0:	2380      	movs	r3, #128	; 0x80
 8001be2:	682a      	ldr	r2, [r5, #0]
 8001be4:	03db      	lsls	r3, r3, #15
 8001be6:	4313      	orrs	r3, r2
 8001be8:	602b      	str	r3, [r5, #0]
 8001bea:	f7ff f917 	bl	8000e1c <HAL_GetTick>
 8001bee:	2780      	movs	r7, #128	; 0x80
 8001bf0:	0006      	movs	r6, r0
 8001bf2:	043f      	lsls	r7, r7, #16
 8001bf4:	682b      	ldr	r3, [r5, #0]
 8001bf6:	423b      	tst	r3, r7
 8001bf8:	d000      	beq.n	8001bfc <HAL_RCC_OscConfig+0x320>
 8001bfa:	e686      	b.n	800190a <HAL_RCC_OscConfig+0x2e>
 8001bfc:	f7ff f90e 	bl	8000e1c <HAL_GetTick>
 8001c00:	1b80      	subs	r0, r0, r6
 8001c02:	2802      	cmp	r0, #2
 8001c04:	d9f6      	bls.n	8001bf4 <HAL_RCC_OscConfig+0x318>
 8001c06:	e6af      	b.n	8001968 <HAL_RCC_OscConfig+0x8c>
 8001c08:	40021000 	.word	0x40021000
 8001c0c:	fffeffff 	.word	0xfffeffff
 8001c10:	fffbffff 	.word	0xfffbffff
 8001c14:	ffff80ff 	.word	0xffff80ff
 8001c18:	ffffc7ff 	.word	0xffffc7ff
 8001c1c:	00f42400 	.word	0x00f42400
 8001c20:	20000000 	.word	0x20000000
 8001c24:	20000008 	.word	0x20000008
 8001c28:	fffffeff 	.word	0xfffffeff
 8001c2c:	40007000 	.word	0x40007000
 8001c30:	efffffff 	.word	0xefffffff
 8001c34:	00001388 	.word	0x00001388
 8001c38:	682b      	ldr	r3, [r5, #0]
 8001c3a:	4a4e      	ldr	r2, [pc, #312]	; (8001d74 <HAL_RCC_OscConfig+0x498>)
 8001c3c:	2780      	movs	r7, #128	; 0x80
 8001c3e:	4013      	ands	r3, r2
 8001c40:	602b      	str	r3, [r5, #0]
 8001c42:	f7ff f8eb 	bl	8000e1c <HAL_GetTick>
 8001c46:	0006      	movs	r6, r0
 8001c48:	043f      	lsls	r7, r7, #16
 8001c4a:	682b      	ldr	r3, [r5, #0]
 8001c4c:	423b      	tst	r3, r7
 8001c4e:	d100      	bne.n	8001c52 <HAL_RCC_OscConfig+0x376>
 8001c50:	e65b      	b.n	800190a <HAL_RCC_OscConfig+0x2e>
 8001c52:	f7ff f8e3 	bl	8000e1c <HAL_GetTick>
 8001c56:	1b80      	subs	r0, r0, r6
 8001c58:	2802      	cmp	r0, #2
 8001c5a:	d9f6      	bls.n	8001c4a <HAL_RCC_OscConfig+0x36e>
 8001c5c:	e684      	b.n	8001968 <HAL_RCC_OscConfig+0x8c>
 8001c5e:	2138      	movs	r1, #56	; 0x38
 8001c60:	4d45      	ldr	r5, [pc, #276]	; (8001d78 <HAL_RCC_OscConfig+0x49c>)
 8001c62:	68aa      	ldr	r2, [r5, #8]
 8001c64:	400a      	ands	r2, r1
 8001c66:	2a10      	cmp	r2, #16
 8001c68:	d055      	beq.n	8001d16 <HAL_RCC_OscConfig+0x43a>
 8001c6a:	4a44      	ldr	r2, [pc, #272]	; (8001d7c <HAL_RCC_OscConfig+0x4a0>)
 8001c6c:	2b02      	cmp	r3, #2
 8001c6e:	d13a      	bne.n	8001ce6 <HAL_RCC_OscConfig+0x40a>
 8001c70:	682b      	ldr	r3, [r5, #0]
 8001c72:	2780      	movs	r7, #128	; 0x80
 8001c74:	4013      	ands	r3, r2
 8001c76:	602b      	str	r3, [r5, #0]
 8001c78:	f7ff f8d0 	bl	8000e1c <HAL_GetTick>
 8001c7c:	0006      	movs	r6, r0
 8001c7e:	04bf      	lsls	r7, r7, #18
 8001c80:	682b      	ldr	r3, [r5, #0]
 8001c82:	423b      	tst	r3, r7
 8001c84:	d129      	bne.n	8001cda <HAL_RCC_OscConfig+0x3fe>
 8001c86:	6aa1      	ldr	r1, [r4, #40]	; 0x28
 8001c88:	6a63      	ldr	r3, [r4, #36]	; 0x24
 8001c8a:	68ea      	ldr	r2, [r5, #12]
 8001c8c:	430b      	orrs	r3, r1
 8001c8e:	493c      	ldr	r1, [pc, #240]	; (8001d80 <HAL_RCC_OscConfig+0x4a4>)
 8001c90:	2680      	movs	r6, #128	; 0x80
 8001c92:	400a      	ands	r2, r1
 8001c94:	4313      	orrs	r3, r2
 8001c96:	6b22      	ldr	r2, [r4, #48]	; 0x30
 8001c98:	04b6      	lsls	r6, r6, #18
 8001c9a:	4313      	orrs	r3, r2
 8001c9c:	6b62      	ldr	r2, [r4, #52]	; 0x34
 8001c9e:	4313      	orrs	r3, r2
 8001ca0:	6ba2      	ldr	r2, [r4, #56]	; 0x38
 8001ca2:	4313      	orrs	r3, r2
 8001ca4:	6ae2      	ldr	r2, [r4, #44]	; 0x2c
 8001ca6:	0212      	lsls	r2, r2, #8
 8001ca8:	4313      	orrs	r3, r2
 8001caa:	60eb      	str	r3, [r5, #12]
 8001cac:	2380      	movs	r3, #128	; 0x80
 8001cae:	682a      	ldr	r2, [r5, #0]
 8001cb0:	045b      	lsls	r3, r3, #17
 8001cb2:	4313      	orrs	r3, r2
 8001cb4:	602b      	str	r3, [r5, #0]
 8001cb6:	2380      	movs	r3, #128	; 0x80
 8001cb8:	68ea      	ldr	r2, [r5, #12]
 8001cba:	055b      	lsls	r3, r3, #21
 8001cbc:	4313      	orrs	r3, r2
 8001cbe:	60eb      	str	r3, [r5, #12]
 8001cc0:	f7ff f8ac 	bl	8000e1c <HAL_GetTick>
 8001cc4:	0004      	movs	r4, r0
 8001cc6:	682b      	ldr	r3, [r5, #0]
 8001cc8:	4233      	tst	r3, r6
 8001cca:	d000      	beq.n	8001cce <HAL_RCC_OscConfig+0x3f2>
 8001ccc:	e621      	b.n	8001912 <HAL_RCC_OscConfig+0x36>
 8001cce:	f7ff f8a5 	bl	8000e1c <HAL_GetTick>
 8001cd2:	1b00      	subs	r0, r0, r4
 8001cd4:	2802      	cmp	r0, #2
 8001cd6:	d9f6      	bls.n	8001cc6 <HAL_RCC_OscConfig+0x3ea>
 8001cd8:	e646      	b.n	8001968 <HAL_RCC_OscConfig+0x8c>
 8001cda:	f7ff f89f 	bl	8000e1c <HAL_GetTick>
 8001cde:	1b80      	subs	r0, r0, r6
 8001ce0:	2802      	cmp	r0, #2
 8001ce2:	d9cd      	bls.n	8001c80 <HAL_RCC_OscConfig+0x3a4>
 8001ce4:	e640      	b.n	8001968 <HAL_RCC_OscConfig+0x8c>
 8001ce6:	682b      	ldr	r3, [r5, #0]
 8001ce8:	2680      	movs	r6, #128	; 0x80
 8001cea:	4013      	ands	r3, r2
 8001cec:	602b      	str	r3, [r5, #0]
 8001cee:	f7ff f895 	bl	8000e1c <HAL_GetTick>
 8001cf2:	0004      	movs	r4, r0
 8001cf4:	04b6      	lsls	r6, r6, #18
 8001cf6:	682b      	ldr	r3, [r5, #0]
 8001cf8:	0018      	movs	r0, r3
 8001cfa:	4030      	ands	r0, r6
 8001cfc:	4233      	tst	r3, r6
 8001cfe:	d104      	bne.n	8001d0a <HAL_RCC_OscConfig+0x42e>
 8001d00:	68eb      	ldr	r3, [r5, #12]
 8001d02:	4a20      	ldr	r2, [pc, #128]	; (8001d84 <HAL_RCC_OscConfig+0x4a8>)
 8001d04:	4013      	ands	r3, r2
 8001d06:	60eb      	str	r3, [r5, #12]
 8001d08:	e62f      	b.n	800196a <HAL_RCC_OscConfig+0x8e>
 8001d0a:	f7ff f887 	bl	8000e1c <HAL_GetTick>
 8001d0e:	1b00      	subs	r0, r0, r4
 8001d10:	2802      	cmp	r0, #2
 8001d12:	d9f0      	bls.n	8001cf6 <HAL_RCC_OscConfig+0x41a>
 8001d14:	e628      	b.n	8001968 <HAL_RCC_OscConfig+0x8c>
 8001d16:	0018      	movs	r0, r3
 8001d18:	2b01      	cmp	r3, #1
 8001d1a:	d100      	bne.n	8001d1e <HAL_RCC_OscConfig+0x442>
 8001d1c:	e625      	b.n	800196a <HAL_RCC_OscConfig+0x8e>
 8001d1e:	2203      	movs	r2, #3
 8001d20:	68eb      	ldr	r3, [r5, #12]
 8001d22:	6a61      	ldr	r1, [r4, #36]	; 0x24
 8001d24:	401a      	ands	r2, r3
 8001d26:	428a      	cmp	r2, r1
 8001d28:	d000      	beq.n	8001d2c <HAL_RCC_OscConfig+0x450>
 8001d2a:	e604      	b.n	8001936 <HAL_RCC_OscConfig+0x5a>
 8001d2c:	2270      	movs	r2, #112	; 0x70
 8001d2e:	6aa1      	ldr	r1, [r4, #40]	; 0x28
 8001d30:	401a      	ands	r2, r3
 8001d32:	428a      	cmp	r2, r1
 8001d34:	d000      	beq.n	8001d38 <HAL_RCC_OscConfig+0x45c>
 8001d36:	e5fe      	b.n	8001936 <HAL_RCC_OscConfig+0x5a>
 8001d38:	21fe      	movs	r1, #254	; 0xfe
 8001d3a:	6ae2      	ldr	r2, [r4, #44]	; 0x2c
 8001d3c:	01c9      	lsls	r1, r1, #7
 8001d3e:	4019      	ands	r1, r3
 8001d40:	0212      	lsls	r2, r2, #8
 8001d42:	4291      	cmp	r1, r2
 8001d44:	d000      	beq.n	8001d48 <HAL_RCC_OscConfig+0x46c>
 8001d46:	e5f6      	b.n	8001936 <HAL_RCC_OscConfig+0x5a>
 8001d48:	22f8      	movs	r2, #248	; 0xf8
 8001d4a:	6b21      	ldr	r1, [r4, #48]	; 0x30
 8001d4c:	0392      	lsls	r2, r2, #14
 8001d4e:	401a      	ands	r2, r3
 8001d50:	428a      	cmp	r2, r1
 8001d52:	d000      	beq.n	8001d56 <HAL_RCC_OscConfig+0x47a>
 8001d54:	e5ef      	b.n	8001936 <HAL_RCC_OscConfig+0x5a>
 8001d56:	22e0      	movs	r2, #224	; 0xe0
 8001d58:	6b61      	ldr	r1, [r4, #52]	; 0x34
 8001d5a:	0512      	lsls	r2, r2, #20
 8001d5c:	401a      	ands	r2, r3
 8001d5e:	428a      	cmp	r2, r1
 8001d60:	d000      	beq.n	8001d64 <HAL_RCC_OscConfig+0x488>
 8001d62:	e5e8      	b.n	8001936 <HAL_RCC_OscConfig+0x5a>
 8001d64:	6ba2      	ldr	r2, [r4, #56]	; 0x38
 8001d66:	0f5b      	lsrs	r3, r3, #29
 8001d68:	075b      	lsls	r3, r3, #29
 8001d6a:	4293      	cmp	r3, r2
 8001d6c:	d100      	bne.n	8001d70 <HAL_RCC_OscConfig+0x494>
 8001d6e:	e5d0      	b.n	8001912 <HAL_RCC_OscConfig+0x36>
 8001d70:	e5e1      	b.n	8001936 <HAL_RCC_OscConfig+0x5a>
 8001d72:	46c0      	nop			; (mov r8, r8)
 8001d74:	ffbfffff 	.word	0xffbfffff
 8001d78:	40021000 	.word	0x40021000
 8001d7c:	feffffff 	.word	0xfeffffff
 8001d80:	11c1808c 	.word	0x11c1808c
 8001d84:	eefefffc 	.word	0xeefefffc

08001d88 <HAL_RCC_GetSysClockFreq>:
 8001d88:	2338      	movs	r3, #56	; 0x38
 8001d8a:	b570      	push	{r4, r5, r6, lr}
 8001d8c:	4c1e      	ldr	r4, [pc, #120]	; (8001e08 <HAL_RCC_GetSysClockFreq+0x80>)
 8001d8e:	68a2      	ldr	r2, [r4, #8]
 8001d90:	421a      	tst	r2, r3
 8001d92:	d105      	bne.n	8001da0 <HAL_RCC_GetSysClockFreq+0x18>
 8001d94:	6823      	ldr	r3, [r4, #0]
 8001d96:	481d      	ldr	r0, [pc, #116]	; (8001e0c <HAL_RCC_GetSysClockFreq+0x84>)
 8001d98:	049b      	lsls	r3, r3, #18
 8001d9a:	0f5b      	lsrs	r3, r3, #29
 8001d9c:	40d8      	lsrs	r0, r3
 8001d9e:	bd70      	pop	{r4, r5, r6, pc}
 8001da0:	68a2      	ldr	r2, [r4, #8]
 8001da2:	401a      	ands	r2, r3
 8001da4:	2a08      	cmp	r2, #8
 8001da6:	d02a      	beq.n	8001dfe <HAL_RCC_GetSysClockFreq+0x76>
 8001da8:	68a2      	ldr	r2, [r4, #8]
 8001daa:	401a      	ands	r2, r3
 8001dac:	2a10      	cmp	r2, #16
 8001dae:	d11a      	bne.n	8001de6 <HAL_RCC_GetSysClockFreq+0x5e>
 8001db0:	68e3      	ldr	r3, [r4, #12]
 8001db2:	68e1      	ldr	r1, [r4, #12]
 8001db4:	43db      	mvns	r3, r3
 8001db6:	0649      	lsls	r1, r1, #25
 8001db8:	0f49      	lsrs	r1, r1, #29
 8001dba:	257f      	movs	r5, #127	; 0x7f
 8001dbc:	3101      	adds	r1, #1
 8001dbe:	079b      	lsls	r3, r3, #30
 8001dc0:	d10c      	bne.n	8001ddc <HAL_RCC_GetSysClockFreq+0x54>
 8001dc2:	68e3      	ldr	r3, [r4, #12]
 8001dc4:	4812      	ldr	r0, [pc, #72]	; (8001e10 <HAL_RCC_GetSysClockFreq+0x88>)
 8001dc6:	0a1b      	lsrs	r3, r3, #8
 8001dc8:	401d      	ands	r5, r3
 8001dca:	f7fe f9af 	bl	800012c <__udivsi3>
 8001dce:	68e1      	ldr	r1, [r4, #12]
 8001dd0:	4368      	muls	r0, r5
 8001dd2:	0f49      	lsrs	r1, r1, #29
 8001dd4:	3101      	adds	r1, #1
 8001dd6:	f7fe f9a9 	bl	800012c <__udivsi3>
 8001dda:	e7e0      	b.n	8001d9e <HAL_RCC_GetSysClockFreq+0x16>
 8001ddc:	68e3      	ldr	r3, [r4, #12]
 8001dde:	480b      	ldr	r0, [pc, #44]	; (8001e0c <HAL_RCC_GetSysClockFreq+0x84>)
 8001de0:	0a1b      	lsrs	r3, r3, #8
 8001de2:	401d      	ands	r5, r3
 8001de4:	e7f1      	b.n	8001dca <HAL_RCC_GetSysClockFreq+0x42>
 8001de6:	68a2      	ldr	r2, [r4, #8]
 8001de8:	401a      	ands	r2, r3
 8001dea:	2a20      	cmp	r2, #32
 8001dec:	d009      	beq.n	8001e02 <HAL_RCC_GetSysClockFreq+0x7a>
 8001dee:	68a2      	ldr	r2, [r4, #8]
 8001df0:	2000      	movs	r0, #0
 8001df2:	4013      	ands	r3, r2
 8001df4:	2b18      	cmp	r3, #24
 8001df6:	d1d2      	bne.n	8001d9e <HAL_RCC_GetSysClockFreq+0x16>
 8001df8:	20fa      	movs	r0, #250	; 0xfa
 8001dfa:	01c0      	lsls	r0, r0, #7
 8001dfc:	e7cf      	b.n	8001d9e <HAL_RCC_GetSysClockFreq+0x16>
 8001dfe:	4804      	ldr	r0, [pc, #16]	; (8001e10 <HAL_RCC_GetSysClockFreq+0x88>)
 8001e00:	e7cd      	b.n	8001d9e <HAL_RCC_GetSysClockFreq+0x16>
 8001e02:	2080      	movs	r0, #128	; 0x80
 8001e04:	0200      	lsls	r0, r0, #8
 8001e06:	e7ca      	b.n	8001d9e <HAL_RCC_GetSysClockFreq+0x16>
 8001e08:	40021000 	.word	0x40021000
 8001e0c:	00f42400 	.word	0x00f42400
 8001e10:	007a1200 	.word	0x007a1200

08001e14 <HAL_RCC_ClockConfig>:
 8001e14:	b5f7      	push	{r0, r1, r2, r4, r5, r6, r7, lr}
 8001e16:	0004      	movs	r4, r0
 8001e18:	000d      	movs	r5, r1
 8001e1a:	2800      	cmp	r0, #0
 8001e1c:	d101      	bne.n	8001e22 <HAL_RCC_ClockConfig+0xe>
 8001e1e:	2001      	movs	r0, #1
 8001e20:	bdfe      	pop	{r1, r2, r3, r4, r5, r6, r7, pc}
 8001e22:	2707      	movs	r7, #7
 8001e24:	4e4a      	ldr	r6, [pc, #296]	; (8001f50 <HAL_RCC_ClockConfig+0x13c>)
 8001e26:	6833      	ldr	r3, [r6, #0]
 8001e28:	403b      	ands	r3, r7
 8001e2a:	428b      	cmp	r3, r1
 8001e2c:	d32a      	bcc.n	8001e84 <HAL_RCC_ClockConfig+0x70>
 8001e2e:	6821      	ldr	r1, [r4, #0]
 8001e30:	078b      	lsls	r3, r1, #30
 8001e32:	d43b      	bmi.n	8001eac <HAL_RCC_ClockConfig+0x98>
 8001e34:	07cb      	lsls	r3, r1, #31
 8001e36:	d448      	bmi.n	8001eca <HAL_RCC_ClockConfig+0xb6>
 8001e38:	2707      	movs	r7, #7
 8001e3a:	6833      	ldr	r3, [r6, #0]
 8001e3c:	403b      	ands	r3, r7
 8001e3e:	42ab      	cmp	r3, r5
 8001e40:	d90a      	bls.n	8001e58 <HAL_RCC_ClockConfig+0x44>
 8001e42:	6833      	ldr	r3, [r6, #0]
 8001e44:	43bb      	bics	r3, r7
 8001e46:	432b      	orrs	r3, r5
 8001e48:	6033      	str	r3, [r6, #0]
 8001e4a:	f7fe ffe7 	bl	8000e1c <HAL_GetTick>
 8001e4e:	9001      	str	r0, [sp, #4]
 8001e50:	6833      	ldr	r3, [r6, #0]
 8001e52:	403b      	ands	r3, r7
 8001e54:	42ab      	cmp	r3, r5
 8001e56:	d16b      	bne.n	8001f30 <HAL_RCC_ClockConfig+0x11c>
 8001e58:	6823      	ldr	r3, [r4, #0]
 8001e5a:	4d3e      	ldr	r5, [pc, #248]	; (8001f54 <HAL_RCC_ClockConfig+0x140>)
 8001e5c:	075b      	lsls	r3, r3, #29
 8001e5e:	d46f      	bmi.n	8001f40 <HAL_RCC_ClockConfig+0x12c>
 8001e60:	f7ff ff92 	bl	8001d88 <HAL_RCC_GetSysClockFreq>
 8001e64:	68ab      	ldr	r3, [r5, #8]
 8001e66:	4a3c      	ldr	r2, [pc, #240]	; (8001f58 <HAL_RCC_ClockConfig+0x144>)
 8001e68:	051b      	lsls	r3, r3, #20
 8001e6a:	0f1b      	lsrs	r3, r3, #28
 8001e6c:	009b      	lsls	r3, r3, #2
 8001e6e:	589b      	ldr	r3, [r3, r2]
 8001e70:	221f      	movs	r2, #31
 8001e72:	4013      	ands	r3, r2
 8001e74:	40d8      	lsrs	r0, r3
 8001e76:	4b39      	ldr	r3, [pc, #228]	; (8001f5c <HAL_RCC_ClockConfig+0x148>)
 8001e78:	6018      	str	r0, [r3, #0]
 8001e7a:	4b39      	ldr	r3, [pc, #228]	; (8001f60 <HAL_RCC_ClockConfig+0x14c>)
 8001e7c:	6818      	ldr	r0, [r3, #0]
 8001e7e:	f7fe ff85 	bl	8000d8c <HAL_InitTick>
 8001e82:	e7cd      	b.n	8001e20 <HAL_RCC_ClockConfig+0xc>
 8001e84:	6833      	ldr	r3, [r6, #0]
 8001e86:	43bb      	bics	r3, r7
 8001e88:	430b      	orrs	r3, r1
 8001e8a:	6033      	str	r3, [r6, #0]
 8001e8c:	f7fe ffc6 	bl	8000e1c <HAL_GetTick>
 8001e90:	9001      	str	r0, [sp, #4]
 8001e92:	6833      	ldr	r3, [r6, #0]
 8001e94:	403b      	ands	r3, r7
 8001e96:	42ab      	cmp	r3, r5
 8001e98:	d0c9      	beq.n	8001e2e <HAL_RCC_ClockConfig+0x1a>
 8001e9a:	f7fe ffbf 	bl	8000e1c <HAL_GetTick>
 8001e9e:	9b01      	ldr	r3, [sp, #4]
 8001ea0:	1ac0      	subs	r0, r0, r3
 8001ea2:	4b30      	ldr	r3, [pc, #192]	; (8001f64 <HAL_RCC_ClockConfig+0x150>)
 8001ea4:	4298      	cmp	r0, r3
 8001ea6:	d9f4      	bls.n	8001e92 <HAL_RCC_ClockConfig+0x7e>
 8001ea8:	2003      	movs	r0, #3
 8001eaa:	e7b9      	b.n	8001e20 <HAL_RCC_ClockConfig+0xc>
 8001eac:	4a29      	ldr	r2, [pc, #164]	; (8001f54 <HAL_RCC_ClockConfig+0x140>)
 8001eae:	074b      	lsls	r3, r1, #29
 8001eb0:	d504      	bpl.n	8001ebc <HAL_RCC_ClockConfig+0xa8>
 8001eb2:	23e0      	movs	r3, #224	; 0xe0
 8001eb4:	6890      	ldr	r0, [r2, #8]
 8001eb6:	01db      	lsls	r3, r3, #7
 8001eb8:	4303      	orrs	r3, r0
 8001eba:	6093      	str	r3, [r2, #8]
 8001ebc:	6893      	ldr	r3, [r2, #8]
 8001ebe:	482a      	ldr	r0, [pc, #168]	; (8001f68 <HAL_RCC_ClockConfig+0x154>)
 8001ec0:	4003      	ands	r3, r0
 8001ec2:	68a0      	ldr	r0, [r4, #8]
 8001ec4:	4303      	orrs	r3, r0
 8001ec6:	6093      	str	r3, [r2, #8]
 8001ec8:	e7b4      	b.n	8001e34 <HAL_RCC_ClockConfig+0x20>
 8001eca:	6862      	ldr	r2, [r4, #4]
 8001ecc:	4f21      	ldr	r7, [pc, #132]	; (8001f54 <HAL_RCC_ClockConfig+0x140>)
 8001ece:	2a01      	cmp	r2, #1
 8001ed0:	d119      	bne.n	8001f06 <HAL_RCC_ClockConfig+0xf2>
 8001ed2:	683b      	ldr	r3, [r7, #0]
 8001ed4:	039b      	lsls	r3, r3, #14
 8001ed6:	d5a2      	bpl.n	8001e1e <HAL_RCC_ClockConfig+0xa>
 8001ed8:	2107      	movs	r1, #7
 8001eda:	68bb      	ldr	r3, [r7, #8]
 8001edc:	438b      	bics	r3, r1
 8001ede:	4313      	orrs	r3, r2
 8001ee0:	60bb      	str	r3, [r7, #8]
 8001ee2:	f7fe ff9b 	bl	8000e1c <HAL_GetTick>
 8001ee6:	9001      	str	r0, [sp, #4]
 8001ee8:	2338      	movs	r3, #56	; 0x38
 8001eea:	68ba      	ldr	r2, [r7, #8]
 8001eec:	401a      	ands	r2, r3
 8001eee:	6863      	ldr	r3, [r4, #4]
 8001ef0:	00db      	lsls	r3, r3, #3
 8001ef2:	429a      	cmp	r2, r3
 8001ef4:	d0a0      	beq.n	8001e38 <HAL_RCC_ClockConfig+0x24>
 8001ef6:	f7fe ff91 	bl	8000e1c <HAL_GetTick>
 8001efa:	9b01      	ldr	r3, [sp, #4]
 8001efc:	1ac0      	subs	r0, r0, r3
 8001efe:	4b19      	ldr	r3, [pc, #100]	; (8001f64 <HAL_RCC_ClockConfig+0x150>)
 8001f00:	4298      	cmp	r0, r3
 8001f02:	d9f1      	bls.n	8001ee8 <HAL_RCC_ClockConfig+0xd4>
 8001f04:	e7d0      	b.n	8001ea8 <HAL_RCC_ClockConfig+0x94>
 8001f06:	2a02      	cmp	r2, #2
 8001f08:	d103      	bne.n	8001f12 <HAL_RCC_ClockConfig+0xfe>
 8001f0a:	683b      	ldr	r3, [r7, #0]
 8001f0c:	019b      	lsls	r3, r3, #6
 8001f0e:	d4e3      	bmi.n	8001ed8 <HAL_RCC_ClockConfig+0xc4>
 8001f10:	e785      	b.n	8001e1e <HAL_RCC_ClockConfig+0xa>
 8001f12:	2a00      	cmp	r2, #0
 8001f14:	d103      	bne.n	8001f1e <HAL_RCC_ClockConfig+0x10a>
 8001f16:	683b      	ldr	r3, [r7, #0]
 8001f18:	055b      	lsls	r3, r3, #21
 8001f1a:	d4dd      	bmi.n	8001ed8 <HAL_RCC_ClockConfig+0xc4>
 8001f1c:	e77f      	b.n	8001e1e <HAL_RCC_ClockConfig+0xa>
 8001f1e:	2302      	movs	r3, #2
 8001f20:	2a03      	cmp	r2, #3
 8001f22:	d103      	bne.n	8001f2c <HAL_RCC_ClockConfig+0x118>
 8001f24:	6e39      	ldr	r1, [r7, #96]	; 0x60
 8001f26:	4219      	tst	r1, r3
 8001f28:	d1d6      	bne.n	8001ed8 <HAL_RCC_ClockConfig+0xc4>
 8001f2a:	e778      	b.n	8001e1e <HAL_RCC_ClockConfig+0xa>
 8001f2c:	6df9      	ldr	r1, [r7, #92]	; 0x5c
 8001f2e:	e7fa      	b.n	8001f26 <HAL_RCC_ClockConfig+0x112>
 8001f30:	f7fe ff74 	bl	8000e1c <HAL_GetTick>
 8001f34:	9b01      	ldr	r3, [sp, #4]
 8001f36:	1ac0      	subs	r0, r0, r3
 8001f38:	4b0a      	ldr	r3, [pc, #40]	; (8001f64 <HAL_RCC_ClockConfig+0x150>)
 8001f3a:	4298      	cmp	r0, r3
 8001f3c:	d988      	bls.n	8001e50 <HAL_RCC_ClockConfig+0x3c>
 8001f3e:	e7b3      	b.n	8001ea8 <HAL_RCC_ClockConfig+0x94>
 8001f40:	68ab      	ldr	r3, [r5, #8]
 8001f42:	4a0a      	ldr	r2, [pc, #40]	; (8001f6c <HAL_RCC_ClockConfig+0x158>)
 8001f44:	4013      	ands	r3, r2
 8001f46:	68e2      	ldr	r2, [r4, #12]
 8001f48:	4313      	orrs	r3, r2
 8001f4a:	60ab      	str	r3, [r5, #8]
 8001f4c:	e788      	b.n	8001e60 <HAL_RCC_ClockConfig+0x4c>
 8001f4e:	46c0      	nop			; (mov r8, r8)
 8001f50:	40022000 	.word	0x40022000
 8001f54:	40021000 	.word	0x40021000
 8001f58:	08002bf8 	.word	0x08002bf8
 8001f5c:	20000000 	.word	0x20000000
 8001f60:	20000008 	.word	0x20000008
 8001f64:	00001388 	.word	0x00001388
 8001f68:	fffff0ff 	.word	0xfffff0ff
 8001f6c:	ffff8fff 	.word	0xffff8fff

08001f70 <HAL_RCC_GetPCLK1Freq>:
 8001f70:	4b06      	ldr	r3, [pc, #24]	; (8001f8c <HAL_RCC_GetPCLK1Freq+0x1c>)
 8001f72:	4a07      	ldr	r2, [pc, #28]	; (8001f90 <HAL_RCC_GetPCLK1Freq+0x20>)
 8001f74:	689b      	ldr	r3, [r3, #8]
 8001f76:	045b      	lsls	r3, r3, #17
 8001f78:	0f5b      	lsrs	r3, r3, #29
 8001f7a:	009b      	lsls	r3, r3, #2
 8001f7c:	589b      	ldr	r3, [r3, r2]
 8001f7e:	221f      	movs	r2, #31
 8001f80:	4013      	ands	r3, r2
 8001f82:	4a04      	ldr	r2, [pc, #16]	; (8001f94 <HAL_RCC_GetPCLK1Freq+0x24>)
 8001f84:	6810      	ldr	r0, [r2, #0]
 8001f86:	40d8      	lsrs	r0, r3
 8001f88:	4770      	bx	lr
 8001f8a:	46c0      	nop			; (mov r8, r8)
 8001f8c:	40021000 	.word	0x40021000
 8001f90:	08002c38 	.word	0x08002c38
 8001f94:	20000000 	.word	0x20000000

08001f98 <HAL_RCCEx_PeriphCLKConfig>:
 8001f98:	b5f0      	push	{r4, r5, r6, r7, lr}
 8001f9a:	0004      	movs	r4, r0
 8001f9c:	6823      	ldr	r3, [r4, #0]
 8001f9e:	2000      	movs	r0, #0
 8001fa0:	b085      	sub	sp, #20
 8001fa2:	039b      	lsls	r3, r3, #14
 8001fa4:	d53c      	bpl.n	8002020 <HAL_RCCEx_PeriphCLKConfig+0x88>
 8001fa6:	2280      	movs	r2, #128	; 0x80
 8001fa8:	4d97      	ldr	r5, [pc, #604]	; (8002208 <HAL_RCCEx_PeriphCLKConfig+0x270>)
 8001faa:	0552      	lsls	r2, r2, #21
 8001fac:	6beb      	ldr	r3, [r5, #60]	; 0x3c
 8001fae:	9000      	str	r0, [sp, #0]
 8001fb0:	4213      	tst	r3, r2
 8001fb2:	d108      	bne.n	8001fc6 <HAL_RCCEx_PeriphCLKConfig+0x2e>
 8001fb4:	6beb      	ldr	r3, [r5, #60]	; 0x3c
 8001fb6:	4313      	orrs	r3, r2
 8001fb8:	63eb      	str	r3, [r5, #60]	; 0x3c
 8001fba:	6beb      	ldr	r3, [r5, #60]	; 0x3c
 8001fbc:	4013      	ands	r3, r2
 8001fbe:	9303      	str	r3, [sp, #12]
 8001fc0:	9b03      	ldr	r3, [sp, #12]
 8001fc2:	2301      	movs	r3, #1
 8001fc4:	9300      	str	r3, [sp, #0]
 8001fc6:	2780      	movs	r7, #128	; 0x80
 8001fc8:	4e90      	ldr	r6, [pc, #576]	; (800220c <HAL_RCCEx_PeriphCLKConfig+0x274>)
 8001fca:	007f      	lsls	r7, r7, #1
 8001fcc:	6833      	ldr	r3, [r6, #0]
 8001fce:	433b      	orrs	r3, r7
 8001fd0:	6033      	str	r3, [r6, #0]
 8001fd2:	f7fe ff23 	bl	8000e1c <HAL_GetTick>
 8001fd6:	9001      	str	r0, [sp, #4]
 8001fd8:	6833      	ldr	r3, [r6, #0]
 8001fda:	423b      	tst	r3, r7
 8001fdc:	d012      	beq.n	8002004 <HAL_RCCEx_PeriphCLKConfig+0x6c>
 8001fde:	6dea      	ldr	r2, [r5, #92]	; 0x5c
 8001fe0:	23c0      	movs	r3, #192	; 0xc0
 8001fe2:	0011      	movs	r1, r2
 8001fe4:	009b      	lsls	r3, r3, #2
 8001fe6:	4e8a      	ldr	r6, [pc, #552]	; (8002210 <HAL_RCCEx_PeriphCLKConfig+0x278>)
 8001fe8:	4019      	ands	r1, r3
 8001fea:	421a      	tst	r2, r3
 8001fec:	d003      	beq.n	8001ff6 <HAL_RCCEx_PeriphCLKConfig+0x5e>
 8001fee:	6c23      	ldr	r3, [r4, #64]	; 0x40
 8001ff0:	4299      	cmp	r1, r3
 8001ff2:	d000      	beq.n	8001ff6 <HAL_RCCEx_PeriphCLKConfig+0x5e>
 8001ff4:	e0e9      	b.n	80021ca <HAL_RCCEx_PeriphCLKConfig+0x232>
 8001ff6:	6deb      	ldr	r3, [r5, #92]	; 0x5c
 8001ff8:	2000      	movs	r0, #0
 8001ffa:	401e      	ands	r6, r3
 8001ffc:	6c23      	ldr	r3, [r4, #64]	; 0x40
 8001ffe:	431e      	orrs	r6, r3
 8002000:	65ee      	str	r6, [r5, #92]	; 0x5c
 8002002:	e006      	b.n	8002012 <HAL_RCCEx_PeriphCLKConfig+0x7a>
 8002004:	f7fe ff0a 	bl	8000e1c <HAL_GetTick>
 8002008:	9b01      	ldr	r3, [sp, #4]
 800200a:	1ac0      	subs	r0, r0, r3
 800200c:	2802      	cmp	r0, #2
 800200e:	d9e3      	bls.n	8001fd8 <HAL_RCCEx_PeriphCLKConfig+0x40>
 8002010:	2003      	movs	r0, #3
 8002012:	9b00      	ldr	r3, [sp, #0]
 8002014:	2b01      	cmp	r3, #1
 8002016:	d103      	bne.n	8002020 <HAL_RCCEx_PeriphCLKConfig+0x88>
 8002018:	6beb      	ldr	r3, [r5, #60]	; 0x3c
 800201a:	4a7e      	ldr	r2, [pc, #504]	; (8002214 <HAL_RCCEx_PeriphCLKConfig+0x27c>)
 800201c:	4013      	ands	r3, r2
 800201e:	63eb      	str	r3, [r5, #60]	; 0x3c
 8002020:	6823      	ldr	r3, [r4, #0]
 8002022:	07da      	lsls	r2, r3, #31
 8002024:	d506      	bpl.n	8002034 <HAL_RCCEx_PeriphCLKConfig+0x9c>
 8002026:	2503      	movs	r5, #3
 8002028:	4977      	ldr	r1, [pc, #476]	; (8002208 <HAL_RCCEx_PeriphCLKConfig+0x270>)
 800202a:	6d4a      	ldr	r2, [r1, #84]	; 0x54
 800202c:	43aa      	bics	r2, r5
 800202e:	6865      	ldr	r5, [r4, #4]
 8002030:	432a      	orrs	r2, r5
 8002032:	654a      	str	r2, [r1, #84]	; 0x54
 8002034:	079a      	lsls	r2, r3, #30
 8002036:	d506      	bpl.n	8002046 <HAL_RCCEx_PeriphCLKConfig+0xae>
 8002038:	250c      	movs	r5, #12
 800203a:	4973      	ldr	r1, [pc, #460]	; (8002208 <HAL_RCCEx_PeriphCLKConfig+0x270>)
 800203c:	6d4a      	ldr	r2, [r1, #84]	; 0x54
 800203e:	43aa      	bics	r2, r5
 8002040:	68a5      	ldr	r5, [r4, #8]
 8002042:	432a      	orrs	r2, r5
 8002044:	654a      	str	r2, [r1, #84]	; 0x54
 8002046:	075a      	lsls	r2, r3, #29
 8002048:	d506      	bpl.n	8002058 <HAL_RCCEx_PeriphCLKConfig+0xc0>
 800204a:	2530      	movs	r5, #48	; 0x30
 800204c:	496e      	ldr	r1, [pc, #440]	; (8002208 <HAL_RCCEx_PeriphCLKConfig+0x270>)
 800204e:	6d4a      	ldr	r2, [r1, #84]	; 0x54
 8002050:	43aa      	bics	r2, r5
 8002052:	68e5      	ldr	r5, [r4, #12]
 8002054:	432a      	orrs	r2, r5
 8002056:	654a      	str	r2, [r1, #84]	; 0x54
 8002058:	06da      	lsls	r2, r3, #27
 800205a:	d506      	bpl.n	800206a <HAL_RCCEx_PeriphCLKConfig+0xd2>
 800205c:	496a      	ldr	r1, [pc, #424]	; (8002208 <HAL_RCCEx_PeriphCLKConfig+0x270>)
 800205e:	4d6e      	ldr	r5, [pc, #440]	; (8002218 <HAL_RCCEx_PeriphCLKConfig+0x280>)
 8002060:	6d4a      	ldr	r2, [r1, #84]	; 0x54
 8002062:	402a      	ands	r2, r5
 8002064:	6925      	ldr	r5, [r4, #16]
 8002066:	432a      	orrs	r2, r5
 8002068:	654a      	str	r2, [r1, #84]	; 0x54
 800206a:	04da      	lsls	r2, r3, #19
 800206c:	d506      	bpl.n	800207c <HAL_RCCEx_PeriphCLKConfig+0xe4>
 800206e:	4966      	ldr	r1, [pc, #408]	; (8002208 <HAL_RCCEx_PeriphCLKConfig+0x270>)
 8002070:	4d67      	ldr	r5, [pc, #412]	; (8002210 <HAL_RCCEx_PeriphCLKConfig+0x278>)
 8002072:	6d4a      	ldr	r2, [r1, #84]	; 0x54
 8002074:	402a      	ands	r2, r5
 8002076:	6965      	ldr	r5, [r4, #20]
 8002078:	432a      	orrs	r2, r5
 800207a:	654a      	str	r2, [r1, #84]	; 0x54
 800207c:	059a      	lsls	r2, r3, #22
 800207e:	d506      	bpl.n	800208e <HAL_RCCEx_PeriphCLKConfig+0xf6>
 8002080:	4961      	ldr	r1, [pc, #388]	; (8002208 <HAL_RCCEx_PeriphCLKConfig+0x270>)
 8002082:	4d66      	ldr	r5, [pc, #408]	; (800221c <HAL_RCCEx_PeriphCLKConfig+0x284>)
 8002084:	6d4a      	ldr	r2, [r1, #84]	; 0x54
 8002086:	402a      	ands	r2, r5
 8002088:	6aa5      	ldr	r5, [r4, #40]	; 0x28
 800208a:	432a      	orrs	r2, r5
 800208c:	654a      	str	r2, [r1, #84]	; 0x54
 800208e:	055a      	lsls	r2, r3, #21
 8002090:	d506      	bpl.n	80020a0 <HAL_RCCEx_PeriphCLKConfig+0x108>
 8002092:	495d      	ldr	r1, [pc, #372]	; (8002208 <HAL_RCCEx_PeriphCLKConfig+0x270>)
 8002094:	4d62      	ldr	r5, [pc, #392]	; (8002220 <HAL_RCCEx_PeriphCLKConfig+0x288>)
 8002096:	6d4a      	ldr	r2, [r1, #84]	; 0x54
 8002098:	402a      	ands	r2, r5
 800209a:	6ae5      	ldr	r5, [r4, #44]	; 0x2c
 800209c:	432a      	orrs	r2, r5
 800209e:	654a      	str	r2, [r1, #84]	; 0x54
 80020a0:	069a      	lsls	r2, r3, #26
 80020a2:	d506      	bpl.n	80020b2 <HAL_RCCEx_PeriphCLKConfig+0x11a>
 80020a4:	4958      	ldr	r1, [pc, #352]	; (8002208 <HAL_RCCEx_PeriphCLKConfig+0x270>)
 80020a6:	4d5f      	ldr	r5, [pc, #380]	; (8002224 <HAL_RCCEx_PeriphCLKConfig+0x28c>)
 80020a8:	6d4a      	ldr	r2, [r1, #84]	; 0x54
 80020aa:	402a      	ands	r2, r5
 80020ac:	69a5      	ldr	r5, [r4, #24]
 80020ae:	432a      	orrs	r2, r5
 80020b0:	654a      	str	r2, [r1, #84]	; 0x54
 80020b2:	065a      	lsls	r2, r3, #25
 80020b4:	d506      	bpl.n	80020c4 <HAL_RCCEx_PeriphCLKConfig+0x12c>
 80020b6:	4954      	ldr	r1, [pc, #336]	; (8002208 <HAL_RCCEx_PeriphCLKConfig+0x270>)
 80020b8:	4d5b      	ldr	r5, [pc, #364]	; (8002228 <HAL_RCCEx_PeriphCLKConfig+0x290>)
 80020ba:	6d4a      	ldr	r2, [r1, #84]	; 0x54
 80020bc:	402a      	ands	r2, r5
 80020be:	69e5      	ldr	r5, [r4, #28]
 80020c0:	432a      	orrs	r2, r5
 80020c2:	654a      	str	r2, [r1, #84]	; 0x54
 80020c4:	045a      	lsls	r2, r3, #17
 80020c6:	d50f      	bpl.n	80020e8 <HAL_RCCEx_PeriphCLKConfig+0x150>
 80020c8:	494f      	ldr	r1, [pc, #316]	; (8002208 <HAL_RCCEx_PeriphCLKConfig+0x270>)
 80020ca:	6b25      	ldr	r5, [r4, #48]	; 0x30
 80020cc:	6d4a      	ldr	r2, [r1, #84]	; 0x54
 80020ce:	0092      	lsls	r2, r2, #2
 80020d0:	0892      	lsrs	r2, r2, #2
 80020d2:	432a      	orrs	r2, r5
 80020d4:	654a      	str	r2, [r1, #84]	; 0x54
 80020d6:	2280      	movs	r2, #128	; 0x80
 80020d8:	05d2      	lsls	r2, r2, #23
 80020da:	4295      	cmp	r5, r2
 80020dc:	d104      	bne.n	80020e8 <HAL_RCCEx_PeriphCLKConfig+0x150>
 80020de:	2280      	movs	r2, #128	; 0x80
 80020e0:	68cd      	ldr	r5, [r1, #12]
 80020e2:	0252      	lsls	r2, r2, #9
 80020e4:	432a      	orrs	r2, r5
 80020e6:	60ca      	str	r2, [r1, #12]
 80020e8:	031a      	lsls	r2, r3, #12
 80020ea:	d506      	bpl.n	80020fa <HAL_RCCEx_PeriphCLKConfig+0x162>
 80020ec:	2540      	movs	r5, #64	; 0x40
 80020ee:	4946      	ldr	r1, [pc, #280]	; (8002208 <HAL_RCCEx_PeriphCLKConfig+0x270>)
 80020f0:	6d4a      	ldr	r2, [r1, #84]	; 0x54
 80020f2:	43aa      	bics	r2, r5
 80020f4:	6b65      	ldr	r5, [r4, #52]	; 0x34
 80020f6:	432a      	orrs	r2, r5
 80020f8:	654a      	str	r2, [r1, #84]	; 0x54
 80020fa:	029a      	lsls	r2, r3, #10
 80020fc:	d50f      	bpl.n	800211e <HAL_RCCEx_PeriphCLKConfig+0x186>
 80020fe:	4942      	ldr	r1, [pc, #264]	; (8002208 <HAL_RCCEx_PeriphCLKConfig+0x270>)
 8002100:	4e4a      	ldr	r6, [pc, #296]	; (800222c <HAL_RCCEx_PeriphCLKConfig+0x294>)
 8002102:	6d4a      	ldr	r2, [r1, #84]	; 0x54
 8002104:	6ba5      	ldr	r5, [r4, #56]	; 0x38
 8002106:	4032      	ands	r2, r6
 8002108:	432a      	orrs	r2, r5
 800210a:	654a      	str	r2, [r1, #84]	; 0x54
 800210c:	2280      	movs	r2, #128	; 0x80
 800210e:	03d2      	lsls	r2, r2, #15
 8002110:	4295      	cmp	r5, r2
 8002112:	d104      	bne.n	800211e <HAL_RCCEx_PeriphCLKConfig+0x186>
 8002114:	2280      	movs	r2, #128	; 0x80
 8002116:	68cd      	ldr	r5, [r1, #12]
 8002118:	0452      	lsls	r2, r2, #17
 800211a:	432a      	orrs	r2, r5
 800211c:	60ca      	str	r2, [r1, #12]
 800211e:	025a      	lsls	r2, r3, #9
 8002120:	d50d      	bpl.n	800213e <HAL_RCCEx_PeriphCLKConfig+0x1a6>
 8002122:	4d39      	ldr	r5, [pc, #228]	; (8002208 <HAL_RCCEx_PeriphCLKConfig+0x270>)
 8002124:	4e42      	ldr	r6, [pc, #264]	; (8002230 <HAL_RCCEx_PeriphCLKConfig+0x298>)
 8002126:	6d69      	ldr	r1, [r5, #84]	; 0x54
 8002128:	6be2      	ldr	r2, [r4, #60]	; 0x3c
 800212a:	4031      	ands	r1, r6
 800212c:	4311      	orrs	r1, r2
 800212e:	6569      	str	r1, [r5, #84]	; 0x54
 8002130:	2180      	movs	r1, #128	; 0x80
 8002132:	0449      	lsls	r1, r1, #17
 8002134:	428a      	cmp	r2, r1
 8002136:	d102      	bne.n	800213e <HAL_RCCEx_PeriphCLKConfig+0x1a6>
 8002138:	68e9      	ldr	r1, [r5, #12]
 800213a:	430a      	orrs	r2, r1
 800213c:	60ea      	str	r2, [r5, #12]
 800213e:	051a      	lsls	r2, r3, #20
 8002140:	d50d      	bpl.n	800215e <HAL_RCCEx_PeriphCLKConfig+0x1c6>
 8002142:	2603      	movs	r6, #3
 8002144:	4930      	ldr	r1, [pc, #192]	; (8002208 <HAL_RCCEx_PeriphCLKConfig+0x270>)
 8002146:	6a25      	ldr	r5, [r4, #32]
 8002148:	6d8a      	ldr	r2, [r1, #88]	; 0x58
 800214a:	43b2      	bics	r2, r6
 800214c:	432a      	orrs	r2, r5
 800214e:	658a      	str	r2, [r1, #88]	; 0x58
 8002150:	2d01      	cmp	r5, #1
 8002152:	d104      	bne.n	800215e <HAL_RCCEx_PeriphCLKConfig+0x1c6>
 8002154:	2280      	movs	r2, #128	; 0x80
 8002156:	68cd      	ldr	r5, [r1, #12]
 8002158:	0252      	lsls	r2, r2, #9
 800215a:	432a      	orrs	r2, r5
 800215c:	60ca      	str	r2, [r1, #12]
 800215e:	049a      	lsls	r2, r3, #18
 8002160:	d50d      	bpl.n	800217e <HAL_RCCEx_PeriphCLKConfig+0x1e6>
 8002162:	260c      	movs	r6, #12
 8002164:	4928      	ldr	r1, [pc, #160]	; (8002208 <HAL_RCCEx_PeriphCLKConfig+0x270>)
 8002166:	6a65      	ldr	r5, [r4, #36]	; 0x24
 8002168:	6d8a      	ldr	r2, [r1, #88]	; 0x58
 800216a:	43b2      	bics	r2, r6
 800216c:	432a      	orrs	r2, r5
 800216e:	658a      	str	r2, [r1, #88]	; 0x58
 8002170:	2d04      	cmp	r5, #4
 8002172:	d104      	bne.n	800217e <HAL_RCCEx_PeriphCLKConfig+0x1e6>
 8002174:	2280      	movs	r2, #128	; 0x80
 8002176:	68cd      	ldr	r5, [r1, #12]
 8002178:	0252      	lsls	r2, r2, #9
 800217a:	432a      	orrs	r2, r5
 800217c:	60ca      	str	r2, [r1, #12]
 800217e:	2580      	movs	r5, #128	; 0x80
 8002180:	046d      	lsls	r5, r5, #17
 8002182:	422b      	tst	r3, r5
 8002184:	d00d      	beq.n	80021a2 <HAL_RCCEx_PeriphCLKConfig+0x20a>
 8002186:	4920      	ldr	r1, [pc, #128]	; (8002208 <HAL_RCCEx_PeriphCLKConfig+0x270>)
 8002188:	4f26      	ldr	r7, [pc, #152]	; (8002224 <HAL_RCCEx_PeriphCLKConfig+0x28c>)
 800218a:	6d8a      	ldr	r2, [r1, #88]	; 0x58
 800218c:	6c66      	ldr	r6, [r4, #68]	; 0x44
 800218e:	403a      	ands	r2, r7
 8002190:	4332      	orrs	r2, r6
 8002192:	658a      	str	r2, [r1, #88]	; 0x58
 8002194:	2280      	movs	r2, #128	; 0x80
 8002196:	0192      	lsls	r2, r2, #6
 8002198:	4296      	cmp	r6, r2
 800219a:	d102      	bne.n	80021a2 <HAL_RCCEx_PeriphCLKConfig+0x20a>
 800219c:	68ca      	ldr	r2, [r1, #12]
 800219e:	4315      	orrs	r5, r2
 80021a0:	60cd      	str	r5, [r1, #12]
 80021a2:	019b      	lsls	r3, r3, #6
 80021a4:	d50f      	bpl.n	80021c6 <HAL_RCCEx_PeriphCLKConfig+0x22e>
 80021a6:	4a18      	ldr	r2, [pc, #96]	; (8002208 <HAL_RCCEx_PeriphCLKConfig+0x270>)
 80021a8:	6ca1      	ldr	r1, [r4, #72]	; 0x48
 80021aa:	6d93      	ldr	r3, [r2, #88]	; 0x58
 80021ac:	4c18      	ldr	r4, [pc, #96]	; (8002210 <HAL_RCCEx_PeriphCLKConfig+0x278>)
 80021ae:	4023      	ands	r3, r4
 80021b0:	430b      	orrs	r3, r1
 80021b2:	6593      	str	r3, [r2, #88]	; 0x58
 80021b4:	2380      	movs	r3, #128	; 0x80
 80021b6:	005b      	lsls	r3, r3, #1
 80021b8:	4299      	cmp	r1, r3
 80021ba:	d104      	bne.n	80021c6 <HAL_RCCEx_PeriphCLKConfig+0x22e>
 80021bc:	2380      	movs	r3, #128	; 0x80
 80021be:	68d1      	ldr	r1, [r2, #12]
 80021c0:	045b      	lsls	r3, r3, #17
 80021c2:	430b      	orrs	r3, r1
 80021c4:	60d3      	str	r3, [r2, #12]
 80021c6:	b005      	add	sp, #20
 80021c8:	bdf0      	pop	{r4, r5, r6, r7, pc}
 80021ca:	2380      	movs	r3, #128	; 0x80
 80021cc:	6dea      	ldr	r2, [r5, #92]	; 0x5c
 80021ce:	6de8      	ldr	r0, [r5, #92]	; 0x5c
 80021d0:	0011      	movs	r1, r2
 80021d2:	025b      	lsls	r3, r3, #9
 80021d4:	4303      	orrs	r3, r0
 80021d6:	65eb      	str	r3, [r5, #92]	; 0x5c
 80021d8:	6deb      	ldr	r3, [r5, #92]	; 0x5c
 80021da:	4816      	ldr	r0, [pc, #88]	; (8002234 <HAL_RCCEx_PeriphCLKConfig+0x29c>)
 80021dc:	4031      	ands	r1, r6
 80021de:	4003      	ands	r3, r0
 80021e0:	65eb      	str	r3, [r5, #92]	; 0x5c
 80021e2:	65e9      	str	r1, [r5, #92]	; 0x5c
 80021e4:	07d3      	lsls	r3, r2, #31
 80021e6:	d400      	bmi.n	80021ea <HAL_RCCEx_PeriphCLKConfig+0x252>
 80021e8:	e705      	b.n	8001ff6 <HAL_RCCEx_PeriphCLKConfig+0x5e>
 80021ea:	f7fe fe17 	bl	8000e1c <HAL_GetTick>
 80021ee:	0007      	movs	r7, r0
 80021f0:	2202      	movs	r2, #2
 80021f2:	6deb      	ldr	r3, [r5, #92]	; 0x5c
 80021f4:	4213      	tst	r3, r2
 80021f6:	d000      	beq.n	80021fa <HAL_RCCEx_PeriphCLKConfig+0x262>
 80021f8:	e6fd      	b.n	8001ff6 <HAL_RCCEx_PeriphCLKConfig+0x5e>
 80021fa:	f7fe fe0f 	bl	8000e1c <HAL_GetTick>
 80021fe:	4b0e      	ldr	r3, [pc, #56]	; (8002238 <HAL_RCCEx_PeriphCLKConfig+0x2a0>)
 8002200:	1bc0      	subs	r0, r0, r7
 8002202:	4298      	cmp	r0, r3
 8002204:	d9f4      	bls.n	80021f0 <HAL_RCCEx_PeriphCLKConfig+0x258>
 8002206:	e703      	b.n	8002010 <HAL_RCCEx_PeriphCLKConfig+0x78>
 8002208:	40021000 	.word	0x40021000
 800220c:	40007000 	.word	0x40007000
 8002210:	fffffcff 	.word	0xfffffcff
 8002214:	efffffff 	.word	0xefffffff
 8002218:	fffff3ff 	.word	0xfffff3ff
 800221c:	fff3ffff 	.word	0xfff3ffff
 8002220:	ffcfffff 	.word	0xffcfffff
 8002224:	ffffcfff 	.word	0xffffcfff
 8002228:	ffff3fff 	.word	0xffff3fff
 800222c:	ffbfffff 	.word	0xffbfffff
 8002230:	feffffff 	.word	0xfeffffff
 8002234:	fffeffff 	.word	0xfffeffff
 8002238:	00001388 	.word	0x00001388

0800223c <TIM_Base_SetConfig>:
 800223c:	4a23      	ldr	r2, [pc, #140]	; (80022cc <TIM_Base_SetConfig+0x90>)
 800223e:	b510      	push	{r4, lr}
 8002240:	6803      	ldr	r3, [r0, #0]
 8002242:	4290      	cmp	r0, r2
 8002244:	d009      	beq.n	800225a <TIM_Base_SetConfig+0x1e>
 8002246:	2480      	movs	r4, #128	; 0x80
 8002248:	05e4      	lsls	r4, r4, #23
 800224a:	42a0      	cmp	r0, r4
 800224c:	d005      	beq.n	800225a <TIM_Base_SetConfig+0x1e>
 800224e:	4c20      	ldr	r4, [pc, #128]	; (80022d0 <TIM_Base_SetConfig+0x94>)
 8002250:	42a0      	cmp	r0, r4
 8002252:	d002      	beq.n	800225a <TIM_Base_SetConfig+0x1e>
 8002254:	4c1f      	ldr	r4, [pc, #124]	; (80022d4 <TIM_Base_SetConfig+0x98>)
 8002256:	42a0      	cmp	r0, r4
 8002258:	d10f      	bne.n	800227a <TIM_Base_SetConfig+0x3e>
 800225a:	2470      	movs	r4, #112	; 0x70
 800225c:	43a3      	bics	r3, r4
 800225e:	684c      	ldr	r4, [r1, #4]
 8002260:	4323      	orrs	r3, r4
 8002262:	4290      	cmp	r0, r2
 8002264:	d015      	beq.n	8002292 <TIM_Base_SetConfig+0x56>
 8002266:	2480      	movs	r4, #128	; 0x80
 8002268:	05e4      	lsls	r4, r4, #23
 800226a:	42a0      	cmp	r0, r4
 800226c:	d011      	beq.n	8002292 <TIM_Base_SetConfig+0x56>
 800226e:	4c18      	ldr	r4, [pc, #96]	; (80022d0 <TIM_Base_SetConfig+0x94>)
 8002270:	42a0      	cmp	r0, r4
 8002272:	d00e      	beq.n	8002292 <TIM_Base_SetConfig+0x56>
 8002274:	4c17      	ldr	r4, [pc, #92]	; (80022d4 <TIM_Base_SetConfig+0x98>)
 8002276:	42a0      	cmp	r0, r4
 8002278:	d00b      	beq.n	8002292 <TIM_Base_SetConfig+0x56>
 800227a:	4c17      	ldr	r4, [pc, #92]	; (80022d8 <TIM_Base_SetConfig+0x9c>)
 800227c:	42a0      	cmp	r0, r4
 800227e:	d008      	beq.n	8002292 <TIM_Base_SetConfig+0x56>
 8002280:	4c16      	ldr	r4, [pc, #88]	; (80022dc <TIM_Base_SetConfig+0xa0>)
 8002282:	42a0      	cmp	r0, r4
 8002284:	d005      	beq.n	8002292 <TIM_Base_SetConfig+0x56>
 8002286:	4c16      	ldr	r4, [pc, #88]	; (80022e0 <TIM_Base_SetConfig+0xa4>)
 8002288:	42a0      	cmp	r0, r4
 800228a:	d002      	beq.n	8002292 <TIM_Base_SetConfig+0x56>
 800228c:	4c15      	ldr	r4, [pc, #84]	; (80022e4 <TIM_Base_SetConfig+0xa8>)
 800228e:	42a0      	cmp	r0, r4
 8002290:	d103      	bne.n	800229a <TIM_Base_SetConfig+0x5e>
 8002292:	4c15      	ldr	r4, [pc, #84]	; (80022e8 <TIM_Base_SetConfig+0xac>)
 8002294:	4023      	ands	r3, r4
 8002296:	68cc      	ldr	r4, [r1, #12]
 8002298:	4323      	orrs	r3, r4
 800229a:	2480      	movs	r4, #128	; 0x80
 800229c:	43a3      	bics	r3, r4
 800229e:	694c      	ldr	r4, [r1, #20]
 80022a0:	4323      	orrs	r3, r4
 80022a2:	6003      	str	r3, [r0, #0]
 80022a4:	688b      	ldr	r3, [r1, #8]
 80022a6:	62c3      	str	r3, [r0, #44]	; 0x2c
 80022a8:	680b      	ldr	r3, [r1, #0]
 80022aa:	6283      	str	r3, [r0, #40]	; 0x28
 80022ac:	4290      	cmp	r0, r2
 80022ae:	d008      	beq.n	80022c2 <TIM_Base_SetConfig+0x86>
 80022b0:	4b0a      	ldr	r3, [pc, #40]	; (80022dc <TIM_Base_SetConfig+0xa0>)
 80022b2:	4298      	cmp	r0, r3
 80022b4:	d005      	beq.n	80022c2 <TIM_Base_SetConfig+0x86>
 80022b6:	4b0a      	ldr	r3, [pc, #40]	; (80022e0 <TIM_Base_SetConfig+0xa4>)
 80022b8:	4298      	cmp	r0, r3
 80022ba:	d002      	beq.n	80022c2 <TIM_Base_SetConfig+0x86>
 80022bc:	4b09      	ldr	r3, [pc, #36]	; (80022e4 <TIM_Base_SetConfig+0xa8>)
 80022be:	4298      	cmp	r0, r3
 80022c0:	d101      	bne.n	80022c6 <TIM_Base_SetConfig+0x8a>
 80022c2:	690b      	ldr	r3, [r1, #16]
 80022c4:	6303      	str	r3, [r0, #48]	; 0x30
 80022c6:	2301      	movs	r3, #1
 80022c8:	6143      	str	r3, [r0, #20]
 80022ca:	bd10      	pop	{r4, pc}
 80022cc:	40012c00 	.word	0x40012c00
 80022d0:	40000400 	.word	0x40000400
 80022d4:	40000800 	.word	0x40000800
 80022d8:	40002000 	.word	0x40002000
 80022dc:	40014000 	.word	0x40014000
 80022e0:	40014400 	.word	0x40014400
 80022e4:	40014800 	.word	0x40014800
 80022e8:	fffffcff 	.word	0xfffffcff

080022ec <HAL_TIM_Base_Init>:
 80022ec:	b570      	push	{r4, r5, r6, lr}
 80022ee:	0004      	movs	r4, r0
 80022f0:	2001      	movs	r0, #1
 80022f2:	2c00      	cmp	r4, #0
 80022f4:	d023      	beq.n	800233e <HAL_TIM_Base_Init+0x52>
 80022f6:	0025      	movs	r5, r4
 80022f8:	353d      	adds	r5, #61	; 0x3d
 80022fa:	782b      	ldrb	r3, [r5, #0]
 80022fc:	b2da      	uxtb	r2, r3
 80022fe:	2b00      	cmp	r3, #0
 8002300:	d105      	bne.n	800230e <HAL_TIM_Base_Init+0x22>
 8002302:	0023      	movs	r3, r4
 8002304:	333c      	adds	r3, #60	; 0x3c
 8002306:	0020      	movs	r0, r4
 8002308:	701a      	strb	r2, [r3, #0]
 800230a:	f7fe fb91 	bl	8000a30 <HAL_TIM_Base_MspInit>
 800230e:	2302      	movs	r3, #2
 8002310:	702b      	strb	r3, [r5, #0]
 8002312:	6820      	ldr	r0, [r4, #0]
 8002314:	1d21      	adds	r1, r4, #4
 8002316:	f7ff ff91 	bl	800223c <TIM_Base_SetConfig>
 800231a:	0022      	movs	r2, r4
 800231c:	2301      	movs	r3, #1
 800231e:	2000      	movs	r0, #0
 8002320:	3248      	adds	r2, #72	; 0x48
 8002322:	7013      	strb	r3, [r2, #0]
 8002324:	3447      	adds	r4, #71	; 0x47
 8002326:	3a0a      	subs	r2, #10
 8002328:	7013      	strb	r3, [r2, #0]
 800232a:	7053      	strb	r3, [r2, #1]
 800232c:	7093      	strb	r3, [r2, #2]
 800232e:	70d3      	strb	r3, [r2, #3]
 8002330:	7113      	strb	r3, [r2, #4]
 8002332:	7153      	strb	r3, [r2, #5]
 8002334:	7193      	strb	r3, [r2, #6]
 8002336:	71d3      	strb	r3, [r2, #7]
 8002338:	7213      	strb	r3, [r2, #8]
 800233a:	7023      	strb	r3, [r4, #0]
 800233c:	702b      	strb	r3, [r5, #0]
 800233e:	bd70      	pop	{r4, r5, r6, pc}

08002340 <TIM_ETR_SetConfig>:
 8002340:	b530      	push	{r4, r5, lr}
 8002342:	6884      	ldr	r4, [r0, #8]
 8002344:	4d03      	ldr	r5, [pc, #12]	; (8002354 <TIM_ETR_SetConfig+0x14>)
 8002346:	430a      	orrs	r2, r1
 8002348:	021b      	lsls	r3, r3, #8
 800234a:	402c      	ands	r4, r5
 800234c:	4313      	orrs	r3, r2
 800234e:	4323      	orrs	r3, r4
 8002350:	6083      	str	r3, [r0, #8]
 8002352:	bd30      	pop	{r4, r5, pc}
 8002354:	ffff00ff 	.word	0xffff00ff

08002358 <HAL_TIM_ConfigClockSource>:
 8002358:	b5f8      	push	{r3, r4, r5, r6, r7, lr}
 800235a:	0005      	movs	r5, r0
 800235c:	2302      	movs	r3, #2
 800235e:	353c      	adds	r5, #60	; 0x3c
 8002360:	0004      	movs	r4, r0
 8002362:	7828      	ldrb	r0, [r5, #0]
 8002364:	001a      	movs	r2, r3
 8002366:	2801      	cmp	r0, #1
 8002368:	d01d      	beq.n	80023a6 <HAL_TIM_ConfigClockSource+0x4e>
 800236a:	0026      	movs	r6, r4
 800236c:	2701      	movs	r7, #1
 800236e:	363d      	adds	r6, #61	; 0x3d
 8002370:	702f      	strb	r7, [r5, #0]
 8002372:	7033      	strb	r3, [r6, #0]
 8002374:	6820      	ldr	r0, [r4, #0]
 8002376:	4a47      	ldr	r2, [pc, #284]	; (8002494 <HAL_TIM_ConfigClockSource+0x13c>)
 8002378:	6883      	ldr	r3, [r0, #8]
 800237a:	4013      	ands	r3, r2
 800237c:	6083      	str	r3, [r0, #8]
 800237e:	680b      	ldr	r3, [r1, #0]
 8002380:	2b60      	cmp	r3, #96	; 0x60
 8002382:	d058      	beq.n	8002436 <HAL_TIM_ConfigClockSource+0xde>
 8002384:	d834      	bhi.n	80023f0 <HAL_TIM_ConfigClockSource+0x98>
 8002386:	2b40      	cmp	r3, #64	; 0x40
 8002388:	d100      	bne.n	800238c <HAL_TIM_ConfigClockSource+0x34>
 800238a:	e06c      	b.n	8002466 <HAL_TIM_ConfigClockSource+0x10e>
 800238c:	d815      	bhi.n	80023ba <HAL_TIM_ConfigClockSource+0x62>
 800238e:	2b20      	cmp	r3, #32
 8002390:	d00d      	beq.n	80023ae <HAL_TIM_ConfigClockSource+0x56>
 8002392:	d80a      	bhi.n	80023aa <HAL_TIM_ConfigClockSource+0x52>
 8002394:	2210      	movs	r2, #16
 8002396:	0019      	movs	r1, r3
 8002398:	4391      	bics	r1, r2
 800239a:	d008      	beq.n	80023ae <HAL_TIM_ConfigClockSource+0x56>
 800239c:	003a      	movs	r2, r7
 800239e:	2301      	movs	r3, #1
 80023a0:	7033      	strb	r3, [r6, #0]
 80023a2:	2300      	movs	r3, #0
 80023a4:	702b      	strb	r3, [r5, #0]
 80023a6:	0010      	movs	r0, r2
 80023a8:	bdf8      	pop	{r3, r4, r5, r6, r7, pc}
 80023aa:	2b30      	cmp	r3, #48	; 0x30
 80023ac:	d1f6      	bne.n	800239c <HAL_TIM_ConfigClockSource+0x44>
 80023ae:	6882      	ldr	r2, [r0, #8]
 80023b0:	4939      	ldr	r1, [pc, #228]	; (8002498 <HAL_TIM_ConfigClockSource+0x140>)
 80023b2:	400a      	ands	r2, r1
 80023b4:	4313      	orrs	r3, r2
 80023b6:	2207      	movs	r2, #7
 80023b8:	e017      	b.n	80023ea <HAL_TIM_ConfigClockSource+0x92>
 80023ba:	2b50      	cmp	r3, #80	; 0x50
 80023bc:	d1ee      	bne.n	800239c <HAL_TIM_ConfigClockSource+0x44>
 80023be:	68ca      	ldr	r2, [r1, #12]
 80023c0:	684c      	ldr	r4, [r1, #4]
 80023c2:	6a01      	ldr	r1, [r0, #32]
 80023c4:	6a03      	ldr	r3, [r0, #32]
 80023c6:	43bb      	bics	r3, r7
 80023c8:	27f0      	movs	r7, #240	; 0xf0
 80023ca:	6203      	str	r3, [r0, #32]
 80023cc:	6983      	ldr	r3, [r0, #24]
 80023ce:	43bb      	bics	r3, r7
 80023d0:	001f      	movs	r7, r3
 80023d2:	0113      	lsls	r3, r2, #4
 80023d4:	220a      	movs	r2, #10
 80023d6:	4391      	bics	r1, r2
 80023d8:	000a      	movs	r2, r1
 80023da:	433b      	orrs	r3, r7
 80023dc:	4322      	orrs	r2, r4
 80023de:	6183      	str	r3, [r0, #24]
 80023e0:	6202      	str	r2, [r0, #32]
 80023e2:	6883      	ldr	r3, [r0, #8]
 80023e4:	4a2c      	ldr	r2, [pc, #176]	; (8002498 <HAL_TIM_ConfigClockSource+0x140>)
 80023e6:	401a      	ands	r2, r3
 80023e8:	2357      	movs	r3, #87	; 0x57
 80023ea:	4313      	orrs	r3, r2
 80023ec:	6083      	str	r3, [r0, #8]
 80023ee:	e016      	b.n	800241e <HAL_TIM_ConfigClockSource+0xc6>
 80023f0:	2280      	movs	r2, #128	; 0x80
 80023f2:	0152      	lsls	r2, r2, #5
 80023f4:	4694      	mov	ip, r2
 80023f6:	2200      	movs	r2, #0
 80023f8:	4563      	cmp	r3, ip
 80023fa:	d0d0      	beq.n	800239e <HAL_TIM_ConfigClockSource+0x46>
 80023fc:	2280      	movs	r2, #128	; 0x80
 80023fe:	0192      	lsls	r2, r2, #6
 8002400:	4293      	cmp	r3, r2
 8002402:	d00e      	beq.n	8002422 <HAL_TIM_ConfigClockSource+0xca>
 8002404:	003a      	movs	r2, r7
 8002406:	2b70      	cmp	r3, #112	; 0x70
 8002408:	d1c9      	bne.n	800239e <HAL_TIM_ConfigClockSource+0x46>
 800240a:	68cb      	ldr	r3, [r1, #12]
 800240c:	684a      	ldr	r2, [r1, #4]
 800240e:	6889      	ldr	r1, [r1, #8]
 8002410:	f7ff ff96 	bl	8002340 <TIM_ETR_SetConfig>
 8002414:	2377      	movs	r3, #119	; 0x77
 8002416:	6822      	ldr	r2, [r4, #0]
 8002418:	6891      	ldr	r1, [r2, #8]
 800241a:	430b      	orrs	r3, r1
 800241c:	6093      	str	r3, [r2, #8]
 800241e:	2200      	movs	r2, #0
 8002420:	e7bd      	b.n	800239e <HAL_TIM_ConfigClockSource+0x46>
 8002422:	68cb      	ldr	r3, [r1, #12]
 8002424:	684a      	ldr	r2, [r1, #4]
 8002426:	6889      	ldr	r1, [r1, #8]
 8002428:	f7ff ff8a 	bl	8002340 <TIM_ETR_SetConfig>
 800242c:	2380      	movs	r3, #128	; 0x80
 800242e:	6822      	ldr	r2, [r4, #0]
 8002430:	01db      	lsls	r3, r3, #7
 8002432:	6891      	ldr	r1, [r2, #8]
 8002434:	e7f1      	b.n	800241a <HAL_TIM_ConfigClockSource+0xc2>
 8002436:	684a      	ldr	r2, [r1, #4]
 8002438:	68cf      	ldr	r7, [r1, #12]
 800243a:	2110      	movs	r1, #16
 800243c:	6a03      	ldr	r3, [r0, #32]
 800243e:	4c17      	ldr	r4, [pc, #92]	; (800249c <HAL_TIM_ConfigClockSource+0x144>)
 8002440:	438b      	bics	r3, r1
 8002442:	6203      	str	r3, [r0, #32]
 8002444:	6981      	ldr	r1, [r0, #24]
 8002446:	6a03      	ldr	r3, [r0, #32]
 8002448:	4021      	ands	r1, r4
 800244a:	24a0      	movs	r4, #160	; 0xa0
 800244c:	43a3      	bics	r3, r4
 800244e:	001c      	movs	r4, r3
 8002450:	033f      	lsls	r7, r7, #12
 8002452:	0113      	lsls	r3, r2, #4
 8002454:	4323      	orrs	r3, r4
 8002456:	4339      	orrs	r1, r7
 8002458:	6181      	str	r1, [r0, #24]
 800245a:	6203      	str	r3, [r0, #32]
 800245c:	6883      	ldr	r3, [r0, #8]
 800245e:	4a0e      	ldr	r2, [pc, #56]	; (8002498 <HAL_TIM_ConfigClockSource+0x140>)
 8002460:	401a      	ands	r2, r3
 8002462:	2367      	movs	r3, #103	; 0x67
 8002464:	e7c1      	b.n	80023ea <HAL_TIM_ConfigClockSource+0x92>
 8002466:	68ca      	ldr	r2, [r1, #12]
 8002468:	684c      	ldr	r4, [r1, #4]
 800246a:	6a01      	ldr	r1, [r0, #32]
 800246c:	6a03      	ldr	r3, [r0, #32]
 800246e:	43bb      	bics	r3, r7
 8002470:	27f0      	movs	r7, #240	; 0xf0
 8002472:	6203      	str	r3, [r0, #32]
 8002474:	6983      	ldr	r3, [r0, #24]
 8002476:	43bb      	bics	r3, r7
 8002478:	001f      	movs	r7, r3
 800247a:	0113      	lsls	r3, r2, #4
 800247c:	220a      	movs	r2, #10
 800247e:	4391      	bics	r1, r2
 8002480:	000a      	movs	r2, r1
 8002482:	433b      	orrs	r3, r7
 8002484:	4322      	orrs	r2, r4
 8002486:	6183      	str	r3, [r0, #24]
 8002488:	6202      	str	r2, [r0, #32]
 800248a:	6883      	ldr	r3, [r0, #8]
 800248c:	4a02      	ldr	r2, [pc, #8]	; (8002498 <HAL_TIM_ConfigClockSource+0x140>)
 800248e:	401a      	ands	r2, r3
 8002490:	2347      	movs	r3, #71	; 0x47
 8002492:	e7aa      	b.n	80023ea <HAL_TIM_ConfigClockSource+0x92>
 8002494:	ffce0088 	.word	0xffce0088
 8002498:	ffcfff8f 	.word	0xffcfff8f
 800249c:	ffff0fff 	.word	0xffff0fff

080024a0 <HAL_TIMEx_MasterConfigSynchronization>:
 80024a0:	b5f0      	push	{r4, r5, r6, r7, lr}
 80024a2:	0004      	movs	r4, r0
 80024a4:	2202      	movs	r2, #2
 80024a6:	343c      	adds	r4, #60	; 0x3c
 80024a8:	7825      	ldrb	r5, [r4, #0]
 80024aa:	0003      	movs	r3, r0
 80024ac:	0010      	movs	r0, r2
 80024ae:	2d01      	cmp	r5, #1
 80024b0:	d029      	beq.n	8002506 <HAL_TIMEx_MasterConfigSynchronization+0x66>
 80024b2:	001d      	movs	r5, r3
 80024b4:	353d      	adds	r5, #61	; 0x3d
 80024b6:	702a      	strb	r2, [r5, #0]
 80024b8:	681b      	ldr	r3, [r3, #0]
 80024ba:	4e13      	ldr	r6, [pc, #76]	; (8002508 <HAL_TIMEx_MasterConfigSynchronization+0x68>)
 80024bc:	685a      	ldr	r2, [r3, #4]
 80024be:	6898      	ldr	r0, [r3, #8]
 80024c0:	42b3      	cmp	r3, r6
 80024c2:	d103      	bne.n	80024cc <HAL_TIMEx_MasterConfigSynchronization+0x2c>
 80024c4:	4f11      	ldr	r7, [pc, #68]	; (800250c <HAL_TIMEx_MasterConfigSynchronization+0x6c>)
 80024c6:	403a      	ands	r2, r7
 80024c8:	684f      	ldr	r7, [r1, #4]
 80024ca:	433a      	orrs	r2, r7
 80024cc:	2770      	movs	r7, #112	; 0x70
 80024ce:	43ba      	bics	r2, r7
 80024d0:	680f      	ldr	r7, [r1, #0]
 80024d2:	433a      	orrs	r2, r7
 80024d4:	605a      	str	r2, [r3, #4]
 80024d6:	42b3      	cmp	r3, r6
 80024d8:	d00c      	beq.n	80024f4 <HAL_TIMEx_MasterConfigSynchronization+0x54>
 80024da:	2280      	movs	r2, #128	; 0x80
 80024dc:	05d2      	lsls	r2, r2, #23
 80024de:	4293      	cmp	r3, r2
 80024e0:	d008      	beq.n	80024f4 <HAL_TIMEx_MasterConfigSynchronization+0x54>
 80024e2:	4a0b      	ldr	r2, [pc, #44]	; (8002510 <HAL_TIMEx_MasterConfigSynchronization+0x70>)
 80024e4:	4293      	cmp	r3, r2
 80024e6:	d005      	beq.n	80024f4 <HAL_TIMEx_MasterConfigSynchronization+0x54>
 80024e8:	4a0a      	ldr	r2, [pc, #40]	; (8002514 <HAL_TIMEx_MasterConfigSynchronization+0x74>)
 80024ea:	4293      	cmp	r3, r2
 80024ec:	d002      	beq.n	80024f4 <HAL_TIMEx_MasterConfigSynchronization+0x54>
 80024ee:	4a0a      	ldr	r2, [pc, #40]	; (8002518 <HAL_TIMEx_MasterConfigSynchronization+0x78>)
 80024f0:	4293      	cmp	r3, r2
 80024f2:	d104      	bne.n	80024fe <HAL_TIMEx_MasterConfigSynchronization+0x5e>
 80024f4:	2280      	movs	r2, #128	; 0x80
 80024f6:	4390      	bics	r0, r2
 80024f8:	688a      	ldr	r2, [r1, #8]
 80024fa:	4310      	orrs	r0, r2
 80024fc:	6098      	str	r0, [r3, #8]
 80024fe:	2301      	movs	r3, #1
 8002500:	2000      	movs	r0, #0
 8002502:	702b      	strb	r3, [r5, #0]
 8002504:	7020      	strb	r0, [r4, #0]
 8002506:	bdf0      	pop	{r4, r5, r6, r7, pc}
 8002508:	40012c00 	.word	0x40012c00
 800250c:	ff0fffff 	.word	0xff0fffff
 8002510:	40000400 	.word	0x40000400
 8002514:	40000800 	.word	0x40000800
 8002518:	40014000 	.word	0x40014000

0800251c <UART_SetConfig>:
 800251c:	b5f8      	push	{r3, r4, r5, r6, r7, lr}
 800251e:	0004      	movs	r4, r0
 8002520:	6925      	ldr	r5, [r4, #16]
 8002522:	68a1      	ldr	r1, [r4, #8]
 8002524:	6803      	ldr	r3, [r0, #0]
 8002526:	4329      	orrs	r1, r5
 8002528:	6965      	ldr	r5, [r4, #20]
 800252a:	69c2      	ldr	r2, [r0, #28]
 800252c:	4329      	orrs	r1, r5
 800252e:	6818      	ldr	r0, [r3, #0]
 8002530:	4d9e      	ldr	r5, [pc, #632]	; (80027ac <UART_SetConfig+0x290>)
 8002532:	4311      	orrs	r1, r2
 8002534:	4028      	ands	r0, r5
 8002536:	4301      	orrs	r1, r0
 8002538:	6019      	str	r1, [r3, #0]
 800253a:	6859      	ldr	r1, [r3, #4]
 800253c:	489c      	ldr	r0, [pc, #624]	; (80027b0 <UART_SetConfig+0x294>)
 800253e:	69a5      	ldr	r5, [r4, #24]
 8002540:	4001      	ands	r1, r0
 8002542:	68e0      	ldr	r0, [r4, #12]
 8002544:	4301      	orrs	r1, r0
 8002546:	489b      	ldr	r0, [pc, #620]	; (80027b4 <UART_SetConfig+0x298>)
 8002548:	6059      	str	r1, [r3, #4]
 800254a:	4283      	cmp	r3, r0
 800254c:	d004      	beq.n	8002558 <UART_SetConfig+0x3c>
 800254e:	499a      	ldr	r1, [pc, #616]	; (80027b8 <UART_SetConfig+0x29c>)
 8002550:	428b      	cmp	r3, r1
 8002552:	d001      	beq.n	8002558 <UART_SetConfig+0x3c>
 8002554:	6a21      	ldr	r1, [r4, #32]
 8002556:	430d      	orrs	r5, r1
 8002558:	6899      	ldr	r1, [r3, #8]
 800255a:	4e98      	ldr	r6, [pc, #608]	; (80027bc <UART_SetConfig+0x2a0>)
 800255c:	4031      	ands	r1, r6
 800255e:	4329      	orrs	r1, r5
 8002560:	250f      	movs	r5, #15
 8002562:	6099      	str	r1, [r3, #8]
 8002564:	6ad9      	ldr	r1, [r3, #44]	; 0x2c
 8002566:	43a9      	bics	r1, r5
 8002568:	6a65      	ldr	r5, [r4, #36]	; 0x24
 800256a:	4329      	orrs	r1, r5
 800256c:	62d9      	str	r1, [r3, #44]	; 0x2c
 800256e:	4994      	ldr	r1, [pc, #592]	; (80027c0 <UART_SetConfig+0x2a4>)
 8002570:	428b      	cmp	r3, r1
 8002572:	d116      	bne.n	80025a2 <UART_SetConfig+0x86>
 8002574:	2103      	movs	r1, #3
 8002576:	4b93      	ldr	r3, [pc, #588]	; (80027c4 <UART_SetConfig+0x2a8>)
 8002578:	2000      	movs	r0, #0
 800257a:	6d5b      	ldr	r3, [r3, #84]	; 0x54
 800257c:	400b      	ands	r3, r1
 800257e:	3b01      	subs	r3, #1
 8002580:	4991      	ldr	r1, [pc, #580]	; (80027c8 <UART_SetConfig+0x2ac>)
 8002582:	2b02      	cmp	r3, #2
 8002584:	d915      	bls.n	80025b2 <UART_SetConfig+0x96>
 8002586:	2380      	movs	r3, #128	; 0x80
 8002588:	021b      	lsls	r3, r3, #8
 800258a:	429a      	cmp	r2, r3
 800258c:	d000      	beq.n	8002590 <UART_SetConfig+0x74>
 800258e:	e0a7      	b.n	80026e0 <UART_SetConfig+0x1c4>
 8002590:	2808      	cmp	r0, #8
 8002592:	d821      	bhi.n	80025d8 <UART_SetConfig+0xbc>
 8002594:	f7fd fdb6 	bl	8000104 <__gnu_thumb1_case_uqi>
 8002598:	20a220dd 	.word	0x20a220dd
 800259c:	202020d0 	.word	0x202020d0
 80025a0:	e2          	.byte	0xe2
 80025a1:	00          	.byte	0x00
 80025a2:	498a      	ldr	r1, [pc, #552]	; (80027cc <UART_SetConfig+0x2b0>)
 80025a4:	428b      	cmp	r3, r1
 80025a6:	d106      	bne.n	80025b6 <UART_SetConfig+0x9a>
 80025a8:	210c      	movs	r1, #12
 80025aa:	4b86      	ldr	r3, [pc, #536]	; (80027c4 <UART_SetConfig+0x2a8>)
 80025ac:	6d5b      	ldr	r3, [r3, #84]	; 0x54
 80025ae:	400b      	ands	r3, r1
 80025b0:	4987      	ldr	r1, [pc, #540]	; (80027d0 <UART_SetConfig+0x2b4>)
 80025b2:	5cc8      	ldrb	r0, [r1, r3]
 80025b4:	e7e7      	b.n	8002586 <UART_SetConfig+0x6a>
 80025b6:	4987      	ldr	r1, [pc, #540]	; (80027d4 <UART_SetConfig+0x2b8>)
 80025b8:	428b      	cmp	r3, r1
 80025ba:	d117      	bne.n	80025ec <UART_SetConfig+0xd0>
 80025bc:	2030      	movs	r0, #48	; 0x30
 80025be:	4981      	ldr	r1, [pc, #516]	; (80027c4 <UART_SetConfig+0x2a8>)
 80025c0:	6d49      	ldr	r1, [r1, #84]	; 0x54
 80025c2:	4001      	ands	r1, r0
 80025c4:	2920      	cmp	r1, #32
 80025c6:	d100      	bne.n	80025ca <UART_SetConfig+0xae>
 80025c8:	e0b9      	b.n	800273e <UART_SetConfig+0x222>
 80025ca:	d807      	bhi.n	80025dc <UART_SetConfig+0xc0>
 80025cc:	2900      	cmp	r1, #0
 80025ce:	d100      	bne.n	80025d2 <UART_SetConfig+0xb6>
 80025d0:	e0e2      	b.n	8002798 <UART_SetConfig+0x27c>
 80025d2:	2910      	cmp	r1, #16
 80025d4:	d100      	bne.n	80025d8 <UART_SetConfig+0xbc>
 80025d6:	e0ab      	b.n	8002730 <UART_SetConfig+0x214>
 80025d8:	2001      	movs	r0, #1
 80025da:	e04b      	b.n	8002674 <UART_SetConfig+0x158>
 80025dc:	2930      	cmp	r1, #48	; 0x30
 80025de:	d1fb      	bne.n	80025d8 <UART_SetConfig+0xbc>
 80025e0:	2080      	movs	r0, #128	; 0x80
 80025e2:	0200      	lsls	r0, r0, #8
 80025e4:	4282      	cmp	r2, r0
 80025e6:	d000      	beq.n	80025ea <UART_SetConfig+0xce>
 80025e8:	e08a      	b.n	8002700 <UART_SetConfig+0x1e4>
 80025ea:	e0b7      	b.n	800275c <UART_SetConfig+0x240>
 80025ec:	497a      	ldr	r1, [pc, #488]	; (80027d8 <UART_SetConfig+0x2bc>)
 80025ee:	428b      	cmp	r3, r1
 80025f0:	d100      	bne.n	80025f4 <UART_SetConfig+0xd8>
 80025f2:	e0aa      	b.n	800274a <UART_SetConfig+0x22e>
 80025f4:	4979      	ldr	r1, [pc, #484]	; (80027dc <UART_SetConfig+0x2c0>)
 80025f6:	428b      	cmp	r3, r1
 80025f8:	d100      	bne.n	80025fc <UART_SetConfig+0xe0>
 80025fa:	e0a6      	b.n	800274a <UART_SetConfig+0x22e>
 80025fc:	4978      	ldr	r1, [pc, #480]	; (80027e0 <UART_SetConfig+0x2c4>)
 80025fe:	428b      	cmp	r3, r1
 8002600:	d100      	bne.n	8002604 <UART_SetConfig+0xe8>
 8002602:	e0a2      	b.n	800274a <UART_SetConfig+0x22e>
 8002604:	4283      	cmp	r3, r0
 8002606:	d117      	bne.n	8002638 <UART_SetConfig+0x11c>
 8002608:	22c0      	movs	r2, #192	; 0xc0
 800260a:	2180      	movs	r1, #128	; 0x80
 800260c:	4b6d      	ldr	r3, [pc, #436]	; (80027c4 <UART_SetConfig+0x2a8>)
 800260e:	0112      	lsls	r2, r2, #4
 8002610:	6d5b      	ldr	r3, [r3, #84]	; 0x54
 8002612:	0109      	lsls	r1, r1, #4
 8002614:	4013      	ands	r3, r2
 8002616:	428b      	cmp	r3, r1
 8002618:	d032      	beq.n	8002680 <UART_SetConfig+0x164>
 800261a:	d808      	bhi.n	800262e <UART_SetConfig+0x112>
 800261c:	2b00      	cmp	r3, #0
 800261e:	d024      	beq.n	800266a <UART_SetConfig+0x14e>
 8002620:	2280      	movs	r2, #128	; 0x80
 8002622:	00d2      	lsls	r2, r2, #3
 8002624:	4293      	cmp	r3, r2
 8002626:	d1d7      	bne.n	80025d8 <UART_SetConfig+0xbc>
 8002628:	f7ff fbae 	bl	8001d88 <HAL_RCC_GetSysClockFreq>
 800262c:	e01f      	b.n	800266e <UART_SetConfig+0x152>
 800262e:	4293      	cmp	r3, r2
 8002630:	d1d2      	bne.n	80025d8 <UART_SetConfig+0xbc>
 8002632:	2680      	movs	r6, #128	; 0x80
 8002634:	0236      	lsls	r6, r6, #8
 8002636:	e024      	b.n	8002682 <UART_SetConfig+0x166>
 8002638:	495f      	ldr	r1, [pc, #380]	; (80027b8 <UART_SetConfig+0x29c>)
 800263a:	2001      	movs	r0, #1
 800263c:	428b      	cmp	r3, r1
 800263e:	d119      	bne.n	8002674 <UART_SetConfig+0x158>
 8002640:	20c0      	movs	r0, #192	; 0xc0
 8002642:	2580      	movs	r5, #128	; 0x80
 8002644:	495f      	ldr	r1, [pc, #380]	; (80027c4 <UART_SetConfig+0x2a8>)
 8002646:	0080      	lsls	r0, r0, #2
 8002648:	6d49      	ldr	r1, [r1, #84]	; 0x54
 800264a:	00ad      	lsls	r5, r5, #2
 800264c:	4001      	ands	r1, r0
 800264e:	42a9      	cmp	r1, r5
 8002650:	d016      	beq.n	8002680 <UART_SetConfig+0x164>
 8002652:	d807      	bhi.n	8002664 <UART_SetConfig+0x148>
 8002654:	2900      	cmp	r1, #0
 8002656:	d100      	bne.n	800265a <UART_SetConfig+0x13e>
 8002658:	e09e      	b.n	8002798 <UART_SetConfig+0x27c>
 800265a:	2380      	movs	r3, #128	; 0x80
 800265c:	005b      	lsls	r3, r3, #1
 800265e:	4299      	cmp	r1, r3
 8002660:	d0e2      	beq.n	8002628 <UART_SetConfig+0x10c>
 8002662:	e7b9      	b.n	80025d8 <UART_SetConfig+0xbc>
 8002664:	4281      	cmp	r1, r0
 8002666:	d0e4      	beq.n	8002632 <UART_SetConfig+0x116>
 8002668:	e7b6      	b.n	80025d8 <UART_SetConfig+0xbc>
 800266a:	f7ff fc81 	bl	8001f70 <HAL_RCC_GetPCLK1Freq>
 800266e:	1e06      	subs	r6, r0, #0
 8002670:	d107      	bne.n	8002682 <UART_SetConfig+0x166>
 8002672:	2000      	movs	r0, #0
 8002674:	4b5b      	ldr	r3, [pc, #364]	; (80027e4 <UART_SetConfig+0x2c8>)
 8002676:	66a3      	str	r3, [r4, #104]	; 0x68
 8002678:	2300      	movs	r3, #0
 800267a:	6763      	str	r3, [r4, #116]	; 0x74
 800267c:	67a3      	str	r3, [r4, #120]	; 0x78
 800267e:	bdf8      	pop	{r3, r4, r5, r6, r7, pc}
 8002680:	4e59      	ldr	r6, [pc, #356]	; (80027e8 <UART_SetConfig+0x2cc>)
 8002682:	6a63      	ldr	r3, [r4, #36]	; 0x24
 8002684:	4a59      	ldr	r2, [pc, #356]	; (80027ec <UART_SetConfig+0x2d0>)
 8002686:	005b      	lsls	r3, r3, #1
 8002688:	5a9f      	ldrh	r7, [r3, r2]
 800268a:	0030      	movs	r0, r6
 800268c:	0039      	movs	r1, r7
 800268e:	f7fd fd4d 	bl	800012c <__udivsi3>
 8002692:	2303      	movs	r3, #3
 8002694:	6865      	ldr	r5, [r4, #4]
 8002696:	436b      	muls	r3, r5
 8002698:	4283      	cmp	r3, r0
 800269a:	d89d      	bhi.n	80025d8 <UART_SetConfig+0xbc>
 800269c:	032b      	lsls	r3, r5, #12
 800269e:	4283      	cmp	r3, r0
 80026a0:	d39a      	bcc.n	80025d8 <UART_SetConfig+0xbc>
 80026a2:	2300      	movs	r3, #0
 80026a4:	003a      	movs	r2, r7
 80026a6:	0030      	movs	r0, r6
 80026a8:	0019      	movs	r1, r3
 80026aa:	f7fd feb5 	bl	8000418 <__aeabi_uldivmod>
 80026ae:	2700      	movs	r7, #0
 80026b0:	0e06      	lsrs	r6, r0, #24
 80026b2:	020b      	lsls	r3, r1, #8
 80026b4:	4333      	orrs	r3, r6
 80026b6:	0202      	lsls	r2, r0, #8
 80026b8:	086e      	lsrs	r6, r5, #1
 80026ba:	1992      	adds	r2, r2, r6
 80026bc:	417b      	adcs	r3, r7
 80026be:	0010      	movs	r0, r2
 80026c0:	0019      	movs	r1, r3
 80026c2:	002a      	movs	r2, r5
 80026c4:	003b      	movs	r3, r7
 80026c6:	f7fd fea7 	bl	8000418 <__aeabi_uldivmod>
 80026ca:	4b49      	ldr	r3, [pc, #292]	; (80027f0 <UART_SetConfig+0x2d4>)
 80026cc:	18c2      	adds	r2, r0, r3
 80026ce:	4b49      	ldr	r3, [pc, #292]	; (80027f4 <UART_SetConfig+0x2d8>)
 80026d0:	429a      	cmp	r2, r3
 80026d2:	d900      	bls.n	80026d6 <UART_SetConfig+0x1ba>
 80026d4:	e780      	b.n	80025d8 <UART_SetConfig+0xbc>
 80026d6:	6823      	ldr	r3, [r4, #0]
 80026d8:	60d8      	str	r0, [r3, #12]
 80026da:	e7ca      	b.n	8002672 <UART_SetConfig+0x156>
 80026dc:	4a42      	ldr	r2, [pc, #264]	; (80027e8 <UART_SetConfig+0x2cc>)
 80026de:	e03d      	b.n	800275c <UART_SetConfig+0x240>
 80026e0:	2808      	cmp	r0, #8
 80026e2:	d900      	bls.n	80026e6 <UART_SetConfig+0x1ca>
 80026e4:	e778      	b.n	80025d8 <UART_SetConfig+0xbc>
 80026e6:	f7fd fd17 	bl	8000118 <__gnu_thumb1_case_shi>
 80026ea:	001b      	.short	0x001b
 80026ec:	002eff77 	.word	0x002eff77
 80026f0:	0020ff77 	.word	0x0020ff77
 80026f4:	ff77ff77 	.word	0xff77ff77
 80026f8:	0009ff77 	.word	0x0009ff77
 80026fc:	2080      	movs	r0, #128	; 0x80
 80026fe:	0200      	lsls	r0, r0, #8
 8002700:	6a63      	ldr	r3, [r4, #36]	; 0x24
 8002702:	4a3a      	ldr	r2, [pc, #232]	; (80027ec <UART_SetConfig+0x2d0>)
 8002704:	005b      	lsls	r3, r3, #1
 8002706:	5a99      	ldrh	r1, [r3, r2]
 8002708:	f7fd fd10 	bl	800012c <__udivsi3>
 800270c:	6865      	ldr	r5, [r4, #4]
 800270e:	086b      	lsrs	r3, r5, #1
 8002710:	18c0      	adds	r0, r0, r3
 8002712:	0029      	movs	r1, r5
 8002714:	f7fd fd0a 	bl	800012c <__udivsi3>
 8002718:	0002      	movs	r2, r0
 800271a:	4b37      	ldr	r3, [pc, #220]	; (80027f8 <UART_SetConfig+0x2dc>)
 800271c:	3a10      	subs	r2, #16
 800271e:	e7d7      	b.n	80026d0 <UART_SetConfig+0x1b4>
 8002720:	f7ff fc26 	bl	8001f70 <HAL_RCC_GetPCLK1Freq>
 8002724:	2800      	cmp	r0, #0
 8002726:	d0a4      	beq.n	8002672 <UART_SetConfig+0x156>
 8002728:	e7ea      	b.n	8002700 <UART_SetConfig+0x1e4>
 800272a:	f7ff fb2d 	bl	8001d88 <HAL_RCC_GetSysClockFreq>
 800272e:	e7f9      	b.n	8002724 <UART_SetConfig+0x208>
 8002730:	2380      	movs	r3, #128	; 0x80
 8002732:	021b      	lsls	r3, r3, #8
 8002734:	429a      	cmp	r2, r3
 8002736:	d1f8      	bne.n	800272a <UART_SetConfig+0x20e>
 8002738:	f7ff fb26 	bl	8001d88 <HAL_RCC_GetSysClockFreq>
 800273c:	e00b      	b.n	8002756 <UART_SetConfig+0x23a>
 800273e:	2380      	movs	r3, #128	; 0x80
 8002740:	021b      	lsls	r3, r3, #8
 8002742:	429a      	cmp	r2, r3
 8002744:	d0ca      	beq.n	80026dc <UART_SetConfig+0x1c0>
 8002746:	4828      	ldr	r0, [pc, #160]	; (80027e8 <UART_SetConfig+0x2cc>)
 8002748:	e7da      	b.n	8002700 <UART_SetConfig+0x1e4>
 800274a:	2380      	movs	r3, #128	; 0x80
 800274c:	021b      	lsls	r3, r3, #8
 800274e:	429a      	cmp	r2, r3
 8002750:	d1e6      	bne.n	8002720 <UART_SetConfig+0x204>
 8002752:	f7ff fc0d 	bl	8001f70 <HAL_RCC_GetPCLK1Freq>
 8002756:	1e02      	subs	r2, r0, #0
 8002758:	d100      	bne.n	800275c <UART_SetConfig+0x240>
 800275a:	e78a      	b.n	8002672 <UART_SetConfig+0x156>
 800275c:	6a63      	ldr	r3, [r4, #36]	; 0x24
 800275e:	4923      	ldr	r1, [pc, #140]	; (80027ec <UART_SetConfig+0x2d0>)
 8002760:	005b      	lsls	r3, r3, #1
 8002762:	0010      	movs	r0, r2
 8002764:	5a59      	ldrh	r1, [r3, r1]
 8002766:	f7fd fce1 	bl	800012c <__udivsi3>
 800276a:	6865      	ldr	r5, [r4, #4]
 800276c:	0040      	lsls	r0, r0, #1
 800276e:	086b      	lsrs	r3, r5, #1
 8002770:	18c0      	adds	r0, r0, r3
 8002772:	0029      	movs	r1, r5
 8002774:	f7fd fcda 	bl	800012c <__udivsi3>
 8002778:	0002      	movs	r2, r0
 800277a:	4b1f      	ldr	r3, [pc, #124]	; (80027f8 <UART_SetConfig+0x2dc>)
 800277c:	3a10      	subs	r2, #16
 800277e:	429a      	cmp	r2, r3
 8002780:	d900      	bls.n	8002784 <UART_SetConfig+0x268>
 8002782:	e729      	b.n	80025d8 <UART_SetConfig+0xbc>
 8002784:	230f      	movs	r3, #15
 8002786:	0002      	movs	r2, r0
 8002788:	0700      	lsls	r0, r0, #28
 800278a:	439a      	bics	r2, r3
 800278c:	b293      	uxth	r3, r2
 800278e:	0f40      	lsrs	r0, r0, #29
 8002790:	6822      	ldr	r2, [r4, #0]
 8002792:	4318      	orrs	r0, r3
 8002794:	60d0      	str	r0, [r2, #12]
 8002796:	e76c      	b.n	8002672 <UART_SetConfig+0x156>
 8002798:	4907      	ldr	r1, [pc, #28]	; (80027b8 <UART_SetConfig+0x29c>)
 800279a:	428b      	cmp	r3, r1
 800279c:	d100      	bne.n	80027a0 <UART_SetConfig+0x284>
 800279e:	e764      	b.n	800266a <UART_SetConfig+0x14e>
 80027a0:	2380      	movs	r3, #128	; 0x80
 80027a2:	2000      	movs	r0, #0
 80027a4:	021b      	lsls	r3, r3, #8
 80027a6:	429a      	cmp	r2, r3
 80027a8:	d19d      	bne.n	80026e6 <UART_SetConfig+0x1ca>
 80027aa:	e7d2      	b.n	8002752 <UART_SetConfig+0x236>
 80027ac:	cfff69f3 	.word	0xcfff69f3
 80027b0:	ffffcfff 	.word	0xffffcfff
 80027b4:	40008000 	.word	0x40008000
 80027b8:	40008400 	.word	0x40008400
 80027bc:	11fff4ff 	.word	0x11fff4ff
 80027c0:	40013800 	.word	0x40013800
 80027c4:	40021000 	.word	0x40021000
 80027c8:	08002c58 	.word	0x08002c58
 80027cc:	40004400 	.word	0x40004400
 80027d0:	08002c5b 	.word	0x08002c5b
 80027d4:	40004800 	.word	0x40004800
 80027d8:	40004c00 	.word	0x40004c00
 80027dc:	40005000 	.word	0x40005000
 80027e0:	40013c00 	.word	0x40013c00
 80027e4:	00010001 	.word	0x00010001
 80027e8:	00f42400 	.word	0x00f42400
 80027ec:	08002c68 	.word	0x08002c68
 80027f0:	fffffd00 	.word	0xfffffd00
 80027f4:	000ffcff 	.word	0x000ffcff
 80027f8:	0000ffef 	.word	0x0000ffef

080027fc <UART_AdvFeatureConfig>:
 80027fc:	6a83      	ldr	r3, [r0, #40]	; 0x28
 80027fe:	b530      	push	{r4, r5, lr}
 8002800:	07da      	lsls	r2, r3, #31
 8002802:	d506      	bpl.n	8002812 <UART_AdvFeatureConfig+0x16>
 8002804:	6801      	ldr	r1, [r0, #0]
 8002806:	4c28      	ldr	r4, [pc, #160]	; (80028a8 <UART_AdvFeatureConfig+0xac>)
 8002808:	684a      	ldr	r2, [r1, #4]
 800280a:	4022      	ands	r2, r4
 800280c:	6ac4      	ldr	r4, [r0, #44]	; 0x2c
 800280e:	4322      	orrs	r2, r4
 8002810:	604a      	str	r2, [r1, #4]
 8002812:	079a      	lsls	r2, r3, #30
 8002814:	d506      	bpl.n	8002824 <UART_AdvFeatureConfig+0x28>
 8002816:	6801      	ldr	r1, [r0, #0]
 8002818:	4c24      	ldr	r4, [pc, #144]	; (80028ac <UART_AdvFeatureConfig+0xb0>)
 800281a:	684a      	ldr	r2, [r1, #4]
 800281c:	4022      	ands	r2, r4
 800281e:	6b04      	ldr	r4, [r0, #48]	; 0x30
 8002820:	4322      	orrs	r2, r4
 8002822:	604a      	str	r2, [r1, #4]
 8002824:	075a      	lsls	r2, r3, #29
 8002826:	d506      	bpl.n	8002836 <UART_AdvFeatureConfig+0x3a>
 8002828:	6801      	ldr	r1, [r0, #0]
 800282a:	4c21      	ldr	r4, [pc, #132]	; (80028b0 <UART_AdvFeatureConfig+0xb4>)
 800282c:	684a      	ldr	r2, [r1, #4]
 800282e:	4022      	ands	r2, r4
 8002830:	6b44      	ldr	r4, [r0, #52]	; 0x34
 8002832:	4322      	orrs	r2, r4
 8002834:	604a      	str	r2, [r1, #4]
 8002836:	071a      	lsls	r2, r3, #28
 8002838:	d506      	bpl.n	8002848 <UART_AdvFeatureConfig+0x4c>
 800283a:	6801      	ldr	r1, [r0, #0]
 800283c:	4c1d      	ldr	r4, [pc, #116]	; (80028b4 <UART_AdvFeatureConfig+0xb8>)
 800283e:	684a      	ldr	r2, [r1, #4]
 8002840:	4022      	ands	r2, r4
 8002842:	6b84      	ldr	r4, [r0, #56]	; 0x38
 8002844:	4322      	orrs	r2, r4
 8002846:	604a      	str	r2, [r1, #4]
 8002848:	06da      	lsls	r2, r3, #27
 800284a:	d506      	bpl.n	800285a <UART_AdvFeatureConfig+0x5e>
 800284c:	6801      	ldr	r1, [r0, #0]
 800284e:	4c1a      	ldr	r4, [pc, #104]	; (80028b8 <UART_AdvFeatureConfig+0xbc>)
 8002850:	688a      	ldr	r2, [r1, #8]
 8002852:	4022      	ands	r2, r4
 8002854:	6bc4      	ldr	r4, [r0, #60]	; 0x3c
 8002856:	4322      	orrs	r2, r4
 8002858:	608a      	str	r2, [r1, #8]
 800285a:	069a      	lsls	r2, r3, #26
 800285c:	d506      	bpl.n	800286c <UART_AdvFeatureConfig+0x70>
 800285e:	6801      	ldr	r1, [r0, #0]
 8002860:	4c16      	ldr	r4, [pc, #88]	; (80028bc <UART_AdvFeatureConfig+0xc0>)
 8002862:	688a      	ldr	r2, [r1, #8]
 8002864:	4022      	ands	r2, r4
 8002866:	6c04      	ldr	r4, [r0, #64]	; 0x40
 8002868:	4322      	orrs	r2, r4
 800286a:	608a      	str	r2, [r1, #8]
 800286c:	065a      	lsls	r2, r3, #25
 800286e:	d510      	bpl.n	8002892 <UART_AdvFeatureConfig+0x96>
 8002870:	6801      	ldr	r1, [r0, #0]
 8002872:	4d13      	ldr	r5, [pc, #76]	; (80028c0 <UART_AdvFeatureConfig+0xc4>)
 8002874:	684a      	ldr	r2, [r1, #4]
 8002876:	6c44      	ldr	r4, [r0, #68]	; 0x44
 8002878:	402a      	ands	r2, r5
 800287a:	4322      	orrs	r2, r4
 800287c:	604a      	str	r2, [r1, #4]
 800287e:	2280      	movs	r2, #128	; 0x80
 8002880:	0352      	lsls	r2, r2, #13
 8002882:	4294      	cmp	r4, r2
 8002884:	d105      	bne.n	8002892 <UART_AdvFeatureConfig+0x96>
 8002886:	684a      	ldr	r2, [r1, #4]
 8002888:	4c0e      	ldr	r4, [pc, #56]	; (80028c4 <UART_AdvFeatureConfig+0xc8>)
 800288a:	4022      	ands	r2, r4
 800288c:	6c84      	ldr	r4, [r0, #72]	; 0x48
 800288e:	4322      	orrs	r2, r4
 8002890:	604a      	str	r2, [r1, #4]
 8002892:	061b      	lsls	r3, r3, #24
 8002894:	d506      	bpl.n	80028a4 <UART_AdvFeatureConfig+0xa8>
 8002896:	6802      	ldr	r2, [r0, #0]
 8002898:	490b      	ldr	r1, [pc, #44]	; (80028c8 <UART_AdvFeatureConfig+0xcc>)
 800289a:	6853      	ldr	r3, [r2, #4]
 800289c:	400b      	ands	r3, r1
 800289e:	6cc1      	ldr	r1, [r0, #76]	; 0x4c
 80028a0:	430b      	orrs	r3, r1
 80028a2:	6053      	str	r3, [r2, #4]
 80028a4:	bd30      	pop	{r4, r5, pc}
 80028a6:	46c0      	nop			; (mov r8, r8)
 80028a8:	fffdffff 	.word	0xfffdffff
 80028ac:	fffeffff 	.word	0xfffeffff
 80028b0:	fffbffff 	.word	0xfffbffff
 80028b4:	ffff7fff 	.word	0xffff7fff
 80028b8:	ffffefff 	.word	0xffffefff
 80028bc:	ffffdfff 	.word	0xffffdfff
 80028c0:	ffefffff 	.word	0xffefffff
 80028c4:	ff9fffff 	.word	0xff9fffff
 80028c8:	fff7ffff 	.word	0xfff7ffff

080028cc <UART_WaitOnFlagUntilTimeout>:
 80028cc:	b5f7      	push	{r0, r1, r2, r4, r5, r6, r7, lr}
 80028ce:	2780      	movs	r7, #128	; 0x80
 80028d0:	0004      	movs	r4, r0
 80028d2:	000d      	movs	r5, r1
 80028d4:	0016      	movs	r6, r2
 80028d6:	9301      	str	r3, [sp, #4]
 80028d8:	013f      	lsls	r7, r7, #4
 80028da:	6822      	ldr	r2, [r4, #0]
 80028dc:	69d3      	ldr	r3, [r2, #28]
 80028de:	402b      	ands	r3, r5
 80028e0:	1b5b      	subs	r3, r3, r5
 80028e2:	4259      	negs	r1, r3
 80028e4:	414b      	adcs	r3, r1
 80028e6:	42b3      	cmp	r3, r6
 80028e8:	d001      	beq.n	80028ee <UART_WaitOnFlagUntilTimeout+0x22>
 80028ea:	2000      	movs	r0, #0
 80028ec:	e02a      	b.n	8002944 <UART_WaitOnFlagUntilTimeout+0x78>
 80028ee:	9b08      	ldr	r3, [sp, #32]
 80028f0:	3301      	adds	r3, #1
 80028f2:	d0f3      	beq.n	80028dc <UART_WaitOnFlagUntilTimeout+0x10>
 80028f4:	f7fe fa92 	bl	8000e1c <HAL_GetTick>
 80028f8:	9b01      	ldr	r3, [sp, #4]
 80028fa:	1ac0      	subs	r0, r0, r3
 80028fc:	9b08      	ldr	r3, [sp, #32]
 80028fe:	4298      	cmp	r0, r3
 8002900:	d801      	bhi.n	8002906 <UART_WaitOnFlagUntilTimeout+0x3a>
 8002902:	2b00      	cmp	r3, #0
 8002904:	d11f      	bne.n	8002946 <UART_WaitOnFlagUntilTimeout+0x7a>
 8002906:	f3ef 8010 	mrs	r0, PRIMASK
 800290a:	2201      	movs	r2, #1
 800290c:	f382 8810 	msr	PRIMASK, r2
 8002910:	6821      	ldr	r1, [r4, #0]
 8002912:	4d20      	ldr	r5, [pc, #128]	; (8002994 <UART_WaitOnFlagUntilTimeout+0xc8>)
 8002914:	680b      	ldr	r3, [r1, #0]
 8002916:	402b      	ands	r3, r5
 8002918:	600b      	str	r3, [r1, #0]
 800291a:	f380 8810 	msr	PRIMASK, r0
 800291e:	f3ef 8010 	mrs	r0, PRIMASK
 8002922:	f382 8810 	msr	PRIMASK, r2
 8002926:	6821      	ldr	r1, [r4, #0]
 8002928:	688b      	ldr	r3, [r1, #8]
 800292a:	4393      	bics	r3, r2
 800292c:	608b      	str	r3, [r1, #8]
 800292e:	f380 8810 	msr	PRIMASK, r0
 8002932:	0022      	movs	r2, r4
 8002934:	2320      	movs	r3, #32
 8002936:	3288      	adds	r2, #136	; 0x88
 8002938:	6013      	str	r3, [r2, #0]
 800293a:	6053      	str	r3, [r2, #4]
 800293c:	2300      	movs	r3, #0
 800293e:	2003      	movs	r0, #3
 8002940:	3484      	adds	r4, #132	; 0x84
 8002942:	7023      	strb	r3, [r4, #0]
 8002944:	bdfe      	pop	{r1, r2, r3, r4, r5, r6, r7, pc}
 8002946:	2104      	movs	r1, #4
 8002948:	6823      	ldr	r3, [r4, #0]
 800294a:	681a      	ldr	r2, [r3, #0]
 800294c:	420a      	tst	r2, r1
 800294e:	d0c4      	beq.n	80028da <UART_WaitOnFlagUntilTimeout+0xe>
 8002950:	69da      	ldr	r2, [r3, #28]
 8002952:	423a      	tst	r2, r7
 8002954:	d0c1      	beq.n	80028da <UART_WaitOnFlagUntilTimeout+0xe>
 8002956:	621f      	str	r7, [r3, #32]
 8002958:	f3ef 8010 	mrs	r0, PRIMASK
 800295c:	2201      	movs	r2, #1
 800295e:	f382 8810 	msr	PRIMASK, r2
 8002962:	6821      	ldr	r1, [r4, #0]
 8002964:	4d0b      	ldr	r5, [pc, #44]	; (8002994 <UART_WaitOnFlagUntilTimeout+0xc8>)
 8002966:	680b      	ldr	r3, [r1, #0]
 8002968:	402b      	ands	r3, r5
 800296a:	600b      	str	r3, [r1, #0]
 800296c:	f380 8810 	msr	PRIMASK, r0
 8002970:	f3ef 8010 	mrs	r0, PRIMASK
 8002974:	f382 8810 	msr	PRIMASK, r2
 8002978:	6821      	ldr	r1, [r4, #0]
 800297a:	688b      	ldr	r3, [r1, #8]
 800297c:	4393      	bics	r3, r2
 800297e:	608b      	str	r3, [r1, #8]
 8002980:	f380 8810 	msr	PRIMASK, r0
 8002984:	0022      	movs	r2, r4
 8002986:	2320      	movs	r3, #32
 8002988:	3288      	adds	r2, #136	; 0x88
 800298a:	6013      	str	r3, [r2, #0]
 800298c:	6053      	str	r3, [r2, #4]
 800298e:	6093      	str	r3, [r2, #8]
 8002990:	e7d4      	b.n	800293c <UART_WaitOnFlagUntilTimeout+0x70>
 8002992:	46c0      	nop			; (mov r8, r8)
 8002994:	fffffe5f 	.word	0xfffffe5f

08002998 <UART_CheckIdleState>:
 8002998:	0003      	movs	r3, r0
 800299a:	b573      	push	{r0, r1, r4, r5, r6, lr}
 800299c:	2600      	movs	r6, #0
 800299e:	0004      	movs	r4, r0
 80029a0:	3390      	adds	r3, #144	; 0x90
 80029a2:	601e      	str	r6, [r3, #0]
 80029a4:	f7fe fa3a 	bl	8000e1c <HAL_GetTick>
 80029a8:	6823      	ldr	r3, [r4, #0]
 80029aa:	0005      	movs	r5, r0
 80029ac:	681b      	ldr	r3, [r3, #0]
 80029ae:	071b      	lsls	r3, r3, #28
 80029b0:	d419      	bmi.n	80029e6 <UART_CheckIdleState+0x4e>
 80029b2:	6823      	ldr	r3, [r4, #0]
 80029b4:	681b      	ldr	r3, [r3, #0]
 80029b6:	075b      	lsls	r3, r3, #29
 80029b8:	d50a      	bpl.n	80029d0 <UART_CheckIdleState+0x38>
 80029ba:	2180      	movs	r1, #128	; 0x80
 80029bc:	4b10      	ldr	r3, [pc, #64]	; (8002a00 <UART_CheckIdleState+0x68>)
 80029be:	2200      	movs	r2, #0
 80029c0:	9300      	str	r3, [sp, #0]
 80029c2:	0020      	movs	r0, r4
 80029c4:	002b      	movs	r3, r5
 80029c6:	03c9      	lsls	r1, r1, #15
 80029c8:	f7ff ff80 	bl	80028cc <UART_WaitOnFlagUntilTimeout>
 80029cc:	2800      	cmp	r0, #0
 80029ce:	d115      	bne.n	80029fc <UART_CheckIdleState+0x64>
 80029d0:	0022      	movs	r2, r4
 80029d2:	2000      	movs	r0, #0
 80029d4:	2320      	movs	r3, #32
 80029d6:	3288      	adds	r2, #136	; 0x88
 80029d8:	6013      	str	r3, [r2, #0]
 80029da:	6053      	str	r3, [r2, #4]
 80029dc:	66e0      	str	r0, [r4, #108]	; 0x6c
 80029de:	6720      	str	r0, [r4, #112]	; 0x70
 80029e0:	3484      	adds	r4, #132	; 0x84
 80029e2:	7020      	strb	r0, [r4, #0]
 80029e4:	e00b      	b.n	80029fe <UART_CheckIdleState+0x66>
 80029e6:	2180      	movs	r1, #128	; 0x80
 80029e8:	4b05      	ldr	r3, [pc, #20]	; (8002a00 <UART_CheckIdleState+0x68>)
 80029ea:	0032      	movs	r2, r6
 80029ec:	9300      	str	r3, [sp, #0]
 80029ee:	0389      	lsls	r1, r1, #14
 80029f0:	0003      	movs	r3, r0
 80029f2:	0020      	movs	r0, r4
 80029f4:	f7ff ff6a 	bl	80028cc <UART_WaitOnFlagUntilTimeout>
 80029f8:	2800      	cmp	r0, #0
 80029fa:	d0da      	beq.n	80029b2 <UART_CheckIdleState+0x1a>
 80029fc:	2003      	movs	r0, #3
 80029fe:	bd76      	pop	{r1, r2, r4, r5, r6, pc}
 8002a00:	01ffffff 	.word	0x01ffffff

08002a04 <HAL_UART_Init>:
 8002a04:	b570      	push	{r4, r5, r6, lr}
 8002a06:	1e04      	subs	r4, r0, #0
 8002a08:	d101      	bne.n	8002a0e <HAL_UART_Init+0xa>
 8002a0a:	2001      	movs	r0, #1
 8002a0c:	bd70      	pop	{r4, r5, r6, pc}
 8002a0e:	0005      	movs	r5, r0
 8002a10:	3588      	adds	r5, #136	; 0x88
 8002a12:	682b      	ldr	r3, [r5, #0]
 8002a14:	2b00      	cmp	r3, #0
 8002a16:	d104      	bne.n	8002a22 <HAL_UART_Init+0x1e>
 8002a18:	0002      	movs	r2, r0
 8002a1a:	3284      	adds	r2, #132	; 0x84
 8002a1c:	7013      	strb	r3, [r2, #0]
 8002a1e:	f7fe f829 	bl	8000a74 <HAL_UART_MspInit>
 8002a22:	2324      	movs	r3, #36	; 0x24
 8002a24:	2101      	movs	r1, #1
 8002a26:	6822      	ldr	r2, [r4, #0]
 8002a28:	602b      	str	r3, [r5, #0]
 8002a2a:	6813      	ldr	r3, [r2, #0]
 8002a2c:	0020      	movs	r0, r4
 8002a2e:	438b      	bics	r3, r1
 8002a30:	6013      	str	r3, [r2, #0]
 8002a32:	f7ff fd73 	bl	800251c <UART_SetConfig>
 8002a36:	2801      	cmp	r0, #1
 8002a38:	d0e7      	beq.n	8002a0a <HAL_UART_Init+0x6>
 8002a3a:	6aa3      	ldr	r3, [r4, #40]	; 0x28
 8002a3c:	2b00      	cmp	r3, #0
 8002a3e:	d002      	beq.n	8002a46 <HAL_UART_Init+0x42>
 8002a40:	0020      	movs	r0, r4
 8002a42:	f7ff fedb 	bl	80027fc <UART_AdvFeatureConfig>
 8002a46:	6823      	ldr	r3, [r4, #0]
 8002a48:	4907      	ldr	r1, [pc, #28]	; (8002a68 <HAL_UART_Init+0x64>)
 8002a4a:	685a      	ldr	r2, [r3, #4]
 8002a4c:	0020      	movs	r0, r4
 8002a4e:	400a      	ands	r2, r1
 8002a50:	212a      	movs	r1, #42	; 0x2a
 8002a52:	605a      	str	r2, [r3, #4]
 8002a54:	689a      	ldr	r2, [r3, #8]
 8002a56:	438a      	bics	r2, r1
 8002a58:	609a      	str	r2, [r3, #8]
 8002a5a:	2201      	movs	r2, #1
 8002a5c:	6819      	ldr	r1, [r3, #0]
 8002a5e:	430a      	orrs	r2, r1
 8002a60:	601a      	str	r2, [r3, #0]
 8002a62:	f7ff ff99 	bl	8002998 <UART_CheckIdleState>
 8002a66:	e7d1      	b.n	8002a0c <HAL_UART_Init+0x8>
 8002a68:	ffffb7ff 	.word	0xffffb7ff

08002a6c <UARTEx_SetNbDataToProcess>:
 8002a6c:	b5f8      	push	{r3, r4, r5, r6, r7, lr}
 8002a6e:	6e43      	ldr	r3, [r0, #100]	; 0x64
 8002a70:	0004      	movs	r4, r0
 8002a72:	2b00      	cmp	r3, #0
 8002a74:	d102      	bne.n	8002a7c <UARTEx_SetNbDataToProcess+0x10>
 8002a76:	4b0d      	ldr	r3, [pc, #52]	; (8002aac <UARTEx_SetNbDataToProcess+0x40>)
 8002a78:	6683      	str	r3, [r0, #104]	; 0x68
 8002a7a:	bdf8      	pop	{r3, r4, r5, r6, r7, pc}
 8002a7c:	6803      	ldr	r3, [r0, #0]
 8002a7e:	4e0c      	ldr	r6, [pc, #48]	; (8002ab0 <UARTEx_SetNbDataToProcess+0x44>)
 8002a80:	689f      	ldr	r7, [r3, #8]
 8002a82:	689b      	ldr	r3, [r3, #8]
 8002a84:	4d0b      	ldr	r5, [pc, #44]	; (8002ab4 <UARTEx_SetNbDataToProcess+0x48>)
 8002a86:	0f5b      	lsrs	r3, r3, #29
 8002a88:	5cf0      	ldrb	r0, [r6, r3]
 8002a8a:	5ce9      	ldrb	r1, [r5, r3]
 8002a8c:	00c0      	lsls	r0, r0, #3
 8002a8e:	f7fd fbd7 	bl	8000240 <__divsi3>
 8002a92:	0023      	movs	r3, r4
 8002a94:	336a      	adds	r3, #106	; 0x6a
 8002a96:	8018      	strh	r0, [r3, #0]
 8002a98:	013b      	lsls	r3, r7, #4
 8002a9a:	0f5b      	lsrs	r3, r3, #29
 8002a9c:	5cf0      	ldrb	r0, [r6, r3]
 8002a9e:	5ce9      	ldrb	r1, [r5, r3]
 8002aa0:	00c0      	lsls	r0, r0, #3
 8002aa2:	f7fd fbcd 	bl	8000240 <__divsi3>
 8002aa6:	3468      	adds	r4, #104	; 0x68
 8002aa8:	8020      	strh	r0, [r4, #0]
 8002aaa:	e7e6      	b.n	8002a7a <UARTEx_SetNbDataToProcess+0xe>
 8002aac:	00010001 	.word	0x00010001
 8002ab0:	08002c88 	.word	0x08002c88
 8002ab4:	08002c80 	.word	0x08002c80

08002ab8 <HAL_UARTEx_DisableFifoMode>:
 8002ab8:	b570      	push	{r4, r5, r6, lr}
 8002aba:	0004      	movs	r4, r0
 8002abc:	3484      	adds	r4, #132	; 0x84
 8002abe:	7822      	ldrb	r2, [r4, #0]
 8002ac0:	0003      	movs	r3, r0
 8002ac2:	2002      	movs	r0, #2
 8002ac4:	2a01      	cmp	r2, #1
 8002ac6:	d011      	beq.n	8002aec <HAL_UARTEx_DisableFifoMode+0x34>
 8002ac8:	001d      	movs	r5, r3
 8002aca:	2224      	movs	r2, #36	; 0x24
 8002acc:	2601      	movs	r6, #1
 8002ace:	3588      	adds	r5, #136	; 0x88
 8002ad0:	602a      	str	r2, [r5, #0]
 8002ad2:	681a      	ldr	r2, [r3, #0]
 8002ad4:	6811      	ldr	r1, [r2, #0]
 8002ad6:	6810      	ldr	r0, [r2, #0]
 8002ad8:	43b0      	bics	r0, r6
 8002ada:	6010      	str	r0, [r2, #0]
 8002adc:	4804      	ldr	r0, [pc, #16]	; (8002af0 <HAL_UARTEx_DisableFifoMode+0x38>)
 8002ade:	4001      	ands	r1, r0
 8002ae0:	2000      	movs	r0, #0
 8002ae2:	6658      	str	r0, [r3, #100]	; 0x64
 8002ae4:	2320      	movs	r3, #32
 8002ae6:	6011      	str	r1, [r2, #0]
 8002ae8:	602b      	str	r3, [r5, #0]
 8002aea:	7020      	strb	r0, [r4, #0]
 8002aec:	bd70      	pop	{r4, r5, r6, pc}
 8002aee:	46c0      	nop			; (mov r8, r8)
 8002af0:	dfffffff 	.word	0xdfffffff

08002af4 <HAL_UARTEx_SetTxFifoThreshold>:
 8002af4:	b5f8      	push	{r3, r4, r5, r6, r7, lr}
 8002af6:	0004      	movs	r4, r0
 8002af8:	0025      	movs	r5, r4
 8002afa:	3584      	adds	r5, #132	; 0x84
 8002afc:	782a      	ldrb	r2, [r5, #0]
 8002afe:	0008      	movs	r0, r1
 8002b00:	2302      	movs	r3, #2
 8002b02:	2a01      	cmp	r2, #1
 8002b04:	d018      	beq.n	8002b38 <HAL_UARTEx_SetTxFifoThreshold+0x44>
 8002b06:	2101      	movs	r1, #1
 8002b08:	0026      	movs	r6, r4
 8002b0a:	7029      	strb	r1, [r5, #0]
 8002b0c:	6822      	ldr	r2, [r4, #0]
 8002b0e:	3688      	adds	r6, #136	; 0x88
 8002b10:	3322      	adds	r3, #34	; 0x22
 8002b12:	6033      	str	r3, [r6, #0]
 8002b14:	6817      	ldr	r7, [r2, #0]
 8002b16:	6813      	ldr	r3, [r2, #0]
 8002b18:	438b      	bics	r3, r1
 8002b1a:	6013      	str	r3, [r2, #0]
 8002b1c:	6893      	ldr	r3, [r2, #8]
 8002b1e:	00db      	lsls	r3, r3, #3
 8002b20:	08d9      	lsrs	r1, r3, #3
 8002b22:	4301      	orrs	r1, r0
 8002b24:	6091      	str	r1, [r2, #8]
 8002b26:	0020      	movs	r0, r4
 8002b28:	f7ff ffa0 	bl	8002a6c <UARTEx_SetNbDataToProcess>
 8002b2c:	6823      	ldr	r3, [r4, #0]
 8002b2e:	601f      	str	r7, [r3, #0]
 8002b30:	2320      	movs	r3, #32
 8002b32:	6033      	str	r3, [r6, #0]
 8002b34:	2300      	movs	r3, #0
 8002b36:	702b      	strb	r3, [r5, #0]
 8002b38:	0018      	movs	r0, r3
 8002b3a:	bdf8      	pop	{r3, r4, r5, r6, r7, pc}

08002b3c <HAL_UARTEx_SetRxFifoThreshold>:
 8002b3c:	b5f8      	push	{r3, r4, r5, r6, r7, lr}
 8002b3e:	0005      	movs	r5, r0
 8002b40:	3584      	adds	r5, #132	; 0x84
 8002b42:	782b      	ldrb	r3, [r5, #0]
 8002b44:	0004      	movs	r4, r0
 8002b46:	000a      	movs	r2, r1
 8002b48:	2002      	movs	r0, #2
 8002b4a:	2b01      	cmp	r3, #1
 8002b4c:	d018      	beq.n	8002b80 <HAL_UARTEx_SetRxFifoThreshold+0x44>
 8002b4e:	0026      	movs	r6, r4
 8002b50:	2324      	movs	r3, #36	; 0x24
 8002b52:	3801      	subs	r0, #1
 8002b54:	7028      	strb	r0, [r5, #0]
 8002b56:	3688      	adds	r6, #136	; 0x88
 8002b58:	6033      	str	r3, [r6, #0]
 8002b5a:	6823      	ldr	r3, [r4, #0]
 8002b5c:	681f      	ldr	r7, [r3, #0]
 8002b5e:	6819      	ldr	r1, [r3, #0]
 8002b60:	4381      	bics	r1, r0
 8002b62:	6019      	str	r1, [r3, #0]
 8002b64:	6899      	ldr	r1, [r3, #8]
 8002b66:	4807      	ldr	r0, [pc, #28]	; (8002b84 <HAL_UARTEx_SetRxFifoThreshold+0x48>)
 8002b68:	4001      	ands	r1, r0
 8002b6a:	4311      	orrs	r1, r2
 8002b6c:	0020      	movs	r0, r4
 8002b6e:	6099      	str	r1, [r3, #8]
 8002b70:	f7ff ff7c 	bl	8002a6c <UARTEx_SetNbDataToProcess>
 8002b74:	6823      	ldr	r3, [r4, #0]
 8002b76:	2000      	movs	r0, #0
 8002b78:	601f      	str	r7, [r3, #0]
 8002b7a:	2320      	movs	r3, #32
 8002b7c:	6033      	str	r3, [r6, #0]
 8002b7e:	7028      	strb	r0, [r5, #0]
 8002b80:	bdf8      	pop	{r3, r4, r5, r6, r7, pc}
 8002b82:	46c0      	nop			; (mov r8, r8)
 8002b84:	f1ffffff 	.word	0xf1ffffff

08002b88 <__libc_init_array>:
 8002b88:	b570      	push	{r4, r5, r6, lr}
 8002b8a:	2600      	movs	r6, #0
 8002b8c:	4d0c      	ldr	r5, [pc, #48]	; (8002bc0 <__libc_init_array+0x38>)
 8002b8e:	4c0d      	ldr	r4, [pc, #52]	; (8002bc4 <__libc_init_array+0x3c>)
 8002b90:	1b64      	subs	r4, r4, r5
 8002b92:	10a4      	asrs	r4, r4, #2
 8002b94:	42a6      	cmp	r6, r4
 8002b96:	d109      	bne.n	8002bac <__libc_init_array+0x24>
 8002b98:	2600      	movs	r6, #0
 8002b9a:	f000 f821 	bl	8002be0 <_init>
 8002b9e:	4d0a      	ldr	r5, [pc, #40]	; (8002bc8 <__libc_init_array+0x40>)
 8002ba0:	4c0a      	ldr	r4, [pc, #40]	; (8002bcc <__libc_init_array+0x44>)
 8002ba2:	1b64      	subs	r4, r4, r5
 8002ba4:	10a4      	asrs	r4, r4, #2
 8002ba6:	42a6      	cmp	r6, r4
 8002ba8:	d105      	bne.n	8002bb6 <__libc_init_array+0x2e>
 8002baa:	bd70      	pop	{r4, r5, r6, pc}
 8002bac:	00b3      	lsls	r3, r6, #2
 8002bae:	58eb      	ldr	r3, [r5, r3]
 8002bb0:	4798      	blx	r3
 8002bb2:	3601      	adds	r6, #1
 8002bb4:	e7ee      	b.n	8002b94 <__libc_init_array+0xc>
 8002bb6:	00b3      	lsls	r3, r6, #2
 8002bb8:	58eb      	ldr	r3, [r5, r3]
 8002bba:	4798      	blx	r3
 8002bbc:	3601      	adds	r6, #1
 8002bbe:	e7f2      	b.n	8002ba6 <__libc_init_array+0x1e>
 8002bc0:	08002c98 	.word	0x08002c98
 8002bc4:	08002c98 	.word	0x08002c98
 8002bc8:	08002c98 	.word	0x08002c98
 8002bcc:	08002c9c 	.word	0x08002c9c

08002bd0 <memset>:
 8002bd0:	0003      	movs	r3, r0
 8002bd2:	1882      	adds	r2, r0, r2
 8002bd4:	4293      	cmp	r3, r2
 8002bd6:	d100      	bne.n	8002bda <memset+0xa>
 8002bd8:	4770      	bx	lr
 8002bda:	7019      	strb	r1, [r3, #0]
 8002bdc:	3301      	adds	r3, #1
 8002bde:	e7f9      	b.n	8002bd4 <memset+0x4>

08002be0 <_init>:
 8002be0:	b5f8      	push	{r3, r4, r5, r6, r7, lr}
 8002be2:	46c0      	nop			; (mov r8, r8)
 8002be4:	bcf8      	pop	{r3, r4, r5, r6, r7}
 8002be6:	bc08      	pop	{r3}
 8002be8:	469e      	mov	lr, r3
 8002bea:	4770      	bx	lr

08002bec <_fini>:
 8002bec:	b5f8      	push	{r3, r4, r5, r6, r7, lr}
 8002bee:	46c0      	nop			; (mov r8, r8)
 8002bf0:	bcf8      	pop	{r3, r4, r5, r6, r7}
 8002bf2:	bc08      	pop	{r3}
 8002bf4:	469e      	mov	lr, r3
 8002bf6:	4770      	bx	lr
