
HackKosice2023.elf:     file format elf32-littlearm

Sections:
Idx Name          Size      VMA       LMA       File off  Algn
  0 .isr_vector   000000bc  08000000  08000000  00010000  2**0
                  CONTENTS, ALLOC, LOAD, READONLY, DATA
  1 .text         00002ce4  080000bc  080000bc  000100bc  2**2
                  CONTENTS, ALLOC, LOAD, READONLY, CODE
  2 .rodata       00000098  08002da0  08002da0  00012da0  2**2
                  CONTENTS, ALLOC, LOAD, READONLY, DATA
  3 .ARM.extab    00000000  08002e38  08002e38  0002000c  2**0
                  CONTENTS
  4 .ARM          00000008  08002e38  08002e38  00012e38  2**2
                  CONTENTS, ALLOC, LOAD, READONLY, DATA
  5 .preinit_array 00000000  08002e40  08002e40  0002000c  2**0
                  CONTENTS, ALLOC, LOAD, DATA
  6 .init_array   00000004  08002e40  08002e40  00012e40  2**2
                  CONTENTS, ALLOC, LOAD, DATA
  7 .fini_array   00000004  08002e44  08002e44  00012e44  2**2
                  CONTENTS, ALLOC, LOAD, DATA
  8 .data         0000000c  20000000  08002e48  00020000  2**2
                  CONTENTS, ALLOC, LOAD, DATA
  9 .bss          0000025c  2000000c  08002e54  0002000c  2**2
                  ALLOC
 10 ._user_heap_stack 00000600  20000268  08002e54  00020268  2**0
                  ALLOC
 11 .ARM.attributes 00000028  00000000  00000000  0002000c  2**0
                  CONTENTS, READONLY
 12 .comment      00000050  00000000  00000000  00020034  2**0
                  CONTENTS, READONLY
 13 .debug_frame  000000c8  00000000  00000000  00020084  2**2
                  CONTENTS, READONLY, DEBUGGING, OCTETS

Disassembly of section .text:

080000bc <__do_global_dtors_aux>:
 80000bc:	b510      	push	{r4, lr}
 80000be:	4c06      	ldr	r4, [pc, #24]	; (80000d8 <__do_global_dtors_aux+0x1c>)
 80000c0:	7823      	ldrb	r3, [r4, #0]
 80000c2:	2b00      	cmp	r3, #0
 80000c4:	d107      	bne.n	80000d6 <__do_global_dtors_aux+0x1a>
 80000c6:	4b05      	ldr	r3, [pc, #20]	; (80000dc <__do_global_dtors_aux+0x20>)
 80000c8:	2b00      	cmp	r3, #0
 80000ca:	d002      	beq.n	80000d2 <__do_global_dtors_aux+0x16>
 80000cc:	4804      	ldr	r0, [pc, #16]	; (80000e0 <__do_global_dtors_aux+0x24>)
 80000ce:	e000      	b.n	80000d2 <__do_global_dtors_aux+0x16>
 80000d0:	bf00      	nop
 80000d2:	2301      	movs	r3, #1
 80000d4:	7023      	strb	r3, [r4, #0]
 80000d6:	bd10      	pop	{r4, pc}
 80000d8:	2000000c 	.word	0x2000000c
 80000dc:	00000000 	.word	0x00000000
 80000e0:	08002d88 	.word	0x08002d88

080000e4 <frame_dummy>:
 80000e4:	4b04      	ldr	r3, [pc, #16]	; (80000f8 <frame_dummy+0x14>)
 80000e6:	b510      	push	{r4, lr}
 80000e8:	2b00      	cmp	r3, #0
 80000ea:	d003      	beq.n	80000f4 <frame_dummy+0x10>
 80000ec:	4903      	ldr	r1, [pc, #12]	; (80000fc <frame_dummy+0x18>)
 80000ee:	4804      	ldr	r0, [pc, #16]	; (8000100 <frame_dummy+0x1c>)
 80000f0:	e000      	b.n	80000f4 <frame_dummy+0x10>
 80000f2:	bf00      	nop
 80000f4:	bd10      	pop	{r4, pc}
 80000f6:	46c0      	nop			; (mov r8, r8)
 80000f8:	00000000 	.word	0x00000000
 80000fc:	20000010 	.word	0x20000010
 8000100:	08002d88 	.word	0x08002d88

08000104 <__gnu_thumb1_case_uqi>:
 8000104:	b402      	push	{r1}
 8000106:	4671      	mov	r1, lr
 8000108:	0849      	lsrs	r1, r1, #1
 800010a:	0049      	lsls	r1, r1, #1
 800010c:	5c09      	ldrb	r1, [r1, r0]
 800010e:	0049      	lsls	r1, r1, #1
 8000110:	448e      	add	lr, r1
 8000112:	bc02      	pop	{r1}
 8000114:	4770      	bx	lr
 8000116:	46c0      	nop			; (mov r8, r8)

08000118 <__gnu_thumb1_case_shi>:
 8000118:	b403      	push	{r0, r1}
 800011a:	4671      	mov	r1, lr
 800011c:	0849      	lsrs	r1, r1, #1
 800011e:	0040      	lsls	r0, r0, #1
 8000120:	0049      	lsls	r1, r1, #1
 8000122:	5e09      	ldrsh	r1, [r1, r0]
 8000124:	0049      	lsls	r1, r1, #1
 8000126:	448e      	add	lr, r1
 8000128:	bc03      	pop	{r0, r1}
 800012a:	4770      	bx	lr

0800012c <__udivsi3>:
 800012c:	2200      	movs	r2, #0
 800012e:	0843      	lsrs	r3, r0, #1
 8000130:	428b      	cmp	r3, r1
 8000132:	d374      	bcc.n	800021e <__udivsi3+0xf2>
 8000134:	0903      	lsrs	r3, r0, #4
 8000136:	428b      	cmp	r3, r1
 8000138:	d35f      	bcc.n	80001fa <__udivsi3+0xce>
 800013a:	0a03      	lsrs	r3, r0, #8
 800013c:	428b      	cmp	r3, r1
 800013e:	d344      	bcc.n	80001ca <__udivsi3+0x9e>
 8000140:	0b03      	lsrs	r3, r0, #12
 8000142:	428b      	cmp	r3, r1
 8000144:	d328      	bcc.n	8000198 <__udivsi3+0x6c>
 8000146:	0c03      	lsrs	r3, r0, #16
 8000148:	428b      	cmp	r3, r1
 800014a:	d30d      	bcc.n	8000168 <__udivsi3+0x3c>
 800014c:	22ff      	movs	r2, #255	; 0xff
 800014e:	0209      	lsls	r1, r1, #8
 8000150:	ba12      	rev	r2, r2
 8000152:	0c03      	lsrs	r3, r0, #16
 8000154:	428b      	cmp	r3, r1
 8000156:	d302      	bcc.n	800015e <__udivsi3+0x32>
 8000158:	1212      	asrs	r2, r2, #8
 800015a:	0209      	lsls	r1, r1, #8
 800015c:	d065      	beq.n	800022a <__udivsi3+0xfe>
 800015e:	0b03      	lsrs	r3, r0, #12
 8000160:	428b      	cmp	r3, r1
 8000162:	d319      	bcc.n	8000198 <__udivsi3+0x6c>
 8000164:	e000      	b.n	8000168 <__udivsi3+0x3c>
 8000166:	0a09      	lsrs	r1, r1, #8
 8000168:	0bc3      	lsrs	r3, r0, #15
 800016a:	428b      	cmp	r3, r1
 800016c:	d301      	bcc.n	8000172 <__udivsi3+0x46>
 800016e:	03cb      	lsls	r3, r1, #15
 8000170:	1ac0      	subs	r0, r0, r3
 8000172:	4152      	adcs	r2, r2
 8000174:	0b83      	lsrs	r3, r0, #14
 8000176:	428b      	cmp	r3, r1
 8000178:	d301      	bcc.n	800017e <__udivsi3+0x52>
 800017a:	038b      	lsls	r3, r1, #14
 800017c:	1ac0      	subs	r0, r0, r3
 800017e:	4152      	adcs	r2, r2
 8000180:	0b43      	lsrs	r3, r0, #13
 8000182:	428b      	cmp	r3, r1
 8000184:	d301      	bcc.n	800018a <__udivsi3+0x5e>
 8000186:	034b      	lsls	r3, r1, #13
 8000188:	1ac0      	subs	r0, r0, r3
 800018a:	4152      	adcs	r2, r2
 800018c:	0b03      	lsrs	r3, r0, #12
 800018e:	428b      	cmp	r3, r1
 8000190:	d301      	bcc.n	8000196 <__udivsi3+0x6a>
 8000192:	030b      	lsls	r3, r1, #12
 8000194:	1ac0      	subs	r0, r0, r3
 8000196:	4152      	adcs	r2, r2
 8000198:	0ac3      	lsrs	r3, r0, #11
 800019a:	428b      	cmp	r3, r1
 800019c:	d301      	bcc.n	80001a2 <__udivsi3+0x76>
 800019e:	02cb      	lsls	r3, r1, #11
 80001a0:	1ac0      	subs	r0, r0, r3
 80001a2:	4152      	adcs	r2, r2
 80001a4:	0a83      	lsrs	r3, r0, #10
 80001a6:	428b      	cmp	r3, r1
 80001a8:	d301      	bcc.n	80001ae <__udivsi3+0x82>
 80001aa:	028b      	lsls	r3, r1, #10
 80001ac:	1ac0      	subs	r0, r0, r3
 80001ae:	4152      	adcs	r2, r2
 80001b0:	0a43      	lsrs	r3, r0, #9
 80001b2:	428b      	cmp	r3, r1
 80001b4:	d301      	bcc.n	80001ba <__udivsi3+0x8e>
 80001b6:	024b      	lsls	r3, r1, #9
 80001b8:	1ac0      	subs	r0, r0, r3
 80001ba:	4152      	adcs	r2, r2
 80001bc:	0a03      	lsrs	r3, r0, #8
 80001be:	428b      	cmp	r3, r1
 80001c0:	d301      	bcc.n	80001c6 <__udivsi3+0x9a>
 80001c2:	020b      	lsls	r3, r1, #8
 80001c4:	1ac0      	subs	r0, r0, r3
 80001c6:	4152      	adcs	r2, r2
 80001c8:	d2cd      	bcs.n	8000166 <__udivsi3+0x3a>
 80001ca:	09c3      	lsrs	r3, r0, #7
 80001cc:	428b      	cmp	r3, r1
 80001ce:	d301      	bcc.n	80001d4 <__udivsi3+0xa8>
 80001d0:	01cb      	lsls	r3, r1, #7
 80001d2:	1ac0      	subs	r0, r0, r3
 80001d4:	4152      	adcs	r2, r2
 80001d6:	0983      	lsrs	r3, r0, #6
 80001d8:	428b      	cmp	r3, r1
 80001da:	d301      	bcc.n	80001e0 <__udivsi3+0xb4>
 80001dc:	018b      	lsls	r3, r1, #6
 80001de:	1ac0      	subs	r0, r0, r3
 80001e0:	4152      	adcs	r2, r2
 80001e2:	0943      	lsrs	r3, r0, #5
 80001e4:	428b      	cmp	r3, r1
 80001e6:	d301      	bcc.n	80001ec <__udivsi3+0xc0>
 80001e8:	014b      	lsls	r3, r1, #5
 80001ea:	1ac0      	subs	r0, r0, r3
 80001ec:	4152      	adcs	r2, r2
 80001ee:	0903      	lsrs	r3, r0, #4
 80001f0:	428b      	cmp	r3, r1
 80001f2:	d301      	bcc.n	80001f8 <__udivsi3+0xcc>
 80001f4:	010b      	lsls	r3, r1, #4
 80001f6:	1ac0      	subs	r0, r0, r3
 80001f8:	4152      	adcs	r2, r2
 80001fa:	08c3      	lsrs	r3, r0, #3
 80001fc:	428b      	cmp	r3, r1
 80001fe:	d301      	bcc.n	8000204 <__udivsi3+0xd8>
 8000200:	00cb      	lsls	r3, r1, #3
 8000202:	1ac0      	subs	r0, r0, r3
 8000204:	4152      	adcs	r2, r2
 8000206:	0883      	lsrs	r3, r0, #2
 8000208:	428b      	cmp	r3, r1
 800020a:	d301      	bcc.n	8000210 <__udivsi3+0xe4>
 800020c:	008b      	lsls	r3, r1, #2
 800020e:	1ac0      	subs	r0, r0, r3
 8000210:	4152      	adcs	r2, r2
 8000212:	0843      	lsrs	r3, r0, #1
 8000214:	428b      	cmp	r3, r1
 8000216:	d301      	bcc.n	800021c <__udivsi3+0xf0>
 8000218:	004b      	lsls	r3, r1, #1
 800021a:	1ac0      	subs	r0, r0, r3
 800021c:	4152      	adcs	r2, r2
 800021e:	1a41      	subs	r1, r0, r1
 8000220:	d200      	bcs.n	8000224 <__udivsi3+0xf8>
 8000222:	4601      	mov	r1, r0
 8000224:	4152      	adcs	r2, r2
 8000226:	4610      	mov	r0, r2
 8000228:	4770      	bx	lr
 800022a:	e7ff      	b.n	800022c <__udivsi3+0x100>
 800022c:	b501      	push	{r0, lr}
 800022e:	2000      	movs	r0, #0
 8000230:	f000 f8f0 	bl	8000414 <__aeabi_idiv0>
 8000234:	bd02      	pop	{r1, pc}
 8000236:	46c0      	nop			; (mov r8, r8)

08000238 <__aeabi_uidivmod>:
 8000238:	2900      	cmp	r1, #0
 800023a:	d0f7      	beq.n	800022c <__udivsi3+0x100>
 800023c:	e776      	b.n	800012c <__udivsi3>
 800023e:	4770      	bx	lr

08000240 <__divsi3>:
 8000240:	4603      	mov	r3, r0
 8000242:	430b      	orrs	r3, r1
 8000244:	d47f      	bmi.n	8000346 <__divsi3+0x106>
 8000246:	2200      	movs	r2, #0
 8000248:	0843      	lsrs	r3, r0, #1
 800024a:	428b      	cmp	r3, r1
 800024c:	d374      	bcc.n	8000338 <__divsi3+0xf8>
 800024e:	0903      	lsrs	r3, r0, #4
 8000250:	428b      	cmp	r3, r1
 8000252:	d35f      	bcc.n	8000314 <__divsi3+0xd4>
 8000254:	0a03      	lsrs	r3, r0, #8
 8000256:	428b      	cmp	r3, r1
 8000258:	d344      	bcc.n	80002e4 <__divsi3+0xa4>
 800025a:	0b03      	lsrs	r3, r0, #12
 800025c:	428b      	cmp	r3, r1
 800025e:	d328      	bcc.n	80002b2 <__divsi3+0x72>
 8000260:	0c03      	lsrs	r3, r0, #16
 8000262:	428b      	cmp	r3, r1
 8000264:	d30d      	bcc.n	8000282 <__divsi3+0x42>
 8000266:	22ff      	movs	r2, #255	; 0xff
 8000268:	0209      	lsls	r1, r1, #8
 800026a:	ba12      	rev	r2, r2
 800026c:	0c03      	lsrs	r3, r0, #16
 800026e:	428b      	cmp	r3, r1
 8000270:	d302      	bcc.n	8000278 <__divsi3+0x38>
 8000272:	1212      	asrs	r2, r2, #8
 8000274:	0209      	lsls	r1, r1, #8
 8000276:	d065      	beq.n	8000344 <__divsi3+0x104>
 8000278:	0b03      	lsrs	r3, r0, #12
 800027a:	428b      	cmp	r3, r1
 800027c:	d319      	bcc.n	80002b2 <__divsi3+0x72>
 800027e:	e000      	b.n	8000282 <__divsi3+0x42>
 8000280:	0a09      	lsrs	r1, r1, #8
 8000282:	0bc3      	lsrs	r3, r0, #15
 8000284:	428b      	cmp	r3, r1
 8000286:	d301      	bcc.n	800028c <__divsi3+0x4c>
 8000288:	03cb      	lsls	r3, r1, #15
 800028a:	1ac0      	subs	r0, r0, r3
 800028c:	4152      	adcs	r2, r2
 800028e:	0b83      	lsrs	r3, r0, #14
 8000290:	428b      	cmp	r3, r1
 8000292:	d301      	bcc.n	8000298 <__divsi3+0x58>
 8000294:	038b      	lsls	r3, r1, #14
 8000296:	1ac0      	subs	r0, r0, r3
 8000298:	4152      	adcs	r2, r2
 800029a:	0b43      	lsrs	r3, r0, #13
 800029c:	428b      	cmp	r3, r1
 800029e:	d301      	bcc.n	80002a4 <__divsi3+0x64>
 80002a0:	034b      	lsls	r3, r1, #13
 80002a2:	1ac0      	subs	r0, r0, r3
 80002a4:	4152      	adcs	r2, r2
 80002a6:	0b03      	lsrs	r3, r0, #12
 80002a8:	428b      	cmp	r3, r1
 80002aa:	d301      	bcc.n	80002b0 <__divsi3+0x70>
 80002ac:	030b      	lsls	r3, r1, #12
 80002ae:	1ac0      	subs	r0, r0, r3
 80002b0:	4152      	adcs	r2, r2
 80002b2:	0ac3      	lsrs	r3, r0, #11
 80002b4:	428b      	cmp	r3, r1
 80002b6:	d301      	bcc.n	80002bc <__divsi3+0x7c>
 80002b8:	02cb      	lsls	r3, r1, #11
 80002ba:	1ac0      	subs	r0, r0, r3
 80002bc:	4152      	adcs	r2, r2
 80002be:	0a83      	lsrs	r3, r0, #10
 80002c0:	428b      	cmp	r3, r1
 80002c2:	d301      	bcc.n	80002c8 <__divsi3+0x88>
 80002c4:	028b      	lsls	r3, r1, #10
 80002c6:	1ac0      	subs	r0, r0, r3
 80002c8:	4152      	adcs	r2, r2
 80002ca:	0a43      	lsrs	r3, r0, #9
 80002cc:	428b      	cmp	r3, r1
 80002ce:	d301      	bcc.n	80002d4 <__divsi3+0x94>
 80002d0:	024b      	lsls	r3, r1, #9
 80002d2:	1ac0      	subs	r0, r0, r3
 80002d4:	4152      	adcs	r2, r2
 80002d6:	0a03      	lsrs	r3, r0, #8
 80002d8:	428b      	cmp	r3, r1
 80002da:	d301      	bcc.n	80002e0 <__divsi3+0xa0>
 80002dc:	020b      	lsls	r3, r1, #8
 80002de:	1ac0      	subs	r0, r0, r3
 80002e0:	4152      	adcs	r2, r2
 80002e2:	d2cd      	bcs.n	8000280 <__divsi3+0x40>
 80002e4:	09c3      	lsrs	r3, r0, #7
 80002e6:	428b      	cmp	r3, r1
 80002e8:	d301      	bcc.n	80002ee <__divsi3+0xae>
 80002ea:	01cb      	lsls	r3, r1, #7
 80002ec:	1ac0      	subs	r0, r0, r3
 80002ee:	4152      	adcs	r2, r2
 80002f0:	0983      	lsrs	r3, r0, #6
 80002f2:	428b      	cmp	r3, r1
 80002f4:	d301      	bcc.n	80002fa <__divsi3+0xba>
 80002f6:	018b      	lsls	r3, r1, #6
 80002f8:	1ac0      	subs	r0, r0, r3
 80002fa:	4152      	adcs	r2, r2
 80002fc:	0943      	lsrs	r3, r0, #5
 80002fe:	428b      	cmp	r3, r1
 8000300:	d301      	bcc.n	8000306 <__divsi3+0xc6>
 8000302:	014b      	lsls	r3, r1, #5
 8000304:	1ac0      	subs	r0, r0, r3
 8000306:	4152      	adcs	r2, r2
 8000308:	0903      	lsrs	r3, r0, #4
 800030a:	428b      	cmp	r3, r1
 800030c:	d301      	bcc.n	8000312 <__divsi3+0xd2>
 800030e:	010b      	lsls	r3, r1, #4
 8000310:	1ac0      	subs	r0, r0, r3
 8000312:	4152      	adcs	r2, r2
 8000314:	08c3      	lsrs	r3, r0, #3
 8000316:	428b      	cmp	r3, r1
 8000318:	d301      	bcc.n	800031e <__divsi3+0xde>
 800031a:	00cb      	lsls	r3, r1, #3
 800031c:	1ac0      	subs	r0, r0, r3
 800031e:	4152      	adcs	r2, r2
 8000320:	0883      	lsrs	r3, r0, #2
 8000322:	428b      	cmp	r3, r1
 8000324:	d301      	bcc.n	800032a <__divsi3+0xea>
 8000326:	008b      	lsls	r3, r1, #2
 8000328:	1ac0      	subs	r0, r0, r3
 800032a:	4152      	adcs	r2, r2
 800032c:	0843      	lsrs	r3, r0, #1
 800032e:	428b      	cmp	r3, r1
 8000330:	d301      	bcc.n	8000336 <__divsi3+0xf6>
 8000332:	004b      	lsls	r3, r1, #1
 8000334:	1ac0      	subs	r0, r0, r3
 8000336:	4152      	adcs	r2, r2
 8000338:	1a41      	subs	r1, r0, r1
 800033a:	d200      	bcs.n	800033e <__divsi3+0xfe>
 800033c:	4601      	mov	r1, r0
 800033e:	4152      	adcs	r2, r2
 8000340:	4610      	mov	r0, r2
 8000342:	4770      	bx	lr
 8000344:	e05d      	b.n	8000402 <__divsi3+0x1c2>
 8000346:	0fca      	lsrs	r2, r1, #31
 8000348:	d000      	beq.n	800034c <__divsi3+0x10c>
 800034a:	4249      	negs	r1, r1
 800034c:	1003      	asrs	r3, r0, #32
 800034e:	d300      	bcc.n	8000352 <__divsi3+0x112>
 8000350:	4240      	negs	r0, r0
 8000352:	4053      	eors	r3, r2
 8000354:	2200      	movs	r2, #0
 8000356:	469c      	mov	ip, r3
 8000358:	0903      	lsrs	r3, r0, #4
 800035a:	428b      	cmp	r3, r1
 800035c:	d32d      	bcc.n	80003ba <__divsi3+0x17a>
 800035e:	0a03      	lsrs	r3, r0, #8
 8000360:	428b      	cmp	r3, r1
 8000362:	d312      	bcc.n	800038a <__divsi3+0x14a>
 8000364:	22fc      	movs	r2, #252	; 0xfc
 8000366:	0189      	lsls	r1, r1, #6
 8000368:	ba12      	rev	r2, r2
 800036a:	0a03      	lsrs	r3, r0, #8
 800036c:	428b      	cmp	r3, r1
 800036e:	d30c      	bcc.n	800038a <__divsi3+0x14a>
 8000370:	0189      	lsls	r1, r1, #6
 8000372:	1192      	asrs	r2, r2, #6
 8000374:	428b      	cmp	r3, r1
 8000376:	d308      	bcc.n	800038a <__divsi3+0x14a>
 8000378:	0189      	lsls	r1, r1, #6
 800037a:	1192      	asrs	r2, r2, #6
 800037c:	428b      	cmp	r3, r1
 800037e:	d304      	bcc.n	800038a <__divsi3+0x14a>
 8000380:	0189      	lsls	r1, r1, #6
 8000382:	d03a      	beq.n	80003fa <__divsi3+0x1ba>
 8000384:	1192      	asrs	r2, r2, #6
 8000386:	e000      	b.n	800038a <__divsi3+0x14a>
 8000388:	0989      	lsrs	r1, r1, #6
 800038a:	09c3      	lsrs	r3, r0, #7
 800038c:	428b      	cmp	r3, r1
 800038e:	d301      	bcc.n	8000394 <__divsi3+0x154>
 8000390:	01cb      	lsls	r3, r1, #7
 8000392:	1ac0      	subs	r0, r0, r3
 8000394:	4152      	adcs	r2, r2
 8000396:	0983      	lsrs	r3, r0, #6
 8000398:	428b      	cmp	r3, r1
 800039a:	d301      	bcc.n	80003a0 <__divsi3+0x160>
 800039c:	018b      	lsls	r3, r1, #6
 800039e:	1ac0      	subs	r0, r0, r3
 80003a0:	4152      	adcs	r2, r2
 80003a2:	0943      	lsrs	r3, r0, #5
 80003a4:	428b      	cmp	r3, r1
 80003a6:	d301      	bcc.n	80003ac <__divsi3+0x16c>
 80003a8:	014b      	lsls	r3, r1, #5
 80003aa:	1ac0      	subs	r0, r0, r3
 80003ac:	4152      	adcs	r2, r2
 80003ae:	0903      	lsrs	r3, r0, #4
 80003b0:	428b      	cmp	r3, r1
 80003b2:	d301      	bcc.n	80003b8 <__divsi3+0x178>
 80003b4:	010b      	lsls	r3, r1, #4
 80003b6:	1ac0      	subs	r0, r0, r3
 80003b8:	4152      	adcs	r2, r2
 80003ba:	08c3      	lsrs	r3, r0, #3
 80003bc:	428b      	cmp	r3, r1
 80003be:	d301      	bcc.n	80003c4 <__divsi3+0x184>
 80003c0:	00cb      	lsls	r3, r1, #3
 80003c2:	1ac0      	subs	r0, r0, r3
 80003c4:	4152      	adcs	r2, r2
 80003c6:	0883      	lsrs	r3, r0, #2
 80003c8:	428b      	cmp	r3, r1
 80003ca:	d301      	bcc.n	80003d0 <__divsi3+0x190>
 80003cc:	008b      	lsls	r3, r1, #2
 80003ce:	1ac0      	subs	r0, r0, r3
 80003d0:	4152      	adcs	r2, r2
 80003d2:	d2d9      	bcs.n	8000388 <__divsi3+0x148>
 80003d4:	0843      	lsrs	r3, r0, #1
 80003d6:	428b      	cmp	r3, r1
 80003d8:	d301      	bcc.n	80003de <__divsi3+0x19e>
 80003da:	004b      	lsls	r3, r1, #1
 80003dc:	1ac0      	subs	r0, r0, r3
 80003de:	4152      	adcs	r2, r2
 80003e0:	1a41      	subs	r1, r0, r1
 80003e2:	d200      	bcs.n	80003e6 <__divsi3+0x1a6>
 80003e4:	4601      	mov	r1, r0
 80003e6:	4663      	mov	r3, ip
 80003e8:	4152      	adcs	r2, r2
 80003ea:	105b      	asrs	r3, r3, #1
 80003ec:	4610      	mov	r0, r2
 80003ee:	d301      	bcc.n	80003f4 <__divsi3+0x1b4>
 80003f0:	4240      	negs	r0, r0
 80003f2:	2b00      	cmp	r3, #0
 80003f4:	d500      	bpl.n	80003f8 <__divsi3+0x1b8>
 80003f6:	4249      	negs	r1, r1
 80003f8:	4770      	bx	lr
 80003fa:	4663      	mov	r3, ip
 80003fc:	105b      	asrs	r3, r3, #1
 80003fe:	d300      	bcc.n	8000402 <__divsi3+0x1c2>
 8000400:	4240      	negs	r0, r0
 8000402:	b501      	push	{r0, lr}
 8000404:	2000      	movs	r0, #0
 8000406:	f000 f805 	bl	8000414 <__aeabi_idiv0>
 800040a:	bd02      	pop	{r1, pc}

0800040c <__aeabi_idivmod>:
 800040c:	2900      	cmp	r1, #0
 800040e:	d0f8      	beq.n	8000402 <__divsi3+0x1c2>
 8000410:	e716      	b.n	8000240 <__divsi3>
 8000412:	4770      	bx	lr

08000414 <__aeabi_idiv0>:
 8000414:	4770      	bx	lr
 8000416:	46c0      	nop			; (mov r8, r8)

08000418 <__aeabi_uldivmod>:
 8000418:	2b00      	cmp	r3, #0
 800041a:	d111      	bne.n	8000440 <__aeabi_uldivmod+0x28>
 800041c:	2a00      	cmp	r2, #0
 800041e:	d10f      	bne.n	8000440 <__aeabi_uldivmod+0x28>
 8000420:	2900      	cmp	r1, #0
 8000422:	d100      	bne.n	8000426 <__aeabi_uldivmod+0xe>
 8000424:	2800      	cmp	r0, #0
 8000426:	d002      	beq.n	800042e <__aeabi_uldivmod+0x16>
 8000428:	2100      	movs	r1, #0
 800042a:	43c9      	mvns	r1, r1
 800042c:	0008      	movs	r0, r1
 800042e:	b407      	push	{r0, r1, r2}
 8000430:	4802      	ldr	r0, [pc, #8]	; (800043c <__aeabi_uldivmod+0x24>)
 8000432:	a102      	add	r1, pc, #8	; (adr r1, 800043c <__aeabi_uldivmod+0x24>)
 8000434:	1840      	adds	r0, r0, r1
 8000436:	9002      	str	r0, [sp, #8]
 8000438:	bd03      	pop	{r0, r1, pc}
 800043a:	46c0      	nop			; (mov r8, r8)
 800043c:	ffffffd9 	.word	0xffffffd9
 8000440:	b403      	push	{r0, r1}
 8000442:	4668      	mov	r0, sp
 8000444:	b501      	push	{r0, lr}
 8000446:	9802      	ldr	r0, [sp, #8]
 8000448:	f000 f806 	bl	8000458 <__udivmoddi4>
 800044c:	9b01      	ldr	r3, [sp, #4]
 800044e:	469e      	mov	lr, r3
 8000450:	b002      	add	sp, #8
 8000452:	bc0c      	pop	{r2, r3}
 8000454:	4770      	bx	lr
 8000456:	46c0      	nop			; (mov r8, r8)

08000458 <__udivmoddi4>:
 8000458:	b5f0      	push	{r4, r5, r6, r7, lr}
 800045a:	4657      	mov	r7, sl
 800045c:	464e      	mov	r6, r9
 800045e:	4645      	mov	r5, r8
 8000460:	46de      	mov	lr, fp
 8000462:	b5e0      	push	{r5, r6, r7, lr}
 8000464:	0004      	movs	r4, r0
 8000466:	000d      	movs	r5, r1
 8000468:	4692      	mov	sl, r2
 800046a:	4699      	mov	r9, r3
 800046c:	b083      	sub	sp, #12
 800046e:	428b      	cmp	r3, r1
 8000470:	d830      	bhi.n	80004d4 <__udivmoddi4+0x7c>
 8000472:	d02d      	beq.n	80004d0 <__udivmoddi4+0x78>
 8000474:	4649      	mov	r1, r9
 8000476:	4650      	mov	r0, sl
 8000478:	f000 f8ba 	bl	80005f0 <__clzdi2>
 800047c:	0029      	movs	r1, r5
 800047e:	0006      	movs	r6, r0
 8000480:	0020      	movs	r0, r4
 8000482:	f000 f8b5 	bl	80005f0 <__clzdi2>
 8000486:	1a33      	subs	r3, r6, r0
 8000488:	4698      	mov	r8, r3
 800048a:	3b20      	subs	r3, #32
 800048c:	469b      	mov	fp, r3
 800048e:	d433      	bmi.n	80004f8 <__udivmoddi4+0xa0>
 8000490:	465a      	mov	r2, fp
 8000492:	4653      	mov	r3, sl
 8000494:	4093      	lsls	r3, r2
 8000496:	4642      	mov	r2, r8
 8000498:	001f      	movs	r7, r3
 800049a:	4653      	mov	r3, sl
 800049c:	4093      	lsls	r3, r2
 800049e:	001e      	movs	r6, r3
 80004a0:	42af      	cmp	r7, r5
 80004a2:	d83a      	bhi.n	800051a <__udivmoddi4+0xc2>
 80004a4:	42af      	cmp	r7, r5
 80004a6:	d100      	bne.n	80004aa <__udivmoddi4+0x52>
 80004a8:	e078      	b.n	800059c <__udivmoddi4+0x144>
 80004aa:	465b      	mov	r3, fp
 80004ac:	1ba4      	subs	r4, r4, r6
 80004ae:	41bd      	sbcs	r5, r7
 80004b0:	2b00      	cmp	r3, #0
 80004b2:	da00      	bge.n	80004b6 <__udivmoddi4+0x5e>
 80004b4:	e075      	b.n	80005a2 <__udivmoddi4+0x14a>
 80004b6:	2200      	movs	r2, #0
 80004b8:	2300      	movs	r3, #0
 80004ba:	9200      	str	r2, [sp, #0]
 80004bc:	9301      	str	r3, [sp, #4]
 80004be:	2301      	movs	r3, #1
 80004c0:	465a      	mov	r2, fp
 80004c2:	4093      	lsls	r3, r2
 80004c4:	9301      	str	r3, [sp, #4]
 80004c6:	2301      	movs	r3, #1
 80004c8:	4642      	mov	r2, r8
 80004ca:	4093      	lsls	r3, r2
 80004cc:	9300      	str	r3, [sp, #0]
 80004ce:	e028      	b.n	8000522 <__udivmoddi4+0xca>
 80004d0:	4282      	cmp	r2, r0
 80004d2:	d9cf      	bls.n	8000474 <__udivmoddi4+0x1c>
 80004d4:	2200      	movs	r2, #0
 80004d6:	2300      	movs	r3, #0
 80004d8:	9200      	str	r2, [sp, #0]
 80004da:	9301      	str	r3, [sp, #4]
 80004dc:	9b0c      	ldr	r3, [sp, #48]	; 0x30
 80004de:	2b00      	cmp	r3, #0
 80004e0:	d001      	beq.n	80004e6 <__udivmoddi4+0x8e>
 80004e2:	601c      	str	r4, [r3, #0]
 80004e4:	605d      	str	r5, [r3, #4]
 80004e6:	9800      	ldr	r0, [sp, #0]
 80004e8:	9901      	ldr	r1, [sp, #4]
 80004ea:	b003      	add	sp, #12
 80004ec:	bcf0      	pop	{r4, r5, r6, r7}
 80004ee:	46bb      	mov	fp, r7
 80004f0:	46b2      	mov	sl, r6
 80004f2:	46a9      	mov	r9, r5
 80004f4:	46a0      	mov	r8, r4
 80004f6:	bdf0      	pop	{r4, r5, r6, r7, pc}
 80004f8:	4642      	mov	r2, r8
 80004fa:	2320      	movs	r3, #32
 80004fc:	1a9b      	subs	r3, r3, r2
 80004fe:	4652      	mov	r2, sl
 8000500:	40da      	lsrs	r2, r3
 8000502:	4641      	mov	r1, r8
 8000504:	0013      	movs	r3, r2
 8000506:	464a      	mov	r2, r9
 8000508:	408a      	lsls	r2, r1
 800050a:	0017      	movs	r7, r2
 800050c:	4642      	mov	r2, r8
 800050e:	431f      	orrs	r7, r3
 8000510:	4653      	mov	r3, sl
 8000512:	4093      	lsls	r3, r2
 8000514:	001e      	movs	r6, r3
 8000516:	42af      	cmp	r7, r5
 8000518:	d9c4      	bls.n	80004a4 <__udivmoddi4+0x4c>
 800051a:	2200      	movs	r2, #0
 800051c:	2300      	movs	r3, #0
 800051e:	9200      	str	r2, [sp, #0]
 8000520:	9301      	str	r3, [sp, #4]
 8000522:	4643      	mov	r3, r8
 8000524:	2b00      	cmp	r3, #0
 8000526:	d0d9      	beq.n	80004dc <__udivmoddi4+0x84>
 8000528:	07fb      	lsls	r3, r7, #31
 800052a:	0872      	lsrs	r2, r6, #1
 800052c:	431a      	orrs	r2, r3
 800052e:	4646      	mov	r6, r8
 8000530:	087b      	lsrs	r3, r7, #1
 8000532:	e00e      	b.n	8000552 <__udivmoddi4+0xfa>
 8000534:	42ab      	cmp	r3, r5
 8000536:	d101      	bne.n	800053c <__udivmoddi4+0xe4>
 8000538:	42a2      	cmp	r2, r4
 800053a:	d80c      	bhi.n	8000556 <__udivmoddi4+0xfe>
 800053c:	1aa4      	subs	r4, r4, r2
 800053e:	419d      	sbcs	r5, r3
 8000540:	2001      	movs	r0, #1
 8000542:	1924      	adds	r4, r4, r4
 8000544:	416d      	adcs	r5, r5
 8000546:	2100      	movs	r1, #0
 8000548:	3e01      	subs	r6, #1
 800054a:	1824      	adds	r4, r4, r0
 800054c:	414d      	adcs	r5, r1
 800054e:	2e00      	cmp	r6, #0
 8000550:	d006      	beq.n	8000560 <__udivmoddi4+0x108>
 8000552:	42ab      	cmp	r3, r5
 8000554:	d9ee      	bls.n	8000534 <__udivmoddi4+0xdc>
 8000556:	3e01      	subs	r6, #1
 8000558:	1924      	adds	r4, r4, r4
 800055a:	416d      	adcs	r5, r5
 800055c:	2e00      	cmp	r6, #0
 800055e:	d1f8      	bne.n	8000552 <__udivmoddi4+0xfa>
 8000560:	9800      	ldr	r0, [sp, #0]
 8000562:	9901      	ldr	r1, [sp, #4]
 8000564:	465b      	mov	r3, fp
 8000566:	1900      	adds	r0, r0, r4
 8000568:	4169      	adcs	r1, r5
 800056a:	2b00      	cmp	r3, #0
 800056c:	db24      	blt.n	80005b8 <__udivmoddi4+0x160>
 800056e:	002b      	movs	r3, r5
 8000570:	465a      	mov	r2, fp
 8000572:	4644      	mov	r4, r8
 8000574:	40d3      	lsrs	r3, r2
 8000576:	002a      	movs	r2, r5
 8000578:	40e2      	lsrs	r2, r4
 800057a:	001c      	movs	r4, r3
 800057c:	465b      	mov	r3, fp
 800057e:	0015      	movs	r5, r2
 8000580:	2b00      	cmp	r3, #0
 8000582:	db2a      	blt.n	80005da <__udivmoddi4+0x182>
 8000584:	0026      	movs	r6, r4
 8000586:	409e      	lsls	r6, r3
 8000588:	0033      	movs	r3, r6
 800058a:	0026      	movs	r6, r4
 800058c:	4647      	mov	r7, r8
 800058e:	40be      	lsls	r6, r7
 8000590:	0032      	movs	r2, r6
 8000592:	1a80      	subs	r0, r0, r2
 8000594:	4199      	sbcs	r1, r3
 8000596:	9000      	str	r0, [sp, #0]
 8000598:	9101      	str	r1, [sp, #4]
 800059a:	e79f      	b.n	80004dc <__udivmoddi4+0x84>
 800059c:	42a3      	cmp	r3, r4
 800059e:	d8bc      	bhi.n	800051a <__udivmoddi4+0xc2>
 80005a0:	e783      	b.n	80004aa <__udivmoddi4+0x52>
 80005a2:	4642      	mov	r2, r8
 80005a4:	2320      	movs	r3, #32
 80005a6:	2100      	movs	r1, #0
 80005a8:	1a9b      	subs	r3, r3, r2
 80005aa:	2200      	movs	r2, #0
 80005ac:	9100      	str	r1, [sp, #0]
 80005ae:	9201      	str	r2, [sp, #4]
 80005b0:	2201      	movs	r2, #1
 80005b2:	40da      	lsrs	r2, r3
 80005b4:	9201      	str	r2, [sp, #4]
 80005b6:	e786      	b.n	80004c6 <__udivmoddi4+0x6e>
 80005b8:	4642      	mov	r2, r8
 80005ba:	2320      	movs	r3, #32
 80005bc:	1a9b      	subs	r3, r3, r2
 80005be:	002a      	movs	r2, r5
 80005c0:	4646      	mov	r6, r8
 80005c2:	409a      	lsls	r2, r3
 80005c4:	0023      	movs	r3, r4
 80005c6:	40f3      	lsrs	r3, r6
 80005c8:	4644      	mov	r4, r8
 80005ca:	4313      	orrs	r3, r2
 80005cc:	002a      	movs	r2, r5
 80005ce:	40e2      	lsrs	r2, r4
 80005d0:	001c      	movs	r4, r3
 80005d2:	465b      	mov	r3, fp
 80005d4:	0015      	movs	r5, r2
 80005d6:	2b00      	cmp	r3, #0
 80005d8:	dad4      	bge.n	8000584 <__udivmoddi4+0x12c>
 80005da:	4642      	mov	r2, r8
 80005dc:	002f      	movs	r7, r5
 80005de:	2320      	movs	r3, #32
 80005e0:	0026      	movs	r6, r4
 80005e2:	4097      	lsls	r7, r2
 80005e4:	1a9b      	subs	r3, r3, r2
 80005e6:	40de      	lsrs	r6, r3
 80005e8:	003b      	movs	r3, r7
 80005ea:	4333      	orrs	r3, r6
 80005ec:	e7cd      	b.n	800058a <__udivmoddi4+0x132>
 80005ee:	46c0      	nop			; (mov r8, r8)

080005f0 <__clzdi2>:
 80005f0:	b510      	push	{r4, lr}
 80005f2:	2900      	cmp	r1, #0
 80005f4:	d103      	bne.n	80005fe <__clzdi2+0xe>
 80005f6:	f000 f807 	bl	8000608 <__clzsi2>
 80005fa:	3020      	adds	r0, #32
 80005fc:	e002      	b.n	8000604 <__clzdi2+0x14>
 80005fe:	0008      	movs	r0, r1
 8000600:	f000 f802 	bl	8000608 <__clzsi2>
 8000604:	bd10      	pop	{r4, pc}
 8000606:	46c0      	nop			; (mov r8, r8)

08000608 <__clzsi2>:
 8000608:	211c      	movs	r1, #28
 800060a:	2301      	movs	r3, #1
 800060c:	041b      	lsls	r3, r3, #16
 800060e:	4298      	cmp	r0, r3
 8000610:	d301      	bcc.n	8000616 <__clzsi2+0xe>
 8000612:	0c00      	lsrs	r0, r0, #16
 8000614:	3910      	subs	r1, #16
 8000616:	0a1b      	lsrs	r3, r3, #8
 8000618:	4298      	cmp	r0, r3
 800061a:	d301      	bcc.n	8000620 <__clzsi2+0x18>
 800061c:	0a00      	lsrs	r0, r0, #8
 800061e:	3908      	subs	r1, #8
 8000620:	091b      	lsrs	r3, r3, #4
 8000622:	4298      	cmp	r0, r3
 8000624:	d301      	bcc.n	800062a <__clzsi2+0x22>
 8000626:	0900      	lsrs	r0, r0, #4
 8000628:	3904      	subs	r1, #4
 800062a:	a202      	add	r2, pc, #8	; (adr r2, 8000634 <__clzsi2+0x2c>)
 800062c:	5c10      	ldrb	r0, [r2, r0]
 800062e:	1840      	adds	r0, r0, r1
 8000630:	4770      	bx	lr
 8000632:	46c0      	nop			; (mov r8, r8)
 8000634:	02020304 	.word	0x02020304
 8000638:	01010101 	.word	0x01010101
	...

08000644 <setLED>:
 8000644:	b57f      	push	{r0, r1, r2, r3, r4, r5, r6, lr}
 8000646:	2403      	movs	r4, #3
 8000648:	0005      	movs	r5, r0
 800064a:	200e      	movs	r0, #14
 800064c:	0016      	movs	r6, r2
 800064e:	434c      	muls	r4, r1
 8000650:	4468      	add	r0, sp
 8000652:	b2e4      	uxtb	r4, r4
 8000654:	8003      	strh	r3, [r0, #0]
 8000656:	0001      	movs	r1, r0
 8000658:	9200      	str	r2, [sp, #0]
 800065a:	0028      	movs	r0, r5
 800065c:	0022      	movs	r2, r4
 800065e:	2300      	movs	r3, #0
 8000660:	f000 fc2a 	bl	8000eb8 <LED12A1_DigitalDimming>
 8000664:	1c62      	adds	r2, r4, #1
 8000666:	0028      	movs	r0, r5
 8000668:	9600      	str	r6, [sp, #0]
 800066a:	a908      	add	r1, sp, #32
 800066c:	2300      	movs	r3, #0
 800066e:	b2d2      	uxtb	r2, r2
 8000670:	3402      	adds	r4, #2
 8000672:	f000 fc21 	bl	8000eb8 <LED12A1_DigitalDimming>
 8000676:	0028      	movs	r0, r5
 8000678:	9600      	str	r6, [sp, #0]
 800067a:	2300      	movs	r3, #0
 800067c:	b2e2      	uxtb	r2, r4
 800067e:	a909      	add	r1, sp, #36	; 0x24
 8000680:	f000 fc1a 	bl	8000eb8 <LED12A1_DigitalDimming>
 8000684:	bd7f      	pop	{r0, r1, r2, r3, r4, r5, r6, pc}
	...

08000688 <disableAllLED>:
 8000688:	b570      	push	{r4, r5, r6, lr}
 800068a:	0006      	movs	r6, r0
 800068c:	000d      	movs	r5, r1
 800068e:	2400      	movs	r4, #0
 8000690:	b2e2      	uxtb	r2, r4
 8000692:	42ac      	cmp	r4, r5
 8000694:	d100      	bne.n	8000698 <disableAllLED+0x10>
 8000696:	bd70      	pop	{r4, r5, r6, pc}
 8000698:	0030      	movs	r0, r6
 800069a:	4902      	ldr	r1, [pc, #8]	; (80006a4 <disableAllLED+0x1c>)
 800069c:	f000 fc37 	bl	8000f0e <LED12A1_ChannelDisable>
 80006a0:	3401      	adds	r4, #1
 80006a2:	e7f5      	b.n	8000690 <disableAllLED+0x8>
 80006a4:	00000fff 	.word	0x00000fff

080006a8 <setup>:
 80006a8:	b570      	push	{r4, r5, r6, lr}
 80006aa:	2400      	movs	r4, #0
 80006ac:	2064      	movs	r0, #100	; 0x64
 80006ae:	f000 fc8f 	bl	8000fd0 <HAL_Delay>
 80006b2:	4b0e      	ldr	r3, [pc, #56]	; (80006ec <setup+0x44>)
 80006b4:	701c      	strb	r4, [r3, #0]
 80006b6:	f000 f87f 	bl	80007b8 <ClearBuffers>
 80006ba:	f000 fb91 	bl	8000de0 <LED12A1_Init>
 80006be:	4d0c      	ldr	r5, [pc, #48]	; (80006f0 <setup+0x48>)
 80006c0:	490c      	ldr	r1, [pc, #48]	; (80006f4 <setup+0x4c>)
 80006c2:	0028      	movs	r0, r5
 80006c4:	f000 fbe0 	bl	8000e88 <LED12A1_ScanAvailDevice>
 80006c8:	4e0b      	ldr	r6, [pc, #44]	; (80006f8 <setup+0x50>)
 80006ca:	7030      	strb	r0, [r6, #0]
 80006cc:	7833      	ldrb	r3, [r6, #0]
 80006ce:	42a3      	cmp	r3, r4
 80006d0:	d800      	bhi.n	80006d4 <setup+0x2c>
 80006d2:	bd70      	pop	{r4, r5, r6, pc}
 80006d4:	0021      	movs	r1, r4
 80006d6:	0028      	movs	r0, r5
 80006d8:	f000 fbb4 	bl	8000e44 <LED12A1_DeviceEnable>
 80006dc:	0022      	movs	r2, r4
 80006de:	0028      	movs	r0, r5
 80006e0:	4906      	ldr	r1, [pc, #24]	; (80006fc <setup+0x54>)
 80006e2:	3401      	adds	r4, #1
 80006e4:	f000 fc13 	bl	8000f0e <LED12A1_ChannelDisable>
 80006e8:	b2e4      	uxtb	r4, r4
 80006ea:	e7ef      	b.n	80006cc <setup+0x24>
 80006ec:	200000b3 	.word	0x200000b3
 80006f0:	20000238 	.word	0x20000238
 80006f4:	20000028 	.word	0x20000028
 80006f8:	20000032 	.word	0x20000032
 80006fc:	00000fff 	.word	0x00000fff

08000700 <mainLoop>:
 8000700:	b5f0      	push	{r4, r5, r6, r7, lr}
 8000702:	4b2b      	ldr	r3, [pc, #172]	; (80007b0 <mainLoop+0xb0>)
 8000704:	482b      	ldr	r0, [pc, #172]	; (80007b4 <mainLoop+0xb4>)
 8000706:	7819      	ldrb	r1, [r3, #0]
 8000708:	b087      	sub	sp, #28
 800070a:	f7ff ffbd 	bl	8000688 <disableAllLED>
 800070e:	2500      	movs	r5, #0
 8000710:	2601      	movs	r6, #1
 8000712:	b2eb      	uxtb	r3, r5
 8000714:	9305      	str	r3, [sp, #20]
 8000716:	2303      	movs	r3, #3
 8000718:	0032      	movs	r2, r6
 800071a:	436b      	muls	r3, r5
 800071c:	409a      	lsls	r2, r3
 800071e:	0031      	movs	r1, r6
 8000720:	b292      	uxth	r2, r2
 8000722:	9202      	str	r2, [sp, #8]
 8000724:	1c5a      	adds	r2, r3, #1
 8000726:	4091      	lsls	r1, r2
 8000728:	b28a      	uxth	r2, r1
 800072a:	9203      	str	r2, [sp, #12]
 800072c:	0032      	movs	r2, r6
 800072e:	3302      	adds	r3, #2
 8000730:	409a      	lsls	r2, r3
 8000732:	2400      	movs	r4, #0
 8000734:	b293      	uxth	r3, r2
 8000736:	9304      	str	r3, [sp, #16]
 8000738:	4f1e      	ldr	r7, [pc, #120]	; (80007b4 <mainLoop+0xb4>)
 800073a:	0022      	movs	r2, r4
 800073c:	9902      	ldr	r1, [sp, #8]
 800073e:	0038      	movs	r0, r7
 8000740:	f000 fbd3 	bl	8000eea <LED12A1_ChannelEnable>
 8000744:	0022      	movs	r2, r4
 8000746:	9903      	ldr	r1, [sp, #12]
 8000748:	0038      	movs	r0, r7
 800074a:	f000 fbce 	bl	8000eea <LED12A1_ChannelEnable>
 800074e:	0022      	movs	r2, r4
 8000750:	9904      	ldr	r1, [sp, #16]
 8000752:	0038      	movs	r0, r7
 8000754:	f000 fbc9 	bl	8000eea <LED12A1_ChannelEnable>
 8000758:	230a      	movs	r3, #10
 800075a:	0022      	movs	r2, r4
 800075c:	0038      	movs	r0, r7
 800075e:	9905      	ldr	r1, [sp, #20]
 8000760:	9301      	str	r3, [sp, #4]
 8000762:	9300      	str	r3, [sp, #0]
 8000764:	f7ff ff6e 	bl	8000644 <setLED>
 8000768:	20fa      	movs	r0, #250	; 0xfa
 800076a:	3401      	adds	r4, #1
 800076c:	0080      	lsls	r0, r0, #2
 800076e:	b2e4      	uxtb	r4, r4
 8000770:	f000 fc2e 	bl	8000fd0 <HAL_Delay>
 8000774:	2c04      	cmp	r4, #4
 8000776:	d1df      	bne.n	8000738 <mainLoop+0x38>
 8000778:	3501      	adds	r5, #1
 800077a:	2d04      	cmp	r5, #4
 800077c:	d1c9      	bne.n	8000712 <mainLoop+0x12>
 800077e:	2400      	movs	r4, #0
 8000780:	0026      	movs	r6, r4
 8000782:	2500      	movs	r5, #0
 8000784:	002a      	movs	r2, r5
 8000786:	2300      	movs	r3, #0
 8000788:	0021      	movs	r1, r4
 800078a:	0038      	movs	r0, r7
 800078c:	9601      	str	r6, [sp, #4]
 800078e:	9600      	str	r6, [sp, #0]
 8000790:	f7ff ff58 	bl	8000644 <setLED>
 8000794:	20fa      	movs	r0, #250	; 0xfa
 8000796:	3501      	adds	r5, #1
 8000798:	0080      	lsls	r0, r0, #2
 800079a:	b2ed      	uxtb	r5, r5
 800079c:	f000 fc18 	bl	8000fd0 <HAL_Delay>
 80007a0:	2d04      	cmp	r5, #4
 80007a2:	d1ef      	bne.n	8000784 <mainLoop+0x84>
 80007a4:	3401      	adds	r4, #1
 80007a6:	b2e4      	uxtb	r4, r4
 80007a8:	2c04      	cmp	r4, #4
 80007aa:	d1ea      	bne.n	8000782 <mainLoop+0x82>
 80007ac:	b007      	add	sp, #28
 80007ae:	bdf0      	pop	{r4, r5, r6, r7, pc}
 80007b0:	20000032 	.word	0x20000032
 80007b4:	20000238 	.word	0x20000238

080007b8 <ClearBuffers>:
 80007b8:	b510      	push	{r4, lr}
 80007ba:	2440      	movs	r4, #64	; 0x40
 80007bc:	0022      	movs	r2, r4
 80007be:	2100      	movs	r1, #0
 80007c0:	4804      	ldr	r0, [pc, #16]	; (80007d4 <ClearBuffers+0x1c>)
 80007c2:	f002 fad9 	bl	8002d78 <memset>
 80007c6:	0022      	movs	r2, r4
 80007c8:	2100      	movs	r1, #0
 80007ca:	4803      	ldr	r0, [pc, #12]	; (80007d8 <ClearBuffers+0x20>)
 80007cc:	f002 fad4 	bl	8002d78 <memset>
 80007d0:	bd10      	pop	{r4, pc}
 80007d2:	46c0      	nop			; (mov r8, r8)
 80007d4:	20000033 	.word	0x20000033
 80007d8:	20000073 	.word	0x20000073

080007dc <SystemClock_Config>:
 80007dc:	b500      	push	{lr}
 80007de:	b095      	sub	sp, #84	; 0x54
 80007e0:	223c      	movs	r2, #60	; 0x3c
 80007e2:	2100      	movs	r1, #0
 80007e4:	a805      	add	r0, sp, #20
 80007e6:	f002 fac7 	bl	8002d78 <memset>
 80007ea:	2100      	movs	r1, #0
 80007ec:	2210      	movs	r2, #16
 80007ee:	a801      	add	r0, sp, #4
 80007f0:	f002 fac2 	bl	8002d78 <memset>
 80007f4:	2080      	movs	r0, #128	; 0x80
 80007f6:	0080      	lsls	r0, r0, #2
 80007f8:	f001 f918 	bl	8001a2c <HAL_PWREx_ControlVoltageScaling>
 80007fc:	2302      	movs	r3, #2
 80007fe:	9305      	str	r3, [sp, #20]
 8000800:	33fe      	adds	r3, #254	; 0xfe
 8000802:	2240      	movs	r2, #64	; 0x40
 8000804:	9308      	str	r3, [sp, #32]
 8000806:	2300      	movs	r3, #0
 8000808:	a805      	add	r0, sp, #20
 800080a:	9309      	str	r3, [sp, #36]	; 0x24
 800080c:	920a      	str	r2, [sp, #40]	; 0x28
 800080e:	930d      	str	r3, [sp, #52]	; 0x34
 8000810:	f001 f938 	bl	8001a84 <HAL_RCC_OscConfig>
 8000814:	1e01      	subs	r1, r0, #0
 8000816:	d001      	beq.n	800081c <SystemClock_Config+0x40>
 8000818:	b672      	cpsid	i
 800081a:	e7fe      	b.n	800081a <SystemClock_Config+0x3e>
 800081c:	2307      	movs	r3, #7
 800081e:	9002      	str	r0, [sp, #8]
 8000820:	9003      	str	r0, [sp, #12]
 8000822:	9004      	str	r0, [sp, #16]
 8000824:	a801      	add	r0, sp, #4
 8000826:	9301      	str	r3, [sp, #4]
 8000828:	f001 fbc8 	bl	8001fbc <HAL_RCC_ClockConfig>
 800082c:	2800      	cmp	r0, #0
 800082e:	d001      	beq.n	8000834 <SystemClock_Config+0x58>
 8000830:	b672      	cpsid	i
 8000832:	e7fe      	b.n	8000832 <SystemClock_Config+0x56>
 8000834:	b015      	add	sp, #84	; 0x54
 8000836:	bd00      	pop	{pc}

08000838 <MX_I2C1_Init>:
 8000838:	b510      	push	{r4, lr}
 800083a:	4b12      	ldr	r3, [pc, #72]	; (8000884 <MX_I2C1_Init+0x4c>)
 800083c:	4c12      	ldr	r4, [pc, #72]	; (8000888 <MX_I2C1_Init+0x50>)
 800083e:	2201      	movs	r2, #1
 8000840:	6023      	str	r3, [r4, #0]
 8000842:	4b12      	ldr	r3, [pc, #72]	; (800088c <MX_I2C1_Init+0x54>)
 8000844:	0020      	movs	r0, r4
 8000846:	6063      	str	r3, [r4, #4]
 8000848:	2300      	movs	r3, #0
 800084a:	60e2      	str	r2, [r4, #12]
 800084c:	60a3      	str	r3, [r4, #8]
 800084e:	6123      	str	r3, [r4, #16]
 8000850:	6163      	str	r3, [r4, #20]
 8000852:	61a3      	str	r3, [r4, #24]
 8000854:	61e3      	str	r3, [r4, #28]
 8000856:	6223      	str	r3, [r4, #32]
 8000858:	f000 fe6e 	bl	8001538 <HAL_I2C_Init>
 800085c:	1e01      	subs	r1, r0, #0
 800085e:	d001      	beq.n	8000864 <MX_I2C1_Init+0x2c>
 8000860:	b672      	cpsid	i
 8000862:	e7fe      	b.n	8000862 <MX_I2C1_Init+0x2a>
 8000864:	0020      	movs	r0, r4
 8000866:	f001 f897 	bl	8001998 <HAL_I2CEx_ConfigAnalogFilter>
 800086a:	1e01      	subs	r1, r0, #0
 800086c:	d001      	beq.n	8000872 <MX_I2C1_Init+0x3a>
 800086e:	b672      	cpsid	i
 8000870:	e7fe      	b.n	8000870 <MX_I2C1_Init+0x38>
 8000872:	0020      	movs	r0, r4
 8000874:	f001 f8b6 	bl	80019e4 <HAL_I2CEx_ConfigDigitalFilter>
 8000878:	2800      	cmp	r0, #0
 800087a:	d001      	beq.n	8000880 <MX_I2C1_Init+0x48>
 800087c:	b672      	cpsid	i
 800087e:	e7fe      	b.n	800087e <MX_I2C1_Init+0x46>
 8000880:	bd10      	pop	{r4, pc}
 8000882:	46c0      	nop			; (mov r8, r8)
 8000884:	40005400 	.word	0x40005400
 8000888:	200000b4 	.word	0x200000b4
 800088c:	00303d5b 	.word	0x00303d5b

08000890 <main>:
 8000890:	b5f0      	push	{r4, r5, r6, r7, lr}
 8000892:	b08d      	sub	sp, #52	; 0x34
 8000894:	f000 fb76 	bl	8000f84 <HAL_Init>
 8000898:	f7ff ffa0 	bl	80007dc <SystemClock_Config>
 800089c:	2214      	movs	r2, #20
 800089e:	2100      	movs	r1, #0
 80008a0:	a807      	add	r0, sp, #28
 80008a2:	f002 fa69 	bl	8002d78 <memset>
 80008a6:	2004      	movs	r0, #4
 80008a8:	2420      	movs	r4, #32
 80008aa:	2501      	movs	r5, #1
 80008ac:	4b62      	ldr	r3, [pc, #392]	; (8000a38 <main+0x1a8>)
 80008ae:	2602      	movs	r6, #2
 80008b0:	6b59      	ldr	r1, [r3, #52]	; 0x34
 80008b2:	4301      	orrs	r1, r0
 80008b4:	6359      	str	r1, [r3, #52]	; 0x34
 80008b6:	6b5a      	ldr	r2, [r3, #52]	; 0x34
 80008b8:	0021      	movs	r1, r4
 80008ba:	4002      	ands	r2, r0
 80008bc:	20a0      	movs	r0, #160	; 0xa0
 80008be:	9200      	str	r2, [sp, #0]
 80008c0:	9a00      	ldr	r2, [sp, #0]
 80008c2:	6b5a      	ldr	r2, [r3, #52]	; 0x34
 80008c4:	05c0      	lsls	r0, r0, #23
 80008c6:	4322      	orrs	r2, r4
 80008c8:	635a      	str	r2, [r3, #52]	; 0x34
 80008ca:	6b5a      	ldr	r2, [r3, #52]	; 0x34
 80008cc:	4022      	ands	r2, r4
 80008ce:	9201      	str	r2, [sp, #4]
 80008d0:	9a01      	ldr	r2, [sp, #4]
 80008d2:	6b5a      	ldr	r2, [r3, #52]	; 0x34
 80008d4:	432a      	orrs	r2, r5
 80008d6:	635a      	str	r2, [r3, #52]	; 0x34
 80008d8:	6b5a      	ldr	r2, [r3, #52]	; 0x34
 80008da:	402a      	ands	r2, r5
 80008dc:	9202      	str	r2, [sp, #8]
 80008de:	9a02      	ldr	r2, [sp, #8]
 80008e0:	6b5a      	ldr	r2, [r3, #52]	; 0x34
 80008e2:	4332      	orrs	r2, r6
 80008e4:	635a      	str	r2, [r3, #52]	; 0x34
 80008e6:	6b5b      	ldr	r3, [r3, #52]	; 0x34
 80008e8:	2200      	movs	r2, #0
 80008ea:	4033      	ands	r3, r6
 80008ec:	9303      	str	r3, [sp, #12]
 80008ee:	9b03      	ldr	r3, [sp, #12]
 80008f0:	f000 fcfa 	bl	80012e8 <HAL_GPIO_WritePin>
 80008f4:	20a0      	movs	r0, #160	; 0xa0
 80008f6:	9508      	str	r5, [sp, #32]
 80008f8:	2500      	movs	r5, #0
 80008fa:	a907      	add	r1, sp, #28
 80008fc:	05c0      	lsls	r0, r0, #23
 80008fe:	9407      	str	r4, [sp, #28]
 8000900:	960a      	str	r6, [sp, #40]	; 0x28
 8000902:	9509      	str	r5, [sp, #36]	; 0x24
 8000904:	f000 fbba 	bl	800107c <HAL_GPIO_Init>
 8000908:	4c4c      	ldr	r4, [pc, #304]	; (8000a3c <main+0x1ac>)
 800090a:	4b4d      	ldr	r3, [pc, #308]	; (8000a40 <main+0x1b0>)
 800090c:	0020      	movs	r0, r4
 800090e:	6023      	str	r3, [r4, #0]
 8000910:	23e1      	movs	r3, #225	; 0xe1
 8000912:	360a      	adds	r6, #10
 8000914:	025b      	lsls	r3, r3, #9
 8000916:	6063      	str	r3, [r4, #4]
 8000918:	60a5      	str	r5, [r4, #8]
 800091a:	60e5      	str	r5, [r4, #12]
 800091c:	6125      	str	r5, [r4, #16]
 800091e:	6166      	str	r6, [r4, #20]
 8000920:	61a5      	str	r5, [r4, #24]
 8000922:	61e5      	str	r5, [r4, #28]
 8000924:	6225      	str	r5, [r4, #32]
 8000926:	6265      	str	r5, [r4, #36]	; 0x24
 8000928:	62a5      	str	r5, [r4, #40]	; 0x28
 800092a:	f002 f93f 	bl	8002bac <HAL_UART_Init>
 800092e:	0001      	movs	r1, r0
 8000930:	42a8      	cmp	r0, r5
 8000932:	d001      	beq.n	8000938 <main+0xa8>
 8000934:	b672      	cpsid	i
 8000936:	e7fe      	b.n	8000936 <main+0xa6>
 8000938:	0020      	movs	r0, r4
 800093a:	f002 f9af 	bl	8002c9c <HAL_UARTEx_SetTxFifoThreshold>
 800093e:	1e01      	subs	r1, r0, #0
 8000940:	d001      	beq.n	8000946 <main+0xb6>
 8000942:	b672      	cpsid	i
 8000944:	e7fe      	b.n	8000944 <main+0xb4>
 8000946:	0020      	movs	r0, r4
 8000948:	f002 f9cc 	bl	8002ce4 <HAL_UARTEx_SetRxFifoThreshold>
 800094c:	2800      	cmp	r0, #0
 800094e:	d001      	beq.n	8000954 <main+0xc4>
 8000950:	b672      	cpsid	i
 8000952:	e7fe      	b.n	8000952 <main+0xc2>
 8000954:	0020      	movs	r0, r4
 8000956:	f002 f983 	bl	8002c60 <HAL_UARTEx_DisableFifoMode>
 800095a:	1e05      	subs	r5, r0, #0
 800095c:	d001      	beq.n	8000962 <main+0xd2>
 800095e:	b672      	cpsid	i
 8000960:	e7fe      	b.n	8000960 <main+0xd0>
 8000962:	f7ff ff69 	bl	8000838 <MX_I2C1_Init>
 8000966:	2210      	movs	r2, #16
 8000968:	0029      	movs	r1, r5
 800096a:	a807      	add	r0, sp, #28
 800096c:	f002 fa04 	bl	8002d78 <memset>
 8000970:	0032      	movs	r2, r6
 8000972:	0029      	movs	r1, r5
 8000974:	a804      	add	r0, sp, #16
 8000976:	f002 f9ff 	bl	8002d78 <memset>
 800097a:	2380      	movs	r3, #128	; 0x80
 800097c:	4c31      	ldr	r4, [pc, #196]	; (8000a44 <main+0x1b4>)
 800097e:	05db      	lsls	r3, r3, #23
 8000980:	6023      	str	r3, [r4, #0]
 8000982:	2301      	movs	r3, #1
 8000984:	0020      	movs	r0, r4
 8000986:	425b      	negs	r3, r3
 8000988:	6065      	str	r5, [r4, #4]
 800098a:	60a5      	str	r5, [r4, #8]
 800098c:	60e3      	str	r3, [r4, #12]
 800098e:	6125      	str	r5, [r4, #16]
 8000990:	61a5      	str	r5, [r4, #24]
 8000992:	f001 fd7f 	bl	8002494 <HAL_TIM_Base_Init>
 8000996:	2800      	cmp	r0, #0
 8000998:	d001      	beq.n	800099e <main+0x10e>
 800099a:	b672      	cpsid	i
 800099c:	e7fe      	b.n	800099c <main+0x10c>
 800099e:	2780      	movs	r7, #128	; 0x80
 80009a0:	0020      	movs	r0, r4
 80009a2:	017f      	lsls	r7, r7, #5
 80009a4:	a907      	add	r1, sp, #28
 80009a6:	9707      	str	r7, [sp, #28]
 80009a8:	f001 fdaa 	bl	8002500 <HAL_TIM_ConfigClockSource>
 80009ac:	2800      	cmp	r0, #0
 80009ae:	d001      	beq.n	80009b4 <main+0x124>
 80009b0:	b672      	cpsid	i
 80009b2:	e7fe      	b.n	80009b2 <main+0x122>
 80009b4:	9004      	str	r0, [sp, #16]
 80009b6:	9006      	str	r0, [sp, #24]
 80009b8:	a904      	add	r1, sp, #16
 80009ba:	0020      	movs	r0, r4
 80009bc:	f001 fe44 	bl	8002648 <HAL_TIMEx_MasterConfigSynchronization>
 80009c0:	1e05      	subs	r5, r0, #0
 80009c2:	d001      	beq.n	80009c8 <main+0x138>
 80009c4:	b672      	cpsid	i
 80009c6:	e7fe      	b.n	80009c6 <main+0x136>
 80009c8:	0001      	movs	r1, r0
 80009ca:	2210      	movs	r2, #16
 80009cc:	a807      	add	r0, sp, #28
 80009ce:	f002 f9d3 	bl	8002d78 <memset>
 80009d2:	0032      	movs	r2, r6
 80009d4:	0029      	movs	r1, r5
 80009d6:	a804      	add	r0, sp, #16
 80009d8:	f002 f9ce 	bl	8002d78 <memset>
 80009dc:	4e1a      	ldr	r6, [pc, #104]	; (8000a48 <main+0x1b8>)
 80009de:	4b1b      	ldr	r3, [pc, #108]	; (8000a4c <main+0x1bc>)
 80009e0:	0030      	movs	r0, r6
 80009e2:	6033      	str	r3, [r6, #0]
 80009e4:	4b1a      	ldr	r3, [pc, #104]	; (8000a50 <main+0x1c0>)
 80009e6:	6075      	str	r5, [r6, #4]
 80009e8:	60b5      	str	r5, [r6, #8]
 80009ea:	60f3      	str	r3, [r6, #12]
 80009ec:	6135      	str	r5, [r6, #16]
 80009ee:	61b5      	str	r5, [r6, #24]
 80009f0:	f001 fd50 	bl	8002494 <HAL_TIM_Base_Init>
 80009f4:	2800      	cmp	r0, #0
 80009f6:	d001      	beq.n	80009fc <main+0x16c>
 80009f8:	b672      	cpsid	i
 80009fa:	e7fe      	b.n	80009fa <main+0x16a>
 80009fc:	0030      	movs	r0, r6
 80009fe:	a907      	add	r1, sp, #28
 8000a00:	9707      	str	r7, [sp, #28]
 8000a02:	f001 fd7d 	bl	8002500 <HAL_TIM_ConfigClockSource>
 8000a06:	2800      	cmp	r0, #0
 8000a08:	d001      	beq.n	8000a0e <main+0x17e>
 8000a0a:	b672      	cpsid	i
 8000a0c:	e7fe      	b.n	8000a0c <main+0x17c>
 8000a0e:	9004      	str	r0, [sp, #16]
 8000a10:	9006      	str	r0, [sp, #24]
 8000a12:	a904      	add	r1, sp, #16
 8000a14:	0030      	movs	r0, r6
 8000a16:	f001 fe17 	bl	8002648 <HAL_TIMEx_MasterConfigSynchronization>
 8000a1a:	2800      	cmp	r0, #0
 8000a1c:	d001      	beq.n	8000a22 <main+0x192>
 8000a1e:	b672      	cpsid	i
 8000a20:	e7fe      	b.n	8000a20 <main+0x190>
 8000a22:	2302      	movs	r3, #2
 8000a24:	6822      	ldr	r2, [r4, #0]
 8000a26:	425b      	negs	r3, r3
 8000a28:	6113      	str	r3, [r2, #16]
 8000a2a:	6832      	ldr	r2, [r6, #0]
 8000a2c:	6113      	str	r3, [r2, #16]
 8000a2e:	f7ff fe3b 	bl	80006a8 <setup>
 8000a32:	f7ff fe65 	bl	8000700 <mainLoop>
 8000a36:	e7fc      	b.n	8000a32 <main+0x1a2>
 8000a38:	40021000 	.word	0x40021000
 8000a3c:	200001a0 	.word	0x200001a0
 8000a40:	40004400 	.word	0x40004400
 8000a44:	20000108 	.word	0x20000108
 8000a48:	20000154 	.word	0x20000154
 8000a4c:	40000400 	.word	0x40000400
 8000a50:	0000ffff 	.word	0x0000ffff

08000a54 <Error_Handler>:
 8000a54:	b672      	cpsid	i
 8000a56:	e7fe      	b.n	8000a56 <Error_Handler+0x2>

08000a58 <HAL_MspInit>:
 8000a58:	2001      	movs	r0, #1
 8000a5a:	4b0a      	ldr	r3, [pc, #40]	; (8000a84 <HAL_MspInit+0x2c>)
 8000a5c:	b082      	sub	sp, #8
 8000a5e:	6c19      	ldr	r1, [r3, #64]	; 0x40
 8000a60:	4301      	orrs	r1, r0
 8000a62:	6419      	str	r1, [r3, #64]	; 0x40
 8000a64:	2180      	movs	r1, #128	; 0x80
 8000a66:	6c1a      	ldr	r2, [r3, #64]	; 0x40
 8000a68:	0549      	lsls	r1, r1, #21
 8000a6a:	4002      	ands	r2, r0
 8000a6c:	9200      	str	r2, [sp, #0]
 8000a6e:	9a00      	ldr	r2, [sp, #0]
 8000a70:	6bda      	ldr	r2, [r3, #60]	; 0x3c
 8000a72:	430a      	orrs	r2, r1
 8000a74:	63da      	str	r2, [r3, #60]	; 0x3c
 8000a76:	6bdb      	ldr	r3, [r3, #60]	; 0x3c
 8000a78:	400b      	ands	r3, r1
 8000a7a:	9301      	str	r3, [sp, #4]
 8000a7c:	9b01      	ldr	r3, [sp, #4]
 8000a7e:	b002      	add	sp, #8
 8000a80:	4770      	bx	lr
 8000a82:	46c0      	nop			; (mov r8, r8)
 8000a84:	40021000 	.word	0x40021000

08000a88 <HAL_I2C_MspInit>:
 8000a88:	b510      	push	{r4, lr}
 8000a8a:	0004      	movs	r4, r0
 8000a8c:	b09a      	sub	sp, #104	; 0x68
 8000a8e:	2214      	movs	r2, #20
 8000a90:	2100      	movs	r1, #0
 8000a92:	a802      	add	r0, sp, #8
 8000a94:	f002 f970 	bl	8002d78 <memset>
 8000a98:	224c      	movs	r2, #76	; 0x4c
 8000a9a:	2100      	movs	r1, #0
 8000a9c:	a807      	add	r0, sp, #28
 8000a9e:	f002 f96b 	bl	8002d78 <memset>
 8000aa2:	4b17      	ldr	r3, [pc, #92]	; (8000b00 <HAL_I2C_MspInit+0x78>)
 8000aa4:	6822      	ldr	r2, [r4, #0]
 8000aa6:	429a      	cmp	r2, r3
 8000aa8:	d128      	bne.n	8000afc <HAL_I2C_MspInit+0x74>
 8000aaa:	2320      	movs	r3, #32
 8000aac:	a807      	add	r0, sp, #28
 8000aae:	9307      	str	r3, [sp, #28]
 8000ab0:	f001 fb46 	bl	8002140 <HAL_RCCEx_PeriphCLKConfig>
 8000ab4:	2800      	cmp	r0, #0
 8000ab6:	d001      	beq.n	8000abc <HAL_I2C_MspInit+0x34>
 8000ab8:	f7ff ffcc 	bl	8000a54 <Error_Handler>
 8000abc:	2102      	movs	r1, #2
 8000abe:	4c11      	ldr	r4, [pc, #68]	; (8000b04 <HAL_I2C_MspInit+0x7c>)
 8000ac0:	4811      	ldr	r0, [pc, #68]	; (8000b08 <HAL_I2C_MspInit+0x80>)
 8000ac2:	6b62      	ldr	r2, [r4, #52]	; 0x34
 8000ac4:	430a      	orrs	r2, r1
 8000ac6:	6362      	str	r2, [r4, #52]	; 0x34
 8000ac8:	6b63      	ldr	r3, [r4, #52]	; 0x34
 8000aca:	400b      	ands	r3, r1
 8000acc:	9300      	str	r3, [sp, #0]
 8000ace:	9b00      	ldr	r3, [sp, #0]
 8000ad0:	23c0      	movs	r3, #192	; 0xc0
 8000ad2:	009b      	lsls	r3, r3, #2
 8000ad4:	9302      	str	r3, [sp, #8]
 8000ad6:	2312      	movs	r3, #18
 8000ad8:	9303      	str	r3, [sp, #12]
 8000ada:	2300      	movs	r3, #0
 8000adc:	a902      	add	r1, sp, #8
 8000ade:	9304      	str	r3, [sp, #16]
 8000ae0:	9305      	str	r3, [sp, #20]
 8000ae2:	3306      	adds	r3, #6
 8000ae4:	9306      	str	r3, [sp, #24]
 8000ae6:	f000 fac9 	bl	800107c <HAL_GPIO_Init>
 8000aea:	2180      	movs	r1, #128	; 0x80
 8000aec:	6be2      	ldr	r2, [r4, #60]	; 0x3c
 8000aee:	0389      	lsls	r1, r1, #14
 8000af0:	430a      	orrs	r2, r1
 8000af2:	63e2      	str	r2, [r4, #60]	; 0x3c
 8000af4:	6be3      	ldr	r3, [r4, #60]	; 0x3c
 8000af6:	400b      	ands	r3, r1
 8000af8:	9301      	str	r3, [sp, #4]
 8000afa:	9b01      	ldr	r3, [sp, #4]
 8000afc:	b01a      	add	sp, #104	; 0x68
 8000afe:	bd10      	pop	{r4, pc}
 8000b00:	40005400 	.word	0x40005400
 8000b04:	40021000 	.word	0x40021000
 8000b08:	50000400 	.word	0x50000400

08000b0c <HAL_I2C_MspDeInit>:
 8000b0c:	4b0a      	ldr	r3, [pc, #40]	; (8000b38 <HAL_I2C_MspDeInit+0x2c>)
 8000b0e:	6802      	ldr	r2, [r0, #0]
 8000b10:	b510      	push	{r4, lr}
 8000b12:	429a      	cmp	r2, r3
 8000b14:	d10e      	bne.n	8000b34 <HAL_I2C_MspDeInit+0x28>
 8000b16:	4a09      	ldr	r2, [pc, #36]	; (8000b3c <HAL_I2C_MspDeInit+0x30>)
 8000b18:	4909      	ldr	r1, [pc, #36]	; (8000b40 <HAL_I2C_MspDeInit+0x34>)
 8000b1a:	6bd3      	ldr	r3, [r2, #60]	; 0x3c
 8000b1c:	4809      	ldr	r0, [pc, #36]	; (8000b44 <HAL_I2C_MspDeInit+0x38>)
 8000b1e:	400b      	ands	r3, r1
 8000b20:	2180      	movs	r1, #128	; 0x80
 8000b22:	63d3      	str	r3, [r2, #60]	; 0x3c
 8000b24:	0049      	lsls	r1, r1, #1
 8000b26:	f000 fb61 	bl	80011ec <HAL_GPIO_DeInit>
 8000b2a:	2180      	movs	r1, #128	; 0x80
 8000b2c:	4805      	ldr	r0, [pc, #20]	; (8000b44 <HAL_I2C_MspDeInit+0x38>)
 8000b2e:	0089      	lsls	r1, r1, #2
 8000b30:	f000 fb5c 	bl	80011ec <HAL_GPIO_DeInit>
 8000b34:	bd10      	pop	{r4, pc}
 8000b36:	46c0      	nop			; (mov r8, r8)
 8000b38:	40005400 	.word	0x40005400
 8000b3c:	40021000 	.word	0x40021000
 8000b40:	ffdfffff 	.word	0xffdfffff
 8000b44:	50000400 	.word	0x50000400

08000b48 <HAL_TIM_Base_MspInit>:
 8000b48:	2280      	movs	r2, #128	; 0x80
 8000b4a:	6803      	ldr	r3, [r0, #0]
 8000b4c:	b082      	sub	sp, #8
 8000b4e:	05d2      	lsls	r2, r2, #23
 8000b50:	4293      	cmp	r3, r2
 8000b52:	d10a      	bne.n	8000b6a <HAL_TIM_Base_MspInit+0x22>
 8000b54:	2001      	movs	r0, #1
 8000b56:	4a0b      	ldr	r2, [pc, #44]	; (8000b84 <HAL_TIM_Base_MspInit+0x3c>)
 8000b58:	6bd1      	ldr	r1, [r2, #60]	; 0x3c
 8000b5a:	4301      	orrs	r1, r0
 8000b5c:	63d1      	str	r1, [r2, #60]	; 0x3c
 8000b5e:	6bd3      	ldr	r3, [r2, #60]	; 0x3c
 8000b60:	4003      	ands	r3, r0
 8000b62:	9300      	str	r3, [sp, #0]
 8000b64:	9b00      	ldr	r3, [sp, #0]
 8000b66:	b002      	add	sp, #8
 8000b68:	4770      	bx	lr
 8000b6a:	4a07      	ldr	r2, [pc, #28]	; (8000b88 <HAL_TIM_Base_MspInit+0x40>)
 8000b6c:	4293      	cmp	r3, r2
 8000b6e:	d1fa      	bne.n	8000b66 <HAL_TIM_Base_MspInit+0x1e>
 8000b70:	2002      	movs	r0, #2
 8000b72:	4a04      	ldr	r2, [pc, #16]	; (8000b84 <HAL_TIM_Base_MspInit+0x3c>)
 8000b74:	6bd1      	ldr	r1, [r2, #60]	; 0x3c
 8000b76:	4301      	orrs	r1, r0
 8000b78:	63d1      	str	r1, [r2, #60]	; 0x3c
 8000b7a:	6bd3      	ldr	r3, [r2, #60]	; 0x3c
 8000b7c:	4003      	ands	r3, r0
 8000b7e:	9301      	str	r3, [sp, #4]
 8000b80:	9b01      	ldr	r3, [sp, #4]
 8000b82:	e7f0      	b.n	8000b66 <HAL_TIM_Base_MspInit+0x1e>
 8000b84:	40021000 	.word	0x40021000
 8000b88:	40000400 	.word	0x40000400

08000b8c <HAL_UART_MspInit>:
 8000b8c:	b510      	push	{r4, lr}
 8000b8e:	0004      	movs	r4, r0
 8000b90:	b09a      	sub	sp, #104	; 0x68
 8000b92:	2214      	movs	r2, #20
 8000b94:	2100      	movs	r1, #0
 8000b96:	a802      	add	r0, sp, #8
 8000b98:	f002 f8ee 	bl	8002d78 <memset>
 8000b9c:	224c      	movs	r2, #76	; 0x4c
 8000b9e:	2100      	movs	r1, #0
 8000ba0:	a807      	add	r0, sp, #28
 8000ba2:	f002 f8e9 	bl	8002d78 <memset>
 8000ba6:	4b17      	ldr	r3, [pc, #92]	; (8000c04 <HAL_UART_MspInit+0x78>)
 8000ba8:	6822      	ldr	r2, [r4, #0]
 8000baa:	429a      	cmp	r2, r3
 8000bac:	d127      	bne.n	8000bfe <HAL_UART_MspInit+0x72>
 8000bae:	2302      	movs	r3, #2
 8000bb0:	a807      	add	r0, sp, #28
 8000bb2:	9307      	str	r3, [sp, #28]
 8000bb4:	f001 fac4 	bl	8002140 <HAL_RCCEx_PeriphCLKConfig>
 8000bb8:	2800      	cmp	r0, #0
 8000bba:	d001      	beq.n	8000bc0 <HAL_UART_MspInit+0x34>
 8000bbc:	f7ff ff4a 	bl	8000a54 <Error_Handler>
 8000bc0:	2080      	movs	r0, #128	; 0x80
 8000bc2:	4b11      	ldr	r3, [pc, #68]	; (8000c08 <HAL_UART_MspInit+0x7c>)
 8000bc4:	0280      	lsls	r0, r0, #10
 8000bc6:	6bd9      	ldr	r1, [r3, #60]	; 0x3c
 8000bc8:	4301      	orrs	r1, r0
 8000bca:	63d9      	str	r1, [r3, #60]	; 0x3c
 8000bcc:	6bda      	ldr	r2, [r3, #60]	; 0x3c
 8000bce:	4002      	ands	r2, r0
 8000bd0:	9200      	str	r2, [sp, #0]
 8000bd2:	9a00      	ldr	r2, [sp, #0]
 8000bd4:	2201      	movs	r2, #1
 8000bd6:	6b59      	ldr	r1, [r3, #52]	; 0x34
 8000bd8:	20a0      	movs	r0, #160	; 0xa0
 8000bda:	4311      	orrs	r1, r2
 8000bdc:	6359      	str	r1, [r3, #52]	; 0x34
 8000bde:	6b5b      	ldr	r3, [r3, #52]	; 0x34
 8000be0:	a902      	add	r1, sp, #8
 8000be2:	4013      	ands	r3, r2
 8000be4:	9301      	str	r3, [sp, #4]
 8000be6:	9b01      	ldr	r3, [sp, #4]
 8000be8:	230c      	movs	r3, #12
 8000bea:	9302      	str	r3, [sp, #8]
 8000bec:	3b0a      	subs	r3, #10
 8000bee:	9303      	str	r3, [sp, #12]
 8000bf0:	2300      	movs	r3, #0
 8000bf2:	05c0      	lsls	r0, r0, #23
 8000bf4:	9304      	str	r3, [sp, #16]
 8000bf6:	9305      	str	r3, [sp, #20]
 8000bf8:	9206      	str	r2, [sp, #24]
 8000bfa:	f000 fa3f 	bl	800107c <HAL_GPIO_Init>
 8000bfe:	b01a      	add	sp, #104	; 0x68
 8000c00:	bd10      	pop	{r4, pc}
 8000c02:	46c0      	nop			; (mov r8, r8)
 8000c04:	40004400 	.word	0x40004400
 8000c08:	40021000 	.word	0x40021000

08000c0c <NMI_Handler>:
 8000c0c:	e7fe      	b.n	8000c0c <NMI_Handler>

08000c0e <HardFault_Handler>:
 8000c0e:	e7fe      	b.n	8000c0e <HardFault_Handler>

08000c10 <SVC_Handler>:
 8000c10:	4770      	bx	lr

08000c12 <PendSV_Handler>:
 8000c12:	4770      	bx	lr

08000c14 <SysTick_Handler>:
 8000c14:	b510      	push	{r4, lr}
 8000c16:	f000 f9c9 	bl	8000fac <HAL_IncTick>
 8000c1a:	bd10      	pop	{r4, pc}

08000c1c <SystemInit>:
 8000c1c:	4770      	bx	lr
	...

08000c20 <Reset_Handler>:
 8000c20:	480d      	ldr	r0, [pc, #52]	; (8000c58 <LoopForever+0x2>)
 8000c22:	4685      	mov	sp, r0
 8000c24:	f7ff fffa 	bl	8000c1c <SystemInit>
 8000c28:	480c      	ldr	r0, [pc, #48]	; (8000c5c <LoopForever+0x6>)
 8000c2a:	490d      	ldr	r1, [pc, #52]	; (8000c60 <LoopForever+0xa>)
 8000c2c:	4a0d      	ldr	r2, [pc, #52]	; (8000c64 <LoopForever+0xe>)
 8000c2e:	2300      	movs	r3, #0
 8000c30:	e002      	b.n	8000c38 <LoopCopyDataInit>

08000c32 <CopyDataInit>:
 8000c32:	58d4      	ldr	r4, [r2, r3]
 8000c34:	50c4      	str	r4, [r0, r3]
 8000c36:	3304      	adds	r3, #4

08000c38 <LoopCopyDataInit>:
 8000c38:	18c4      	adds	r4, r0, r3
 8000c3a:	428c      	cmp	r4, r1
 8000c3c:	d3f9      	bcc.n	8000c32 <CopyDataInit>
 8000c3e:	4a0a      	ldr	r2, [pc, #40]	; (8000c68 <LoopForever+0x12>)
 8000c40:	4c0a      	ldr	r4, [pc, #40]	; (8000c6c <LoopForever+0x16>)
 8000c42:	2300      	movs	r3, #0
 8000c44:	e001      	b.n	8000c4a <LoopFillZerobss>

08000c46 <FillZerobss>:
 8000c46:	6013      	str	r3, [r2, #0]
 8000c48:	3204      	adds	r2, #4

08000c4a <LoopFillZerobss>:
 8000c4a:	42a2      	cmp	r2, r4
 8000c4c:	d3fb      	bcc.n	8000c46 <FillZerobss>
 8000c4e:	f002 f86f 	bl	8002d30 <__libc_init_array>
 8000c52:	f7ff fe1d 	bl	8000890 <main>

08000c56 <LoopForever>:
 8000c56:	e7fe      	b.n	8000c56 <LoopForever>
 8000c58:	20024000 	.word	0x20024000
 8000c5c:	20000000 	.word	0x20000000
 8000c60:	2000000c 	.word	0x2000000c
 8000c64:	08002e48 	.word	0x08002e48
 8000c68:	2000000c 	.word	0x2000000c
 8000c6c:	20000268 	.word	0x20000268

08000c70 <ADC1_COMP_IRQHandler>:
 8000c70:	e7fe      	b.n	8000c70 <ADC1_COMP_IRQHandler>
	...

08000c74 <LED1202_RegisterBusIO>:
 8000c74:	b510      	push	{r4, lr}
 8000c76:	2800      	cmp	r0, #0
 8000c78:	d017      	beq.n	8000caa <LED1202_RegisterBusIO+0x36>
 8000c7a:	680b      	ldr	r3, [r1, #0]
 8000c7c:	6003      	str	r3, [r0, #0]
 8000c7e:	790b      	ldrb	r3, [r1, #4]
 8000c80:	7103      	strb	r3, [r0, #4]
 8000c82:	68ca      	ldr	r2, [r1, #12]
 8000c84:	688b      	ldr	r3, [r1, #8]
 8000c86:	60c2      	str	r2, [r0, #12]
 8000c88:	690a      	ldr	r2, [r1, #16]
 8000c8a:	6083      	str	r3, [r0, #8]
 8000c8c:	6102      	str	r2, [r0, #16]
 8000c8e:	694a      	ldr	r2, [r1, #20]
 8000c90:	6142      	str	r2, [r0, #20]
 8000c92:	698a      	ldr	r2, [r1, #24]
 8000c94:	6240      	str	r0, [r0, #36]	; 0x24
 8000c96:	6182      	str	r2, [r0, #24]
 8000c98:	4a05      	ldr	r2, [pc, #20]	; (8000cb0 <LED1202_RegisterBusIO+0x3c>)
 8000c9a:	6202      	str	r2, [r0, #32]
 8000c9c:	4a05      	ldr	r2, [pc, #20]	; (8000cb4 <LED1202_RegisterBusIO+0x40>)
 8000c9e:	61c2      	str	r2, [r0, #28]
 8000ca0:	2b00      	cmp	r3, #0
 8000ca2:	d002      	beq.n	8000caa <LED1202_RegisterBusIO+0x36>
 8000ca4:	4798      	blx	r3
 8000ca6:	2800      	cmp	r0, #0
 8000ca8:	d000      	beq.n	8000cac <LED1202_RegisterBusIO+0x38>
 8000caa:	2003      	movs	r0, #3
 8000cac:	bd10      	pop	{r4, pc}
 8000cae:	46c0      	nop			; (mov r8, r8)
 8000cb0:	08000e2d 	.word	0x08000e2d
 8000cb4:	08000e39 	.word	0x08000e39

08000cb8 <LED1202_ReadID>:
 8000cb8:	0052      	lsls	r2, r2, #1
 8000cba:	b510      	push	{r4, lr}
 8000cbc:	2301      	movs	r3, #1
 8000cbe:	7102      	strb	r2, [r0, #4]
 8000cc0:	000c      	movs	r4, r1
 8000cc2:	000a      	movs	r2, r1
 8000cc4:	301c      	adds	r0, #28
 8000cc6:	2100      	movs	r1, #0
 8000cc8:	f000 f846 	bl	8000d58 <LED1202_ReadReg>
 8000ccc:	4b03      	ldr	r3, [pc, #12]	; (8000cdc <LED1202_ReadID+0x24>)
 8000cce:	6018      	str	r0, [r3, #0]
 8000cd0:	7823      	ldrb	r3, [r4, #0]
 8000cd2:	2000      	movs	r0, #0
 8000cd4:	2b12      	cmp	r3, #18
 8000cd6:	d000      	beq.n	8000cda <LED1202_ReadID+0x22>
 8000cd8:	3003      	adds	r0, #3
 8000cda:	bd10      	pop	{r4, pc}
 8000cdc:	20000234 	.word	0x20000234

08000ce0 <LED1202_SetChannelState>:
 8000ce0:	005b      	lsls	r3, r3, #1
 8000ce2:	b573      	push	{r0, r1, r4, r5, r6, lr}
 8000ce4:	7103      	strb	r3, [r0, #4]
 8000ce6:	2302      	movs	r3, #2
 8000ce8:	301c      	adds	r0, #28
 8000cea:	000e      	movs	r6, r1
 8000cec:	0015      	movs	r5, r2
 8000cee:	0019      	movs	r1, r3
 8000cf0:	466a      	mov	r2, sp
 8000cf2:	0004      	movs	r4, r0
 8000cf4:	f000 f830 	bl	8000d58 <LED1202_ReadReg>
 8000cf8:	466b      	mov	r3, sp
 8000cfa:	9001      	str	r0, [sp, #4]
 8000cfc:	8819      	ldrh	r1, [r3, #0]
 8000cfe:	2d00      	cmp	r5, #0
 8000d00:	d10b      	bne.n	8000d1a <LED1202_SetChannelState+0x3a>
 8000d02:	4331      	orrs	r1, r6
 8000d04:	8059      	strh	r1, [r3, #2]
 8000d06:	466a      	mov	r2, sp
 8000d08:	2302      	movs	r3, #2
 8000d0a:	0020      	movs	r0, r4
 8000d0c:	0019      	movs	r1, r3
 8000d0e:	18d2      	adds	r2, r2, r3
 8000d10:	f000 f828 	bl	8000d64 <LED1202_WriteReg>
 8000d14:	9001      	str	r0, [sp, #4]
 8000d16:	9801      	ldr	r0, [sp, #4]
 8000d18:	bd76      	pop	{r1, r2, r4, r5, r6, pc}
 8000d1a:	466b      	mov	r3, sp
 8000d1c:	43b1      	bics	r1, r6
 8000d1e:	e7f1      	b.n	8000d04 <LED1202_SetChannelState+0x24>

08000d20 <LED1202_WritePatternPWMConfig>:
 8000d20:	b570      	push	{r4, r5, r6, lr}
 8000d22:	000d      	movs	r5, r1
 8000d24:	0019      	movs	r1, r3
 8000d26:	ab04      	add	r3, sp, #16
 8000d28:	781b      	ldrb	r3, [r3, #0]
 8000d2a:	0004      	movs	r4, r0
 8000d2c:	005b      	lsls	r3, r3, #1
 8000d2e:	7103      	strb	r3, [r0, #4]
 8000d30:	2380      	movs	r3, #128	; 0x80
 8000d32:	882e      	ldrh	r6, [r5, #0]
 8000d34:	2000      	movs	r0, #0
 8000d36:	015b      	lsls	r3, r3, #5
 8000d38:	429e      	cmp	r6, r3
 8000d3a:	d20c      	bcs.n	8000d56 <LED1202_WritePatternPWMConfig+0x36>
 8000d3c:	230c      	movs	r3, #12
 8000d3e:	0020      	movs	r0, r4
 8000d40:	434b      	muls	r3, r1
 8000d42:	189b      	adds	r3, r3, r2
 8000d44:	005b      	lsls	r3, r3, #1
 8000d46:	331e      	adds	r3, #30
 8000d48:	b2db      	uxtb	r3, r3
 8000d4a:	b299      	uxth	r1, r3
 8000d4c:	002a      	movs	r2, r5
 8000d4e:	2302      	movs	r3, #2
 8000d50:	301c      	adds	r0, #28
 8000d52:	f000 f807 	bl	8000d64 <LED1202_WriteReg>
 8000d56:	bd70      	pop	{r4, r5, r6, pc}

08000d58 <LED1202_ReadReg>:
 8000d58:	b510      	push	{r4, lr}
 8000d5a:	b2c9      	uxtb	r1, r1
 8000d5c:	6844      	ldr	r4, [r0, #4]
 8000d5e:	6880      	ldr	r0, [r0, #8]
 8000d60:	47a0      	blx	r4
 8000d62:	bd10      	pop	{r4, pc}

08000d64 <LED1202_WriteReg>:
 8000d64:	b510      	push	{r4, lr}
 8000d66:	b2c9      	uxtb	r1, r1
 8000d68:	6804      	ldr	r4, [r0, #0]
 8000d6a:	6880      	ldr	r0, [r0, #8]
 8000d6c:	47a0      	blx	r4
 8000d6e:	bd10      	pop	{r4, pc}

08000d70 <BSP_I2C_Init>:
 8000d70:	b510      	push	{r4, lr}
 8000d72:	f7ff fd61 	bl	8000838 <MX_I2C1_Init>
 8000d76:	2000      	movs	r0, #0
 8000d78:	bd10      	pop	{r4, pc}
	...

08000d7c <BSP_I2C_DeInit>:
 8000d7c:	b510      	push	{r4, lr}
 8000d7e:	4802      	ldr	r0, [pc, #8]	; (8000d88 <BSP_I2C_DeInit+0xc>)
 8000d80:	f000 fc30 	bl	80015e4 <HAL_I2C_DeInit>
 8000d84:	bd10      	pop	{r4, pc}
 8000d86:	46c0      	nop			; (mov r8, r8)
 8000d88:	200000b4 	.word	0x200000b4

08000d8c <BSP_I2C_Write>:
 8000d8c:	b51f      	push	{r0, r1, r2, r3, r4, lr}
 8000d8e:	000c      	movs	r4, r1
 8000d90:	b2c1      	uxtb	r1, r0
 8000d92:	20fa      	movs	r0, #250	; 0xfa
 8000d94:	0080      	lsls	r0, r0, #2
 8000d96:	9002      	str	r0, [sp, #8]
 8000d98:	9301      	str	r3, [sp, #4]
 8000d9a:	9200      	str	r2, [sp, #0]
 8000d9c:	2301      	movs	r3, #1
 8000d9e:	0022      	movs	r2, r4
 8000da0:	4804      	ldr	r0, [pc, #16]	; (8000db4 <BSP_I2C_Write+0x28>)
 8000da2:	f000 fc39 	bl	8001618 <HAL_I2C_Mem_Write>
 8000da6:	2800      	cmp	r0, #0
 8000da8:	d001      	beq.n	8000dae <BSP_I2C_Write+0x22>
 8000daa:	2008      	movs	r0, #8
 8000dac:	4240      	negs	r0, r0
 8000dae:	b004      	add	sp, #16
 8000db0:	bd10      	pop	{r4, pc}
 8000db2:	46c0      	nop			; (mov r8, r8)
 8000db4:	200000b4 	.word	0x200000b4

08000db8 <BSP_I2C_Read>:
 8000db8:	b51f      	push	{r0, r1, r2, r3, r4, lr}
 8000dba:	24fa      	movs	r4, #250	; 0xfa
 8000dbc:	00a4      	lsls	r4, r4, #2
 8000dbe:	9301      	str	r3, [sp, #4]
 8000dc0:	9200      	str	r2, [sp, #0]
 8000dc2:	2301      	movs	r3, #1
 8000dc4:	000a      	movs	r2, r1
 8000dc6:	9402      	str	r4, [sp, #8]
 8000dc8:	0001      	movs	r1, r0
 8000dca:	4804      	ldr	r0, [pc, #16]	; (8000ddc <BSP_I2C_Read+0x24>)
 8000dcc:	f000 fd02 	bl	80017d4 <HAL_I2C_Mem_Read>
 8000dd0:	2800      	cmp	r0, #0
 8000dd2:	d001      	beq.n	8000dd8 <BSP_I2C_Read+0x20>
 8000dd4:	2008      	movs	r0, #8
 8000dd6:	4240      	negs	r0, r0
 8000dd8:	b004      	add	sp, #16
 8000dda:	bd10      	pop	{r4, pc}
 8000ddc:	200000b4 	.word	0x200000b4

08000de0 <LED12A1_Init>:
 8000de0:	2300      	movs	r3, #0
 8000de2:	b500      	push	{lr}
 8000de4:	b089      	sub	sp, #36	; 0x24
 8000de6:	a901      	add	r1, sp, #4
 8000de8:	9300      	str	r3, [sp, #0]
 8000dea:	9301      	str	r3, [sp, #4]
 8000dec:	335c      	adds	r3, #92	; 0x5c
 8000dee:	710b      	strb	r3, [r1, #4]
 8000df0:	4b08      	ldr	r3, [pc, #32]	; (8000e14 <LED12A1_Init+0x34>)
 8000df2:	4809      	ldr	r0, [pc, #36]	; (8000e18 <LED12A1_Init+0x38>)
 8000df4:	608b      	str	r3, [r1, #8]
 8000df6:	4b09      	ldr	r3, [pc, #36]	; (8000e1c <LED12A1_Init+0x3c>)
 8000df8:	60cb      	str	r3, [r1, #12]
 8000dfa:	4b09      	ldr	r3, [pc, #36]	; (8000e20 <LED12A1_Init+0x40>)
 8000dfc:	610b      	str	r3, [r1, #16]
 8000dfe:	4b09      	ldr	r3, [pc, #36]	; (8000e24 <LED12A1_Init+0x44>)
 8000e00:	614b      	str	r3, [r1, #20]
 8000e02:	4b09      	ldr	r3, [pc, #36]	; (8000e28 <LED12A1_Init+0x48>)
 8000e04:	618b      	str	r3, [r1, #24]
 8000e06:	f7ff ff35 	bl	8000c74 <LED1202_RegisterBusIO>
 8000e0a:	9000      	str	r0, [sp, #0]
 8000e0c:	9800      	ldr	r0, [sp, #0]
 8000e0e:	b009      	add	sp, #36	; 0x24
 8000e10:	bd00      	pop	{pc}
 8000e12:	46c0      	nop			; (mov r8, r8)
 8000e14:	08000d71 	.word	0x08000d71
 8000e18:	20000238 	.word	0x20000238
 8000e1c:	08000d7d 	.word	0x08000d7d
 8000e20:	08000d8d 	.word	0x08000d8d
 8000e24:	08000db9 	.word	0x08000db9
 8000e28:	08000fd1 	.word	0x08000fd1

08000e2c <ReadRegWrap>:
 8000e2c:	b510      	push	{r4, lr}
 8000e2e:	0004      	movs	r4, r0
 8000e30:	6964      	ldr	r4, [r4, #20]
 8000e32:	7900      	ldrb	r0, [r0, #4]
 8000e34:	47a0      	blx	r4
 8000e36:	bd10      	pop	{r4, pc}

08000e38 <WriteRegWrap>:
 8000e38:	b510      	push	{r4, lr}
 8000e3a:	0004      	movs	r4, r0
 8000e3c:	6924      	ldr	r4, [r4, #16]
 8000e3e:	7900      	ldrb	r0, [r0, #4]
 8000e40:	47a0      	blx	r4
 8000e42:	bd10      	pop	{r4, pc}

08000e44 <LED12A1_DeviceEnable>:
 8000e44:	2300      	movs	r3, #0
 8000e46:	b507      	push	{r0, r1, r2, lr}
 8000e48:	9301      	str	r3, [sp, #4]
 8000e4a:	466b      	mov	r3, sp
 8000e4c:	1cda      	adds	r2, r3, #3
 8000e4e:	2301      	movs	r3, #1
 8000e50:	7013      	strb	r3, [r2, #0]
 8000e52:	335b      	adds	r3, #91	; 0x5b
 8000e54:	2904      	cmp	r1, #4
 8000e56:	d801      	bhi.n	8000e5c <LED12A1_DeviceEnable+0x18>
 8000e58:	3158      	adds	r1, #88	; 0x58
 8000e5a:	b2cb      	uxtb	r3, r1
 8000e5c:	005b      	lsls	r3, r3, #1
 8000e5e:	7103      	strb	r3, [r0, #4]
 8000e60:	2301      	movs	r3, #1
 8000e62:	0019      	movs	r1, r3
 8000e64:	301c      	adds	r0, #28
 8000e66:	f7ff ff7d 	bl	8000d64 <LED1202_WriteReg>
 8000e6a:	9001      	str	r0, [sp, #4]
 8000e6c:	9801      	ldr	r0, [sp, #4]
 8000e6e:	bd0e      	pop	{r1, r2, r3, pc}

08000e70 <LED12A1_SetDeviceAddr>:
 8000e70:	2300      	movs	r3, #0
 8000e72:	b082      	sub	sp, #8
 8000e74:	9301      	str	r3, [sp, #4]
 8000e76:	335c      	adds	r3, #92	; 0x5c
 8000e78:	2904      	cmp	r1, #4
 8000e7a:	d801      	bhi.n	8000e80 <LED12A1_SetDeviceAddr+0x10>
 8000e7c:	3158      	adds	r1, #88	; 0x58
 8000e7e:	b2cb      	uxtb	r3, r1
 8000e80:	7103      	strb	r3, [r0, #4]
 8000e82:	9801      	ldr	r0, [sp, #4]
 8000e84:	b002      	add	sp, #8
 8000e86:	4770      	bx	lr

08000e88 <LED12A1_ScanAvailDevice>:
 8000e88:	b5f7      	push	{r0, r1, r2, r4, r5, r6, r7, lr}
 8000e8a:	0007      	movs	r7, r0
 8000e8c:	000d      	movs	r5, r1
 8000e8e:	2600      	movs	r6, #0
 8000e90:	2458      	movs	r4, #88	; 0x58
 8000e92:	466b      	mov	r3, sp
 8000e94:	1dd9      	adds	r1, r3, #7
 8000e96:	2300      	movs	r3, #0
 8000e98:	0022      	movs	r2, r4
 8000e9a:	0038      	movs	r0, r7
 8000e9c:	700b      	strb	r3, [r1, #0]
 8000e9e:	f7ff ff0b 	bl	8000cb8 <LED1202_ReadID>
 8000ea2:	2800      	cmp	r0, #0
 8000ea4:	d102      	bne.n	8000eac <LED12A1_ScanAvailDevice+0x24>
 8000ea6:	702c      	strb	r4, [r5, #0]
 8000ea8:	3601      	adds	r6, #1
 8000eaa:	3501      	adds	r5, #1
 8000eac:	3401      	adds	r4, #1
 8000eae:	b2e4      	uxtb	r4, r4
 8000eb0:	2c61      	cmp	r4, #97	; 0x61
 8000eb2:	d1ee      	bne.n	8000e92 <LED12A1_ScanAvailDevice+0xa>
 8000eb4:	0030      	movs	r0, r6
 8000eb6:	bdfe      	pop	{r1, r2, r3, r4, r5, r6, r7, pc}

08000eb8 <LED12A1_DigitalDimming>:
 8000eb8:	b5f0      	push	{r4, r5, r6, r7, lr}
 8000eba:	b085      	sub	sp, #20
 8000ebc:	001f      	movs	r7, r3
 8000ebe:	ab0a      	add	r3, sp, #40	; 0x28
 8000ec0:	000d      	movs	r5, r1
 8000ec2:	7819      	ldrb	r1, [r3, #0]
 8000ec4:	2300      	movs	r3, #0
 8000ec6:	0004      	movs	r4, r0
 8000ec8:	0016      	movs	r6, r2
 8000eca:	9303      	str	r3, [sp, #12]
 8000ecc:	f7ff ffd0 	bl	8000e70 <LED12A1_SetDeviceAddr>
 8000ed0:	7923      	ldrb	r3, [r4, #4]
 8000ed2:	9003      	str	r0, [sp, #12]
 8000ed4:	9300      	str	r3, [sp, #0]
 8000ed6:	0032      	movs	r2, r6
 8000ed8:	003b      	movs	r3, r7
 8000eda:	0029      	movs	r1, r5
 8000edc:	0020      	movs	r0, r4
 8000ede:	f7ff ff1f 	bl	8000d20 <LED1202_WritePatternPWMConfig>
 8000ee2:	9003      	str	r0, [sp, #12]
 8000ee4:	9803      	ldr	r0, [sp, #12]
 8000ee6:	b005      	add	sp, #20
 8000ee8:	bdf0      	pop	{r4, r5, r6, r7, pc}

08000eea <LED12A1_ChannelEnable>:
 8000eea:	b573      	push	{r0, r1, r4, r5, r6, lr}
 8000eec:	2600      	movs	r6, #0
 8000eee:	000d      	movs	r5, r1
 8000ef0:	0011      	movs	r1, r2
 8000ef2:	0004      	movs	r4, r0
 8000ef4:	9601      	str	r6, [sp, #4]
 8000ef6:	f7ff ffbb 	bl	8000e70 <LED12A1_SetDeviceAddr>
 8000efa:	0032      	movs	r2, r6
 8000efc:	0029      	movs	r1, r5
 8000efe:	9001      	str	r0, [sp, #4]
 8000f00:	7923      	ldrb	r3, [r4, #4]
 8000f02:	0020      	movs	r0, r4
 8000f04:	f7ff feec 	bl	8000ce0 <LED1202_SetChannelState>
 8000f08:	9001      	str	r0, [sp, #4]
 8000f0a:	9801      	ldr	r0, [sp, #4]
 8000f0c:	bd76      	pop	{r1, r2, r4, r5, r6, pc}

08000f0e <LED12A1_ChannelDisable>:
 8000f0e:	2300      	movs	r3, #0
 8000f10:	b537      	push	{r0, r1, r2, r4, r5, lr}
 8000f12:	000d      	movs	r5, r1
 8000f14:	0011      	movs	r1, r2
 8000f16:	0004      	movs	r4, r0
 8000f18:	9301      	str	r3, [sp, #4]
 8000f1a:	f7ff ffa9 	bl	8000e70 <LED12A1_SetDeviceAddr>
 8000f1e:	0029      	movs	r1, r5
 8000f20:	9001      	str	r0, [sp, #4]
 8000f22:	2201      	movs	r2, #1
 8000f24:	0020      	movs	r0, r4
 8000f26:	7923      	ldrb	r3, [r4, #4]
 8000f28:	f7ff feda 	bl	8000ce0 <LED1202_SetChannelState>
 8000f2c:	9001      	str	r0, [sp, #4]
 8000f2e:	9801      	ldr	r0, [sp, #4]
 8000f30:	bd3e      	pop	{r1, r2, r3, r4, r5, pc}
	...

08000f34 <HAL_InitTick>:
 8000f34:	b570      	push	{r4, r5, r6, lr}
 8000f36:	4b10      	ldr	r3, [pc, #64]	; (8000f78 <HAL_InitTick+0x44>)
 8000f38:	0005      	movs	r5, r0
 8000f3a:	7819      	ldrb	r1, [r3, #0]
 8000f3c:	2900      	cmp	r1, #0
 8000f3e:	d101      	bne.n	8000f44 <HAL_InitTick+0x10>
 8000f40:	2001      	movs	r0, #1
 8000f42:	bd70      	pop	{r4, r5, r6, pc}
 8000f44:	20fa      	movs	r0, #250	; 0xfa
 8000f46:	0080      	lsls	r0, r0, #2
 8000f48:	f7ff f8f0 	bl	800012c <__udivsi3>
 8000f4c:	4b0b      	ldr	r3, [pc, #44]	; (8000f7c <HAL_InitTick+0x48>)
 8000f4e:	0001      	movs	r1, r0
 8000f50:	6818      	ldr	r0, [r3, #0]
 8000f52:	f7ff f8eb 	bl	800012c <__udivsi3>
 8000f56:	f000 f877 	bl	8001048 <HAL_SYSTICK_Config>
 8000f5a:	1e04      	subs	r4, r0, #0
 8000f5c:	d1f0      	bne.n	8000f40 <HAL_InitTick+0xc>
 8000f5e:	2d03      	cmp	r5, #3
 8000f60:	d8ee      	bhi.n	8000f40 <HAL_InitTick+0xc>
 8000f62:	0002      	movs	r2, r0
 8000f64:	2001      	movs	r0, #1
 8000f66:	0029      	movs	r1, r5
 8000f68:	4240      	negs	r0, r0
 8000f6a:	f000 f843 	bl	8000ff4 <HAL_NVIC_SetPriority>
 8000f6e:	4b04      	ldr	r3, [pc, #16]	; (8000f80 <HAL_InitTick+0x4c>)
 8000f70:	0020      	movs	r0, r4
 8000f72:	601d      	str	r5, [r3, #0]
 8000f74:	e7e5      	b.n	8000f42 <HAL_InitTick+0xe>
 8000f76:	46c0      	nop			; (mov r8, r8)
 8000f78:	20000004 	.word	0x20000004
 8000f7c:	20000000 	.word	0x20000000
 8000f80:	20000008 	.word	0x20000008

08000f84 <HAL_Init>:
 8000f84:	2380      	movs	r3, #128	; 0x80
 8000f86:	4a08      	ldr	r2, [pc, #32]	; (8000fa8 <HAL_Init+0x24>)
 8000f88:	005b      	lsls	r3, r3, #1
 8000f8a:	6811      	ldr	r1, [r2, #0]
 8000f8c:	b510      	push	{r4, lr}
 8000f8e:	430b      	orrs	r3, r1
 8000f90:	2000      	movs	r0, #0
 8000f92:	6013      	str	r3, [r2, #0]
 8000f94:	f7ff ffce 	bl	8000f34 <HAL_InitTick>
 8000f98:	1e04      	subs	r4, r0, #0
 8000f9a:	d103      	bne.n	8000fa4 <HAL_Init+0x20>
 8000f9c:	f7ff fd5c 	bl	8000a58 <HAL_MspInit>
 8000fa0:	0020      	movs	r0, r4
 8000fa2:	bd10      	pop	{r4, pc}
 8000fa4:	2401      	movs	r4, #1
 8000fa6:	e7fb      	b.n	8000fa0 <HAL_Init+0x1c>
 8000fa8:	40022000 	.word	0x40022000

08000fac <HAL_IncTick>:
 8000fac:	4a03      	ldr	r2, [pc, #12]	; (8000fbc <HAL_IncTick+0x10>)
 8000fae:	4b04      	ldr	r3, [pc, #16]	; (8000fc0 <HAL_IncTick+0x14>)
 8000fb0:	6811      	ldr	r1, [r2, #0]
 8000fb2:	781b      	ldrb	r3, [r3, #0]
 8000fb4:	185b      	adds	r3, r3, r1
 8000fb6:	6013      	str	r3, [r2, #0]
 8000fb8:	4770      	bx	lr
 8000fba:	46c0      	nop			; (mov r8, r8)
 8000fbc:	20000264 	.word	0x20000264
 8000fc0:	20000004 	.word	0x20000004

08000fc4 <HAL_GetTick>:
 8000fc4:	4b01      	ldr	r3, [pc, #4]	; (8000fcc <HAL_GetTick+0x8>)
 8000fc6:	6818      	ldr	r0, [r3, #0]
 8000fc8:	4770      	bx	lr
 8000fca:	46c0      	nop			; (mov r8, r8)
 8000fcc:	20000264 	.word	0x20000264

08000fd0 <HAL_Delay>:
 8000fd0:	b570      	push	{r4, r5, r6, lr}
 8000fd2:	0004      	movs	r4, r0
 8000fd4:	f7ff fff6 	bl	8000fc4 <HAL_GetTick>
 8000fd8:	0005      	movs	r5, r0
 8000fda:	1c63      	adds	r3, r4, #1
 8000fdc:	d002      	beq.n	8000fe4 <HAL_Delay+0x14>
 8000fde:	4b04      	ldr	r3, [pc, #16]	; (8000ff0 <HAL_Delay+0x20>)
 8000fe0:	781b      	ldrb	r3, [r3, #0]
 8000fe2:	18e4      	adds	r4, r4, r3
 8000fe4:	f7ff ffee 	bl	8000fc4 <HAL_GetTick>
 8000fe8:	1b40      	subs	r0, r0, r5
 8000fea:	42a0      	cmp	r0, r4
 8000fec:	d3fa      	bcc.n	8000fe4 <HAL_Delay+0x14>
 8000fee:	bd70      	pop	{r4, r5, r6, pc}
 8000ff0:	20000004 	.word	0x20000004

08000ff4 <HAL_NVIC_SetPriority>:
 8000ff4:	b530      	push	{r4, r5, lr}
 8000ff6:	25ff      	movs	r5, #255	; 0xff
 8000ff8:	2403      	movs	r4, #3
 8000ffa:	002a      	movs	r2, r5
 8000ffc:	4004      	ands	r4, r0
 8000ffe:	00e4      	lsls	r4, r4, #3
 8001000:	40a2      	lsls	r2, r4
 8001002:	0189      	lsls	r1, r1, #6
 8001004:	4029      	ands	r1, r5
 8001006:	43d2      	mvns	r2, r2
 8001008:	40a1      	lsls	r1, r4
 800100a:	b2c3      	uxtb	r3, r0
 800100c:	2800      	cmp	r0, #0
 800100e:	db0a      	blt.n	8001026 <HAL_NVIC_SetPriority+0x32>
 8001010:	24c0      	movs	r4, #192	; 0xc0
 8001012:	4b0b      	ldr	r3, [pc, #44]	; (8001040 <HAL_NVIC_SetPriority+0x4c>)
 8001014:	0880      	lsrs	r0, r0, #2
 8001016:	0080      	lsls	r0, r0, #2
 8001018:	18c0      	adds	r0, r0, r3
 800101a:	00a4      	lsls	r4, r4, #2
 800101c:	5903      	ldr	r3, [r0, r4]
 800101e:	401a      	ands	r2, r3
 8001020:	4311      	orrs	r1, r2
 8001022:	5101      	str	r1, [r0, r4]
 8001024:	bd30      	pop	{r4, r5, pc}
 8001026:	200f      	movs	r0, #15
 8001028:	4003      	ands	r3, r0
 800102a:	3b08      	subs	r3, #8
 800102c:	4805      	ldr	r0, [pc, #20]	; (8001044 <HAL_NVIC_SetPriority+0x50>)
 800102e:	089b      	lsrs	r3, r3, #2
 8001030:	009b      	lsls	r3, r3, #2
 8001032:	181b      	adds	r3, r3, r0
 8001034:	69d8      	ldr	r0, [r3, #28]
 8001036:	4002      	ands	r2, r0
 8001038:	4311      	orrs	r1, r2
 800103a:	61d9      	str	r1, [r3, #28]
 800103c:	e7f2      	b.n	8001024 <HAL_NVIC_SetPriority+0x30>
 800103e:	46c0      	nop			; (mov r8, r8)
 8001040:	e000e100 	.word	0xe000e100
 8001044:	e000ed00 	.word	0xe000ed00

08001048 <HAL_SYSTICK_Config>:
 8001048:	2280      	movs	r2, #128	; 0x80
 800104a:	1e43      	subs	r3, r0, #1
 800104c:	0452      	lsls	r2, r2, #17
 800104e:	2001      	movs	r0, #1
 8001050:	4293      	cmp	r3, r2
 8001052:	d20d      	bcs.n	8001070 <HAL_SYSTICK_Config+0x28>
 8001054:	21c0      	movs	r1, #192	; 0xc0
 8001056:	4a07      	ldr	r2, [pc, #28]	; (8001074 <HAL_SYSTICK_Config+0x2c>)
 8001058:	4807      	ldr	r0, [pc, #28]	; (8001078 <HAL_SYSTICK_Config+0x30>)
 800105a:	6053      	str	r3, [r2, #4]
 800105c:	6a03      	ldr	r3, [r0, #32]
 800105e:	0609      	lsls	r1, r1, #24
 8001060:	021b      	lsls	r3, r3, #8
 8001062:	0a1b      	lsrs	r3, r3, #8
 8001064:	430b      	orrs	r3, r1
 8001066:	6203      	str	r3, [r0, #32]
 8001068:	2000      	movs	r0, #0
 800106a:	2307      	movs	r3, #7
 800106c:	6090      	str	r0, [r2, #8]
 800106e:	6013      	str	r3, [r2, #0]
 8001070:	4770      	bx	lr
 8001072:	46c0      	nop			; (mov r8, r8)
 8001074:	e000e010 	.word	0xe000e010
 8001078:	e000ed00 	.word	0xe000ed00

0800107c <HAL_GPIO_Init>:
 800107c:	4a54      	ldr	r2, [pc, #336]	; (80011d0 <HAL_GPIO_Init+0x154>)
 800107e:	b5f0      	push	{r4, r5, r6, r7, lr}
 8001080:	1882      	adds	r2, r0, r2
 8001082:	1e54      	subs	r4, r2, #1
 8001084:	41a2      	sbcs	r2, r4
 8001086:	2300      	movs	r3, #0
 8001088:	b087      	sub	sp, #28
 800108a:	3204      	adds	r2, #4
 800108c:	9205      	str	r2, [sp, #20]
 800108e:	680a      	ldr	r2, [r1, #0]
 8001090:	0014      	movs	r4, r2
 8001092:	40dc      	lsrs	r4, r3
 8001094:	d101      	bne.n	800109a <HAL_GPIO_Init+0x1e>
 8001096:	b007      	add	sp, #28
 8001098:	bdf0      	pop	{r4, r5, r6, r7, pc}
 800109a:	2401      	movs	r4, #1
 800109c:	0025      	movs	r5, r4
 800109e:	46a4      	mov	ip, r4
 80010a0:	409d      	lsls	r5, r3
 80010a2:	0014      	movs	r4, r2
 80010a4:	402c      	ands	r4, r5
 80010a6:	9402      	str	r4, [sp, #8]
 80010a8:	422a      	tst	r2, r5
 80010aa:	d100      	bne.n	80010ae <HAL_GPIO_Init+0x32>
 80010ac:	e08e      	b.n	80011cc <HAL_GPIO_Init+0x150>
 80010ae:	2403      	movs	r4, #3
 80010b0:	684a      	ldr	r2, [r1, #4]
 80010b2:	005e      	lsls	r6, r3, #1
 80010b4:	9201      	str	r2, [sp, #4]
 80010b6:	4022      	ands	r2, r4
 80010b8:	40b4      	lsls	r4, r6
 80010ba:	43e4      	mvns	r4, r4
 80010bc:	9403      	str	r4, [sp, #12]
 80010be:	1e54      	subs	r4, r2, #1
 80010c0:	4564      	cmp	r4, ip
 80010c2:	d82a      	bhi.n	800111a <HAL_GPIO_Init+0x9e>
 80010c4:	6887      	ldr	r7, [r0, #8]
 80010c6:	9c03      	ldr	r4, [sp, #12]
 80010c8:	4027      	ands	r7, r4
 80010ca:	68cc      	ldr	r4, [r1, #12]
 80010cc:	40b4      	lsls	r4, r6
 80010ce:	433c      	orrs	r4, r7
 80010d0:	4667      	mov	r7, ip
 80010d2:	6084      	str	r4, [r0, #8]
 80010d4:	6844      	ldr	r4, [r0, #4]
 80010d6:	43ac      	bics	r4, r5
 80010d8:	0025      	movs	r5, r4
 80010da:	9c01      	ldr	r4, [sp, #4]
 80010dc:	0924      	lsrs	r4, r4, #4
 80010de:	403c      	ands	r4, r7
 80010e0:	409c      	lsls	r4, r3
 80010e2:	432c      	orrs	r4, r5
 80010e4:	6044      	str	r4, [r0, #4]
 80010e6:	68c5      	ldr	r5, [r0, #12]
 80010e8:	9c03      	ldr	r4, [sp, #12]
 80010ea:	4025      	ands	r5, r4
 80010ec:	688c      	ldr	r4, [r1, #8]
 80010ee:	40b4      	lsls	r4, r6
 80010f0:	432c      	orrs	r4, r5
 80010f2:	60c4      	str	r4, [r0, #12]
 80010f4:	2a02      	cmp	r2, #2
 80010f6:	d112      	bne.n	800111e <HAL_GPIO_Init+0xa2>
 80010f8:	08dc      	lsrs	r4, r3, #3
 80010fa:	2507      	movs	r5, #7
 80010fc:	00a4      	lsls	r4, r4, #2
 80010fe:	1904      	adds	r4, r0, r4
 8001100:	6a27      	ldr	r7, [r4, #32]
 8001102:	9404      	str	r4, [sp, #16]
 8001104:	240f      	movs	r4, #15
 8001106:	401d      	ands	r5, r3
 8001108:	00ad      	lsls	r5, r5, #2
 800110a:	40ac      	lsls	r4, r5
 800110c:	43a7      	bics	r7, r4
 800110e:	690c      	ldr	r4, [r1, #16]
 8001110:	40ac      	lsls	r4, r5
 8001112:	4327      	orrs	r7, r4
 8001114:	9c04      	ldr	r4, [sp, #16]
 8001116:	6227      	str	r7, [r4, #32]
 8001118:	e001      	b.n	800111e <HAL_GPIO_Init+0xa2>
 800111a:	2a03      	cmp	r2, #3
 800111c:	d1e3      	bne.n	80010e6 <HAL_GPIO_Init+0x6a>
 800111e:	40b2      	lsls	r2, r6
 8001120:	6804      	ldr	r4, [r0, #0]
 8001122:	9d03      	ldr	r5, [sp, #12]
 8001124:	4025      	ands	r5, r4
 8001126:	432a      	orrs	r2, r5
 8001128:	6002      	str	r2, [r0, #0]
 800112a:	22c0      	movs	r2, #192	; 0xc0
 800112c:	9c01      	ldr	r4, [sp, #4]
 800112e:	0292      	lsls	r2, r2, #10
 8001130:	4214      	tst	r4, r2
 8001132:	d04b      	beq.n	80011cc <HAL_GPIO_Init+0x150>
 8001134:	2603      	movs	r6, #3
 8001136:	001d      	movs	r5, r3
 8001138:	4a26      	ldr	r2, [pc, #152]	; (80011d4 <HAL_GPIO_Init+0x158>)
 800113a:	089c      	lsrs	r4, r3, #2
 800113c:	00a4      	lsls	r4, r4, #2
 800113e:	4035      	ands	r5, r6
 8001140:	18a4      	adds	r4, r4, r2
 8001142:	40b5      	lsls	r5, r6
 8001144:	220f      	movs	r2, #15
 8001146:	40aa      	lsls	r2, r5
 8001148:	6e27      	ldr	r7, [r4, #96]	; 0x60
 800114a:	4397      	bics	r7, r2
 800114c:	46bc      	mov	ip, r7
 800114e:	27a0      	movs	r7, #160	; 0xa0
 8001150:	2200      	movs	r2, #0
 8001152:	05ff      	lsls	r7, r7, #23
 8001154:	42b8      	cmp	r0, r7
 8001156:	d00c      	beq.n	8001172 <HAL_GPIO_Init+0xf6>
 8001158:	4f1f      	ldr	r7, [pc, #124]	; (80011d8 <HAL_GPIO_Init+0x15c>)
 800115a:	3201      	adds	r2, #1
 800115c:	42b8      	cmp	r0, r7
 800115e:	d008      	beq.n	8001172 <HAL_GPIO_Init+0xf6>
 8001160:	4f1e      	ldr	r7, [pc, #120]	; (80011dc <HAL_GPIO_Init+0x160>)
 8001162:	3201      	adds	r2, #1
 8001164:	42b8      	cmp	r0, r7
 8001166:	d004      	beq.n	8001172 <HAL_GPIO_Init+0xf6>
 8001168:	4f1d      	ldr	r7, [pc, #116]	; (80011e0 <HAL_GPIO_Init+0x164>)
 800116a:	0032      	movs	r2, r6
 800116c:	42b8      	cmp	r0, r7
 800116e:	d000      	beq.n	8001172 <HAL_GPIO_Init+0xf6>
 8001170:	9a05      	ldr	r2, [sp, #20]
 8001172:	40aa      	lsls	r2, r5
 8001174:	4665      	mov	r5, ip
 8001176:	432a      	orrs	r2, r5
 8001178:	6622      	str	r2, [r4, #96]	; 0x60
 800117a:	4c16      	ldr	r4, [pc, #88]	; (80011d4 <HAL_GPIO_Init+0x158>)
 800117c:	9a02      	ldr	r2, [sp, #8]
 800117e:	6826      	ldr	r6, [r4, #0]
 8001180:	9d02      	ldr	r5, [sp, #8]
 8001182:	9f01      	ldr	r7, [sp, #4]
 8001184:	43d2      	mvns	r2, r2
 8001186:	4335      	orrs	r5, r6
 8001188:	02ff      	lsls	r7, r7, #11
 800118a:	d401      	bmi.n	8001190 <HAL_GPIO_Init+0x114>
 800118c:	0035      	movs	r5, r6
 800118e:	4015      	ands	r5, r2
 8001190:	6025      	str	r5, [r4, #0]
 8001192:	6866      	ldr	r6, [r4, #4]
 8001194:	9d02      	ldr	r5, [sp, #8]
 8001196:	9f01      	ldr	r7, [sp, #4]
 8001198:	4335      	orrs	r5, r6
 800119a:	02bf      	lsls	r7, r7, #10
 800119c:	d401      	bmi.n	80011a2 <HAL_GPIO_Init+0x126>
 800119e:	0035      	movs	r5, r6
 80011a0:	4015      	ands	r5, r2
 80011a2:	6065      	str	r5, [r4, #4]
 80011a4:	4c0f      	ldr	r4, [pc, #60]	; (80011e4 <HAL_GPIO_Init+0x168>)
 80011a6:	9d02      	ldr	r5, [sp, #8]
 80011a8:	6fe6      	ldr	r6, [r4, #124]	; 0x7c
 80011aa:	9f01      	ldr	r7, [sp, #4]
 80011ac:	4335      	orrs	r5, r6
 80011ae:	03bf      	lsls	r7, r7, #14
 80011b0:	d401      	bmi.n	80011b6 <HAL_GPIO_Init+0x13a>
 80011b2:	0035      	movs	r5, r6
 80011b4:	4015      	ands	r5, r2
 80011b6:	67e5      	str	r5, [r4, #124]	; 0x7c
 80011b8:	4c0b      	ldr	r4, [pc, #44]	; (80011e8 <HAL_GPIO_Init+0x16c>)
 80011ba:	9e02      	ldr	r6, [sp, #8]
 80011bc:	6fe5      	ldr	r5, [r4, #124]	; 0x7c
 80011be:	9f01      	ldr	r7, [sp, #4]
 80011c0:	432e      	orrs	r6, r5
 80011c2:	03ff      	lsls	r7, r7, #15
 80011c4:	d401      	bmi.n	80011ca <HAL_GPIO_Init+0x14e>
 80011c6:	4015      	ands	r5, r2
 80011c8:	002e      	movs	r6, r5
 80011ca:	67e6      	str	r6, [r4, #124]	; 0x7c
 80011cc:	3301      	adds	r3, #1
 80011ce:	e75e      	b.n	800108e <HAL_GPIO_Init+0x12>
 80011d0:	affff000 	.word	0xaffff000
 80011d4:	40021800 	.word	0x40021800
 80011d8:	50000400 	.word	0x50000400
 80011dc:	50000800 	.word	0x50000800
 80011e0:	50000c00 	.word	0x50000c00
 80011e4:	40021808 	.word	0x40021808
 80011e8:	40021804 	.word	0x40021804

080011ec <HAL_GPIO_DeInit>:
 80011ec:	b5f0      	push	{r4, r5, r6, r7, lr}
 80011ee:	4a37      	ldr	r2, [pc, #220]	; (80012cc <HAL_GPIO_DeInit+0xe0>)
 80011f0:	b085      	sub	sp, #20
 80011f2:	1882      	adds	r2, r0, r2
 80011f4:	9101      	str	r1, [sp, #4]
 80011f6:	1e51      	subs	r1, r2, #1
 80011f8:	418a      	sbcs	r2, r1
 80011fa:	2300      	movs	r3, #0
 80011fc:	3204      	adds	r2, #4
 80011fe:	9203      	str	r2, [sp, #12]
 8001200:	9a01      	ldr	r2, [sp, #4]
 8001202:	40da      	lsrs	r2, r3
 8001204:	d101      	bne.n	800120a <HAL_GPIO_DeInit+0x1e>
 8001206:	b005      	add	sp, #20
 8001208:	bdf0      	pop	{r4, r5, r6, r7, pc}
 800120a:	2701      	movs	r7, #1
 800120c:	003a      	movs	r2, r7
 800120e:	409a      	lsls	r2, r3
 8001210:	9c01      	ldr	r4, [sp, #4]
 8001212:	9200      	str	r2, [sp, #0]
 8001214:	4014      	ands	r4, r2
 8001216:	9900      	ldr	r1, [sp, #0]
 8001218:	9a01      	ldr	r2, [sp, #4]
 800121a:	420a      	tst	r2, r1
 800121c:	d053      	beq.n	80012c6 <HAL_GPIO_DeInit+0xda>
 800121e:	492c      	ldr	r1, [pc, #176]	; (80012d0 <HAL_GPIO_DeInit+0xe4>)
 8001220:	089a      	lsrs	r2, r3, #2
 8001222:	0092      	lsls	r2, r2, #2
 8001224:	1852      	adds	r2, r2, r1
 8001226:	6e11      	ldr	r1, [r2, #96]	; 0x60
 8001228:	001d      	movs	r5, r3
 800122a:	000e      	movs	r6, r1
 800122c:	2103      	movs	r1, #3
 800122e:	400d      	ands	r5, r1
 8001230:	408d      	lsls	r5, r1
 8001232:	310c      	adds	r1, #12
 8001234:	40a9      	lsls	r1, r5
 8001236:	9102      	str	r1, [sp, #8]
 8001238:	4031      	ands	r1, r6
 800123a:	000e      	movs	r6, r1
 800123c:	21a0      	movs	r1, #160	; 0xa0
 800123e:	05c9      	lsls	r1, r1, #23
 8001240:	468c      	mov	ip, r1
 8001242:	2100      	movs	r1, #0
 8001244:	4560      	cmp	r0, ip
 8001246:	d00d      	beq.n	8001264 <HAL_GPIO_DeInit+0x78>
 8001248:	4922      	ldr	r1, [pc, #136]	; (80012d4 <HAL_GPIO_DeInit+0xe8>)
 800124a:	468c      	mov	ip, r1
 800124c:	0039      	movs	r1, r7
 800124e:	4560      	cmp	r0, ip
 8001250:	d008      	beq.n	8001264 <HAL_GPIO_DeInit+0x78>
 8001252:	4f21      	ldr	r7, [pc, #132]	; (80012d8 <HAL_GPIO_DeInit+0xec>)
 8001254:	1849      	adds	r1, r1, r1
 8001256:	42b8      	cmp	r0, r7
 8001258:	d004      	beq.n	8001264 <HAL_GPIO_DeInit+0x78>
 800125a:	4f20      	ldr	r7, [pc, #128]	; (80012dc <HAL_GPIO_DeInit+0xf0>)
 800125c:	3101      	adds	r1, #1
 800125e:	42b8      	cmp	r0, r7
 8001260:	d000      	beq.n	8001264 <HAL_GPIO_DeInit+0x78>
 8001262:	9903      	ldr	r1, [sp, #12]
 8001264:	40a9      	lsls	r1, r5
 8001266:	42b1      	cmp	r1, r6
 8001268:	d112      	bne.n	8001290 <HAL_GPIO_DeInit+0xa4>
 800126a:	4e1d      	ldr	r6, [pc, #116]	; (80012e0 <HAL_GPIO_DeInit+0xf4>)
 800126c:	4918      	ldr	r1, [pc, #96]	; (80012d0 <HAL_GPIO_DeInit+0xe4>)
 800126e:	6ff5      	ldr	r5, [r6, #124]	; 0x7c
 8001270:	43a5      	bics	r5, r4
 8001272:	67f5      	str	r5, [r6, #124]	; 0x7c
 8001274:	4e1b      	ldr	r6, [pc, #108]	; (80012e4 <HAL_GPIO_DeInit+0xf8>)
 8001276:	6ff5      	ldr	r5, [r6, #124]	; 0x7c
 8001278:	43a5      	bics	r5, r4
 800127a:	67f5      	str	r5, [r6, #124]	; 0x7c
 800127c:	684d      	ldr	r5, [r1, #4]
 800127e:	43a5      	bics	r5, r4
 8001280:	604d      	str	r5, [r1, #4]
 8001282:	680d      	ldr	r5, [r1, #0]
 8001284:	43a5      	bics	r5, r4
 8001286:	600d      	str	r5, [r1, #0]
 8001288:	6e11      	ldr	r1, [r2, #96]	; 0x60
 800128a:	9c02      	ldr	r4, [sp, #8]
 800128c:	43a1      	bics	r1, r4
 800128e:	6611      	str	r1, [r2, #96]	; 0x60
 8001290:	2103      	movs	r1, #3
 8001292:	005c      	lsls	r4, r3, #1
 8001294:	40a1      	lsls	r1, r4
 8001296:	2407      	movs	r4, #7
 8001298:	260f      	movs	r6, #15
 800129a:	401c      	ands	r4, r3
 800129c:	00a4      	lsls	r4, r4, #2
 800129e:	40a6      	lsls	r6, r4
 80012a0:	6802      	ldr	r2, [r0, #0]
 80012a2:	9c00      	ldr	r4, [sp, #0]
 80012a4:	430a      	orrs	r2, r1
 80012a6:	6002      	str	r2, [r0, #0]
 80012a8:	08da      	lsrs	r2, r3, #3
 80012aa:	0092      	lsls	r2, r2, #2
 80012ac:	1882      	adds	r2, r0, r2
 80012ae:	6a15      	ldr	r5, [r2, #32]
 80012b0:	43b5      	bics	r5, r6
 80012b2:	6215      	str	r5, [r2, #32]
 80012b4:	6882      	ldr	r2, [r0, #8]
 80012b6:	438a      	bics	r2, r1
 80012b8:	6082      	str	r2, [r0, #8]
 80012ba:	6842      	ldr	r2, [r0, #4]
 80012bc:	43a2      	bics	r2, r4
 80012be:	6042      	str	r2, [r0, #4]
 80012c0:	68c2      	ldr	r2, [r0, #12]
 80012c2:	438a      	bics	r2, r1
 80012c4:	60c2      	str	r2, [r0, #12]
 80012c6:	3301      	adds	r3, #1
 80012c8:	e79a      	b.n	8001200 <HAL_GPIO_DeInit+0x14>
 80012ca:	46c0      	nop			; (mov r8, r8)
 80012cc:	affff000 	.word	0xaffff000
 80012d0:	40021800 	.word	0x40021800
 80012d4:	50000400 	.word	0x50000400
 80012d8:	50000800 	.word	0x50000800
 80012dc:	50000c00 	.word	0x50000c00
 80012e0:	40021804 	.word	0x40021804
 80012e4:	40021808 	.word	0x40021808

080012e8 <HAL_GPIO_WritePin>:
 80012e8:	2a00      	cmp	r2, #0
 80012ea:	d001      	beq.n	80012f0 <HAL_GPIO_WritePin+0x8>
 80012ec:	6181      	str	r1, [r0, #24]
 80012ee:	4770      	bx	lr
 80012f0:	6281      	str	r1, [r0, #40]	; 0x28
 80012f2:	e7fc      	b.n	80012ee <HAL_GPIO_WritePin+0x6>

080012f4 <I2C_Flush_TXDR>:
 80012f4:	6803      	ldr	r3, [r0, #0]
 80012f6:	699a      	ldr	r2, [r3, #24]
 80012f8:	0792      	lsls	r2, r2, #30
 80012fa:	d501      	bpl.n	8001300 <I2C_Flush_TXDR+0xc>
 80012fc:	2200      	movs	r2, #0
 80012fe:	629a      	str	r2, [r3, #40]	; 0x28
 8001300:	2201      	movs	r2, #1
 8001302:	6999      	ldr	r1, [r3, #24]
 8001304:	4211      	tst	r1, r2
 8001306:	d102      	bne.n	800130e <I2C_Flush_TXDR+0x1a>
 8001308:	6999      	ldr	r1, [r3, #24]
 800130a:	430a      	orrs	r2, r1
 800130c:	619a      	str	r2, [r3, #24]
 800130e:	4770      	bx	lr

08001310 <I2C_TransferConfig>:
 8001310:	b530      	push	{r4, r5, lr}
 8001312:	9c03      	ldr	r4, [sp, #12]
 8001314:	6800      	ldr	r0, [r0, #0]
 8001316:	4323      	orrs	r3, r4
 8001318:	0412      	lsls	r2, r2, #16
 800131a:	0589      	lsls	r1, r1, #22
 800131c:	431a      	orrs	r2, r3
 800131e:	0d89      	lsrs	r1, r1, #22
 8001320:	4b05      	ldr	r3, [pc, #20]	; (8001338 <I2C_TransferConfig+0x28>)
 8001322:	6845      	ldr	r5, [r0, #4]
 8001324:	430a      	orrs	r2, r1
 8001326:	0d64      	lsrs	r4, r4, #21
 8001328:	431c      	orrs	r4, r3
 800132a:	0052      	lsls	r2, r2, #1
 800132c:	43a5      	bics	r5, r4
 800132e:	0852      	lsrs	r2, r2, #1
 8001330:	432a      	orrs	r2, r5
 8001332:	6042      	str	r2, [r0, #4]
 8001334:	bd30      	pop	{r4, r5, pc}
 8001336:	46c0      	nop			; (mov r8, r8)
 8001338:	03ff63ff 	.word	0x03ff63ff

0800133c <I2C_IsErrorOccurred>:
 800133c:	b5f7      	push	{r0, r1, r2, r4, r5, r6, r7, lr}
 800133e:	0015      	movs	r5, r2
 8001340:	6802      	ldr	r2, [r0, #0]
 8001342:	000e      	movs	r6, r1
 8001344:	6991      	ldr	r1, [r2, #24]
 8001346:	2310      	movs	r3, #16
 8001348:	000f      	movs	r7, r1
 800134a:	0004      	movs	r4, r0
 800134c:	401f      	ands	r7, r3
 800134e:	2000      	movs	r0, #0
 8001350:	4219      	tst	r1, r3
 8001352:	d00e      	beq.n	8001372 <I2C_IsErrorOccurred+0x36>
 8001354:	2720      	movs	r7, #32
 8001356:	61d3      	str	r3, [r2, #28]
 8001358:	9000      	str	r0, [sp, #0]
 800135a:	9001      	str	r0, [sp, #4]
 800135c:	6823      	ldr	r3, [r4, #0]
 800135e:	699a      	ldr	r2, [r3, #24]
 8001360:	423a      	tst	r2, r7
 8001362:	d164      	bne.n	800142e <I2C_IsErrorOccurred+0xf2>
 8001364:	9a01      	ldr	r2, [sp, #4]
 8001366:	2a00      	cmp	r2, #0
 8001368:	d032      	beq.n	80013d0 <I2C_IsErrorOccurred+0x94>
 800136a:	2704      	movs	r7, #4
 800136c:	2001      	movs	r0, #1
 800136e:	9b00      	ldr	r3, [sp, #0]
 8001370:	431f      	orrs	r7, r3
 8001372:	2180      	movs	r1, #128	; 0x80
 8001374:	6823      	ldr	r3, [r4, #0]
 8001376:	0049      	lsls	r1, r1, #1
 8001378:	699a      	ldr	r2, [r3, #24]
 800137a:	420a      	tst	r2, r1
 800137c:	d002      	beq.n	8001384 <I2C_IsErrorOccurred+0x48>
 800137e:	2001      	movs	r0, #1
 8001380:	61d9      	str	r1, [r3, #28]
 8001382:	4307      	orrs	r7, r0
 8001384:	2180      	movs	r1, #128	; 0x80
 8001386:	00c9      	lsls	r1, r1, #3
 8001388:	420a      	tst	r2, r1
 800138a:	d003      	beq.n	8001394 <I2C_IsErrorOccurred+0x58>
 800138c:	2008      	movs	r0, #8
 800138e:	61d9      	str	r1, [r3, #28]
 8001390:	4307      	orrs	r7, r0
 8001392:	3807      	subs	r0, #7
 8001394:	2180      	movs	r1, #128	; 0x80
 8001396:	0089      	lsls	r1, r1, #2
 8001398:	420a      	tst	r2, r1
 800139a:	d04d      	beq.n	8001438 <I2C_IsErrorOccurred+0xfc>
 800139c:	2202      	movs	r2, #2
 800139e:	61d9      	str	r1, [r3, #28]
 80013a0:	4317      	orrs	r7, r2
 80013a2:	0020      	movs	r0, r4
 80013a4:	f7ff ffa6 	bl	80012f4 <I2C_Flush_TXDR>
 80013a8:	6822      	ldr	r2, [r4, #0]
 80013aa:	4925      	ldr	r1, [pc, #148]	; (8001440 <I2C_IsErrorOccurred+0x104>)
 80013ac:	6853      	ldr	r3, [r2, #4]
 80013ae:	400b      	ands	r3, r1
 80013b0:	6053      	str	r3, [r2, #4]
 80013b2:	0023      	movs	r3, r4
 80013b4:	2220      	movs	r2, #32
 80013b6:	6c60      	ldr	r0, [r4, #68]	; 0x44
 80013b8:	3341      	adds	r3, #65	; 0x41
 80013ba:	4307      	orrs	r7, r0
 80013bc:	6467      	str	r7, [r4, #68]	; 0x44
 80013be:	701a      	strb	r2, [r3, #0]
 80013c0:	0022      	movs	r2, r4
 80013c2:	2300      	movs	r3, #0
 80013c4:	3242      	adds	r2, #66	; 0x42
 80013c6:	3440      	adds	r4, #64	; 0x40
 80013c8:	7013      	strb	r3, [r2, #0]
 80013ca:	2001      	movs	r0, #1
 80013cc:	7023      	strb	r3, [r4, #0]
 80013ce:	e035      	b.n	800143c <I2C_IsErrorOccurred+0x100>
 80013d0:	1c72      	adds	r2, r6, #1
 80013d2:	d0c4      	beq.n	800135e <I2C_IsErrorOccurred+0x22>
 80013d4:	f7ff fdf6 	bl	8000fc4 <HAL_GetTick>
 80013d8:	1b40      	subs	r0, r0, r5
 80013da:	42b0      	cmp	r0, r6
 80013dc:	d801      	bhi.n	80013e2 <I2C_IsErrorOccurred+0xa6>
 80013de:	2e00      	cmp	r6, #0
 80013e0:	d1bc      	bne.n	800135c <I2C_IsErrorOccurred+0x20>
 80013e2:	0022      	movs	r2, r4
 80013e4:	6823      	ldr	r3, [r4, #0]
 80013e6:	3242      	adds	r2, #66	; 0x42
 80013e8:	6858      	ldr	r0, [r3, #4]
 80013ea:	7811      	ldrb	r1, [r2, #0]
 80013ec:	b2ca      	uxtb	r2, r1
 80013ee:	2180      	movs	r1, #128	; 0x80
 80013f0:	4694      	mov	ip, r2
 80013f2:	699a      	ldr	r2, [r3, #24]
 80013f4:	0209      	lsls	r1, r1, #8
 80013f6:	420a      	tst	r2, r1
 80013f8:	d00c      	beq.n	8001414 <I2C_IsErrorOccurred+0xd8>
 80013fa:	2280      	movs	r2, #128	; 0x80
 80013fc:	01d2      	lsls	r2, r2, #7
 80013fe:	4210      	tst	r0, r2
 8001400:	d108      	bne.n	8001414 <I2C_IsErrorOccurred+0xd8>
 8001402:	4661      	mov	r1, ip
 8001404:	2920      	cmp	r1, #32
 8001406:	d005      	beq.n	8001414 <I2C_IsErrorOccurred+0xd8>
 8001408:	6859      	ldr	r1, [r3, #4]
 800140a:	430a      	orrs	r2, r1
 800140c:	605a      	str	r2, [r3, #4]
 800140e:	f7ff fdd9 	bl	8000fc4 <HAL_GetTick>
 8001412:	0005      	movs	r5, r0
 8001414:	6823      	ldr	r3, [r4, #0]
 8001416:	699b      	ldr	r3, [r3, #24]
 8001418:	423b      	tst	r3, r7
 800141a:	d19f      	bne.n	800135c <I2C_IsErrorOccurred+0x20>
 800141c:	f7ff fdd2 	bl	8000fc4 <HAL_GetTick>
 8001420:	1b40      	subs	r0, r0, r5
 8001422:	2819      	cmp	r0, #25
 8001424:	d9f6      	bls.n	8001414 <I2C_IsErrorOccurred+0xd8>
 8001426:	2301      	movs	r3, #1
 8001428:	9700      	str	r7, [sp, #0]
 800142a:	9301      	str	r3, [sp, #4]
 800142c:	e796      	b.n	800135c <I2C_IsErrorOccurred+0x20>
 800142e:	9a01      	ldr	r2, [sp, #4]
 8001430:	2a00      	cmp	r2, #0
 8001432:	d19a      	bne.n	800136a <I2C_IsErrorOccurred+0x2e>
 8001434:	61df      	str	r7, [r3, #28]
 8001436:	e798      	b.n	800136a <I2C_IsErrorOccurred+0x2e>
 8001438:	2800      	cmp	r0, #0
 800143a:	d1b2      	bne.n	80013a2 <I2C_IsErrorOccurred+0x66>
 800143c:	bdfe      	pop	{r1, r2, r3, r4, r5, r6, r7, pc}
 800143e:	46c0      	nop			; (mov r8, r8)
 8001440:	fe00e800 	.word	0xfe00e800

08001444 <I2C_WaitOnTXISFlagUntilTimeout>:
 8001444:	b5f8      	push	{r3, r4, r5, r6, r7, lr}
 8001446:	0004      	movs	r4, r0
 8001448:	000d      	movs	r5, r1
 800144a:	0016      	movs	r6, r2
 800144c:	2702      	movs	r7, #2
 800144e:	6823      	ldr	r3, [r4, #0]
 8001450:	699b      	ldr	r3, [r3, #24]
 8001452:	423b      	tst	r3, r7
 8001454:	d001      	beq.n	800145a <I2C_WaitOnTXISFlagUntilTimeout+0x16>
 8001456:	2000      	movs	r0, #0
 8001458:	bdf8      	pop	{r3, r4, r5, r6, r7, pc}
 800145a:	0032      	movs	r2, r6
 800145c:	0029      	movs	r1, r5
 800145e:	0020      	movs	r0, r4
 8001460:	f7ff ff6c 	bl	800133c <I2C_IsErrorOccurred>
 8001464:	2800      	cmp	r0, #0
 8001466:	d115      	bne.n	8001494 <I2C_WaitOnTXISFlagUntilTimeout+0x50>
 8001468:	1c6b      	adds	r3, r5, #1
 800146a:	d0f0      	beq.n	800144e <I2C_WaitOnTXISFlagUntilTimeout+0xa>
 800146c:	f7ff fdaa 	bl	8000fc4 <HAL_GetTick>
 8001470:	1b80      	subs	r0, r0, r6
 8001472:	42a8      	cmp	r0, r5
 8001474:	d801      	bhi.n	800147a <I2C_WaitOnTXISFlagUntilTimeout+0x36>
 8001476:	2d00      	cmp	r5, #0
 8001478:	d1e9      	bne.n	800144e <I2C_WaitOnTXISFlagUntilTimeout+0xa>
 800147a:	2220      	movs	r2, #32
 800147c:	6c63      	ldr	r3, [r4, #68]	; 0x44
 800147e:	4313      	orrs	r3, r2
 8001480:	6463      	str	r3, [r4, #68]	; 0x44
 8001482:	0023      	movs	r3, r4
 8001484:	3341      	adds	r3, #65	; 0x41
 8001486:	701a      	strb	r2, [r3, #0]
 8001488:	0022      	movs	r2, r4
 800148a:	2300      	movs	r3, #0
 800148c:	3242      	adds	r2, #66	; 0x42
 800148e:	3440      	adds	r4, #64	; 0x40
 8001490:	7013      	strb	r3, [r2, #0]
 8001492:	7023      	strb	r3, [r4, #0]
 8001494:	2001      	movs	r0, #1
 8001496:	e7df      	b.n	8001458 <I2C_WaitOnTXISFlagUntilTimeout+0x14>

08001498 <I2C_WaitOnFlagUntilTimeout>:
 8001498:	b5f8      	push	{r3, r4, r5, r6, r7, lr}
 800149a:	0004      	movs	r4, r0
 800149c:	000e      	movs	r6, r1
 800149e:	0017      	movs	r7, r2
 80014a0:	001d      	movs	r5, r3
 80014a2:	6822      	ldr	r2, [r4, #0]
 80014a4:	6993      	ldr	r3, [r2, #24]
 80014a6:	4033      	ands	r3, r6
 80014a8:	1b9b      	subs	r3, r3, r6
 80014aa:	4259      	negs	r1, r3
 80014ac:	414b      	adcs	r3, r1
 80014ae:	42bb      	cmp	r3, r7
 80014b0:	d001      	beq.n	80014b6 <I2C_WaitOnFlagUntilTimeout+0x1e>
 80014b2:	2000      	movs	r0, #0
 80014b4:	e017      	b.n	80014e6 <I2C_WaitOnFlagUntilTimeout+0x4e>
 80014b6:	1c6b      	adds	r3, r5, #1
 80014b8:	d0f4      	beq.n	80014a4 <I2C_WaitOnFlagUntilTimeout+0xc>
 80014ba:	f7ff fd83 	bl	8000fc4 <HAL_GetTick>
 80014be:	9b06      	ldr	r3, [sp, #24]
 80014c0:	1ac0      	subs	r0, r0, r3
 80014c2:	42a8      	cmp	r0, r5
 80014c4:	d801      	bhi.n	80014ca <I2C_WaitOnFlagUntilTimeout+0x32>
 80014c6:	2d00      	cmp	r5, #0
 80014c8:	d1eb      	bne.n	80014a2 <I2C_WaitOnFlagUntilTimeout+0xa>
 80014ca:	2220      	movs	r2, #32
 80014cc:	6c63      	ldr	r3, [r4, #68]	; 0x44
 80014ce:	2001      	movs	r0, #1
 80014d0:	4313      	orrs	r3, r2
 80014d2:	6463      	str	r3, [r4, #68]	; 0x44
 80014d4:	0023      	movs	r3, r4
 80014d6:	3341      	adds	r3, #65	; 0x41
 80014d8:	701a      	strb	r2, [r3, #0]
 80014da:	0022      	movs	r2, r4
 80014dc:	2300      	movs	r3, #0
 80014de:	3242      	adds	r2, #66	; 0x42
 80014e0:	3440      	adds	r4, #64	; 0x40
 80014e2:	7013      	strb	r3, [r2, #0]
 80014e4:	7023      	strb	r3, [r4, #0]
 80014e6:	bdf8      	pop	{r3, r4, r5, r6, r7, pc}

080014e8 <I2C_WaitOnSTOPFlagUntilTimeout>:
 80014e8:	b5f8      	push	{r3, r4, r5, r6, r7, lr}
 80014ea:	0004      	movs	r4, r0
 80014ec:	000d      	movs	r5, r1
 80014ee:	0016      	movs	r6, r2
 80014f0:	2720      	movs	r7, #32
 80014f2:	6823      	ldr	r3, [r4, #0]
 80014f4:	699b      	ldr	r3, [r3, #24]
 80014f6:	423b      	tst	r3, r7
 80014f8:	d001      	beq.n	80014fe <I2C_WaitOnSTOPFlagUntilTimeout+0x16>
 80014fa:	2000      	movs	r0, #0
 80014fc:	bdf8      	pop	{r3, r4, r5, r6, r7, pc}
 80014fe:	0032      	movs	r2, r6
 8001500:	0029      	movs	r1, r5
 8001502:	0020      	movs	r0, r4
 8001504:	f7ff ff1a 	bl	800133c <I2C_IsErrorOccurred>
 8001508:	2800      	cmp	r0, #0
 800150a:	d113      	bne.n	8001534 <I2C_WaitOnSTOPFlagUntilTimeout+0x4c>
 800150c:	f7ff fd5a 	bl	8000fc4 <HAL_GetTick>
 8001510:	1b80      	subs	r0, r0, r6
 8001512:	42a8      	cmp	r0, r5
 8001514:	d801      	bhi.n	800151a <I2C_WaitOnSTOPFlagUntilTimeout+0x32>
 8001516:	2d00      	cmp	r5, #0
 8001518:	d1eb      	bne.n	80014f2 <I2C_WaitOnSTOPFlagUntilTimeout+0xa>
 800151a:	2220      	movs	r2, #32
 800151c:	6c63      	ldr	r3, [r4, #68]	; 0x44
 800151e:	4313      	orrs	r3, r2
 8001520:	6463      	str	r3, [r4, #68]	; 0x44
 8001522:	0023      	movs	r3, r4
 8001524:	3341      	adds	r3, #65	; 0x41
 8001526:	701a      	strb	r2, [r3, #0]
 8001528:	0022      	movs	r2, r4
 800152a:	2300      	movs	r3, #0
 800152c:	3242      	adds	r2, #66	; 0x42
 800152e:	3440      	adds	r4, #64	; 0x40
 8001530:	7013      	strb	r3, [r2, #0]
 8001532:	7023      	strb	r3, [r4, #0]
 8001534:	2001      	movs	r0, #1
 8001536:	e7e1      	b.n	80014fc <I2C_WaitOnSTOPFlagUntilTimeout+0x14>

08001538 <HAL_I2C_Init>:
 8001538:	b570      	push	{r4, r5, r6, lr}
 800153a:	0004      	movs	r4, r0
 800153c:	2001      	movs	r0, #1
 800153e:	2c00      	cmp	r4, #0
 8001540:	d03f      	beq.n	80015c2 <HAL_I2C_Init+0x8a>
 8001542:	0025      	movs	r5, r4
 8001544:	3541      	adds	r5, #65	; 0x41
 8001546:	782b      	ldrb	r3, [r5, #0]
 8001548:	b2da      	uxtb	r2, r3
 800154a:	2b00      	cmp	r3, #0
 800154c:	d105      	bne.n	800155a <HAL_I2C_Init+0x22>
 800154e:	0023      	movs	r3, r4
 8001550:	3340      	adds	r3, #64	; 0x40
 8001552:	0020      	movs	r0, r4
 8001554:	701a      	strb	r2, [r3, #0]
 8001556:	f7ff fa97 	bl	8000a88 <HAL_I2C_MspInit>
 800155a:	2324      	movs	r3, #36	; 0x24
 800155c:	2101      	movs	r1, #1
 800155e:	702b      	strb	r3, [r5, #0]
 8001560:	6823      	ldr	r3, [r4, #0]
 8001562:	481d      	ldr	r0, [pc, #116]	; (80015d8 <HAL_I2C_Init+0xa0>)
 8001564:	681a      	ldr	r2, [r3, #0]
 8001566:	68a6      	ldr	r6, [r4, #8]
 8001568:	438a      	bics	r2, r1
 800156a:	601a      	str	r2, [r3, #0]
 800156c:	6861      	ldr	r1, [r4, #4]
 800156e:	4a1b      	ldr	r2, [pc, #108]	; (80015dc <HAL_I2C_Init+0xa4>)
 8001570:	400a      	ands	r2, r1
 8001572:	611a      	str	r2, [r3, #16]
 8001574:	689a      	ldr	r2, [r3, #8]
 8001576:	4002      	ands	r2, r0
 8001578:	609a      	str	r2, [r3, #8]
 800157a:	68e2      	ldr	r2, [r4, #12]
 800157c:	2a01      	cmp	r2, #1
 800157e:	d121      	bne.n	80015c4 <HAL_I2C_Init+0x8c>
 8001580:	2180      	movs	r1, #128	; 0x80
 8001582:	0209      	lsls	r1, r1, #8
 8001584:	4331      	orrs	r1, r6
 8001586:	6099      	str	r1, [r3, #8]
 8001588:	685a      	ldr	r2, [r3, #4]
 800158a:	4915      	ldr	r1, [pc, #84]	; (80015e0 <HAL_I2C_Init+0xa8>)
 800158c:	4311      	orrs	r1, r2
 800158e:	6059      	str	r1, [r3, #4]
 8001590:	68da      	ldr	r2, [r3, #12]
 8001592:	6961      	ldr	r1, [r4, #20]
 8001594:	4002      	ands	r2, r0
 8001596:	60da      	str	r2, [r3, #12]
 8001598:	6922      	ldr	r2, [r4, #16]
 800159a:	2000      	movs	r0, #0
 800159c:	430a      	orrs	r2, r1
 800159e:	69a1      	ldr	r1, [r4, #24]
 80015a0:	0209      	lsls	r1, r1, #8
 80015a2:	430a      	orrs	r2, r1
 80015a4:	60da      	str	r2, [r3, #12]
 80015a6:	6a21      	ldr	r1, [r4, #32]
 80015a8:	69e2      	ldr	r2, [r4, #28]
 80015aa:	430a      	orrs	r2, r1
 80015ac:	601a      	str	r2, [r3, #0]
 80015ae:	2201      	movs	r2, #1
 80015b0:	6819      	ldr	r1, [r3, #0]
 80015b2:	430a      	orrs	r2, r1
 80015b4:	601a      	str	r2, [r3, #0]
 80015b6:	2320      	movs	r3, #32
 80015b8:	6460      	str	r0, [r4, #68]	; 0x44
 80015ba:	702b      	strb	r3, [r5, #0]
 80015bc:	6320      	str	r0, [r4, #48]	; 0x30
 80015be:	3442      	adds	r4, #66	; 0x42
 80015c0:	7020      	strb	r0, [r4, #0]
 80015c2:	bd70      	pop	{r4, r5, r6, pc}
 80015c4:	2184      	movs	r1, #132	; 0x84
 80015c6:	0209      	lsls	r1, r1, #8
 80015c8:	4331      	orrs	r1, r6
 80015ca:	6099      	str	r1, [r3, #8]
 80015cc:	2a02      	cmp	r2, #2
 80015ce:	d1db      	bne.n	8001588 <HAL_I2C_Init+0x50>
 80015d0:	2280      	movs	r2, #128	; 0x80
 80015d2:	0112      	lsls	r2, r2, #4
 80015d4:	605a      	str	r2, [r3, #4]
 80015d6:	e7d7      	b.n	8001588 <HAL_I2C_Init+0x50>
 80015d8:	ffff7fff 	.word	0xffff7fff
 80015dc:	f0ffffff 	.word	0xf0ffffff
 80015e0:	02008000 	.word	0x02008000

080015e4 <HAL_I2C_DeInit>:
 80015e4:	b570      	push	{r4, r5, r6, lr}
 80015e6:	0004      	movs	r4, r0
 80015e8:	2001      	movs	r0, #1
 80015ea:	2c00      	cmp	r4, #0
 80015ec:	d013      	beq.n	8001616 <HAL_I2C_DeInit+0x32>
 80015ee:	0025      	movs	r5, r4
 80015f0:	2324      	movs	r3, #36	; 0x24
 80015f2:	3541      	adds	r5, #65	; 0x41
 80015f4:	702b      	strb	r3, [r5, #0]
 80015f6:	6822      	ldr	r2, [r4, #0]
 80015f8:	6813      	ldr	r3, [r2, #0]
 80015fa:	4383      	bics	r3, r0
 80015fc:	6013      	str	r3, [r2, #0]
 80015fe:	0020      	movs	r0, r4
 8001600:	f7ff fa84 	bl	8000b0c <HAL_I2C_MspDeInit>
 8001604:	2000      	movs	r0, #0
 8001606:	0023      	movs	r3, r4
 8001608:	6460      	str	r0, [r4, #68]	; 0x44
 800160a:	3342      	adds	r3, #66	; 0x42
 800160c:	7028      	strb	r0, [r5, #0]
 800160e:	6320      	str	r0, [r4, #48]	; 0x30
 8001610:	3440      	adds	r4, #64	; 0x40
 8001612:	7018      	strb	r0, [r3, #0]
 8001614:	7020      	strb	r0, [r4, #0]
 8001616:	bd70      	pop	{r4, r5, r6, pc}

08001618 <HAL_I2C_Mem_Write>:
 8001618:	b5f0      	push	{r4, r5, r6, r7, lr}
 800161a:	b089      	sub	sp, #36	; 0x24
 800161c:	9304      	str	r3, [sp, #16]
 800161e:	ab0e      	add	r3, sp, #56	; 0x38
 8001620:	9203      	str	r2, [sp, #12]
 8001622:	cb04      	ldmia	r3!, {r2}
 8001624:	0004      	movs	r4, r0
 8001626:	881b      	ldrh	r3, [r3, #0]
 8001628:	9205      	str	r2, [sp, #20]
 800162a:	9306      	str	r3, [sp, #24]
 800162c:	0003      	movs	r3, r0
 800162e:	3341      	adds	r3, #65	; 0x41
 8001630:	9307      	str	r3, [sp, #28]
 8001632:	781b      	ldrb	r3, [r3, #0]
 8001634:	000f      	movs	r7, r1
 8001636:	2002      	movs	r0, #2
 8001638:	9e10      	ldr	r6, [sp, #64]	; 0x40
 800163a:	2b20      	cmp	r3, #32
 800163c:	d108      	bne.n	8001650 <HAL_I2C_Mem_Write+0x38>
 800163e:	2a00      	cmp	r2, #0
 8001640:	d002      	beq.n	8001648 <HAL_I2C_Mem_Write+0x30>
 8001642:	9b06      	ldr	r3, [sp, #24]
 8001644:	2b00      	cmp	r3, #0
 8001646:	d105      	bne.n	8001654 <HAL_I2C_Mem_Write+0x3c>
 8001648:	2380      	movs	r3, #128	; 0x80
 800164a:	009b      	lsls	r3, r3, #2
 800164c:	6463      	str	r3, [r4, #68]	; 0x44
 800164e:	2001      	movs	r0, #1
 8001650:	b009      	add	sp, #36	; 0x24
 8001652:	bdf0      	pop	{r4, r5, r6, r7, pc}
 8001654:	0023      	movs	r3, r4
 8001656:	3340      	adds	r3, #64	; 0x40
 8001658:	781a      	ldrb	r2, [r3, #0]
 800165a:	2002      	movs	r0, #2
 800165c:	2a01      	cmp	r2, #1
 800165e:	d0f7      	beq.n	8001650 <HAL_I2C_Mem_Write+0x38>
 8001660:	2201      	movs	r2, #1
 8001662:	701a      	strb	r2, [r3, #0]
 8001664:	f7ff fcae 	bl	8000fc4 <HAL_GetTick>
 8001668:	2180      	movs	r1, #128	; 0x80
 800166a:	0005      	movs	r5, r0
 800166c:	9000      	str	r0, [sp, #0]
 800166e:	2319      	movs	r3, #25
 8001670:	2201      	movs	r2, #1
 8001672:	0020      	movs	r0, r4
 8001674:	0209      	lsls	r1, r1, #8
 8001676:	f7ff ff0f 	bl	8001498 <I2C_WaitOnFlagUntilTimeout>
 800167a:	2800      	cmp	r0, #0
 800167c:	d1e7      	bne.n	800164e <HAL_I2C_Mem_Write+0x36>
 800167e:	2321      	movs	r3, #33	; 0x21
 8001680:	9a07      	ldr	r2, [sp, #28]
 8001682:	0039      	movs	r1, r7
 8001684:	7013      	strb	r3, [r2, #0]
 8001686:	0023      	movs	r3, r4
 8001688:	3342      	adds	r3, #66	; 0x42
 800168a:	9307      	str	r3, [sp, #28]
 800168c:	2340      	movs	r3, #64	; 0x40
 800168e:	9a07      	ldr	r2, [sp, #28]
 8001690:	7013      	strb	r3, [r2, #0]
 8001692:	9b05      	ldr	r3, [sp, #20]
 8001694:	6460      	str	r0, [r4, #68]	; 0x44
 8001696:	6263      	str	r3, [r4, #36]	; 0x24
 8001698:	9b06      	ldr	r3, [sp, #24]
 800169a:	6360      	str	r0, [r4, #52]	; 0x34
 800169c:	8563      	strh	r3, [r4, #42]	; 0x2a
 800169e:	466b      	mov	r3, sp
 80016a0:	7c1a      	ldrb	r2, [r3, #16]
 80016a2:	4b4a      	ldr	r3, [pc, #296]	; (80017cc <HAL_I2C_Mem_Write+0x1b4>)
 80016a4:	0020      	movs	r0, r4
 80016a6:	9300      	str	r3, [sp, #0]
 80016a8:	2380      	movs	r3, #128	; 0x80
 80016aa:	045b      	lsls	r3, r3, #17
 80016ac:	f7ff fe30 	bl	8001310 <I2C_TransferConfig>
 80016b0:	002a      	movs	r2, r5
 80016b2:	0031      	movs	r1, r6
 80016b4:	0020      	movs	r0, r4
 80016b6:	f7ff fec5 	bl	8001444 <I2C_WaitOnTXISFlagUntilTimeout>
 80016ba:	2800      	cmp	r0, #0
 80016bc:	d126      	bne.n	800170c <HAL_I2C_Mem_Write+0xf4>
 80016be:	9a04      	ldr	r2, [sp, #16]
 80016c0:	6823      	ldr	r3, [r4, #0]
 80016c2:	2a01      	cmp	r2, #1
 80016c4:	d116      	bne.n	80016f4 <HAL_I2C_Mem_Write+0xdc>
 80016c6:	466a      	mov	r2, sp
 80016c8:	7b12      	ldrb	r2, [r2, #12]
 80016ca:	2180      	movs	r1, #128	; 0x80
 80016cc:	629a      	str	r2, [r3, #40]	; 0x28
 80016ce:	0020      	movs	r0, r4
 80016d0:	0033      	movs	r3, r6
 80016d2:	2200      	movs	r2, #0
 80016d4:	9500      	str	r5, [sp, #0]
 80016d6:	f7ff fedf 	bl	8001498 <I2C_WaitOnFlagUntilTimeout>
 80016da:	2800      	cmp	r0, #0
 80016dc:	d116      	bne.n	800170c <HAL_I2C_Mem_Write+0xf4>
 80016de:	8d63      	ldrh	r3, [r4, #42]	; 0x2a
 80016e0:	2bff      	cmp	r3, #255	; 0xff
 80016e2:	d817      	bhi.n	8001714 <HAL_I2C_Mem_Write+0xfc>
 80016e4:	2380      	movs	r3, #128	; 0x80
 80016e6:	8d62      	ldrh	r2, [r4, #42]	; 0x2a
 80016e8:	049b      	lsls	r3, r3, #18
 80016ea:	b292      	uxth	r2, r2
 80016ec:	8522      	strh	r2, [r4, #40]	; 0x28
 80016ee:	b2d2      	uxtb	r2, r2
 80016f0:	9000      	str	r0, [sp, #0]
 80016f2:	e014      	b.n	800171e <HAL_I2C_Mem_Write+0x106>
 80016f4:	9a03      	ldr	r2, [sp, #12]
 80016f6:	0031      	movs	r1, r6
 80016f8:	0a12      	lsrs	r2, r2, #8
 80016fa:	629a      	str	r2, [r3, #40]	; 0x28
 80016fc:	0020      	movs	r0, r4
 80016fe:	002a      	movs	r2, r5
 8001700:	f7ff fea0 	bl	8001444 <I2C_WaitOnTXISFlagUntilTimeout>
 8001704:	2800      	cmp	r0, #0
 8001706:	d101      	bne.n	800170c <HAL_I2C_Mem_Write+0xf4>
 8001708:	6823      	ldr	r3, [r4, #0]
 800170a:	e7dc      	b.n	80016c6 <HAL_I2C_Mem_Write+0xae>
 800170c:	2300      	movs	r3, #0
 800170e:	3440      	adds	r4, #64	; 0x40
 8001710:	7023      	strb	r3, [r4, #0]
 8001712:	e79c      	b.n	800164e <HAL_I2C_Mem_Write+0x36>
 8001714:	22ff      	movs	r2, #255	; 0xff
 8001716:	2380      	movs	r3, #128	; 0x80
 8001718:	8522      	strh	r2, [r4, #40]	; 0x28
 800171a:	045b      	lsls	r3, r3, #17
 800171c:	9000      	str	r0, [sp, #0]
 800171e:	0039      	movs	r1, r7
 8001720:	0020      	movs	r0, r4
 8001722:	f7ff fdf5 	bl	8001310 <I2C_TransferConfig>
 8001726:	002a      	movs	r2, r5
 8001728:	0031      	movs	r1, r6
 800172a:	0020      	movs	r0, r4
 800172c:	f7ff fe8a 	bl	8001444 <I2C_WaitOnTXISFlagUntilTimeout>
 8001730:	2800      	cmp	r0, #0
 8001732:	d000      	beq.n	8001736 <HAL_I2C_Mem_Write+0x11e>
 8001734:	e78b      	b.n	800164e <HAL_I2C_Mem_Write+0x36>
 8001736:	6a63      	ldr	r3, [r4, #36]	; 0x24
 8001738:	6822      	ldr	r2, [r4, #0]
 800173a:	7819      	ldrb	r1, [r3, #0]
 800173c:	3301      	adds	r3, #1
 800173e:	6291      	str	r1, [r2, #40]	; 0x28
 8001740:	6263      	str	r3, [r4, #36]	; 0x24
 8001742:	8d63      	ldrh	r3, [r4, #42]	; 0x2a
 8001744:	8d22      	ldrh	r2, [r4, #40]	; 0x28
 8001746:	3b01      	subs	r3, #1
 8001748:	b29b      	uxth	r3, r3
 800174a:	8563      	strh	r3, [r4, #42]	; 0x2a
 800174c:	3a01      	subs	r2, #1
 800174e:	8d63      	ldrh	r3, [r4, #42]	; 0x2a
 8001750:	b292      	uxth	r2, r2
 8001752:	8522      	strh	r2, [r4, #40]	; 0x28
 8001754:	2b00      	cmp	r3, #0
 8001756:	d017      	beq.n	8001788 <HAL_I2C_Mem_Write+0x170>
 8001758:	2a00      	cmp	r2, #0
 800175a:	d115      	bne.n	8001788 <HAL_I2C_Mem_Write+0x170>
 800175c:	0033      	movs	r3, r6
 800175e:	2180      	movs	r1, #128	; 0x80
 8001760:	0020      	movs	r0, r4
 8001762:	9500      	str	r5, [sp, #0]
 8001764:	f7ff fe98 	bl	8001498 <I2C_WaitOnFlagUntilTimeout>
 8001768:	2800      	cmp	r0, #0
 800176a:	d000      	beq.n	800176e <HAL_I2C_Mem_Write+0x156>
 800176c:	e76f      	b.n	800164e <HAL_I2C_Mem_Write+0x36>
 800176e:	8d63      	ldrh	r3, [r4, #42]	; 0x2a
 8001770:	2bff      	cmp	r3, #255	; 0xff
 8001772:	d923      	bls.n	80017bc <HAL_I2C_Mem_Write+0x1a4>
 8001774:	23ff      	movs	r3, #255	; 0xff
 8001776:	8523      	strh	r3, [r4, #40]	; 0x28
 8001778:	2380      	movs	r3, #128	; 0x80
 800177a:	22ff      	movs	r2, #255	; 0xff
 800177c:	9000      	str	r0, [sp, #0]
 800177e:	045b      	lsls	r3, r3, #17
 8001780:	0039      	movs	r1, r7
 8001782:	0020      	movs	r0, r4
 8001784:	f7ff fdc4 	bl	8001310 <I2C_TransferConfig>
 8001788:	8d63      	ldrh	r3, [r4, #42]	; 0x2a
 800178a:	2b00      	cmp	r3, #0
 800178c:	d1cb      	bne.n	8001726 <HAL_I2C_Mem_Write+0x10e>
 800178e:	002a      	movs	r2, r5
 8001790:	0031      	movs	r1, r6
 8001792:	0020      	movs	r0, r4
 8001794:	f7ff fea8 	bl	80014e8 <I2C_WaitOnSTOPFlagUntilTimeout>
 8001798:	2800      	cmp	r0, #0
 800179a:	d000      	beq.n	800179e <HAL_I2C_Mem_Write+0x186>
 800179c:	e757      	b.n	800164e <HAL_I2C_Mem_Write+0x36>
 800179e:	2120      	movs	r1, #32
 80017a0:	6823      	ldr	r3, [r4, #0]
 80017a2:	4d0b      	ldr	r5, [pc, #44]	; (80017d0 <HAL_I2C_Mem_Write+0x1b8>)
 80017a4:	61d9      	str	r1, [r3, #28]
 80017a6:	685a      	ldr	r2, [r3, #4]
 80017a8:	402a      	ands	r2, r5
 80017aa:	605a      	str	r2, [r3, #4]
 80017ac:	0023      	movs	r3, r4
 80017ae:	3341      	adds	r3, #65	; 0x41
 80017b0:	7019      	strb	r1, [r3, #0]
 80017b2:	9b07      	ldr	r3, [sp, #28]
 80017b4:	3440      	adds	r4, #64	; 0x40
 80017b6:	7018      	strb	r0, [r3, #0]
 80017b8:	7020      	strb	r0, [r4, #0]
 80017ba:	e749      	b.n	8001650 <HAL_I2C_Mem_Write+0x38>
 80017bc:	2380      	movs	r3, #128	; 0x80
 80017be:	8d62      	ldrh	r2, [r4, #42]	; 0x2a
 80017c0:	049b      	lsls	r3, r3, #18
 80017c2:	b292      	uxth	r2, r2
 80017c4:	8522      	strh	r2, [r4, #40]	; 0x28
 80017c6:	b2d2      	uxtb	r2, r2
 80017c8:	9000      	str	r0, [sp, #0]
 80017ca:	e7d9      	b.n	8001780 <HAL_I2C_Mem_Write+0x168>
 80017cc:	80002000 	.word	0x80002000
 80017d0:	fe00e800 	.word	0xfe00e800

080017d4 <HAL_I2C_Mem_Read>:
 80017d4:	b5f0      	push	{r4, r5, r6, r7, lr}
 80017d6:	b089      	sub	sp, #36	; 0x24
 80017d8:	9304      	str	r3, [sp, #16]
 80017da:	ab0e      	add	r3, sp, #56	; 0x38
 80017dc:	9203      	str	r2, [sp, #12]
 80017de:	cb04      	ldmia	r3!, {r2}
 80017e0:	0004      	movs	r4, r0
 80017e2:	881b      	ldrh	r3, [r3, #0]
 80017e4:	9205      	str	r2, [sp, #20]
 80017e6:	9306      	str	r3, [sp, #24]
 80017e8:	0003      	movs	r3, r0
 80017ea:	3341      	adds	r3, #65	; 0x41
 80017ec:	9307      	str	r3, [sp, #28]
 80017ee:	781b      	ldrb	r3, [r3, #0]
 80017f0:	000f      	movs	r7, r1
 80017f2:	2002      	movs	r0, #2
 80017f4:	9e10      	ldr	r6, [sp, #64]	; 0x40
 80017f6:	2b20      	cmp	r3, #32
 80017f8:	d108      	bne.n	800180c <HAL_I2C_Mem_Read+0x38>
 80017fa:	2a00      	cmp	r2, #0
 80017fc:	d002      	beq.n	8001804 <HAL_I2C_Mem_Read+0x30>
 80017fe:	9b06      	ldr	r3, [sp, #24]
 8001800:	2b00      	cmp	r3, #0
 8001802:	d105      	bne.n	8001810 <HAL_I2C_Mem_Read+0x3c>
 8001804:	2380      	movs	r3, #128	; 0x80
 8001806:	009b      	lsls	r3, r3, #2
 8001808:	6463      	str	r3, [r4, #68]	; 0x44
 800180a:	2001      	movs	r0, #1
 800180c:	b009      	add	sp, #36	; 0x24
 800180e:	bdf0      	pop	{r4, r5, r6, r7, pc}
 8001810:	0023      	movs	r3, r4
 8001812:	3340      	adds	r3, #64	; 0x40
 8001814:	781a      	ldrb	r2, [r3, #0]
 8001816:	2002      	movs	r0, #2
 8001818:	2a01      	cmp	r2, #1
 800181a:	d0f7      	beq.n	800180c <HAL_I2C_Mem_Read+0x38>
 800181c:	2201      	movs	r2, #1
 800181e:	701a      	strb	r2, [r3, #0]
 8001820:	f7ff fbd0 	bl	8000fc4 <HAL_GetTick>
 8001824:	2180      	movs	r1, #128	; 0x80
 8001826:	2319      	movs	r3, #25
 8001828:	9000      	str	r0, [sp, #0]
 800182a:	0005      	movs	r5, r0
 800182c:	2201      	movs	r2, #1
 800182e:	0020      	movs	r0, r4
 8001830:	0209      	lsls	r1, r1, #8
 8001832:	f7ff fe31 	bl	8001498 <I2C_WaitOnFlagUntilTimeout>
 8001836:	1e03      	subs	r3, r0, #0
 8001838:	d1e7      	bne.n	800180a <HAL_I2C_Mem_Read+0x36>
 800183a:	2222      	movs	r2, #34	; 0x22
 800183c:	9907      	ldr	r1, [sp, #28]
 800183e:	700a      	strb	r2, [r1, #0]
 8001840:	0022      	movs	r2, r4
 8001842:	3242      	adds	r2, #66	; 0x42
 8001844:	9207      	str	r2, [sp, #28]
 8001846:	2240      	movs	r2, #64	; 0x40
 8001848:	9907      	ldr	r1, [sp, #28]
 800184a:	700a      	strb	r2, [r1, #0]
 800184c:	9a05      	ldr	r2, [sp, #20]
 800184e:	6460      	str	r0, [r4, #68]	; 0x44
 8001850:	6262      	str	r2, [r4, #36]	; 0x24
 8001852:	9a06      	ldr	r2, [sp, #24]
 8001854:	494d      	ldr	r1, [pc, #308]	; (800198c <HAL_I2C_Mem_Read+0x1b8>)
 8001856:	8562      	strh	r2, [r4, #42]	; 0x2a
 8001858:	466a      	mov	r2, sp
 800185a:	6360      	str	r0, [r4, #52]	; 0x34
 800185c:	7c12      	ldrb	r2, [r2, #16]
 800185e:	0020      	movs	r0, r4
 8001860:	9100      	str	r1, [sp, #0]
 8001862:	0039      	movs	r1, r7
 8001864:	f7ff fd54 	bl	8001310 <I2C_TransferConfig>
 8001868:	002a      	movs	r2, r5
 800186a:	0031      	movs	r1, r6
 800186c:	0020      	movs	r0, r4
 800186e:	f7ff fde9 	bl	8001444 <I2C_WaitOnTXISFlagUntilTimeout>
 8001872:	2800      	cmp	r0, #0
 8001874:	d127      	bne.n	80018c6 <HAL_I2C_Mem_Read+0xf2>
 8001876:	9a04      	ldr	r2, [sp, #16]
 8001878:	6823      	ldr	r3, [r4, #0]
 800187a:	2a01      	cmp	r2, #1
 800187c:	d117      	bne.n	80018ae <HAL_I2C_Mem_Read+0xda>
 800187e:	466a      	mov	r2, sp
 8001880:	7b12      	ldrb	r2, [r2, #12]
 8001882:	2140      	movs	r1, #64	; 0x40
 8001884:	629a      	str	r2, [r3, #40]	; 0x28
 8001886:	0020      	movs	r0, r4
 8001888:	0033      	movs	r3, r6
 800188a:	2200      	movs	r2, #0
 800188c:	9500      	str	r5, [sp, #0]
 800188e:	f7ff fe03 	bl	8001498 <I2C_WaitOnFlagUntilTimeout>
 8001892:	2800      	cmp	r0, #0
 8001894:	d117      	bne.n	80018c6 <HAL_I2C_Mem_Read+0xf2>
 8001896:	8d62      	ldrh	r2, [r4, #42]	; 0x2a
 8001898:	4b3d      	ldr	r3, [pc, #244]	; (8001990 <HAL_I2C_Mem_Read+0x1bc>)
 800189a:	2aff      	cmp	r2, #255	; 0xff
 800189c:	d817      	bhi.n	80018ce <HAL_I2C_Mem_Read+0xfa>
 800189e:	8d62      	ldrh	r2, [r4, #42]	; 0x2a
 80018a0:	b292      	uxth	r2, r2
 80018a2:	8522      	strh	r2, [r4, #40]	; 0x28
 80018a4:	9300      	str	r3, [sp, #0]
 80018a6:	2380      	movs	r3, #128	; 0x80
 80018a8:	b2d2      	uxtb	r2, r2
 80018aa:	049b      	lsls	r3, r3, #18
 80018ac:	e014      	b.n	80018d8 <HAL_I2C_Mem_Read+0x104>
 80018ae:	9a03      	ldr	r2, [sp, #12]
 80018b0:	0031      	movs	r1, r6
 80018b2:	0a12      	lsrs	r2, r2, #8
 80018b4:	629a      	str	r2, [r3, #40]	; 0x28
 80018b6:	0020      	movs	r0, r4
 80018b8:	002a      	movs	r2, r5
 80018ba:	f7ff fdc3 	bl	8001444 <I2C_WaitOnTXISFlagUntilTimeout>
 80018be:	2800      	cmp	r0, #0
 80018c0:	d101      	bne.n	80018c6 <HAL_I2C_Mem_Read+0xf2>
 80018c2:	6823      	ldr	r3, [r4, #0]
 80018c4:	e7db      	b.n	800187e <HAL_I2C_Mem_Read+0xaa>
 80018c6:	2300      	movs	r3, #0
 80018c8:	3440      	adds	r4, #64	; 0x40
 80018ca:	7023      	strb	r3, [r4, #0]
 80018cc:	e79d      	b.n	800180a <HAL_I2C_Mem_Read+0x36>
 80018ce:	22ff      	movs	r2, #255	; 0xff
 80018d0:	8522      	strh	r2, [r4, #40]	; 0x28
 80018d2:	9300      	str	r3, [sp, #0]
 80018d4:	2380      	movs	r3, #128	; 0x80
 80018d6:	045b      	lsls	r3, r3, #17
 80018d8:	0039      	movs	r1, r7
 80018da:	0020      	movs	r0, r4
 80018dc:	f7ff fd18 	bl	8001310 <I2C_TransferConfig>
 80018e0:	0033      	movs	r3, r6
 80018e2:	2200      	movs	r2, #0
 80018e4:	2104      	movs	r1, #4
 80018e6:	0020      	movs	r0, r4
 80018e8:	9500      	str	r5, [sp, #0]
 80018ea:	f7ff fdd5 	bl	8001498 <I2C_WaitOnFlagUntilTimeout>
 80018ee:	2800      	cmp	r0, #0
 80018f0:	d000      	beq.n	80018f4 <HAL_I2C_Mem_Read+0x120>
 80018f2:	e78a      	b.n	800180a <HAL_I2C_Mem_Read+0x36>
 80018f4:	6823      	ldr	r3, [r4, #0]
 80018f6:	6a62      	ldr	r2, [r4, #36]	; 0x24
 80018f8:	6a5b      	ldr	r3, [r3, #36]	; 0x24
 80018fa:	7013      	strb	r3, [r2, #0]
 80018fc:	6a63      	ldr	r3, [r4, #36]	; 0x24
 80018fe:	8d22      	ldrh	r2, [r4, #40]	; 0x28
 8001900:	3301      	adds	r3, #1
 8001902:	6263      	str	r3, [r4, #36]	; 0x24
 8001904:	8d63      	ldrh	r3, [r4, #42]	; 0x2a
 8001906:	3a01      	subs	r2, #1
 8001908:	3b01      	subs	r3, #1
 800190a:	b29b      	uxth	r3, r3
 800190c:	8563      	strh	r3, [r4, #42]	; 0x2a
 800190e:	8d63      	ldrh	r3, [r4, #42]	; 0x2a
 8001910:	b292      	uxth	r2, r2
 8001912:	8522      	strh	r2, [r4, #40]	; 0x28
 8001914:	2b00      	cmp	r3, #0
 8001916:	d017      	beq.n	8001948 <HAL_I2C_Mem_Read+0x174>
 8001918:	2a00      	cmp	r2, #0
 800191a:	d115      	bne.n	8001948 <HAL_I2C_Mem_Read+0x174>
 800191c:	0033      	movs	r3, r6
 800191e:	2180      	movs	r1, #128	; 0x80
 8001920:	0020      	movs	r0, r4
 8001922:	9500      	str	r5, [sp, #0]
 8001924:	f7ff fdb8 	bl	8001498 <I2C_WaitOnFlagUntilTimeout>
 8001928:	2800      	cmp	r0, #0
 800192a:	d000      	beq.n	800192e <HAL_I2C_Mem_Read+0x15a>
 800192c:	e76d      	b.n	800180a <HAL_I2C_Mem_Read+0x36>
 800192e:	8d63      	ldrh	r3, [r4, #42]	; 0x2a
 8001930:	2bff      	cmp	r3, #255	; 0xff
 8001932:	d923      	bls.n	800197c <HAL_I2C_Mem_Read+0x1a8>
 8001934:	23ff      	movs	r3, #255	; 0xff
 8001936:	8523      	strh	r3, [r4, #40]	; 0x28
 8001938:	2380      	movs	r3, #128	; 0x80
 800193a:	22ff      	movs	r2, #255	; 0xff
 800193c:	9000      	str	r0, [sp, #0]
 800193e:	045b      	lsls	r3, r3, #17
 8001940:	0039      	movs	r1, r7
 8001942:	0020      	movs	r0, r4
 8001944:	f7ff fce4 	bl	8001310 <I2C_TransferConfig>
 8001948:	8d63      	ldrh	r3, [r4, #42]	; 0x2a
 800194a:	2b00      	cmp	r3, #0
 800194c:	d1c8      	bne.n	80018e0 <HAL_I2C_Mem_Read+0x10c>
 800194e:	002a      	movs	r2, r5
 8001950:	0031      	movs	r1, r6
 8001952:	0020      	movs	r0, r4
 8001954:	f7ff fdc8 	bl	80014e8 <I2C_WaitOnSTOPFlagUntilTimeout>
 8001958:	2800      	cmp	r0, #0
 800195a:	d000      	beq.n	800195e <HAL_I2C_Mem_Read+0x18a>
 800195c:	e755      	b.n	800180a <HAL_I2C_Mem_Read+0x36>
 800195e:	2120      	movs	r1, #32
 8001960:	6823      	ldr	r3, [r4, #0]
 8001962:	4d0c      	ldr	r5, [pc, #48]	; (8001994 <HAL_I2C_Mem_Read+0x1c0>)
 8001964:	61d9      	str	r1, [r3, #28]
 8001966:	685a      	ldr	r2, [r3, #4]
 8001968:	402a      	ands	r2, r5
 800196a:	605a      	str	r2, [r3, #4]
 800196c:	0023      	movs	r3, r4
 800196e:	3341      	adds	r3, #65	; 0x41
 8001970:	7019      	strb	r1, [r3, #0]
 8001972:	9b07      	ldr	r3, [sp, #28]
 8001974:	3440      	adds	r4, #64	; 0x40
 8001976:	7018      	strb	r0, [r3, #0]
 8001978:	7020      	strb	r0, [r4, #0]
 800197a:	e747      	b.n	800180c <HAL_I2C_Mem_Read+0x38>
 800197c:	2380      	movs	r3, #128	; 0x80
 800197e:	8d62      	ldrh	r2, [r4, #42]	; 0x2a
 8001980:	049b      	lsls	r3, r3, #18
 8001982:	b292      	uxth	r2, r2
 8001984:	8522      	strh	r2, [r4, #40]	; 0x28
 8001986:	b2d2      	uxtb	r2, r2
 8001988:	9000      	str	r0, [sp, #0]
 800198a:	e7d9      	b.n	8001940 <HAL_I2C_Mem_Read+0x16c>
 800198c:	80002000 	.word	0x80002000
 8001990:	80002400 	.word	0x80002400
 8001994:	fe00e800 	.word	0xfe00e800

08001998 <HAL_I2CEx_ConfigAnalogFilter>:
 8001998:	b5f0      	push	{r4, r5, r6, r7, lr}
 800199a:	0004      	movs	r4, r0
 800199c:	3441      	adds	r4, #65	; 0x41
 800199e:	7822      	ldrb	r2, [r4, #0]
 80019a0:	0003      	movs	r3, r0
 80019a2:	000f      	movs	r7, r1
 80019a4:	2002      	movs	r0, #2
 80019a6:	b2d6      	uxtb	r6, r2
 80019a8:	2a20      	cmp	r2, #32
 80019aa:	d118      	bne.n	80019de <HAL_I2CEx_ConfigAnalogFilter+0x46>
 80019ac:	001d      	movs	r5, r3
 80019ae:	3540      	adds	r5, #64	; 0x40
 80019b0:	782a      	ldrb	r2, [r5, #0]
 80019b2:	2a01      	cmp	r2, #1
 80019b4:	d013      	beq.n	80019de <HAL_I2CEx_ConfigAnalogFilter+0x46>
 80019b6:	2224      	movs	r2, #36	; 0x24
 80019b8:	7022      	strb	r2, [r4, #0]
 80019ba:	681b      	ldr	r3, [r3, #0]
 80019bc:	3a23      	subs	r2, #35	; 0x23
 80019be:	6819      	ldr	r1, [r3, #0]
 80019c0:	4807      	ldr	r0, [pc, #28]	; (80019e0 <HAL_I2CEx_ConfigAnalogFilter+0x48>)
 80019c2:	4391      	bics	r1, r2
 80019c4:	6019      	str	r1, [r3, #0]
 80019c6:	6819      	ldr	r1, [r3, #0]
 80019c8:	4001      	ands	r1, r0
 80019ca:	2000      	movs	r0, #0
 80019cc:	6019      	str	r1, [r3, #0]
 80019ce:	6819      	ldr	r1, [r3, #0]
 80019d0:	4339      	orrs	r1, r7
 80019d2:	6019      	str	r1, [r3, #0]
 80019d4:	6819      	ldr	r1, [r3, #0]
 80019d6:	430a      	orrs	r2, r1
 80019d8:	601a      	str	r2, [r3, #0]
 80019da:	7026      	strb	r6, [r4, #0]
 80019dc:	7028      	strb	r0, [r5, #0]
 80019de:	bdf0      	pop	{r4, r5, r6, r7, pc}
 80019e0:	ffffefff 	.word	0xffffefff

080019e4 <HAL_I2CEx_ConfigDigitalFilter>:
 80019e4:	0002      	movs	r2, r0
 80019e6:	b5f0      	push	{r4, r5, r6, r7, lr}
 80019e8:	3241      	adds	r2, #65	; 0x41
 80019ea:	7814      	ldrb	r4, [r2, #0]
 80019ec:	0003      	movs	r3, r0
 80019ee:	b2e5      	uxtb	r5, r4
 80019f0:	2002      	movs	r0, #2
 80019f2:	2c20      	cmp	r4, #32
 80019f4:	d117      	bne.n	8001a26 <HAL_I2CEx_ConfigDigitalFilter+0x42>
 80019f6:	001c      	movs	r4, r3
 80019f8:	3440      	adds	r4, #64	; 0x40
 80019fa:	7826      	ldrb	r6, [r4, #0]
 80019fc:	2e01      	cmp	r6, #1
 80019fe:	d012      	beq.n	8001a26 <HAL_I2CEx_ConfigDigitalFilter+0x42>
 8001a00:	3022      	adds	r0, #34	; 0x22
 8001a02:	7010      	strb	r0, [r2, #0]
 8001a04:	681b      	ldr	r3, [r3, #0]
 8001a06:	3823      	subs	r0, #35	; 0x23
 8001a08:	681e      	ldr	r6, [r3, #0]
 8001a0a:	4f07      	ldr	r7, [pc, #28]	; (8001a28 <HAL_I2CEx_ConfigDigitalFilter+0x44>)
 8001a0c:	4386      	bics	r6, r0
 8001a0e:	601e      	str	r6, [r3, #0]
 8001a10:	681e      	ldr	r6, [r3, #0]
 8001a12:	0209      	lsls	r1, r1, #8
 8001a14:	403e      	ands	r6, r7
 8001a16:	4331      	orrs	r1, r6
 8001a18:	6019      	str	r1, [r3, #0]
 8001a1a:	6819      	ldr	r1, [r3, #0]
 8001a1c:	4308      	orrs	r0, r1
 8001a1e:	6018      	str	r0, [r3, #0]
 8001a20:	2000      	movs	r0, #0
 8001a22:	7015      	strb	r5, [r2, #0]
 8001a24:	7020      	strb	r0, [r4, #0]
 8001a26:	bdf0      	pop	{r4, r5, r6, r7, pc}
 8001a28:	fffff0ff 	.word	0xfffff0ff

08001a2c <HAL_PWREx_ControlVoltageScaling>:
 8001a2c:	b510      	push	{r4, lr}
 8001a2e:	4c11      	ldr	r4, [pc, #68]	; (8001a74 <HAL_PWREx_ControlVoltageScaling+0x48>)
 8001a30:	4911      	ldr	r1, [pc, #68]	; (8001a78 <HAL_PWREx_ControlVoltageScaling+0x4c>)
 8001a32:	6823      	ldr	r3, [r4, #0]
 8001a34:	0002      	movs	r2, r0
 8001a36:	400b      	ands	r3, r1
 8001a38:	4303      	orrs	r3, r0
 8001a3a:	6023      	str	r3, [r4, #0]
 8001a3c:	2380      	movs	r3, #128	; 0x80
 8001a3e:	2000      	movs	r0, #0
 8001a40:	009b      	lsls	r3, r3, #2
 8001a42:	429a      	cmp	r2, r3
 8001a44:	d10e      	bne.n	8001a64 <HAL_PWREx_ControlVoltageScaling+0x38>
 8001a46:	4b0d      	ldr	r3, [pc, #52]	; (8001a7c <HAL_PWREx_ControlVoltageScaling+0x50>)
 8001a48:	490d      	ldr	r1, [pc, #52]	; (8001a80 <HAL_PWREx_ControlVoltageScaling+0x54>)
 8001a4a:	6818      	ldr	r0, [r3, #0]
 8001a4c:	2306      	movs	r3, #6
 8001a4e:	4358      	muls	r0, r3
 8001a50:	f7fe fb6c 	bl	800012c <__udivsi3>
 8001a54:	2280      	movs	r2, #128	; 0x80
 8001a56:	1c43      	adds	r3, r0, #1
 8001a58:	00d2      	lsls	r2, r2, #3
 8001a5a:	6961      	ldr	r1, [r4, #20]
 8001a5c:	0008      	movs	r0, r1
 8001a5e:	4010      	ands	r0, r2
 8001a60:	4211      	tst	r1, r2
 8001a62:	d100      	bne.n	8001a66 <HAL_PWREx_ControlVoltageScaling+0x3a>
 8001a64:	bd10      	pop	{r4, pc}
 8001a66:	2b00      	cmp	r3, #0
 8001a68:	d001      	beq.n	8001a6e <HAL_PWREx_ControlVoltageScaling+0x42>
 8001a6a:	3b01      	subs	r3, #1
 8001a6c:	e7f5      	b.n	8001a5a <HAL_PWREx_ControlVoltageScaling+0x2e>
 8001a6e:	2003      	movs	r0, #3
 8001a70:	e7f8      	b.n	8001a64 <HAL_PWREx_ControlVoltageScaling+0x38>
 8001a72:	46c0      	nop			; (mov r8, r8)
 8001a74:	40007000 	.word	0x40007000
 8001a78:	fffff9ff 	.word	0xfffff9ff
 8001a7c:	20000000 	.word	0x20000000
 8001a80:	000f4240 	.word	0x000f4240

08001a84 <HAL_RCC_OscConfig>:
 8001a84:	b5f0      	push	{r4, r5, r6, r7, lr}
 8001a86:	0004      	movs	r4, r0
 8001a88:	b085      	sub	sp, #20
 8001a8a:	2800      	cmp	r0, #0
 8001a8c:	d027      	beq.n	8001ade <HAL_RCC_OscConfig+0x5a>
 8001a8e:	6803      	ldr	r3, [r0, #0]
 8001a90:	07db      	lsls	r3, r3, #31
 8001a92:	d414      	bmi.n	8001abe <HAL_RCC_OscConfig+0x3a>
 8001a94:	6823      	ldr	r3, [r4, #0]
 8001a96:	079b      	lsls	r3, r3, #30
 8001a98:	d462      	bmi.n	8001b60 <HAL_RCC_OscConfig+0xdc>
 8001a9a:	6823      	ldr	r3, [r4, #0]
 8001a9c:	071b      	lsls	r3, r3, #28
 8001a9e:	d500      	bpl.n	8001aa2 <HAL_RCC_OscConfig+0x1e>
 8001aa0:	e0c7      	b.n	8001c32 <HAL_RCC_OscConfig+0x1ae>
 8001aa2:	6823      	ldr	r3, [r4, #0]
 8001aa4:	075b      	lsls	r3, r3, #29
 8001aa6:	d500      	bpl.n	8001aaa <HAL_RCC_OscConfig+0x26>
 8001aa8:	e0f8      	b.n	8001c9c <HAL_RCC_OscConfig+0x218>
 8001aaa:	6823      	ldr	r3, [r4, #0]
 8001aac:	069b      	lsls	r3, r3, #26
 8001aae:	d500      	bpl.n	8001ab2 <HAL_RCC_OscConfig+0x2e>
 8001ab0:	e166      	b.n	8001d80 <HAL_RCC_OscConfig+0x2fc>
 8001ab2:	6a23      	ldr	r3, [r4, #32]
 8001ab4:	2b00      	cmp	r3, #0
 8001ab6:	d000      	beq.n	8001aba <HAL_RCC_OscConfig+0x36>
 8001ab8:	e1a5      	b.n	8001e06 <HAL_RCC_OscConfig+0x382>
 8001aba:	2000      	movs	r0, #0
 8001abc:	e029      	b.n	8001b12 <HAL_RCC_OscConfig+0x8e>
 8001abe:	2238      	movs	r2, #56	; 0x38
 8001ac0:	4dbb      	ldr	r5, [pc, #748]	; (8001db0 <HAL_RCC_OscConfig+0x32c>)
 8001ac2:	68ab      	ldr	r3, [r5, #8]
 8001ac4:	4013      	ands	r3, r2
 8001ac6:	68ea      	ldr	r2, [r5, #12]
 8001ac8:	2b10      	cmp	r3, #16
 8001aca:	d10a      	bne.n	8001ae2 <HAL_RCC_OscConfig+0x5e>
 8001acc:	43d2      	mvns	r2, r2
 8001ace:	0793      	lsls	r3, r2, #30
 8001ad0:	d109      	bne.n	8001ae6 <HAL_RCC_OscConfig+0x62>
 8001ad2:	682b      	ldr	r3, [r5, #0]
 8001ad4:	039b      	lsls	r3, r3, #14
 8001ad6:	d5dd      	bpl.n	8001a94 <HAL_RCC_OscConfig+0x10>
 8001ad8:	6863      	ldr	r3, [r4, #4]
 8001ada:	2b00      	cmp	r3, #0
 8001adc:	d1da      	bne.n	8001a94 <HAL_RCC_OscConfig+0x10>
 8001ade:	2001      	movs	r0, #1
 8001ae0:	e017      	b.n	8001b12 <HAL_RCC_OscConfig+0x8e>
 8001ae2:	2b08      	cmp	r3, #8
 8001ae4:	d0f5      	beq.n	8001ad2 <HAL_RCC_OscConfig+0x4e>
 8001ae6:	2280      	movs	r2, #128	; 0x80
 8001ae8:	6863      	ldr	r3, [r4, #4]
 8001aea:	0252      	lsls	r2, r2, #9
 8001aec:	4293      	cmp	r3, r2
 8001aee:	d112      	bne.n	8001b16 <HAL_RCC_OscConfig+0x92>
 8001af0:	682a      	ldr	r2, [r5, #0]
 8001af2:	4313      	orrs	r3, r2
 8001af4:	602b      	str	r3, [r5, #0]
 8001af6:	f7ff fa65 	bl	8000fc4 <HAL_GetTick>
 8001afa:	2780      	movs	r7, #128	; 0x80
 8001afc:	0006      	movs	r6, r0
 8001afe:	02bf      	lsls	r7, r7, #10
 8001b00:	682b      	ldr	r3, [r5, #0]
 8001b02:	423b      	tst	r3, r7
 8001b04:	d1c6      	bne.n	8001a94 <HAL_RCC_OscConfig+0x10>
 8001b06:	f7ff fa5d 	bl	8000fc4 <HAL_GetTick>
 8001b0a:	1b80      	subs	r0, r0, r6
 8001b0c:	2864      	cmp	r0, #100	; 0x64
 8001b0e:	d9f7      	bls.n	8001b00 <HAL_RCC_OscConfig+0x7c>
 8001b10:	2003      	movs	r0, #3
 8001b12:	b005      	add	sp, #20
 8001b14:	bdf0      	pop	{r4, r5, r6, r7, pc}
 8001b16:	21a0      	movs	r1, #160	; 0xa0
 8001b18:	02c9      	lsls	r1, r1, #11
 8001b1a:	428b      	cmp	r3, r1
 8001b1c:	d108      	bne.n	8001b30 <HAL_RCC_OscConfig+0xac>
 8001b1e:	2380      	movs	r3, #128	; 0x80
 8001b20:	6829      	ldr	r1, [r5, #0]
 8001b22:	02db      	lsls	r3, r3, #11
 8001b24:	430b      	orrs	r3, r1
 8001b26:	602b      	str	r3, [r5, #0]
 8001b28:	682b      	ldr	r3, [r5, #0]
 8001b2a:	431a      	orrs	r2, r3
 8001b2c:	602a      	str	r2, [r5, #0]
 8001b2e:	e7e2      	b.n	8001af6 <HAL_RCC_OscConfig+0x72>
 8001b30:	682a      	ldr	r2, [r5, #0]
 8001b32:	49a0      	ldr	r1, [pc, #640]	; (8001db4 <HAL_RCC_OscConfig+0x330>)
 8001b34:	400a      	ands	r2, r1
 8001b36:	602a      	str	r2, [r5, #0]
 8001b38:	682a      	ldr	r2, [r5, #0]
 8001b3a:	499f      	ldr	r1, [pc, #636]	; (8001db8 <HAL_RCC_OscConfig+0x334>)
 8001b3c:	400a      	ands	r2, r1
 8001b3e:	602a      	str	r2, [r5, #0]
 8001b40:	2b00      	cmp	r3, #0
 8001b42:	d1d8      	bne.n	8001af6 <HAL_RCC_OscConfig+0x72>
 8001b44:	f7ff fa3e 	bl	8000fc4 <HAL_GetTick>
 8001b48:	2780      	movs	r7, #128	; 0x80
 8001b4a:	0006      	movs	r6, r0
 8001b4c:	02bf      	lsls	r7, r7, #10
 8001b4e:	682b      	ldr	r3, [r5, #0]
 8001b50:	423b      	tst	r3, r7
 8001b52:	d09f      	beq.n	8001a94 <HAL_RCC_OscConfig+0x10>
 8001b54:	f7ff fa36 	bl	8000fc4 <HAL_GetTick>
 8001b58:	1b80      	subs	r0, r0, r6
 8001b5a:	2864      	cmp	r0, #100	; 0x64
 8001b5c:	d9f7      	bls.n	8001b4e <HAL_RCC_OscConfig+0xca>
 8001b5e:	e7d7      	b.n	8001b10 <HAL_RCC_OscConfig+0x8c>
 8001b60:	2338      	movs	r3, #56	; 0x38
 8001b62:	4d93      	ldr	r5, [pc, #588]	; (8001db0 <HAL_RCC_OscConfig+0x32c>)
 8001b64:	68aa      	ldr	r2, [r5, #8]
 8001b66:	4013      	ands	r3, r2
 8001b68:	68ea      	ldr	r2, [r5, #12]
 8001b6a:	2b10      	cmp	r3, #16
 8001b6c:	d128      	bne.n	8001bc0 <HAL_RCC_OscConfig+0x13c>
 8001b6e:	2103      	movs	r1, #3
 8001b70:	400a      	ands	r2, r1
 8001b72:	2a02      	cmp	r2, #2
 8001b74:	d126      	bne.n	8001bc4 <HAL_RCC_OscConfig+0x140>
 8001b76:	682a      	ldr	r2, [r5, #0]
 8001b78:	0552      	lsls	r2, r2, #21
 8001b7a:	d502      	bpl.n	8001b82 <HAL_RCC_OscConfig+0xfe>
 8001b7c:	68e2      	ldr	r2, [r4, #12]
 8001b7e:	2a00      	cmp	r2, #0
 8001b80:	d0ad      	beq.n	8001ade <HAL_RCC_OscConfig+0x5a>
 8001b82:	6869      	ldr	r1, [r5, #4]
 8001b84:	6962      	ldr	r2, [r4, #20]
 8001b86:	488d      	ldr	r0, [pc, #564]	; (8001dbc <HAL_RCC_OscConfig+0x338>)
 8001b88:	0212      	lsls	r2, r2, #8
 8001b8a:	4001      	ands	r1, r0
 8001b8c:	430a      	orrs	r2, r1
 8001b8e:	606a      	str	r2, [r5, #4]
 8001b90:	2b00      	cmp	r3, #0
 8001b92:	d10d      	bne.n	8001bb0 <HAL_RCC_OscConfig+0x12c>
 8001b94:	682b      	ldr	r3, [r5, #0]
 8001b96:	4a8a      	ldr	r2, [pc, #552]	; (8001dc0 <HAL_RCC_OscConfig+0x33c>)
 8001b98:	4013      	ands	r3, r2
 8001b9a:	6922      	ldr	r2, [r4, #16]
 8001b9c:	4313      	orrs	r3, r2
 8001b9e:	602b      	str	r3, [r5, #0]
 8001ba0:	682b      	ldr	r3, [r5, #0]
 8001ba2:	4a88      	ldr	r2, [pc, #544]	; (8001dc4 <HAL_RCC_OscConfig+0x340>)
 8001ba4:	049b      	lsls	r3, r3, #18
 8001ba6:	0f5b      	lsrs	r3, r3, #29
 8001ba8:	40da      	lsrs	r2, r3
 8001baa:	0013      	movs	r3, r2
 8001bac:	4a86      	ldr	r2, [pc, #536]	; (8001dc8 <HAL_RCC_OscConfig+0x344>)
 8001bae:	6013      	str	r3, [r2, #0]
 8001bb0:	4b86      	ldr	r3, [pc, #536]	; (8001dcc <HAL_RCC_OscConfig+0x348>)
 8001bb2:	6818      	ldr	r0, [r3, #0]
 8001bb4:	f7ff f9be 	bl	8000f34 <HAL_InitTick>
 8001bb8:	2800      	cmp	r0, #0
 8001bba:	d100      	bne.n	8001bbe <HAL_RCC_OscConfig+0x13a>
 8001bbc:	e76d      	b.n	8001a9a <HAL_RCC_OscConfig+0x16>
 8001bbe:	e78e      	b.n	8001ade <HAL_RCC_OscConfig+0x5a>
 8001bc0:	2b00      	cmp	r3, #0
 8001bc2:	d0d8      	beq.n	8001b76 <HAL_RCC_OscConfig+0xf2>
 8001bc4:	68e3      	ldr	r3, [r4, #12]
 8001bc6:	2b00      	cmp	r3, #0
 8001bc8:	d020      	beq.n	8001c0c <HAL_RCC_OscConfig+0x188>
 8001bca:	682b      	ldr	r3, [r5, #0]
 8001bcc:	4a7c      	ldr	r2, [pc, #496]	; (8001dc0 <HAL_RCC_OscConfig+0x33c>)
 8001bce:	2780      	movs	r7, #128	; 0x80
 8001bd0:	4013      	ands	r3, r2
 8001bd2:	6922      	ldr	r2, [r4, #16]
 8001bd4:	00ff      	lsls	r7, r7, #3
 8001bd6:	4313      	orrs	r3, r2
 8001bd8:	602b      	str	r3, [r5, #0]
 8001bda:	2380      	movs	r3, #128	; 0x80
 8001bdc:	682a      	ldr	r2, [r5, #0]
 8001bde:	005b      	lsls	r3, r3, #1
 8001be0:	4313      	orrs	r3, r2
 8001be2:	602b      	str	r3, [r5, #0]
 8001be4:	f7ff f9ee 	bl	8000fc4 <HAL_GetTick>
 8001be8:	0006      	movs	r6, r0
 8001bea:	682b      	ldr	r3, [r5, #0]
 8001bec:	423b      	tst	r3, r7
 8001bee:	d007      	beq.n	8001c00 <HAL_RCC_OscConfig+0x17c>
 8001bf0:	686a      	ldr	r2, [r5, #4]
 8001bf2:	6963      	ldr	r3, [r4, #20]
 8001bf4:	4971      	ldr	r1, [pc, #452]	; (8001dbc <HAL_RCC_OscConfig+0x338>)
 8001bf6:	021b      	lsls	r3, r3, #8
 8001bf8:	400a      	ands	r2, r1
 8001bfa:	4313      	orrs	r3, r2
 8001bfc:	606b      	str	r3, [r5, #4]
 8001bfe:	e74c      	b.n	8001a9a <HAL_RCC_OscConfig+0x16>
 8001c00:	f7ff f9e0 	bl	8000fc4 <HAL_GetTick>
 8001c04:	1b80      	subs	r0, r0, r6
 8001c06:	2802      	cmp	r0, #2
 8001c08:	d9ef      	bls.n	8001bea <HAL_RCC_OscConfig+0x166>
 8001c0a:	e781      	b.n	8001b10 <HAL_RCC_OscConfig+0x8c>
 8001c0c:	682b      	ldr	r3, [r5, #0]
 8001c0e:	4a70      	ldr	r2, [pc, #448]	; (8001dd0 <HAL_RCC_OscConfig+0x34c>)
 8001c10:	2780      	movs	r7, #128	; 0x80
 8001c12:	4013      	ands	r3, r2
 8001c14:	602b      	str	r3, [r5, #0]
 8001c16:	f7ff f9d5 	bl	8000fc4 <HAL_GetTick>
 8001c1a:	0006      	movs	r6, r0
 8001c1c:	00ff      	lsls	r7, r7, #3
 8001c1e:	682b      	ldr	r3, [r5, #0]
 8001c20:	423b      	tst	r3, r7
 8001c22:	d100      	bne.n	8001c26 <HAL_RCC_OscConfig+0x1a2>
 8001c24:	e739      	b.n	8001a9a <HAL_RCC_OscConfig+0x16>
 8001c26:	f7ff f9cd 	bl	8000fc4 <HAL_GetTick>
 8001c2a:	1b80      	subs	r0, r0, r6
 8001c2c:	2802      	cmp	r0, #2
 8001c2e:	d9f6      	bls.n	8001c1e <HAL_RCC_OscConfig+0x19a>
 8001c30:	e76e      	b.n	8001b10 <HAL_RCC_OscConfig+0x8c>
 8001c32:	2238      	movs	r2, #56	; 0x38
 8001c34:	4d5e      	ldr	r5, [pc, #376]	; (8001db0 <HAL_RCC_OscConfig+0x32c>)
 8001c36:	68ab      	ldr	r3, [r5, #8]
 8001c38:	4013      	ands	r3, r2
 8001c3a:	2b18      	cmp	r3, #24
 8001c3c:	d108      	bne.n	8001c50 <HAL_RCC_OscConfig+0x1cc>
 8001c3e:	6e2b      	ldr	r3, [r5, #96]	; 0x60
 8001c40:	079b      	lsls	r3, r3, #30
 8001c42:	d400      	bmi.n	8001c46 <HAL_RCC_OscConfig+0x1c2>
 8001c44:	e72d      	b.n	8001aa2 <HAL_RCC_OscConfig+0x1e>
 8001c46:	69a3      	ldr	r3, [r4, #24]
 8001c48:	2b00      	cmp	r3, #0
 8001c4a:	d000      	beq.n	8001c4e <HAL_RCC_OscConfig+0x1ca>
 8001c4c:	e729      	b.n	8001aa2 <HAL_RCC_OscConfig+0x1e>
 8001c4e:	e746      	b.n	8001ade <HAL_RCC_OscConfig+0x5a>
 8001c50:	69a2      	ldr	r2, [r4, #24]
 8001c52:	2301      	movs	r3, #1
 8001c54:	2a00      	cmp	r2, #0
 8001c56:	d010      	beq.n	8001c7a <HAL_RCC_OscConfig+0x1f6>
 8001c58:	6e2a      	ldr	r2, [r5, #96]	; 0x60
 8001c5a:	2702      	movs	r7, #2
 8001c5c:	4313      	orrs	r3, r2
 8001c5e:	662b      	str	r3, [r5, #96]	; 0x60
 8001c60:	f7ff f9b0 	bl	8000fc4 <HAL_GetTick>
 8001c64:	0006      	movs	r6, r0
 8001c66:	6e2b      	ldr	r3, [r5, #96]	; 0x60
 8001c68:	423b      	tst	r3, r7
 8001c6a:	d000      	beq.n	8001c6e <HAL_RCC_OscConfig+0x1ea>
 8001c6c:	e719      	b.n	8001aa2 <HAL_RCC_OscConfig+0x1e>
 8001c6e:	f7ff f9a9 	bl	8000fc4 <HAL_GetTick>
 8001c72:	1b80      	subs	r0, r0, r6
 8001c74:	2802      	cmp	r0, #2
 8001c76:	d9f6      	bls.n	8001c66 <HAL_RCC_OscConfig+0x1e2>
 8001c78:	e74a      	b.n	8001b10 <HAL_RCC_OscConfig+0x8c>
 8001c7a:	6e2a      	ldr	r2, [r5, #96]	; 0x60
 8001c7c:	2702      	movs	r7, #2
 8001c7e:	439a      	bics	r2, r3
 8001c80:	662a      	str	r2, [r5, #96]	; 0x60
 8001c82:	f7ff f99f 	bl	8000fc4 <HAL_GetTick>
 8001c86:	0006      	movs	r6, r0
 8001c88:	6e2b      	ldr	r3, [r5, #96]	; 0x60
 8001c8a:	423b      	tst	r3, r7
 8001c8c:	d100      	bne.n	8001c90 <HAL_RCC_OscConfig+0x20c>
 8001c8e:	e708      	b.n	8001aa2 <HAL_RCC_OscConfig+0x1e>
 8001c90:	f7ff f998 	bl	8000fc4 <HAL_GetTick>
 8001c94:	1b80      	subs	r0, r0, r6
 8001c96:	2802      	cmp	r0, #2
 8001c98:	d9f6      	bls.n	8001c88 <HAL_RCC_OscConfig+0x204>
 8001c9a:	e739      	b.n	8001b10 <HAL_RCC_OscConfig+0x8c>
 8001c9c:	2238      	movs	r2, #56	; 0x38
 8001c9e:	4d44      	ldr	r5, [pc, #272]	; (8001db0 <HAL_RCC_OscConfig+0x32c>)
 8001ca0:	68ab      	ldr	r3, [r5, #8]
 8001ca2:	4013      	ands	r3, r2
 8001ca4:	2b20      	cmp	r3, #32
 8001ca6:	d108      	bne.n	8001cba <HAL_RCC_OscConfig+0x236>
 8001ca8:	6deb      	ldr	r3, [r5, #92]	; 0x5c
 8001caa:	079b      	lsls	r3, r3, #30
 8001cac:	d400      	bmi.n	8001cb0 <HAL_RCC_OscConfig+0x22c>
 8001cae:	e6fc      	b.n	8001aaa <HAL_RCC_OscConfig+0x26>
 8001cb0:	68a3      	ldr	r3, [r4, #8]
 8001cb2:	2b00      	cmp	r3, #0
 8001cb4:	d000      	beq.n	8001cb8 <HAL_RCC_OscConfig+0x234>
 8001cb6:	e6f8      	b.n	8001aaa <HAL_RCC_OscConfig+0x26>
 8001cb8:	e711      	b.n	8001ade <HAL_RCC_OscConfig+0x5a>
 8001cba:	2280      	movs	r2, #128	; 0x80
 8001cbc:	2100      	movs	r1, #0
 8001cbe:	6beb      	ldr	r3, [r5, #60]	; 0x3c
 8001cc0:	0552      	lsls	r2, r2, #21
 8001cc2:	9100      	str	r1, [sp, #0]
 8001cc4:	4213      	tst	r3, r2
 8001cc6:	d108      	bne.n	8001cda <HAL_RCC_OscConfig+0x256>
 8001cc8:	6beb      	ldr	r3, [r5, #60]	; 0x3c
 8001cca:	4313      	orrs	r3, r2
 8001ccc:	63eb      	str	r3, [r5, #60]	; 0x3c
 8001cce:	6beb      	ldr	r3, [r5, #60]	; 0x3c
 8001cd0:	4013      	ands	r3, r2
 8001cd2:	9303      	str	r3, [sp, #12]
 8001cd4:	9b03      	ldr	r3, [sp, #12]
 8001cd6:	2301      	movs	r3, #1
 8001cd8:	9300      	str	r3, [sp, #0]
 8001cda:	2780      	movs	r7, #128	; 0x80
 8001cdc:	4e3d      	ldr	r6, [pc, #244]	; (8001dd4 <HAL_RCC_OscConfig+0x350>)
 8001cde:	007f      	lsls	r7, r7, #1
 8001ce0:	6833      	ldr	r3, [r6, #0]
 8001ce2:	423b      	tst	r3, r7
 8001ce4:	d015      	beq.n	8001d12 <HAL_RCC_OscConfig+0x28e>
 8001ce6:	68a3      	ldr	r3, [r4, #8]
 8001ce8:	2b01      	cmp	r3, #1
 8001cea:	d122      	bne.n	8001d32 <HAL_RCC_OscConfig+0x2ae>
 8001cec:	6dea      	ldr	r2, [r5, #92]	; 0x5c
 8001cee:	4313      	orrs	r3, r2
 8001cf0:	65eb      	str	r3, [r5, #92]	; 0x5c
 8001cf2:	f7ff f967 	bl	8000fc4 <HAL_GetTick>
 8001cf6:	2702      	movs	r7, #2
 8001cf8:	0006      	movs	r6, r0
 8001cfa:	6deb      	ldr	r3, [r5, #92]	; 0x5c
 8001cfc:	423b      	tst	r3, r7
 8001cfe:	d038      	beq.n	8001d72 <HAL_RCC_OscConfig+0x2ee>
 8001d00:	9b00      	ldr	r3, [sp, #0]
 8001d02:	2b01      	cmp	r3, #1
 8001d04:	d000      	beq.n	8001d08 <HAL_RCC_OscConfig+0x284>
 8001d06:	e6d0      	b.n	8001aaa <HAL_RCC_OscConfig+0x26>
 8001d08:	6beb      	ldr	r3, [r5, #60]	; 0x3c
 8001d0a:	4a33      	ldr	r2, [pc, #204]	; (8001dd8 <HAL_RCC_OscConfig+0x354>)
 8001d0c:	4013      	ands	r3, r2
 8001d0e:	63eb      	str	r3, [r5, #60]	; 0x3c
 8001d10:	e6cb      	b.n	8001aaa <HAL_RCC_OscConfig+0x26>
 8001d12:	6833      	ldr	r3, [r6, #0]
 8001d14:	433b      	orrs	r3, r7
 8001d16:	6033      	str	r3, [r6, #0]
 8001d18:	f7ff f954 	bl	8000fc4 <HAL_GetTick>
 8001d1c:	9001      	str	r0, [sp, #4]
 8001d1e:	6833      	ldr	r3, [r6, #0]
 8001d20:	423b      	tst	r3, r7
 8001d22:	d1e0      	bne.n	8001ce6 <HAL_RCC_OscConfig+0x262>
 8001d24:	f7ff f94e 	bl	8000fc4 <HAL_GetTick>
 8001d28:	9b01      	ldr	r3, [sp, #4]
 8001d2a:	1ac0      	subs	r0, r0, r3
 8001d2c:	2802      	cmp	r0, #2
 8001d2e:	d9f6      	bls.n	8001d1e <HAL_RCC_OscConfig+0x29a>
 8001d30:	e6ee      	b.n	8001b10 <HAL_RCC_OscConfig+0x8c>
 8001d32:	6dea      	ldr	r2, [r5, #92]	; 0x5c
 8001d34:	2b05      	cmp	r3, #5
 8001d36:	d105      	bne.n	8001d44 <HAL_RCC_OscConfig+0x2c0>
 8001d38:	3b01      	subs	r3, #1
 8001d3a:	4313      	orrs	r3, r2
 8001d3c:	65eb      	str	r3, [r5, #92]	; 0x5c
 8001d3e:	6dea      	ldr	r2, [r5, #92]	; 0x5c
 8001d40:	2301      	movs	r3, #1
 8001d42:	e7d4      	b.n	8001cee <HAL_RCC_OscConfig+0x26a>
 8001d44:	2101      	movs	r1, #1
 8001d46:	438a      	bics	r2, r1
 8001d48:	65ea      	str	r2, [r5, #92]	; 0x5c
 8001d4a:	6dea      	ldr	r2, [r5, #92]	; 0x5c
 8001d4c:	3103      	adds	r1, #3
 8001d4e:	438a      	bics	r2, r1
 8001d50:	65ea      	str	r2, [r5, #92]	; 0x5c
 8001d52:	2b00      	cmp	r3, #0
 8001d54:	d1cd      	bne.n	8001cf2 <HAL_RCC_OscConfig+0x26e>
 8001d56:	f7ff f935 	bl	8000fc4 <HAL_GetTick>
 8001d5a:	2702      	movs	r7, #2
 8001d5c:	0006      	movs	r6, r0
 8001d5e:	6deb      	ldr	r3, [r5, #92]	; 0x5c
 8001d60:	423b      	tst	r3, r7
 8001d62:	d0cd      	beq.n	8001d00 <HAL_RCC_OscConfig+0x27c>
 8001d64:	f7ff f92e 	bl	8000fc4 <HAL_GetTick>
 8001d68:	4b1c      	ldr	r3, [pc, #112]	; (8001ddc <HAL_RCC_OscConfig+0x358>)
 8001d6a:	1b80      	subs	r0, r0, r6
 8001d6c:	4298      	cmp	r0, r3
 8001d6e:	d9f6      	bls.n	8001d5e <HAL_RCC_OscConfig+0x2da>
 8001d70:	e6ce      	b.n	8001b10 <HAL_RCC_OscConfig+0x8c>
 8001d72:	f7ff f927 	bl	8000fc4 <HAL_GetTick>
 8001d76:	4b19      	ldr	r3, [pc, #100]	; (8001ddc <HAL_RCC_OscConfig+0x358>)
 8001d78:	1b80      	subs	r0, r0, r6
 8001d7a:	4298      	cmp	r0, r3
 8001d7c:	d9bd      	bls.n	8001cfa <HAL_RCC_OscConfig+0x276>
 8001d7e:	e6c7      	b.n	8001b10 <HAL_RCC_OscConfig+0x8c>
 8001d80:	69e3      	ldr	r3, [r4, #28]
 8001d82:	4d0b      	ldr	r5, [pc, #44]	; (8001db0 <HAL_RCC_OscConfig+0x32c>)
 8001d84:	2b00      	cmp	r3, #0
 8001d86:	d02b      	beq.n	8001de0 <HAL_RCC_OscConfig+0x35c>
 8001d88:	2380      	movs	r3, #128	; 0x80
 8001d8a:	682a      	ldr	r2, [r5, #0]
 8001d8c:	03db      	lsls	r3, r3, #15
 8001d8e:	4313      	orrs	r3, r2
 8001d90:	602b      	str	r3, [r5, #0]
 8001d92:	f7ff f917 	bl	8000fc4 <HAL_GetTick>
 8001d96:	2780      	movs	r7, #128	; 0x80
 8001d98:	0006      	movs	r6, r0
 8001d9a:	043f      	lsls	r7, r7, #16
 8001d9c:	682b      	ldr	r3, [r5, #0]
 8001d9e:	423b      	tst	r3, r7
 8001da0:	d000      	beq.n	8001da4 <HAL_RCC_OscConfig+0x320>
 8001da2:	e686      	b.n	8001ab2 <HAL_RCC_OscConfig+0x2e>
 8001da4:	f7ff f90e 	bl	8000fc4 <HAL_GetTick>
 8001da8:	1b80      	subs	r0, r0, r6
 8001daa:	2802      	cmp	r0, #2
 8001dac:	d9f6      	bls.n	8001d9c <HAL_RCC_OscConfig+0x318>
 8001dae:	e6af      	b.n	8001b10 <HAL_RCC_OscConfig+0x8c>
 8001db0:	40021000 	.word	0x40021000
 8001db4:	fffeffff 	.word	0xfffeffff
 8001db8:	fffbffff 	.word	0xfffbffff
 8001dbc:	ffff80ff 	.word	0xffff80ff
 8001dc0:	ffffc7ff 	.word	0xffffc7ff
 8001dc4:	00f42400 	.word	0x00f42400
 8001dc8:	20000000 	.word	0x20000000
 8001dcc:	20000008 	.word	0x20000008
 8001dd0:	fffffeff 	.word	0xfffffeff
 8001dd4:	40007000 	.word	0x40007000
 8001dd8:	efffffff 	.word	0xefffffff
 8001ddc:	00001388 	.word	0x00001388
 8001de0:	682b      	ldr	r3, [r5, #0]
 8001de2:	4a4e      	ldr	r2, [pc, #312]	; (8001f1c <HAL_RCC_OscConfig+0x498>)
 8001de4:	2780      	movs	r7, #128	; 0x80
 8001de6:	4013      	ands	r3, r2
 8001de8:	602b      	str	r3, [r5, #0]
 8001dea:	f7ff f8eb 	bl	8000fc4 <HAL_GetTick>
 8001dee:	0006      	movs	r6, r0
 8001df0:	043f      	lsls	r7, r7, #16
 8001df2:	682b      	ldr	r3, [r5, #0]
 8001df4:	423b      	tst	r3, r7
 8001df6:	d100      	bne.n	8001dfa <HAL_RCC_OscConfig+0x376>
 8001df8:	e65b      	b.n	8001ab2 <HAL_RCC_OscConfig+0x2e>
 8001dfa:	f7ff f8e3 	bl	8000fc4 <HAL_GetTick>
 8001dfe:	1b80      	subs	r0, r0, r6
 8001e00:	2802      	cmp	r0, #2
 8001e02:	d9f6      	bls.n	8001df2 <HAL_RCC_OscConfig+0x36e>
 8001e04:	e684      	b.n	8001b10 <HAL_RCC_OscConfig+0x8c>
 8001e06:	2138      	movs	r1, #56	; 0x38
 8001e08:	4d45      	ldr	r5, [pc, #276]	; (8001f20 <HAL_RCC_OscConfig+0x49c>)
 8001e0a:	68aa      	ldr	r2, [r5, #8]
 8001e0c:	400a      	ands	r2, r1
 8001e0e:	2a10      	cmp	r2, #16
 8001e10:	d055      	beq.n	8001ebe <HAL_RCC_OscConfig+0x43a>
 8001e12:	4a44      	ldr	r2, [pc, #272]	; (8001f24 <HAL_RCC_OscConfig+0x4a0>)
 8001e14:	2b02      	cmp	r3, #2
 8001e16:	d13a      	bne.n	8001e8e <HAL_RCC_OscConfig+0x40a>
 8001e18:	682b      	ldr	r3, [r5, #0]
 8001e1a:	2780      	movs	r7, #128	; 0x80
 8001e1c:	4013      	ands	r3, r2
 8001e1e:	602b      	str	r3, [r5, #0]
 8001e20:	f7ff f8d0 	bl	8000fc4 <HAL_GetTick>
 8001e24:	0006      	movs	r6, r0
 8001e26:	04bf      	lsls	r7, r7, #18
 8001e28:	682b      	ldr	r3, [r5, #0]
 8001e2a:	423b      	tst	r3, r7
 8001e2c:	d129      	bne.n	8001e82 <HAL_RCC_OscConfig+0x3fe>
 8001e2e:	6aa1      	ldr	r1, [r4, #40]	; 0x28
 8001e30:	6a63      	ldr	r3, [r4, #36]	; 0x24
 8001e32:	68ea      	ldr	r2, [r5, #12]
 8001e34:	430b      	orrs	r3, r1
 8001e36:	493c      	ldr	r1, [pc, #240]	; (8001f28 <HAL_RCC_OscConfig+0x4a4>)
 8001e38:	2680      	movs	r6, #128	; 0x80
 8001e3a:	400a      	ands	r2, r1
 8001e3c:	4313      	orrs	r3, r2
 8001e3e:	6b22      	ldr	r2, [r4, #48]	; 0x30
 8001e40:	04b6      	lsls	r6, r6, #18
 8001e42:	4313      	orrs	r3, r2
 8001e44:	6b62      	ldr	r2, [r4, #52]	; 0x34
 8001e46:	4313      	orrs	r3, r2
 8001e48:	6ba2      	ldr	r2, [r4, #56]	; 0x38
 8001e4a:	4313      	orrs	r3, r2
 8001e4c:	6ae2      	ldr	r2, [r4, #44]	; 0x2c
 8001e4e:	0212      	lsls	r2, r2, #8
 8001e50:	4313      	orrs	r3, r2
 8001e52:	60eb      	str	r3, [r5, #12]
 8001e54:	2380      	movs	r3, #128	; 0x80
 8001e56:	682a      	ldr	r2, [r5, #0]
 8001e58:	045b      	lsls	r3, r3, #17
 8001e5a:	4313      	orrs	r3, r2
 8001e5c:	602b      	str	r3, [r5, #0]
 8001e5e:	2380      	movs	r3, #128	; 0x80
 8001e60:	68ea      	ldr	r2, [r5, #12]
 8001e62:	055b      	lsls	r3, r3, #21
 8001e64:	4313      	orrs	r3, r2
 8001e66:	60eb      	str	r3, [r5, #12]
 8001e68:	f7ff f8ac 	bl	8000fc4 <HAL_GetTick>
 8001e6c:	0004      	movs	r4, r0
 8001e6e:	682b      	ldr	r3, [r5, #0]
 8001e70:	4233      	tst	r3, r6
 8001e72:	d000      	beq.n	8001e76 <HAL_RCC_OscConfig+0x3f2>
 8001e74:	e621      	b.n	8001aba <HAL_RCC_OscConfig+0x36>
 8001e76:	f7ff f8a5 	bl	8000fc4 <HAL_GetTick>
 8001e7a:	1b00      	subs	r0, r0, r4
 8001e7c:	2802      	cmp	r0, #2
 8001e7e:	d9f6      	bls.n	8001e6e <HAL_RCC_OscConfig+0x3ea>
 8001e80:	e646      	b.n	8001b10 <HAL_RCC_OscConfig+0x8c>
 8001e82:	f7ff f89f 	bl	8000fc4 <HAL_GetTick>
 8001e86:	1b80      	subs	r0, r0, r6
 8001e88:	2802      	cmp	r0, #2
 8001e8a:	d9cd      	bls.n	8001e28 <HAL_RCC_OscConfig+0x3a4>
 8001e8c:	e640      	b.n	8001b10 <HAL_RCC_OscConfig+0x8c>
 8001e8e:	682b      	ldr	r3, [r5, #0]
 8001e90:	2680      	movs	r6, #128	; 0x80
 8001e92:	4013      	ands	r3, r2
 8001e94:	602b      	str	r3, [r5, #0]
 8001e96:	f7ff f895 	bl	8000fc4 <HAL_GetTick>
 8001e9a:	0004      	movs	r4, r0
 8001e9c:	04b6      	lsls	r6, r6, #18
 8001e9e:	682b      	ldr	r3, [r5, #0]
 8001ea0:	0018      	movs	r0, r3
 8001ea2:	4030      	ands	r0, r6
 8001ea4:	4233      	tst	r3, r6
 8001ea6:	d104      	bne.n	8001eb2 <HAL_RCC_OscConfig+0x42e>
 8001ea8:	68eb      	ldr	r3, [r5, #12]
 8001eaa:	4a20      	ldr	r2, [pc, #128]	; (8001f2c <HAL_RCC_OscConfig+0x4a8>)
 8001eac:	4013      	ands	r3, r2
 8001eae:	60eb      	str	r3, [r5, #12]
 8001eb0:	e62f      	b.n	8001b12 <HAL_RCC_OscConfig+0x8e>
 8001eb2:	f7ff f887 	bl	8000fc4 <HAL_GetTick>
 8001eb6:	1b00      	subs	r0, r0, r4
 8001eb8:	2802      	cmp	r0, #2
 8001eba:	d9f0      	bls.n	8001e9e <HAL_RCC_OscConfig+0x41a>
 8001ebc:	e628      	b.n	8001b10 <HAL_RCC_OscConfig+0x8c>
 8001ebe:	0018      	movs	r0, r3
 8001ec0:	2b01      	cmp	r3, #1
 8001ec2:	d100      	bne.n	8001ec6 <HAL_RCC_OscConfig+0x442>
 8001ec4:	e625      	b.n	8001b12 <HAL_RCC_OscConfig+0x8e>
 8001ec6:	2203      	movs	r2, #3
 8001ec8:	68eb      	ldr	r3, [r5, #12]
 8001eca:	6a61      	ldr	r1, [r4, #36]	; 0x24
 8001ecc:	401a      	ands	r2, r3
 8001ece:	428a      	cmp	r2, r1
 8001ed0:	d000      	beq.n	8001ed4 <HAL_RCC_OscConfig+0x450>
 8001ed2:	e604      	b.n	8001ade <HAL_RCC_OscConfig+0x5a>
 8001ed4:	2270      	movs	r2, #112	; 0x70
 8001ed6:	6aa1      	ldr	r1, [r4, #40]	; 0x28
 8001ed8:	401a      	ands	r2, r3
 8001eda:	428a      	cmp	r2, r1
 8001edc:	d000      	beq.n	8001ee0 <HAL_RCC_OscConfig+0x45c>
 8001ede:	e5fe      	b.n	8001ade <HAL_RCC_OscConfig+0x5a>
 8001ee0:	21fe      	movs	r1, #254	; 0xfe
 8001ee2:	6ae2      	ldr	r2, [r4, #44]	; 0x2c
 8001ee4:	01c9      	lsls	r1, r1, #7
 8001ee6:	4019      	ands	r1, r3
 8001ee8:	0212      	lsls	r2, r2, #8
 8001eea:	4291      	cmp	r1, r2
 8001eec:	d000      	beq.n	8001ef0 <HAL_RCC_OscConfig+0x46c>
 8001eee:	e5f6      	b.n	8001ade <HAL_RCC_OscConfig+0x5a>
 8001ef0:	22f8      	movs	r2, #248	; 0xf8
 8001ef2:	6b21      	ldr	r1, [r4, #48]	; 0x30
 8001ef4:	0392      	lsls	r2, r2, #14
 8001ef6:	401a      	ands	r2, r3
 8001ef8:	428a      	cmp	r2, r1
 8001efa:	d000      	beq.n	8001efe <HAL_RCC_OscConfig+0x47a>
 8001efc:	e5ef      	b.n	8001ade <HAL_RCC_OscConfig+0x5a>
 8001efe:	22e0      	movs	r2, #224	; 0xe0
 8001f00:	6b61      	ldr	r1, [r4, #52]	; 0x34
 8001f02:	0512      	lsls	r2, r2, #20
 8001f04:	401a      	ands	r2, r3
 8001f06:	428a      	cmp	r2, r1
 8001f08:	d000      	beq.n	8001f0c <HAL_RCC_OscConfig+0x488>
 8001f0a:	e5e8      	b.n	8001ade <HAL_RCC_OscConfig+0x5a>
 8001f0c:	6ba2      	ldr	r2, [r4, #56]	; 0x38
 8001f0e:	0f5b      	lsrs	r3, r3, #29
 8001f10:	075b      	lsls	r3, r3, #29
 8001f12:	4293      	cmp	r3, r2
 8001f14:	d100      	bne.n	8001f18 <HAL_RCC_OscConfig+0x494>
 8001f16:	e5d0      	b.n	8001aba <HAL_RCC_OscConfig+0x36>
 8001f18:	e5e1      	b.n	8001ade <HAL_RCC_OscConfig+0x5a>
 8001f1a:	46c0      	nop			; (mov r8, r8)
 8001f1c:	ffbfffff 	.word	0xffbfffff
 8001f20:	40021000 	.word	0x40021000
 8001f24:	feffffff 	.word	0xfeffffff
 8001f28:	11c1808c 	.word	0x11c1808c
 8001f2c:	eefefffc 	.word	0xeefefffc

08001f30 <HAL_RCC_GetSysClockFreq>:
 8001f30:	2338      	movs	r3, #56	; 0x38
 8001f32:	b570      	push	{r4, r5, r6, lr}
 8001f34:	4c1e      	ldr	r4, [pc, #120]	; (8001fb0 <HAL_RCC_GetSysClockFreq+0x80>)
 8001f36:	68a2      	ldr	r2, [r4, #8]
 8001f38:	421a      	tst	r2, r3
 8001f3a:	d105      	bne.n	8001f48 <HAL_RCC_GetSysClockFreq+0x18>
 8001f3c:	6823      	ldr	r3, [r4, #0]
 8001f3e:	481d      	ldr	r0, [pc, #116]	; (8001fb4 <HAL_RCC_GetSysClockFreq+0x84>)
 8001f40:	049b      	lsls	r3, r3, #18
 8001f42:	0f5b      	lsrs	r3, r3, #29
 8001f44:	40d8      	lsrs	r0, r3
 8001f46:	bd70      	pop	{r4, r5, r6, pc}
 8001f48:	68a2      	ldr	r2, [r4, #8]
 8001f4a:	401a      	ands	r2, r3
 8001f4c:	2a08      	cmp	r2, #8
 8001f4e:	d02a      	beq.n	8001fa6 <HAL_RCC_GetSysClockFreq+0x76>
 8001f50:	68a2      	ldr	r2, [r4, #8]
 8001f52:	401a      	ands	r2, r3
 8001f54:	2a10      	cmp	r2, #16
 8001f56:	d11a      	bne.n	8001f8e <HAL_RCC_GetSysClockFreq+0x5e>
 8001f58:	68e3      	ldr	r3, [r4, #12]
 8001f5a:	68e1      	ldr	r1, [r4, #12]
 8001f5c:	43db      	mvns	r3, r3
 8001f5e:	0649      	lsls	r1, r1, #25
 8001f60:	0f49      	lsrs	r1, r1, #29
 8001f62:	257f      	movs	r5, #127	; 0x7f
 8001f64:	3101      	adds	r1, #1
 8001f66:	079b      	lsls	r3, r3, #30
 8001f68:	d10c      	bne.n	8001f84 <HAL_RCC_GetSysClockFreq+0x54>
 8001f6a:	68e3      	ldr	r3, [r4, #12]
 8001f6c:	4812      	ldr	r0, [pc, #72]	; (8001fb8 <HAL_RCC_GetSysClockFreq+0x88>)
 8001f6e:	0a1b      	lsrs	r3, r3, #8
 8001f70:	401d      	ands	r5, r3
 8001f72:	f7fe f8db 	bl	800012c <__udivsi3>
 8001f76:	68e1      	ldr	r1, [r4, #12]
 8001f78:	4368      	muls	r0, r5
 8001f7a:	0f49      	lsrs	r1, r1, #29
 8001f7c:	3101      	adds	r1, #1
 8001f7e:	f7fe f8d5 	bl	800012c <__udivsi3>
 8001f82:	e7e0      	b.n	8001f46 <HAL_RCC_GetSysClockFreq+0x16>
 8001f84:	68e3      	ldr	r3, [r4, #12]
 8001f86:	480b      	ldr	r0, [pc, #44]	; (8001fb4 <HAL_RCC_GetSysClockFreq+0x84>)
 8001f88:	0a1b      	lsrs	r3, r3, #8
 8001f8a:	401d      	ands	r5, r3
 8001f8c:	e7f1      	b.n	8001f72 <HAL_RCC_GetSysClockFreq+0x42>
 8001f8e:	68a2      	ldr	r2, [r4, #8]
 8001f90:	401a      	ands	r2, r3
 8001f92:	2a20      	cmp	r2, #32
 8001f94:	d009      	beq.n	8001faa <HAL_RCC_GetSysClockFreq+0x7a>
 8001f96:	68a2      	ldr	r2, [r4, #8]
 8001f98:	2000      	movs	r0, #0
 8001f9a:	4013      	ands	r3, r2
 8001f9c:	2b18      	cmp	r3, #24
 8001f9e:	d1d2      	bne.n	8001f46 <HAL_RCC_GetSysClockFreq+0x16>
 8001fa0:	20fa      	movs	r0, #250	; 0xfa
 8001fa2:	01c0      	lsls	r0, r0, #7
 8001fa4:	e7cf      	b.n	8001f46 <HAL_RCC_GetSysClockFreq+0x16>
 8001fa6:	4804      	ldr	r0, [pc, #16]	; (8001fb8 <HAL_RCC_GetSysClockFreq+0x88>)
 8001fa8:	e7cd      	b.n	8001f46 <HAL_RCC_GetSysClockFreq+0x16>
 8001faa:	2080      	movs	r0, #128	; 0x80
 8001fac:	0200      	lsls	r0, r0, #8
 8001fae:	e7ca      	b.n	8001f46 <HAL_RCC_GetSysClockFreq+0x16>
 8001fb0:	40021000 	.word	0x40021000
 8001fb4:	00f42400 	.word	0x00f42400
 8001fb8:	007a1200 	.word	0x007a1200

08001fbc <HAL_RCC_ClockConfig>:
 8001fbc:	b5f7      	push	{r0, r1, r2, r4, r5, r6, r7, lr}
 8001fbe:	0004      	movs	r4, r0
 8001fc0:	000d      	movs	r5, r1
 8001fc2:	2800      	cmp	r0, #0
 8001fc4:	d101      	bne.n	8001fca <HAL_RCC_ClockConfig+0xe>
 8001fc6:	2001      	movs	r0, #1
 8001fc8:	bdfe      	pop	{r1, r2, r3, r4, r5, r6, r7, pc}
 8001fca:	2707      	movs	r7, #7
 8001fcc:	4e4a      	ldr	r6, [pc, #296]	; (80020f8 <HAL_RCC_ClockConfig+0x13c>)
 8001fce:	6833      	ldr	r3, [r6, #0]
 8001fd0:	403b      	ands	r3, r7
 8001fd2:	428b      	cmp	r3, r1
 8001fd4:	d32a      	bcc.n	800202c <HAL_RCC_ClockConfig+0x70>
 8001fd6:	6821      	ldr	r1, [r4, #0]
 8001fd8:	078b      	lsls	r3, r1, #30
 8001fda:	d43b      	bmi.n	8002054 <HAL_RCC_ClockConfig+0x98>
 8001fdc:	07cb      	lsls	r3, r1, #31
 8001fde:	d448      	bmi.n	8002072 <HAL_RCC_ClockConfig+0xb6>
 8001fe0:	2707      	movs	r7, #7
 8001fe2:	6833      	ldr	r3, [r6, #0]
 8001fe4:	403b      	ands	r3, r7
 8001fe6:	42ab      	cmp	r3, r5
 8001fe8:	d90a      	bls.n	8002000 <HAL_RCC_ClockConfig+0x44>
 8001fea:	6833      	ldr	r3, [r6, #0]
 8001fec:	43bb      	bics	r3, r7
 8001fee:	432b      	orrs	r3, r5
 8001ff0:	6033      	str	r3, [r6, #0]
 8001ff2:	f7fe ffe7 	bl	8000fc4 <HAL_GetTick>
 8001ff6:	9001      	str	r0, [sp, #4]
 8001ff8:	6833      	ldr	r3, [r6, #0]
 8001ffa:	403b      	ands	r3, r7
 8001ffc:	42ab      	cmp	r3, r5
 8001ffe:	d16b      	bne.n	80020d8 <HAL_RCC_ClockConfig+0x11c>
 8002000:	6823      	ldr	r3, [r4, #0]
 8002002:	4d3e      	ldr	r5, [pc, #248]	; (80020fc <HAL_RCC_ClockConfig+0x140>)
 8002004:	075b      	lsls	r3, r3, #29
 8002006:	d46f      	bmi.n	80020e8 <HAL_RCC_ClockConfig+0x12c>
 8002008:	f7ff ff92 	bl	8001f30 <HAL_RCC_GetSysClockFreq>
 800200c:	68ab      	ldr	r3, [r5, #8]
 800200e:	4a3c      	ldr	r2, [pc, #240]	; (8002100 <HAL_RCC_ClockConfig+0x144>)
 8002010:	051b      	lsls	r3, r3, #20
 8002012:	0f1b      	lsrs	r3, r3, #28
 8002014:	009b      	lsls	r3, r3, #2
 8002016:	589b      	ldr	r3, [r3, r2]
 8002018:	221f      	movs	r2, #31
 800201a:	4013      	ands	r3, r2
 800201c:	40d8      	lsrs	r0, r3
 800201e:	4b39      	ldr	r3, [pc, #228]	; (8002104 <HAL_RCC_ClockConfig+0x148>)
 8002020:	6018      	str	r0, [r3, #0]
 8002022:	4b39      	ldr	r3, [pc, #228]	; (8002108 <HAL_RCC_ClockConfig+0x14c>)
 8002024:	6818      	ldr	r0, [r3, #0]
 8002026:	f7fe ff85 	bl	8000f34 <HAL_InitTick>
 800202a:	e7cd      	b.n	8001fc8 <HAL_RCC_ClockConfig+0xc>
 800202c:	6833      	ldr	r3, [r6, #0]
 800202e:	43bb      	bics	r3, r7
 8002030:	430b      	orrs	r3, r1
 8002032:	6033      	str	r3, [r6, #0]
 8002034:	f7fe ffc6 	bl	8000fc4 <HAL_GetTick>
 8002038:	9001      	str	r0, [sp, #4]
 800203a:	6833      	ldr	r3, [r6, #0]
 800203c:	403b      	ands	r3, r7
 800203e:	42ab      	cmp	r3, r5
 8002040:	d0c9      	beq.n	8001fd6 <HAL_RCC_ClockConfig+0x1a>
 8002042:	f7fe ffbf 	bl	8000fc4 <HAL_GetTick>
 8002046:	9b01      	ldr	r3, [sp, #4]
 8002048:	1ac0      	subs	r0, r0, r3
 800204a:	4b30      	ldr	r3, [pc, #192]	; (800210c <HAL_RCC_ClockConfig+0x150>)
 800204c:	4298      	cmp	r0, r3
 800204e:	d9f4      	bls.n	800203a <HAL_RCC_ClockConfig+0x7e>
 8002050:	2003      	movs	r0, #3
 8002052:	e7b9      	b.n	8001fc8 <HAL_RCC_ClockConfig+0xc>
 8002054:	4a29      	ldr	r2, [pc, #164]	; (80020fc <HAL_RCC_ClockConfig+0x140>)
 8002056:	074b      	lsls	r3, r1, #29
 8002058:	d504      	bpl.n	8002064 <HAL_RCC_ClockConfig+0xa8>
 800205a:	23e0      	movs	r3, #224	; 0xe0
 800205c:	6890      	ldr	r0, [r2, #8]
 800205e:	01db      	lsls	r3, r3, #7
 8002060:	4303      	orrs	r3, r0
 8002062:	6093      	str	r3, [r2, #8]
 8002064:	6893      	ldr	r3, [r2, #8]
 8002066:	482a      	ldr	r0, [pc, #168]	; (8002110 <HAL_RCC_ClockConfig+0x154>)
 8002068:	4003      	ands	r3, r0
 800206a:	68a0      	ldr	r0, [r4, #8]
 800206c:	4303      	orrs	r3, r0
 800206e:	6093      	str	r3, [r2, #8]
 8002070:	e7b4      	b.n	8001fdc <HAL_RCC_ClockConfig+0x20>
 8002072:	6862      	ldr	r2, [r4, #4]
 8002074:	4f21      	ldr	r7, [pc, #132]	; (80020fc <HAL_RCC_ClockConfig+0x140>)
 8002076:	2a01      	cmp	r2, #1
 8002078:	d119      	bne.n	80020ae <HAL_RCC_ClockConfig+0xf2>
 800207a:	683b      	ldr	r3, [r7, #0]
 800207c:	039b      	lsls	r3, r3, #14
 800207e:	d5a2      	bpl.n	8001fc6 <HAL_RCC_ClockConfig+0xa>
 8002080:	2107      	movs	r1, #7
 8002082:	68bb      	ldr	r3, [r7, #8]
 8002084:	438b      	bics	r3, r1
 8002086:	4313      	orrs	r3, r2
 8002088:	60bb      	str	r3, [r7, #8]
 800208a:	f7fe ff9b 	bl	8000fc4 <HAL_GetTick>
 800208e:	9001      	str	r0, [sp, #4]
 8002090:	2338      	movs	r3, #56	; 0x38
 8002092:	68ba      	ldr	r2, [r7, #8]
 8002094:	401a      	ands	r2, r3
 8002096:	6863      	ldr	r3, [r4, #4]
 8002098:	00db      	lsls	r3, r3, #3
 800209a:	429a      	cmp	r2, r3
 800209c:	d0a0      	beq.n	8001fe0 <HAL_RCC_ClockConfig+0x24>
 800209e:	f7fe ff91 	bl	8000fc4 <HAL_GetTick>
 80020a2:	9b01      	ldr	r3, [sp, #4]
 80020a4:	1ac0      	subs	r0, r0, r3
 80020a6:	4b19      	ldr	r3, [pc, #100]	; (800210c <HAL_RCC_ClockConfig+0x150>)
 80020a8:	4298      	cmp	r0, r3
 80020aa:	d9f1      	bls.n	8002090 <HAL_RCC_ClockConfig+0xd4>
 80020ac:	e7d0      	b.n	8002050 <HAL_RCC_ClockConfig+0x94>
 80020ae:	2a02      	cmp	r2, #2
 80020b0:	d103      	bne.n	80020ba <HAL_RCC_ClockConfig+0xfe>
 80020b2:	683b      	ldr	r3, [r7, #0]
 80020b4:	019b      	lsls	r3, r3, #6
 80020b6:	d4e3      	bmi.n	8002080 <HAL_RCC_ClockConfig+0xc4>
 80020b8:	e785      	b.n	8001fc6 <HAL_RCC_ClockConfig+0xa>
 80020ba:	2a00      	cmp	r2, #0
 80020bc:	d103      	bne.n	80020c6 <HAL_RCC_ClockConfig+0x10a>
 80020be:	683b      	ldr	r3, [r7, #0]
 80020c0:	055b      	lsls	r3, r3, #21
 80020c2:	d4dd      	bmi.n	8002080 <HAL_RCC_ClockConfig+0xc4>
 80020c4:	e77f      	b.n	8001fc6 <HAL_RCC_ClockConfig+0xa>
 80020c6:	2302      	movs	r3, #2
 80020c8:	2a03      	cmp	r2, #3
 80020ca:	d103      	bne.n	80020d4 <HAL_RCC_ClockConfig+0x118>
 80020cc:	6e39      	ldr	r1, [r7, #96]	; 0x60
 80020ce:	4219      	tst	r1, r3
 80020d0:	d1d6      	bne.n	8002080 <HAL_RCC_ClockConfig+0xc4>
 80020d2:	e778      	b.n	8001fc6 <HAL_RCC_ClockConfig+0xa>
 80020d4:	6df9      	ldr	r1, [r7, #92]	; 0x5c
 80020d6:	e7fa      	b.n	80020ce <HAL_RCC_ClockConfig+0x112>
 80020d8:	f7fe ff74 	bl	8000fc4 <HAL_GetTick>
 80020dc:	9b01      	ldr	r3, [sp, #4]
 80020de:	1ac0      	subs	r0, r0, r3
 80020e0:	4b0a      	ldr	r3, [pc, #40]	; (800210c <HAL_RCC_ClockConfig+0x150>)
 80020e2:	4298      	cmp	r0, r3
 80020e4:	d988      	bls.n	8001ff8 <HAL_RCC_ClockConfig+0x3c>
 80020e6:	e7b3      	b.n	8002050 <HAL_RCC_ClockConfig+0x94>
 80020e8:	68ab      	ldr	r3, [r5, #8]
 80020ea:	4a0a      	ldr	r2, [pc, #40]	; (8002114 <HAL_RCC_ClockConfig+0x158>)
 80020ec:	4013      	ands	r3, r2
 80020ee:	68e2      	ldr	r2, [r4, #12]
 80020f0:	4313      	orrs	r3, r2
 80020f2:	60ab      	str	r3, [r5, #8]
 80020f4:	e788      	b.n	8002008 <HAL_RCC_ClockConfig+0x4c>
 80020f6:	46c0      	nop			; (mov r8, r8)
 80020f8:	40022000 	.word	0x40022000
 80020fc:	40021000 	.word	0x40021000
 8002100:	08002da0 	.word	0x08002da0
 8002104:	20000000 	.word	0x20000000
 8002108:	20000008 	.word	0x20000008
 800210c:	00001388 	.word	0x00001388
 8002110:	fffff0ff 	.word	0xfffff0ff
 8002114:	ffff8fff 	.word	0xffff8fff

08002118 <HAL_RCC_GetPCLK1Freq>:
 8002118:	4b06      	ldr	r3, [pc, #24]	; (8002134 <HAL_RCC_GetPCLK1Freq+0x1c>)
 800211a:	4a07      	ldr	r2, [pc, #28]	; (8002138 <HAL_RCC_GetPCLK1Freq+0x20>)
 800211c:	689b      	ldr	r3, [r3, #8]
 800211e:	045b      	lsls	r3, r3, #17
 8002120:	0f5b      	lsrs	r3, r3, #29
 8002122:	009b      	lsls	r3, r3, #2
 8002124:	589b      	ldr	r3, [r3, r2]
 8002126:	221f      	movs	r2, #31
 8002128:	4013      	ands	r3, r2
 800212a:	4a04      	ldr	r2, [pc, #16]	; (800213c <HAL_RCC_GetPCLK1Freq+0x24>)
 800212c:	6810      	ldr	r0, [r2, #0]
 800212e:	40d8      	lsrs	r0, r3
 8002130:	4770      	bx	lr
 8002132:	46c0      	nop			; (mov r8, r8)
 8002134:	40021000 	.word	0x40021000
 8002138:	08002de0 	.word	0x08002de0
 800213c:	20000000 	.word	0x20000000

08002140 <HAL_RCCEx_PeriphCLKConfig>:
 8002140:	b5f0      	push	{r4, r5, r6, r7, lr}
 8002142:	0004      	movs	r4, r0
 8002144:	6823      	ldr	r3, [r4, #0]
 8002146:	2000      	movs	r0, #0
 8002148:	b085      	sub	sp, #20
 800214a:	039b      	lsls	r3, r3, #14
 800214c:	d53c      	bpl.n	80021c8 <HAL_RCCEx_PeriphCLKConfig+0x88>
 800214e:	2280      	movs	r2, #128	; 0x80
 8002150:	4d97      	ldr	r5, [pc, #604]	; (80023b0 <HAL_RCCEx_PeriphCLKConfig+0x270>)
 8002152:	0552      	lsls	r2, r2, #21
 8002154:	6beb      	ldr	r3, [r5, #60]	; 0x3c
 8002156:	9000      	str	r0, [sp, #0]
 8002158:	4213      	tst	r3, r2
 800215a:	d108      	bne.n	800216e <HAL_RCCEx_PeriphCLKConfig+0x2e>
 800215c:	6beb      	ldr	r3, [r5, #60]	; 0x3c
 800215e:	4313      	orrs	r3, r2
 8002160:	63eb      	str	r3, [r5, #60]	; 0x3c
 8002162:	6beb      	ldr	r3, [r5, #60]	; 0x3c
 8002164:	4013      	ands	r3, r2
 8002166:	9303      	str	r3, [sp, #12]
 8002168:	9b03      	ldr	r3, [sp, #12]
 800216a:	2301      	movs	r3, #1
 800216c:	9300      	str	r3, [sp, #0]
 800216e:	2780      	movs	r7, #128	; 0x80
 8002170:	4e90      	ldr	r6, [pc, #576]	; (80023b4 <HAL_RCCEx_PeriphCLKConfig+0x274>)
 8002172:	007f      	lsls	r7, r7, #1
 8002174:	6833      	ldr	r3, [r6, #0]
 8002176:	433b      	orrs	r3, r7
 8002178:	6033      	str	r3, [r6, #0]
 800217a:	f7fe ff23 	bl	8000fc4 <HAL_GetTick>
 800217e:	9001      	str	r0, [sp, #4]
 8002180:	6833      	ldr	r3, [r6, #0]
 8002182:	423b      	tst	r3, r7
 8002184:	d012      	beq.n	80021ac <HAL_RCCEx_PeriphCLKConfig+0x6c>
 8002186:	6dea      	ldr	r2, [r5, #92]	; 0x5c
 8002188:	23c0      	movs	r3, #192	; 0xc0
 800218a:	0011      	movs	r1, r2
 800218c:	009b      	lsls	r3, r3, #2
 800218e:	4e8a      	ldr	r6, [pc, #552]	; (80023b8 <HAL_RCCEx_PeriphCLKConfig+0x278>)
 8002190:	4019      	ands	r1, r3
 8002192:	421a      	tst	r2, r3
 8002194:	d003      	beq.n	800219e <HAL_RCCEx_PeriphCLKConfig+0x5e>
 8002196:	6c23      	ldr	r3, [r4, #64]	; 0x40
 8002198:	4299      	cmp	r1, r3
 800219a:	d000      	beq.n	800219e <HAL_RCCEx_PeriphCLKConfig+0x5e>
 800219c:	e0e9      	b.n	8002372 <HAL_RCCEx_PeriphCLKConfig+0x232>
 800219e:	6deb      	ldr	r3, [r5, #92]	; 0x5c
 80021a0:	2000      	movs	r0, #0
 80021a2:	401e      	ands	r6, r3
 80021a4:	6c23      	ldr	r3, [r4, #64]	; 0x40
 80021a6:	431e      	orrs	r6, r3
 80021a8:	65ee      	str	r6, [r5, #92]	; 0x5c
 80021aa:	e006      	b.n	80021ba <HAL_RCCEx_PeriphCLKConfig+0x7a>
 80021ac:	f7fe ff0a 	bl	8000fc4 <HAL_GetTick>
 80021b0:	9b01      	ldr	r3, [sp, #4]
 80021b2:	1ac0      	subs	r0, r0, r3
 80021b4:	2802      	cmp	r0, #2
 80021b6:	d9e3      	bls.n	8002180 <HAL_RCCEx_PeriphCLKConfig+0x40>
 80021b8:	2003      	movs	r0, #3
 80021ba:	9b00      	ldr	r3, [sp, #0]
 80021bc:	2b01      	cmp	r3, #1
 80021be:	d103      	bne.n	80021c8 <HAL_RCCEx_PeriphCLKConfig+0x88>
 80021c0:	6beb      	ldr	r3, [r5, #60]	; 0x3c
 80021c2:	4a7e      	ldr	r2, [pc, #504]	; (80023bc <HAL_RCCEx_PeriphCLKConfig+0x27c>)
 80021c4:	4013      	ands	r3, r2
 80021c6:	63eb      	str	r3, [r5, #60]	; 0x3c
 80021c8:	6823      	ldr	r3, [r4, #0]
 80021ca:	07da      	lsls	r2, r3, #31
 80021cc:	d506      	bpl.n	80021dc <HAL_RCCEx_PeriphCLKConfig+0x9c>
 80021ce:	2503      	movs	r5, #3
 80021d0:	4977      	ldr	r1, [pc, #476]	; (80023b0 <HAL_RCCEx_PeriphCLKConfig+0x270>)
 80021d2:	6d4a      	ldr	r2, [r1, #84]	; 0x54
 80021d4:	43aa      	bics	r2, r5
 80021d6:	6865      	ldr	r5, [r4, #4]
 80021d8:	432a      	orrs	r2, r5
 80021da:	654a      	str	r2, [r1, #84]	; 0x54
 80021dc:	079a      	lsls	r2, r3, #30
 80021de:	d506      	bpl.n	80021ee <HAL_RCCEx_PeriphCLKConfig+0xae>
 80021e0:	250c      	movs	r5, #12
 80021e2:	4973      	ldr	r1, [pc, #460]	; (80023b0 <HAL_RCCEx_PeriphCLKConfig+0x270>)
 80021e4:	6d4a      	ldr	r2, [r1, #84]	; 0x54
 80021e6:	43aa      	bics	r2, r5
 80021e8:	68a5      	ldr	r5, [r4, #8]
 80021ea:	432a      	orrs	r2, r5
 80021ec:	654a      	str	r2, [r1, #84]	; 0x54
 80021ee:	075a      	lsls	r2, r3, #29
 80021f0:	d506      	bpl.n	8002200 <HAL_RCCEx_PeriphCLKConfig+0xc0>
 80021f2:	2530      	movs	r5, #48	; 0x30
 80021f4:	496e      	ldr	r1, [pc, #440]	; (80023b0 <HAL_RCCEx_PeriphCLKConfig+0x270>)
 80021f6:	6d4a      	ldr	r2, [r1, #84]	; 0x54
 80021f8:	43aa      	bics	r2, r5
 80021fa:	68e5      	ldr	r5, [r4, #12]
 80021fc:	432a      	orrs	r2, r5
 80021fe:	654a      	str	r2, [r1, #84]	; 0x54
 8002200:	06da      	lsls	r2, r3, #27
 8002202:	d506      	bpl.n	8002212 <HAL_RCCEx_PeriphCLKConfig+0xd2>
 8002204:	496a      	ldr	r1, [pc, #424]	; (80023b0 <HAL_RCCEx_PeriphCLKConfig+0x270>)
 8002206:	4d6e      	ldr	r5, [pc, #440]	; (80023c0 <HAL_RCCEx_PeriphCLKConfig+0x280>)
 8002208:	6d4a      	ldr	r2, [r1, #84]	; 0x54
 800220a:	402a      	ands	r2, r5
 800220c:	6925      	ldr	r5, [r4, #16]
 800220e:	432a      	orrs	r2, r5
 8002210:	654a      	str	r2, [r1, #84]	; 0x54
 8002212:	04da      	lsls	r2, r3, #19
 8002214:	d506      	bpl.n	8002224 <HAL_RCCEx_PeriphCLKConfig+0xe4>
 8002216:	4966      	ldr	r1, [pc, #408]	; (80023b0 <HAL_RCCEx_PeriphCLKConfig+0x270>)
 8002218:	4d67      	ldr	r5, [pc, #412]	; (80023b8 <HAL_RCCEx_PeriphCLKConfig+0x278>)
 800221a:	6d4a      	ldr	r2, [r1, #84]	; 0x54
 800221c:	402a      	ands	r2, r5
 800221e:	6965      	ldr	r5, [r4, #20]
 8002220:	432a      	orrs	r2, r5
 8002222:	654a      	str	r2, [r1, #84]	; 0x54
 8002224:	059a      	lsls	r2, r3, #22
 8002226:	d506      	bpl.n	8002236 <HAL_RCCEx_PeriphCLKConfig+0xf6>
 8002228:	4961      	ldr	r1, [pc, #388]	; (80023b0 <HAL_RCCEx_PeriphCLKConfig+0x270>)
 800222a:	4d66      	ldr	r5, [pc, #408]	; (80023c4 <HAL_RCCEx_PeriphCLKConfig+0x284>)
 800222c:	6d4a      	ldr	r2, [r1, #84]	; 0x54
 800222e:	402a      	ands	r2, r5
 8002230:	6aa5      	ldr	r5, [r4, #40]	; 0x28
 8002232:	432a      	orrs	r2, r5
 8002234:	654a      	str	r2, [r1, #84]	; 0x54
 8002236:	055a      	lsls	r2, r3, #21
 8002238:	d506      	bpl.n	8002248 <HAL_RCCEx_PeriphCLKConfig+0x108>
 800223a:	495d      	ldr	r1, [pc, #372]	; (80023b0 <HAL_RCCEx_PeriphCLKConfig+0x270>)
 800223c:	4d62      	ldr	r5, [pc, #392]	; (80023c8 <HAL_RCCEx_PeriphCLKConfig+0x288>)
 800223e:	6d4a      	ldr	r2, [r1, #84]	; 0x54
 8002240:	402a      	ands	r2, r5
 8002242:	6ae5      	ldr	r5, [r4, #44]	; 0x2c
 8002244:	432a      	orrs	r2, r5
 8002246:	654a      	str	r2, [r1, #84]	; 0x54
 8002248:	069a      	lsls	r2, r3, #26
 800224a:	d506      	bpl.n	800225a <HAL_RCCEx_PeriphCLKConfig+0x11a>
 800224c:	4958      	ldr	r1, [pc, #352]	; (80023b0 <HAL_RCCEx_PeriphCLKConfig+0x270>)
 800224e:	4d5f      	ldr	r5, [pc, #380]	; (80023cc <HAL_RCCEx_PeriphCLKConfig+0x28c>)
 8002250:	6d4a      	ldr	r2, [r1, #84]	; 0x54
 8002252:	402a      	ands	r2, r5
 8002254:	69a5      	ldr	r5, [r4, #24]
 8002256:	432a      	orrs	r2, r5
 8002258:	654a      	str	r2, [r1, #84]	; 0x54
 800225a:	065a      	lsls	r2, r3, #25
 800225c:	d506      	bpl.n	800226c <HAL_RCCEx_PeriphCLKConfig+0x12c>
 800225e:	4954      	ldr	r1, [pc, #336]	; (80023b0 <HAL_RCCEx_PeriphCLKConfig+0x270>)
 8002260:	4d5b      	ldr	r5, [pc, #364]	; (80023d0 <HAL_RCCEx_PeriphCLKConfig+0x290>)
 8002262:	6d4a      	ldr	r2, [r1, #84]	; 0x54
 8002264:	402a      	ands	r2, r5
 8002266:	69e5      	ldr	r5, [r4, #28]
 8002268:	432a      	orrs	r2, r5
 800226a:	654a      	str	r2, [r1, #84]	; 0x54
 800226c:	045a      	lsls	r2, r3, #17
 800226e:	d50f      	bpl.n	8002290 <HAL_RCCEx_PeriphCLKConfig+0x150>
 8002270:	494f      	ldr	r1, [pc, #316]	; (80023b0 <HAL_RCCEx_PeriphCLKConfig+0x270>)
 8002272:	6b25      	ldr	r5, [r4, #48]	; 0x30
 8002274:	6d4a      	ldr	r2, [r1, #84]	; 0x54
 8002276:	0092      	lsls	r2, r2, #2
 8002278:	0892      	lsrs	r2, r2, #2
 800227a:	432a      	orrs	r2, r5
 800227c:	654a      	str	r2, [r1, #84]	; 0x54
 800227e:	2280      	movs	r2, #128	; 0x80
 8002280:	05d2      	lsls	r2, r2, #23
 8002282:	4295      	cmp	r5, r2
 8002284:	d104      	bne.n	8002290 <HAL_RCCEx_PeriphCLKConfig+0x150>
 8002286:	2280      	movs	r2, #128	; 0x80
 8002288:	68cd      	ldr	r5, [r1, #12]
 800228a:	0252      	lsls	r2, r2, #9
 800228c:	432a      	orrs	r2, r5
 800228e:	60ca      	str	r2, [r1, #12]
 8002290:	031a      	lsls	r2, r3, #12
 8002292:	d506      	bpl.n	80022a2 <HAL_RCCEx_PeriphCLKConfig+0x162>
 8002294:	2540      	movs	r5, #64	; 0x40
 8002296:	4946      	ldr	r1, [pc, #280]	; (80023b0 <HAL_RCCEx_PeriphCLKConfig+0x270>)
 8002298:	6d4a      	ldr	r2, [r1, #84]	; 0x54
 800229a:	43aa      	bics	r2, r5
 800229c:	6b65      	ldr	r5, [r4, #52]	; 0x34
 800229e:	432a      	orrs	r2, r5
 80022a0:	654a      	str	r2, [r1, #84]	; 0x54
 80022a2:	029a      	lsls	r2, r3, #10
 80022a4:	d50f      	bpl.n	80022c6 <HAL_RCCEx_PeriphCLKConfig+0x186>
 80022a6:	4942      	ldr	r1, [pc, #264]	; (80023b0 <HAL_RCCEx_PeriphCLKConfig+0x270>)
 80022a8:	4e4a      	ldr	r6, [pc, #296]	; (80023d4 <HAL_RCCEx_PeriphCLKConfig+0x294>)
 80022aa:	6d4a      	ldr	r2, [r1, #84]	; 0x54
 80022ac:	6ba5      	ldr	r5, [r4, #56]	; 0x38
 80022ae:	4032      	ands	r2, r6
 80022b0:	432a      	orrs	r2, r5
 80022b2:	654a      	str	r2, [r1, #84]	; 0x54
 80022b4:	2280      	movs	r2, #128	; 0x80
 80022b6:	03d2      	lsls	r2, r2, #15
 80022b8:	4295      	cmp	r5, r2
 80022ba:	d104      	bne.n	80022c6 <HAL_RCCEx_PeriphCLKConfig+0x186>
 80022bc:	2280      	movs	r2, #128	; 0x80
 80022be:	68cd      	ldr	r5, [r1, #12]
 80022c0:	0452      	lsls	r2, r2, #17
 80022c2:	432a      	orrs	r2, r5
 80022c4:	60ca      	str	r2, [r1, #12]
 80022c6:	025a      	lsls	r2, r3, #9
 80022c8:	d50d      	bpl.n	80022e6 <HAL_RCCEx_PeriphCLKConfig+0x1a6>
 80022ca:	4d39      	ldr	r5, [pc, #228]	; (80023b0 <HAL_RCCEx_PeriphCLKConfig+0x270>)
 80022cc:	4e42      	ldr	r6, [pc, #264]	; (80023d8 <HAL_RCCEx_PeriphCLKConfig+0x298>)
 80022ce:	6d69      	ldr	r1, [r5, #84]	; 0x54
 80022d0:	6be2      	ldr	r2, [r4, #60]	; 0x3c
 80022d2:	4031      	ands	r1, r6
 80022d4:	4311      	orrs	r1, r2
 80022d6:	6569      	str	r1, [r5, #84]	; 0x54
 80022d8:	2180      	movs	r1, #128	; 0x80
 80022da:	0449      	lsls	r1, r1, #17
 80022dc:	428a      	cmp	r2, r1
 80022de:	d102      	bne.n	80022e6 <HAL_RCCEx_PeriphCLKConfig+0x1a6>
 80022e0:	68e9      	ldr	r1, [r5, #12]
 80022e2:	430a      	orrs	r2, r1
 80022e4:	60ea      	str	r2, [r5, #12]
 80022e6:	051a      	lsls	r2, r3, #20
 80022e8:	d50d      	bpl.n	8002306 <HAL_RCCEx_PeriphCLKConfig+0x1c6>
 80022ea:	2603      	movs	r6, #3
 80022ec:	4930      	ldr	r1, [pc, #192]	; (80023b0 <HAL_RCCEx_PeriphCLKConfig+0x270>)
 80022ee:	6a25      	ldr	r5, [r4, #32]
 80022f0:	6d8a      	ldr	r2, [r1, #88]	; 0x58
 80022f2:	43b2      	bics	r2, r6
 80022f4:	432a      	orrs	r2, r5
 80022f6:	658a      	str	r2, [r1, #88]	; 0x58
 80022f8:	2d01      	cmp	r5, #1
 80022fa:	d104      	bne.n	8002306 <HAL_RCCEx_PeriphCLKConfig+0x1c6>
 80022fc:	2280      	movs	r2, #128	; 0x80
 80022fe:	68cd      	ldr	r5, [r1, #12]
 8002300:	0252      	lsls	r2, r2, #9
 8002302:	432a      	orrs	r2, r5
 8002304:	60ca      	str	r2, [r1, #12]
 8002306:	049a      	lsls	r2, r3, #18
 8002308:	d50d      	bpl.n	8002326 <HAL_RCCEx_PeriphCLKConfig+0x1e6>
 800230a:	260c      	movs	r6, #12
 800230c:	4928      	ldr	r1, [pc, #160]	; (80023b0 <HAL_RCCEx_PeriphCLKConfig+0x270>)
 800230e:	6a65      	ldr	r5, [r4, #36]	; 0x24
 8002310:	6d8a      	ldr	r2, [r1, #88]	; 0x58
 8002312:	43b2      	bics	r2, r6
 8002314:	432a      	orrs	r2, r5
 8002316:	658a      	str	r2, [r1, #88]	; 0x58
 8002318:	2d04      	cmp	r5, #4
 800231a:	d104      	bne.n	8002326 <HAL_RCCEx_PeriphCLKConfig+0x1e6>
 800231c:	2280      	movs	r2, #128	; 0x80
 800231e:	68cd      	ldr	r5, [r1, #12]
 8002320:	0252      	lsls	r2, r2, #9
 8002322:	432a      	orrs	r2, r5
 8002324:	60ca      	str	r2, [r1, #12]
 8002326:	2580      	movs	r5, #128	; 0x80
 8002328:	046d      	lsls	r5, r5, #17
 800232a:	422b      	tst	r3, r5
 800232c:	d00d      	beq.n	800234a <HAL_RCCEx_PeriphCLKConfig+0x20a>
 800232e:	4920      	ldr	r1, [pc, #128]	; (80023b0 <HAL_RCCEx_PeriphCLKConfig+0x270>)
 8002330:	4f26      	ldr	r7, [pc, #152]	; (80023cc <HAL_RCCEx_PeriphCLKConfig+0x28c>)
 8002332:	6d8a      	ldr	r2, [r1, #88]	; 0x58
 8002334:	6c66      	ldr	r6, [r4, #68]	; 0x44
 8002336:	403a      	ands	r2, r7
 8002338:	4332      	orrs	r2, r6
 800233a:	658a      	str	r2, [r1, #88]	; 0x58
 800233c:	2280      	movs	r2, #128	; 0x80
 800233e:	0192      	lsls	r2, r2, #6
 8002340:	4296      	cmp	r6, r2
 8002342:	d102      	bne.n	800234a <HAL_RCCEx_PeriphCLKConfig+0x20a>
 8002344:	68ca      	ldr	r2, [r1, #12]
 8002346:	4315      	orrs	r5, r2
 8002348:	60cd      	str	r5, [r1, #12]
 800234a:	019b      	lsls	r3, r3, #6
 800234c:	d50f      	bpl.n	800236e <HAL_RCCEx_PeriphCLKConfig+0x22e>
 800234e:	4a18      	ldr	r2, [pc, #96]	; (80023b0 <HAL_RCCEx_PeriphCLKConfig+0x270>)
 8002350:	6ca1      	ldr	r1, [r4, #72]	; 0x48
 8002352:	6d93      	ldr	r3, [r2, #88]	; 0x58
 8002354:	4c18      	ldr	r4, [pc, #96]	; (80023b8 <HAL_RCCEx_PeriphCLKConfig+0x278>)
 8002356:	4023      	ands	r3, r4
 8002358:	430b      	orrs	r3, r1
 800235a:	6593      	str	r3, [r2, #88]	; 0x58
 800235c:	2380      	movs	r3, #128	; 0x80
 800235e:	005b      	lsls	r3, r3, #1
 8002360:	4299      	cmp	r1, r3
 8002362:	d104      	bne.n	800236e <HAL_RCCEx_PeriphCLKConfig+0x22e>
 8002364:	2380      	movs	r3, #128	; 0x80
 8002366:	68d1      	ldr	r1, [r2, #12]
 8002368:	045b      	lsls	r3, r3, #17
 800236a:	430b      	orrs	r3, r1
 800236c:	60d3      	str	r3, [r2, #12]
 800236e:	b005      	add	sp, #20
 8002370:	bdf0      	pop	{r4, r5, r6, r7, pc}
 8002372:	2380      	movs	r3, #128	; 0x80
 8002374:	6dea      	ldr	r2, [r5, #92]	; 0x5c
 8002376:	6de8      	ldr	r0, [r5, #92]	; 0x5c
 8002378:	0011      	movs	r1, r2
 800237a:	025b      	lsls	r3, r3, #9
 800237c:	4303      	orrs	r3, r0
 800237e:	65eb      	str	r3, [r5, #92]	; 0x5c
 8002380:	6deb      	ldr	r3, [r5, #92]	; 0x5c
 8002382:	4816      	ldr	r0, [pc, #88]	; (80023dc <HAL_RCCEx_PeriphCLKConfig+0x29c>)
 8002384:	4031      	ands	r1, r6
 8002386:	4003      	ands	r3, r0
 8002388:	65eb      	str	r3, [r5, #92]	; 0x5c
 800238a:	65e9      	str	r1, [r5, #92]	; 0x5c
 800238c:	07d3      	lsls	r3, r2, #31
 800238e:	d400      	bmi.n	8002392 <HAL_RCCEx_PeriphCLKConfig+0x252>
 8002390:	e705      	b.n	800219e <HAL_RCCEx_PeriphCLKConfig+0x5e>
 8002392:	f7fe fe17 	bl	8000fc4 <HAL_GetTick>
 8002396:	0007      	movs	r7, r0
 8002398:	2202      	movs	r2, #2
 800239a:	6deb      	ldr	r3, [r5, #92]	; 0x5c
 800239c:	4213      	tst	r3, r2
 800239e:	d000      	beq.n	80023a2 <HAL_RCCEx_PeriphCLKConfig+0x262>
 80023a0:	e6fd      	b.n	800219e <HAL_RCCEx_PeriphCLKConfig+0x5e>
 80023a2:	f7fe fe0f 	bl	8000fc4 <HAL_GetTick>
 80023a6:	4b0e      	ldr	r3, [pc, #56]	; (80023e0 <HAL_RCCEx_PeriphCLKConfig+0x2a0>)
 80023a8:	1bc0      	subs	r0, r0, r7
 80023aa:	4298      	cmp	r0, r3
 80023ac:	d9f4      	bls.n	8002398 <HAL_RCCEx_PeriphCLKConfig+0x258>
 80023ae:	e703      	b.n	80021b8 <HAL_RCCEx_PeriphCLKConfig+0x78>
 80023b0:	40021000 	.word	0x40021000
 80023b4:	40007000 	.word	0x40007000
 80023b8:	fffffcff 	.word	0xfffffcff
 80023bc:	efffffff 	.word	0xefffffff
 80023c0:	fffff3ff 	.word	0xfffff3ff
 80023c4:	fff3ffff 	.word	0xfff3ffff
 80023c8:	ffcfffff 	.word	0xffcfffff
 80023cc:	ffffcfff 	.word	0xffffcfff
 80023d0:	ffff3fff 	.word	0xffff3fff
 80023d4:	ffbfffff 	.word	0xffbfffff
 80023d8:	feffffff 	.word	0xfeffffff
 80023dc:	fffeffff 	.word	0xfffeffff
 80023e0:	00001388 	.word	0x00001388

080023e4 <TIM_Base_SetConfig>:
 80023e4:	4a23      	ldr	r2, [pc, #140]	; (8002474 <TIM_Base_SetConfig+0x90>)
 80023e6:	b510      	push	{r4, lr}
 80023e8:	6803      	ldr	r3, [r0, #0]
 80023ea:	4290      	cmp	r0, r2
 80023ec:	d009      	beq.n	8002402 <TIM_Base_SetConfig+0x1e>
 80023ee:	2480      	movs	r4, #128	; 0x80
 80023f0:	05e4      	lsls	r4, r4, #23
 80023f2:	42a0      	cmp	r0, r4
 80023f4:	d005      	beq.n	8002402 <TIM_Base_SetConfig+0x1e>
 80023f6:	4c20      	ldr	r4, [pc, #128]	; (8002478 <TIM_Base_SetConfig+0x94>)
 80023f8:	42a0      	cmp	r0, r4
 80023fa:	d002      	beq.n	8002402 <TIM_Base_SetConfig+0x1e>
 80023fc:	4c1f      	ldr	r4, [pc, #124]	; (800247c <TIM_Base_SetConfig+0x98>)
 80023fe:	42a0      	cmp	r0, r4
 8002400:	d10f      	bne.n	8002422 <TIM_Base_SetConfig+0x3e>
 8002402:	2470      	movs	r4, #112	; 0x70
 8002404:	43a3      	bics	r3, r4
 8002406:	684c      	ldr	r4, [r1, #4]
 8002408:	4323      	orrs	r3, r4
 800240a:	4290      	cmp	r0, r2
 800240c:	d015      	beq.n	800243a <TIM_Base_SetConfig+0x56>
 800240e:	2480      	movs	r4, #128	; 0x80
 8002410:	05e4      	lsls	r4, r4, #23
 8002412:	42a0      	cmp	r0, r4
 8002414:	d011      	beq.n	800243a <TIM_Base_SetConfig+0x56>
 8002416:	4c18      	ldr	r4, [pc, #96]	; (8002478 <TIM_Base_SetConfig+0x94>)
 8002418:	42a0      	cmp	r0, r4
 800241a:	d00e      	beq.n	800243a <TIM_Base_SetConfig+0x56>
 800241c:	4c17      	ldr	r4, [pc, #92]	; (800247c <TIM_Base_SetConfig+0x98>)
 800241e:	42a0      	cmp	r0, r4
 8002420:	d00b      	beq.n	800243a <TIM_Base_SetConfig+0x56>
 8002422:	4c17      	ldr	r4, [pc, #92]	; (8002480 <TIM_Base_SetConfig+0x9c>)
 8002424:	42a0      	cmp	r0, r4
 8002426:	d008      	beq.n	800243a <TIM_Base_SetConfig+0x56>
 8002428:	4c16      	ldr	r4, [pc, #88]	; (8002484 <TIM_Base_SetConfig+0xa0>)
 800242a:	42a0      	cmp	r0, r4
 800242c:	d005      	beq.n	800243a <TIM_Base_SetConfig+0x56>
 800242e:	4c16      	ldr	r4, [pc, #88]	; (8002488 <TIM_Base_SetConfig+0xa4>)
 8002430:	42a0      	cmp	r0, r4
 8002432:	d002      	beq.n	800243a <TIM_Base_SetConfig+0x56>
 8002434:	4c15      	ldr	r4, [pc, #84]	; (800248c <TIM_Base_SetConfig+0xa8>)
 8002436:	42a0      	cmp	r0, r4
 8002438:	d103      	bne.n	8002442 <TIM_Base_SetConfig+0x5e>
 800243a:	4c15      	ldr	r4, [pc, #84]	; (8002490 <TIM_Base_SetConfig+0xac>)
 800243c:	4023      	ands	r3, r4
 800243e:	68cc      	ldr	r4, [r1, #12]
 8002440:	4323      	orrs	r3, r4
 8002442:	2480      	movs	r4, #128	; 0x80
 8002444:	43a3      	bics	r3, r4
 8002446:	694c      	ldr	r4, [r1, #20]
 8002448:	4323      	orrs	r3, r4
 800244a:	6003      	str	r3, [r0, #0]
 800244c:	688b      	ldr	r3, [r1, #8]
 800244e:	62c3      	str	r3, [r0, #44]	; 0x2c
 8002450:	680b      	ldr	r3, [r1, #0]
 8002452:	6283      	str	r3, [r0, #40]	; 0x28
 8002454:	4290      	cmp	r0, r2
 8002456:	d008      	beq.n	800246a <TIM_Base_SetConfig+0x86>
 8002458:	4b0a      	ldr	r3, [pc, #40]	; (8002484 <TIM_Base_SetConfig+0xa0>)
 800245a:	4298      	cmp	r0, r3
 800245c:	d005      	beq.n	800246a <TIM_Base_SetConfig+0x86>
 800245e:	4b0a      	ldr	r3, [pc, #40]	; (8002488 <TIM_Base_SetConfig+0xa4>)
 8002460:	4298      	cmp	r0, r3
 8002462:	d002      	beq.n	800246a <TIM_Base_SetConfig+0x86>
 8002464:	4b09      	ldr	r3, [pc, #36]	; (800248c <TIM_Base_SetConfig+0xa8>)
 8002466:	4298      	cmp	r0, r3
 8002468:	d101      	bne.n	800246e <TIM_Base_SetConfig+0x8a>
 800246a:	690b      	ldr	r3, [r1, #16]
 800246c:	6303      	str	r3, [r0, #48]	; 0x30
 800246e:	2301      	movs	r3, #1
 8002470:	6143      	str	r3, [r0, #20]
 8002472:	bd10      	pop	{r4, pc}
 8002474:	40012c00 	.word	0x40012c00
 8002478:	40000400 	.word	0x40000400
 800247c:	40000800 	.word	0x40000800
 8002480:	40002000 	.word	0x40002000
 8002484:	40014000 	.word	0x40014000
 8002488:	40014400 	.word	0x40014400
 800248c:	40014800 	.word	0x40014800
 8002490:	fffffcff 	.word	0xfffffcff

08002494 <HAL_TIM_Base_Init>:
 8002494:	b570      	push	{r4, r5, r6, lr}
 8002496:	0004      	movs	r4, r0
 8002498:	2001      	movs	r0, #1
 800249a:	2c00      	cmp	r4, #0
 800249c:	d023      	beq.n	80024e6 <HAL_TIM_Base_Init+0x52>
 800249e:	0025      	movs	r5, r4
 80024a0:	353d      	adds	r5, #61	; 0x3d
 80024a2:	782b      	ldrb	r3, [r5, #0]
 80024a4:	b2da      	uxtb	r2, r3
 80024a6:	2b00      	cmp	r3, #0
 80024a8:	d105      	bne.n	80024b6 <HAL_TIM_Base_Init+0x22>
 80024aa:	0023      	movs	r3, r4
 80024ac:	333c      	adds	r3, #60	; 0x3c
 80024ae:	0020      	movs	r0, r4
 80024b0:	701a      	strb	r2, [r3, #0]
 80024b2:	f7fe fb49 	bl	8000b48 <HAL_TIM_Base_MspInit>
 80024b6:	2302      	movs	r3, #2
 80024b8:	702b      	strb	r3, [r5, #0]
 80024ba:	6820      	ldr	r0, [r4, #0]
 80024bc:	1d21      	adds	r1, r4, #4
 80024be:	f7ff ff91 	bl	80023e4 <TIM_Base_SetConfig>
 80024c2:	0022      	movs	r2, r4
 80024c4:	2301      	movs	r3, #1
 80024c6:	2000      	movs	r0, #0
 80024c8:	3248      	adds	r2, #72	; 0x48
 80024ca:	7013      	strb	r3, [r2, #0]
 80024cc:	3447      	adds	r4, #71	; 0x47
 80024ce:	3a0a      	subs	r2, #10
 80024d0:	7013      	strb	r3, [r2, #0]
 80024d2:	7053      	strb	r3, [r2, #1]
 80024d4:	7093      	strb	r3, [r2, #2]
 80024d6:	70d3      	strb	r3, [r2, #3]
 80024d8:	7113      	strb	r3, [r2, #4]
 80024da:	7153      	strb	r3, [r2, #5]
 80024dc:	7193      	strb	r3, [r2, #6]
 80024de:	71d3      	strb	r3, [r2, #7]
 80024e0:	7213      	strb	r3, [r2, #8]
 80024e2:	7023      	strb	r3, [r4, #0]
 80024e4:	702b      	strb	r3, [r5, #0]
 80024e6:	bd70      	pop	{r4, r5, r6, pc}

080024e8 <TIM_ETR_SetConfig>:
 80024e8:	b530      	push	{r4, r5, lr}
 80024ea:	6884      	ldr	r4, [r0, #8]
 80024ec:	4d03      	ldr	r5, [pc, #12]	; (80024fc <TIM_ETR_SetConfig+0x14>)
 80024ee:	430a      	orrs	r2, r1
 80024f0:	021b      	lsls	r3, r3, #8
 80024f2:	402c      	ands	r4, r5
 80024f4:	4313      	orrs	r3, r2
 80024f6:	4323      	orrs	r3, r4
 80024f8:	6083      	str	r3, [r0, #8]
 80024fa:	bd30      	pop	{r4, r5, pc}
 80024fc:	ffff00ff 	.word	0xffff00ff

08002500 <HAL_TIM_ConfigClockSource>:
 8002500:	b5f8      	push	{r3, r4, r5, r6, r7, lr}
 8002502:	0005      	movs	r5, r0
 8002504:	2302      	movs	r3, #2
 8002506:	353c      	adds	r5, #60	; 0x3c
 8002508:	0004      	movs	r4, r0
 800250a:	7828      	ldrb	r0, [r5, #0]
 800250c:	001a      	movs	r2, r3
 800250e:	2801      	cmp	r0, #1
 8002510:	d01d      	beq.n	800254e <HAL_TIM_ConfigClockSource+0x4e>
 8002512:	0026      	movs	r6, r4
 8002514:	2701      	movs	r7, #1
 8002516:	363d      	adds	r6, #61	; 0x3d
 8002518:	702f      	strb	r7, [r5, #0]
 800251a:	7033      	strb	r3, [r6, #0]
 800251c:	6820      	ldr	r0, [r4, #0]
 800251e:	4a47      	ldr	r2, [pc, #284]	; (800263c <HAL_TIM_ConfigClockSource+0x13c>)
 8002520:	6883      	ldr	r3, [r0, #8]
 8002522:	4013      	ands	r3, r2
 8002524:	6083      	str	r3, [r0, #8]
 8002526:	680b      	ldr	r3, [r1, #0]
 8002528:	2b60      	cmp	r3, #96	; 0x60
 800252a:	d058      	beq.n	80025de <HAL_TIM_ConfigClockSource+0xde>
 800252c:	d834      	bhi.n	8002598 <HAL_TIM_ConfigClockSource+0x98>
 800252e:	2b40      	cmp	r3, #64	; 0x40
 8002530:	d100      	bne.n	8002534 <HAL_TIM_ConfigClockSource+0x34>
 8002532:	e06c      	b.n	800260e <HAL_TIM_ConfigClockSource+0x10e>
 8002534:	d815      	bhi.n	8002562 <HAL_TIM_ConfigClockSource+0x62>
 8002536:	2b20      	cmp	r3, #32
 8002538:	d00d      	beq.n	8002556 <HAL_TIM_ConfigClockSource+0x56>
 800253a:	d80a      	bhi.n	8002552 <HAL_TIM_ConfigClockSource+0x52>
 800253c:	2210      	movs	r2, #16
 800253e:	0019      	movs	r1, r3
 8002540:	4391      	bics	r1, r2
 8002542:	d008      	beq.n	8002556 <HAL_TIM_ConfigClockSource+0x56>
 8002544:	003a      	movs	r2, r7
 8002546:	2301      	movs	r3, #1
 8002548:	7033      	strb	r3, [r6, #0]
 800254a:	2300      	movs	r3, #0
 800254c:	702b      	strb	r3, [r5, #0]
 800254e:	0010      	movs	r0, r2
 8002550:	bdf8      	pop	{r3, r4, r5, r6, r7, pc}
 8002552:	2b30      	cmp	r3, #48	; 0x30
 8002554:	d1f6      	bne.n	8002544 <HAL_TIM_ConfigClockSource+0x44>
 8002556:	6882      	ldr	r2, [r0, #8]
 8002558:	4939      	ldr	r1, [pc, #228]	; (8002640 <HAL_TIM_ConfigClockSource+0x140>)
 800255a:	400a      	ands	r2, r1
 800255c:	4313      	orrs	r3, r2
 800255e:	2207      	movs	r2, #7
 8002560:	e017      	b.n	8002592 <HAL_TIM_ConfigClockSource+0x92>
 8002562:	2b50      	cmp	r3, #80	; 0x50
 8002564:	d1ee      	bne.n	8002544 <HAL_TIM_ConfigClockSource+0x44>
 8002566:	68ca      	ldr	r2, [r1, #12]
 8002568:	684c      	ldr	r4, [r1, #4]
 800256a:	6a01      	ldr	r1, [r0, #32]
 800256c:	6a03      	ldr	r3, [r0, #32]
 800256e:	43bb      	bics	r3, r7
 8002570:	27f0      	movs	r7, #240	; 0xf0
 8002572:	6203      	str	r3, [r0, #32]
 8002574:	6983      	ldr	r3, [r0, #24]
 8002576:	43bb      	bics	r3, r7
 8002578:	001f      	movs	r7, r3
 800257a:	0113      	lsls	r3, r2, #4
 800257c:	220a      	movs	r2, #10
 800257e:	4391      	bics	r1, r2
 8002580:	000a      	movs	r2, r1
 8002582:	433b      	orrs	r3, r7
 8002584:	4322      	orrs	r2, r4
 8002586:	6183      	str	r3, [r0, #24]
 8002588:	6202      	str	r2, [r0, #32]
 800258a:	6883      	ldr	r3, [r0, #8]
 800258c:	4a2c      	ldr	r2, [pc, #176]	; (8002640 <HAL_TIM_ConfigClockSource+0x140>)
 800258e:	401a      	ands	r2, r3
 8002590:	2357      	movs	r3, #87	; 0x57
 8002592:	4313      	orrs	r3, r2
 8002594:	6083      	str	r3, [r0, #8]
 8002596:	e016      	b.n	80025c6 <HAL_TIM_ConfigClockSource+0xc6>
 8002598:	2280      	movs	r2, #128	; 0x80
 800259a:	0152      	lsls	r2, r2, #5
 800259c:	4694      	mov	ip, r2
 800259e:	2200      	movs	r2, #0
 80025a0:	4563      	cmp	r3, ip
 80025a2:	d0d0      	beq.n	8002546 <HAL_TIM_ConfigClockSource+0x46>
 80025a4:	2280      	movs	r2, #128	; 0x80
 80025a6:	0192      	lsls	r2, r2, #6
 80025a8:	4293      	cmp	r3, r2
 80025aa:	d00e      	beq.n	80025ca <HAL_TIM_ConfigClockSource+0xca>
 80025ac:	003a      	movs	r2, r7
 80025ae:	2b70      	cmp	r3, #112	; 0x70
 80025b0:	d1c9      	bne.n	8002546 <HAL_TIM_ConfigClockSource+0x46>
 80025b2:	68cb      	ldr	r3, [r1, #12]
 80025b4:	684a      	ldr	r2, [r1, #4]
 80025b6:	6889      	ldr	r1, [r1, #8]
 80025b8:	f7ff ff96 	bl	80024e8 <TIM_ETR_SetConfig>
 80025bc:	2377      	movs	r3, #119	; 0x77
 80025be:	6822      	ldr	r2, [r4, #0]
 80025c0:	6891      	ldr	r1, [r2, #8]
 80025c2:	430b      	orrs	r3, r1
 80025c4:	6093      	str	r3, [r2, #8]
 80025c6:	2200      	movs	r2, #0
 80025c8:	e7bd      	b.n	8002546 <HAL_TIM_ConfigClockSource+0x46>
 80025ca:	68cb      	ldr	r3, [r1, #12]
 80025cc:	684a      	ldr	r2, [r1, #4]
 80025ce:	6889      	ldr	r1, [r1, #8]
 80025d0:	f7ff ff8a 	bl	80024e8 <TIM_ETR_SetConfig>
 80025d4:	2380      	movs	r3, #128	; 0x80
 80025d6:	6822      	ldr	r2, [r4, #0]
 80025d8:	01db      	lsls	r3, r3, #7
 80025da:	6891      	ldr	r1, [r2, #8]
 80025dc:	e7f1      	b.n	80025c2 <HAL_TIM_ConfigClockSource+0xc2>
 80025de:	684a      	ldr	r2, [r1, #4]
 80025e0:	68cf      	ldr	r7, [r1, #12]
 80025e2:	2110      	movs	r1, #16
 80025e4:	6a03      	ldr	r3, [r0, #32]
 80025e6:	4c17      	ldr	r4, [pc, #92]	; (8002644 <HAL_TIM_ConfigClockSource+0x144>)
 80025e8:	438b      	bics	r3, r1
 80025ea:	6203      	str	r3, [r0, #32]
 80025ec:	6981      	ldr	r1, [r0, #24]
 80025ee:	6a03      	ldr	r3, [r0, #32]
 80025f0:	4021      	ands	r1, r4
 80025f2:	24a0      	movs	r4, #160	; 0xa0
 80025f4:	43a3      	bics	r3, r4
 80025f6:	001c      	movs	r4, r3
 80025f8:	033f      	lsls	r7, r7, #12
 80025fa:	0113      	lsls	r3, r2, #4
 80025fc:	4323      	orrs	r3, r4
 80025fe:	4339      	orrs	r1, r7
 8002600:	6181      	str	r1, [r0, #24]
 8002602:	6203      	str	r3, [r0, #32]
 8002604:	6883      	ldr	r3, [r0, #8]
 8002606:	4a0e      	ldr	r2, [pc, #56]	; (8002640 <HAL_TIM_ConfigClockSource+0x140>)
 8002608:	401a      	ands	r2, r3
 800260a:	2367      	movs	r3, #103	; 0x67
 800260c:	e7c1      	b.n	8002592 <HAL_TIM_ConfigClockSource+0x92>
 800260e:	68ca      	ldr	r2, [r1, #12]
 8002610:	684c      	ldr	r4, [r1, #4]
 8002612:	6a01      	ldr	r1, [r0, #32]
 8002614:	6a03      	ldr	r3, [r0, #32]
 8002616:	43bb      	bics	r3, r7
 8002618:	27f0      	movs	r7, #240	; 0xf0
 800261a:	6203      	str	r3, [r0, #32]
 800261c:	6983      	ldr	r3, [r0, #24]
 800261e:	43bb      	bics	r3, r7
 8002620:	001f      	movs	r7, r3
 8002622:	0113      	lsls	r3, r2, #4
 8002624:	220a      	movs	r2, #10
 8002626:	4391      	bics	r1, r2
 8002628:	000a      	movs	r2, r1
 800262a:	433b      	orrs	r3, r7
 800262c:	4322      	orrs	r2, r4
 800262e:	6183      	str	r3, [r0, #24]
 8002630:	6202      	str	r2, [r0, #32]
 8002632:	6883      	ldr	r3, [r0, #8]
 8002634:	4a02      	ldr	r2, [pc, #8]	; (8002640 <HAL_TIM_ConfigClockSource+0x140>)
 8002636:	401a      	ands	r2, r3
 8002638:	2347      	movs	r3, #71	; 0x47
 800263a:	e7aa      	b.n	8002592 <HAL_TIM_ConfigClockSource+0x92>
 800263c:	ffce0088 	.word	0xffce0088
 8002640:	ffcfff8f 	.word	0xffcfff8f
 8002644:	ffff0fff 	.word	0xffff0fff

08002648 <HAL_TIMEx_MasterConfigSynchronization>:
 8002648:	b5f0      	push	{r4, r5, r6, r7, lr}
 800264a:	0004      	movs	r4, r0
 800264c:	2202      	movs	r2, #2
 800264e:	343c      	adds	r4, #60	; 0x3c
 8002650:	7825      	ldrb	r5, [r4, #0]
 8002652:	0003      	movs	r3, r0
 8002654:	0010      	movs	r0, r2
 8002656:	2d01      	cmp	r5, #1
 8002658:	d029      	beq.n	80026ae <HAL_TIMEx_MasterConfigSynchronization+0x66>
 800265a:	001d      	movs	r5, r3
 800265c:	353d      	adds	r5, #61	; 0x3d
 800265e:	702a      	strb	r2, [r5, #0]
 8002660:	681b      	ldr	r3, [r3, #0]
 8002662:	4e13      	ldr	r6, [pc, #76]	; (80026b0 <HAL_TIMEx_MasterConfigSynchronization+0x68>)
 8002664:	685a      	ldr	r2, [r3, #4]
 8002666:	6898      	ldr	r0, [r3, #8]
 8002668:	42b3      	cmp	r3, r6
 800266a:	d103      	bne.n	8002674 <HAL_TIMEx_MasterConfigSynchronization+0x2c>
 800266c:	4f11      	ldr	r7, [pc, #68]	; (80026b4 <HAL_TIMEx_MasterConfigSynchronization+0x6c>)
 800266e:	403a      	ands	r2, r7
 8002670:	684f      	ldr	r7, [r1, #4]
 8002672:	433a      	orrs	r2, r7
 8002674:	2770      	movs	r7, #112	; 0x70
 8002676:	43ba      	bics	r2, r7
 8002678:	680f      	ldr	r7, [r1, #0]
 800267a:	433a      	orrs	r2, r7
 800267c:	605a      	str	r2, [r3, #4]
 800267e:	42b3      	cmp	r3, r6
 8002680:	d00c      	beq.n	800269c <HAL_TIMEx_MasterConfigSynchronization+0x54>
 8002682:	2280      	movs	r2, #128	; 0x80
 8002684:	05d2      	lsls	r2, r2, #23
 8002686:	4293      	cmp	r3, r2
 8002688:	d008      	beq.n	800269c <HAL_TIMEx_MasterConfigSynchronization+0x54>
 800268a:	4a0b      	ldr	r2, [pc, #44]	; (80026b8 <HAL_TIMEx_MasterConfigSynchronization+0x70>)
 800268c:	4293      	cmp	r3, r2
 800268e:	d005      	beq.n	800269c <HAL_TIMEx_MasterConfigSynchronization+0x54>
 8002690:	4a0a      	ldr	r2, [pc, #40]	; (80026bc <HAL_TIMEx_MasterConfigSynchronization+0x74>)
 8002692:	4293      	cmp	r3, r2
 8002694:	d002      	beq.n	800269c <HAL_TIMEx_MasterConfigSynchronization+0x54>
 8002696:	4a0a      	ldr	r2, [pc, #40]	; (80026c0 <HAL_TIMEx_MasterConfigSynchronization+0x78>)
 8002698:	4293      	cmp	r3, r2
 800269a:	d104      	bne.n	80026a6 <HAL_TIMEx_MasterConfigSynchronization+0x5e>
 800269c:	2280      	movs	r2, #128	; 0x80
 800269e:	4390      	bics	r0, r2
 80026a0:	688a      	ldr	r2, [r1, #8]
 80026a2:	4310      	orrs	r0, r2
 80026a4:	6098      	str	r0, [r3, #8]
 80026a6:	2301      	movs	r3, #1
 80026a8:	2000      	movs	r0, #0
 80026aa:	702b      	strb	r3, [r5, #0]
 80026ac:	7020      	strb	r0, [r4, #0]
 80026ae:	bdf0      	pop	{r4, r5, r6, r7, pc}
 80026b0:	40012c00 	.word	0x40012c00
 80026b4:	ff0fffff 	.word	0xff0fffff
 80026b8:	40000400 	.word	0x40000400
 80026bc:	40000800 	.word	0x40000800
 80026c0:	40014000 	.word	0x40014000

080026c4 <UART_SetConfig>:
 80026c4:	b5f8      	push	{r3, r4, r5, r6, r7, lr}
 80026c6:	0004      	movs	r4, r0
 80026c8:	6925      	ldr	r5, [r4, #16]
 80026ca:	68a1      	ldr	r1, [r4, #8]
 80026cc:	6803      	ldr	r3, [r0, #0]
 80026ce:	4329      	orrs	r1, r5
 80026d0:	6965      	ldr	r5, [r4, #20]
 80026d2:	69c2      	ldr	r2, [r0, #28]
 80026d4:	4329      	orrs	r1, r5
 80026d6:	6818      	ldr	r0, [r3, #0]
 80026d8:	4d9e      	ldr	r5, [pc, #632]	; (8002954 <UART_SetConfig+0x290>)
 80026da:	4311      	orrs	r1, r2
 80026dc:	4028      	ands	r0, r5
 80026de:	4301      	orrs	r1, r0
 80026e0:	6019      	str	r1, [r3, #0]
 80026e2:	6859      	ldr	r1, [r3, #4]
 80026e4:	489c      	ldr	r0, [pc, #624]	; (8002958 <UART_SetConfig+0x294>)
 80026e6:	69a5      	ldr	r5, [r4, #24]
 80026e8:	4001      	ands	r1, r0
 80026ea:	68e0      	ldr	r0, [r4, #12]
 80026ec:	4301      	orrs	r1, r0
 80026ee:	489b      	ldr	r0, [pc, #620]	; (800295c <UART_SetConfig+0x298>)
 80026f0:	6059      	str	r1, [r3, #4]
 80026f2:	4283      	cmp	r3, r0
 80026f4:	d004      	beq.n	8002700 <UART_SetConfig+0x3c>
 80026f6:	499a      	ldr	r1, [pc, #616]	; (8002960 <UART_SetConfig+0x29c>)
 80026f8:	428b      	cmp	r3, r1
 80026fa:	d001      	beq.n	8002700 <UART_SetConfig+0x3c>
 80026fc:	6a21      	ldr	r1, [r4, #32]
 80026fe:	430d      	orrs	r5, r1
 8002700:	6899      	ldr	r1, [r3, #8]
 8002702:	4e98      	ldr	r6, [pc, #608]	; (8002964 <UART_SetConfig+0x2a0>)
 8002704:	4031      	ands	r1, r6
 8002706:	4329      	orrs	r1, r5
 8002708:	250f      	movs	r5, #15
 800270a:	6099      	str	r1, [r3, #8]
 800270c:	6ad9      	ldr	r1, [r3, #44]	; 0x2c
 800270e:	43a9      	bics	r1, r5
 8002710:	6a65      	ldr	r5, [r4, #36]	; 0x24
 8002712:	4329      	orrs	r1, r5
 8002714:	62d9      	str	r1, [r3, #44]	; 0x2c
 8002716:	4994      	ldr	r1, [pc, #592]	; (8002968 <UART_SetConfig+0x2a4>)
 8002718:	428b      	cmp	r3, r1
 800271a:	d116      	bne.n	800274a <UART_SetConfig+0x86>
 800271c:	2103      	movs	r1, #3
 800271e:	4b93      	ldr	r3, [pc, #588]	; (800296c <UART_SetConfig+0x2a8>)
 8002720:	2000      	movs	r0, #0
 8002722:	6d5b      	ldr	r3, [r3, #84]	; 0x54
 8002724:	400b      	ands	r3, r1
 8002726:	3b01      	subs	r3, #1
 8002728:	4991      	ldr	r1, [pc, #580]	; (8002970 <UART_SetConfig+0x2ac>)
 800272a:	2b02      	cmp	r3, #2
 800272c:	d915      	bls.n	800275a <UART_SetConfig+0x96>
 800272e:	2380      	movs	r3, #128	; 0x80
 8002730:	021b      	lsls	r3, r3, #8
 8002732:	429a      	cmp	r2, r3
 8002734:	d000      	beq.n	8002738 <UART_SetConfig+0x74>
 8002736:	e0a7      	b.n	8002888 <UART_SetConfig+0x1c4>
 8002738:	2808      	cmp	r0, #8
 800273a:	d821      	bhi.n	8002780 <UART_SetConfig+0xbc>
 800273c:	f7fd fce2 	bl	8000104 <__gnu_thumb1_case_uqi>
 8002740:	20a220dd 	.word	0x20a220dd
 8002744:	202020d0 	.word	0x202020d0
 8002748:	e2          	.byte	0xe2
 8002749:	00          	.byte	0x00
 800274a:	498a      	ldr	r1, [pc, #552]	; (8002974 <UART_SetConfig+0x2b0>)
 800274c:	428b      	cmp	r3, r1
 800274e:	d106      	bne.n	800275e <UART_SetConfig+0x9a>
 8002750:	210c      	movs	r1, #12
 8002752:	4b86      	ldr	r3, [pc, #536]	; (800296c <UART_SetConfig+0x2a8>)
 8002754:	6d5b      	ldr	r3, [r3, #84]	; 0x54
 8002756:	400b      	ands	r3, r1
 8002758:	4987      	ldr	r1, [pc, #540]	; (8002978 <UART_SetConfig+0x2b4>)
 800275a:	5cc8      	ldrb	r0, [r1, r3]
 800275c:	e7e7      	b.n	800272e <UART_SetConfig+0x6a>
 800275e:	4987      	ldr	r1, [pc, #540]	; (800297c <UART_SetConfig+0x2b8>)
 8002760:	428b      	cmp	r3, r1
 8002762:	d117      	bne.n	8002794 <UART_SetConfig+0xd0>
 8002764:	2030      	movs	r0, #48	; 0x30
 8002766:	4981      	ldr	r1, [pc, #516]	; (800296c <UART_SetConfig+0x2a8>)
 8002768:	6d49      	ldr	r1, [r1, #84]	; 0x54
 800276a:	4001      	ands	r1, r0
 800276c:	2920      	cmp	r1, #32
 800276e:	d100      	bne.n	8002772 <UART_SetConfig+0xae>
 8002770:	e0b9      	b.n	80028e6 <UART_SetConfig+0x222>
 8002772:	d807      	bhi.n	8002784 <UART_SetConfig+0xc0>
 8002774:	2900      	cmp	r1, #0
 8002776:	d100      	bne.n	800277a <UART_SetConfig+0xb6>
 8002778:	e0e2      	b.n	8002940 <UART_SetConfig+0x27c>
 800277a:	2910      	cmp	r1, #16
 800277c:	d100      	bne.n	8002780 <UART_SetConfig+0xbc>
 800277e:	e0ab      	b.n	80028d8 <UART_SetConfig+0x214>
 8002780:	2001      	movs	r0, #1
 8002782:	e04b      	b.n	800281c <UART_SetConfig+0x158>
 8002784:	2930      	cmp	r1, #48	; 0x30
 8002786:	d1fb      	bne.n	8002780 <UART_SetConfig+0xbc>
 8002788:	2080      	movs	r0, #128	; 0x80
 800278a:	0200      	lsls	r0, r0, #8
 800278c:	4282      	cmp	r2, r0
 800278e:	d000      	beq.n	8002792 <UART_SetConfig+0xce>
 8002790:	e08a      	b.n	80028a8 <UART_SetConfig+0x1e4>
 8002792:	e0b7      	b.n	8002904 <UART_SetConfig+0x240>
 8002794:	497a      	ldr	r1, [pc, #488]	; (8002980 <UART_SetConfig+0x2bc>)
 8002796:	428b      	cmp	r3, r1
 8002798:	d100      	bne.n	800279c <UART_SetConfig+0xd8>
 800279a:	e0aa      	b.n	80028f2 <UART_SetConfig+0x22e>
 800279c:	4979      	ldr	r1, [pc, #484]	; (8002984 <UART_SetConfig+0x2c0>)
 800279e:	428b      	cmp	r3, r1
 80027a0:	d100      	bne.n	80027a4 <UART_SetConfig+0xe0>
 80027a2:	e0a6      	b.n	80028f2 <UART_SetConfig+0x22e>
 80027a4:	4978      	ldr	r1, [pc, #480]	; (8002988 <UART_SetConfig+0x2c4>)
 80027a6:	428b      	cmp	r3, r1
 80027a8:	d100      	bne.n	80027ac <UART_SetConfig+0xe8>
 80027aa:	e0a2      	b.n	80028f2 <UART_SetConfig+0x22e>
 80027ac:	4283      	cmp	r3, r0
 80027ae:	d117      	bne.n	80027e0 <UART_SetConfig+0x11c>
 80027b0:	22c0      	movs	r2, #192	; 0xc0
 80027b2:	2180      	movs	r1, #128	; 0x80
 80027b4:	4b6d      	ldr	r3, [pc, #436]	; (800296c <UART_SetConfig+0x2a8>)
 80027b6:	0112      	lsls	r2, r2, #4
 80027b8:	6d5b      	ldr	r3, [r3, #84]	; 0x54
 80027ba:	0109      	lsls	r1, r1, #4
 80027bc:	4013      	ands	r3, r2
 80027be:	428b      	cmp	r3, r1
 80027c0:	d032      	beq.n	8002828 <UART_SetConfig+0x164>
 80027c2:	d808      	bhi.n	80027d6 <UART_SetConfig+0x112>
 80027c4:	2b00      	cmp	r3, #0
 80027c6:	d024      	beq.n	8002812 <UART_SetConfig+0x14e>
 80027c8:	2280      	movs	r2, #128	; 0x80
 80027ca:	00d2      	lsls	r2, r2, #3
 80027cc:	4293      	cmp	r3, r2
 80027ce:	d1d7      	bne.n	8002780 <UART_SetConfig+0xbc>
 80027d0:	f7ff fbae 	bl	8001f30 <HAL_RCC_GetSysClockFreq>
 80027d4:	e01f      	b.n	8002816 <UART_SetConfig+0x152>
 80027d6:	4293      	cmp	r3, r2
 80027d8:	d1d2      	bne.n	8002780 <UART_SetConfig+0xbc>
 80027da:	2680      	movs	r6, #128	; 0x80
 80027dc:	0236      	lsls	r6, r6, #8
 80027de:	e024      	b.n	800282a <UART_SetConfig+0x166>
 80027e0:	495f      	ldr	r1, [pc, #380]	; (8002960 <UART_SetConfig+0x29c>)
 80027e2:	2001      	movs	r0, #1
 80027e4:	428b      	cmp	r3, r1
 80027e6:	d119      	bne.n	800281c <UART_SetConfig+0x158>
 80027e8:	20c0      	movs	r0, #192	; 0xc0
 80027ea:	2580      	movs	r5, #128	; 0x80
 80027ec:	495f      	ldr	r1, [pc, #380]	; (800296c <UART_SetConfig+0x2a8>)
 80027ee:	0080      	lsls	r0, r0, #2
 80027f0:	6d49      	ldr	r1, [r1, #84]	; 0x54
 80027f2:	00ad      	lsls	r5, r5, #2
 80027f4:	4001      	ands	r1, r0
 80027f6:	42a9      	cmp	r1, r5
 80027f8:	d016      	beq.n	8002828 <UART_SetConfig+0x164>
 80027fa:	d807      	bhi.n	800280c <UART_SetConfig+0x148>
 80027fc:	2900      	cmp	r1, #0
 80027fe:	d100      	bne.n	8002802 <UART_SetConfig+0x13e>
 8002800:	e09e      	b.n	8002940 <UART_SetConfig+0x27c>
 8002802:	2380      	movs	r3, #128	; 0x80
 8002804:	005b      	lsls	r3, r3, #1
 8002806:	4299      	cmp	r1, r3
 8002808:	d0e2      	beq.n	80027d0 <UART_SetConfig+0x10c>
 800280a:	e7b9      	b.n	8002780 <UART_SetConfig+0xbc>
 800280c:	4281      	cmp	r1, r0
 800280e:	d0e4      	beq.n	80027da <UART_SetConfig+0x116>
 8002810:	e7b6      	b.n	8002780 <UART_SetConfig+0xbc>
 8002812:	f7ff fc81 	bl	8002118 <HAL_RCC_GetPCLK1Freq>
 8002816:	1e06      	subs	r6, r0, #0
 8002818:	d107      	bne.n	800282a <UART_SetConfig+0x166>
 800281a:	2000      	movs	r0, #0
 800281c:	4b5b      	ldr	r3, [pc, #364]	; (800298c <UART_SetConfig+0x2c8>)
 800281e:	66a3      	str	r3, [r4, #104]	; 0x68
 8002820:	2300      	movs	r3, #0
 8002822:	6763      	str	r3, [r4, #116]	; 0x74
 8002824:	67a3      	str	r3, [r4, #120]	; 0x78
 8002826:	bdf8      	pop	{r3, r4, r5, r6, r7, pc}
 8002828:	4e59      	ldr	r6, [pc, #356]	; (8002990 <UART_SetConfig+0x2cc>)
 800282a:	6a63      	ldr	r3, [r4, #36]	; 0x24
 800282c:	4a59      	ldr	r2, [pc, #356]	; (8002994 <UART_SetConfig+0x2d0>)
 800282e:	005b      	lsls	r3, r3, #1
 8002830:	5a9f      	ldrh	r7, [r3, r2]
 8002832:	0030      	movs	r0, r6
 8002834:	0039      	movs	r1, r7
 8002836:	f7fd fc79 	bl	800012c <__udivsi3>
 800283a:	2303      	movs	r3, #3
 800283c:	6865      	ldr	r5, [r4, #4]
 800283e:	436b      	muls	r3, r5
 8002840:	4283      	cmp	r3, r0
 8002842:	d89d      	bhi.n	8002780 <UART_SetConfig+0xbc>
 8002844:	032b      	lsls	r3, r5, #12
 8002846:	4283      	cmp	r3, r0
 8002848:	d39a      	bcc.n	8002780 <UART_SetConfig+0xbc>
 800284a:	2300      	movs	r3, #0
 800284c:	003a      	movs	r2, r7
 800284e:	0030      	movs	r0, r6
 8002850:	0019      	movs	r1, r3
 8002852:	f7fd fde1 	bl	8000418 <__aeabi_uldivmod>
 8002856:	2700      	movs	r7, #0
 8002858:	0e06      	lsrs	r6, r0, #24
 800285a:	020b      	lsls	r3, r1, #8
 800285c:	4333      	orrs	r3, r6
 800285e:	0202      	lsls	r2, r0, #8
 8002860:	086e      	lsrs	r6, r5, #1
 8002862:	1992      	adds	r2, r2, r6
 8002864:	417b      	adcs	r3, r7
 8002866:	0010      	movs	r0, r2
 8002868:	0019      	movs	r1, r3
 800286a:	002a      	movs	r2, r5
 800286c:	003b      	movs	r3, r7
 800286e:	f7fd fdd3 	bl	8000418 <__aeabi_uldivmod>
 8002872:	4b49      	ldr	r3, [pc, #292]	; (8002998 <UART_SetConfig+0x2d4>)
 8002874:	18c2      	adds	r2, r0, r3
 8002876:	4b49      	ldr	r3, [pc, #292]	; (800299c <UART_SetConfig+0x2d8>)
 8002878:	429a      	cmp	r2, r3
 800287a:	d900      	bls.n	800287e <UART_SetConfig+0x1ba>
 800287c:	e780      	b.n	8002780 <UART_SetConfig+0xbc>
 800287e:	6823      	ldr	r3, [r4, #0]
 8002880:	60d8      	str	r0, [r3, #12]
 8002882:	e7ca      	b.n	800281a <UART_SetConfig+0x156>
 8002884:	4a42      	ldr	r2, [pc, #264]	; (8002990 <UART_SetConfig+0x2cc>)
 8002886:	e03d      	b.n	8002904 <UART_SetConfig+0x240>
 8002888:	2808      	cmp	r0, #8
 800288a:	d900      	bls.n	800288e <UART_SetConfig+0x1ca>
 800288c:	e778      	b.n	8002780 <UART_SetConfig+0xbc>
 800288e:	f7fd fc43 	bl	8000118 <__gnu_thumb1_case_shi>
 8002892:	001b      	.short	0x001b
 8002894:	002eff77 	.word	0x002eff77
 8002898:	0020ff77 	.word	0x0020ff77
 800289c:	ff77ff77 	.word	0xff77ff77
 80028a0:	0009ff77 	.word	0x0009ff77
 80028a4:	2080      	movs	r0, #128	; 0x80
 80028a6:	0200      	lsls	r0, r0, #8
 80028a8:	6a63      	ldr	r3, [r4, #36]	; 0x24
 80028aa:	4a3a      	ldr	r2, [pc, #232]	; (8002994 <UART_SetConfig+0x2d0>)
 80028ac:	005b      	lsls	r3, r3, #1
 80028ae:	5a99      	ldrh	r1, [r3, r2]
 80028b0:	f7fd fc3c 	bl	800012c <__udivsi3>
 80028b4:	6865      	ldr	r5, [r4, #4]
 80028b6:	086b      	lsrs	r3, r5, #1
 80028b8:	18c0      	adds	r0, r0, r3
 80028ba:	0029      	movs	r1, r5
 80028bc:	f7fd fc36 	bl	800012c <__udivsi3>
 80028c0:	0002      	movs	r2, r0
 80028c2:	4b37      	ldr	r3, [pc, #220]	; (80029a0 <UART_SetConfig+0x2dc>)
 80028c4:	3a10      	subs	r2, #16
 80028c6:	e7d7      	b.n	8002878 <UART_SetConfig+0x1b4>
 80028c8:	f7ff fc26 	bl	8002118 <HAL_RCC_GetPCLK1Freq>
 80028cc:	2800      	cmp	r0, #0
 80028ce:	d0a4      	beq.n	800281a <UART_SetConfig+0x156>
 80028d0:	e7ea      	b.n	80028a8 <UART_SetConfig+0x1e4>
 80028d2:	f7ff fb2d 	bl	8001f30 <HAL_RCC_GetSysClockFreq>
 80028d6:	e7f9      	b.n	80028cc <UART_SetConfig+0x208>
 80028d8:	2380      	movs	r3, #128	; 0x80
 80028da:	021b      	lsls	r3, r3, #8
 80028dc:	429a      	cmp	r2, r3
 80028de:	d1f8      	bne.n	80028d2 <UART_SetConfig+0x20e>
 80028e0:	f7ff fb26 	bl	8001f30 <HAL_RCC_GetSysClockFreq>
 80028e4:	e00b      	b.n	80028fe <UART_SetConfig+0x23a>
 80028e6:	2380      	movs	r3, #128	; 0x80
 80028e8:	021b      	lsls	r3, r3, #8
 80028ea:	429a      	cmp	r2, r3
 80028ec:	d0ca      	beq.n	8002884 <UART_SetConfig+0x1c0>
 80028ee:	4828      	ldr	r0, [pc, #160]	; (8002990 <UART_SetConfig+0x2cc>)
 80028f0:	e7da      	b.n	80028a8 <UART_SetConfig+0x1e4>
 80028f2:	2380      	movs	r3, #128	; 0x80
 80028f4:	021b      	lsls	r3, r3, #8
 80028f6:	429a      	cmp	r2, r3
 80028f8:	d1e6      	bne.n	80028c8 <UART_SetConfig+0x204>
 80028fa:	f7ff fc0d 	bl	8002118 <HAL_RCC_GetPCLK1Freq>
 80028fe:	1e02      	subs	r2, r0, #0
 8002900:	d100      	bne.n	8002904 <UART_SetConfig+0x240>
 8002902:	e78a      	b.n	800281a <UART_SetConfig+0x156>
 8002904:	6a63      	ldr	r3, [r4, #36]	; 0x24
 8002906:	4923      	ldr	r1, [pc, #140]	; (8002994 <UART_SetConfig+0x2d0>)
 8002908:	005b      	lsls	r3, r3, #1
 800290a:	0010      	movs	r0, r2
 800290c:	5a59      	ldrh	r1, [r3, r1]
 800290e:	f7fd fc0d 	bl	800012c <__udivsi3>
 8002912:	6865      	ldr	r5, [r4, #4]
 8002914:	0040      	lsls	r0, r0, #1
 8002916:	086b      	lsrs	r3, r5, #1
 8002918:	18c0      	adds	r0, r0, r3
 800291a:	0029      	movs	r1, r5
 800291c:	f7fd fc06 	bl	800012c <__udivsi3>
 8002920:	0002      	movs	r2, r0
 8002922:	4b1f      	ldr	r3, [pc, #124]	; (80029a0 <UART_SetConfig+0x2dc>)
 8002924:	3a10      	subs	r2, #16
 8002926:	429a      	cmp	r2, r3
 8002928:	d900      	bls.n	800292c <UART_SetConfig+0x268>
 800292a:	e729      	b.n	8002780 <UART_SetConfig+0xbc>
 800292c:	230f      	movs	r3, #15
 800292e:	0002      	movs	r2, r0
 8002930:	0700      	lsls	r0, r0, #28
 8002932:	439a      	bics	r2, r3
 8002934:	b293      	uxth	r3, r2
 8002936:	0f40      	lsrs	r0, r0, #29
 8002938:	6822      	ldr	r2, [r4, #0]
 800293a:	4318      	orrs	r0, r3
 800293c:	60d0      	str	r0, [r2, #12]
 800293e:	e76c      	b.n	800281a <UART_SetConfig+0x156>
 8002940:	4907      	ldr	r1, [pc, #28]	; (8002960 <UART_SetConfig+0x29c>)
 8002942:	428b      	cmp	r3, r1
 8002944:	d100      	bne.n	8002948 <UART_SetConfig+0x284>
 8002946:	e764      	b.n	8002812 <UART_SetConfig+0x14e>
 8002948:	2380      	movs	r3, #128	; 0x80
 800294a:	2000      	movs	r0, #0
 800294c:	021b      	lsls	r3, r3, #8
 800294e:	429a      	cmp	r2, r3
 8002950:	d19d      	bne.n	800288e <UART_SetConfig+0x1ca>
 8002952:	e7d2      	b.n	80028fa <UART_SetConfig+0x236>
 8002954:	cfff69f3 	.word	0xcfff69f3
 8002958:	ffffcfff 	.word	0xffffcfff
 800295c:	40008000 	.word	0x40008000
 8002960:	40008400 	.word	0x40008400
 8002964:	11fff4ff 	.word	0x11fff4ff
 8002968:	40013800 	.word	0x40013800
 800296c:	40021000 	.word	0x40021000
 8002970:	08002e00 	.word	0x08002e00
 8002974:	40004400 	.word	0x40004400
 8002978:	08002e03 	.word	0x08002e03
 800297c:	40004800 	.word	0x40004800
 8002980:	40004c00 	.word	0x40004c00
 8002984:	40005000 	.word	0x40005000
 8002988:	40013c00 	.word	0x40013c00
 800298c:	00010001 	.word	0x00010001
 8002990:	00f42400 	.word	0x00f42400
 8002994:	08002e10 	.word	0x08002e10
 8002998:	fffffd00 	.word	0xfffffd00
 800299c:	000ffcff 	.word	0x000ffcff
 80029a0:	0000ffef 	.word	0x0000ffef

080029a4 <UART_AdvFeatureConfig>:
 80029a4:	6a83      	ldr	r3, [r0, #40]	; 0x28
 80029a6:	b530      	push	{r4, r5, lr}
 80029a8:	07da      	lsls	r2, r3, #31
 80029aa:	d506      	bpl.n	80029ba <UART_AdvFeatureConfig+0x16>
 80029ac:	6801      	ldr	r1, [r0, #0]
 80029ae:	4c28      	ldr	r4, [pc, #160]	; (8002a50 <UART_AdvFeatureConfig+0xac>)
 80029b0:	684a      	ldr	r2, [r1, #4]
 80029b2:	4022      	ands	r2, r4
 80029b4:	6ac4      	ldr	r4, [r0, #44]	; 0x2c
 80029b6:	4322      	orrs	r2, r4
 80029b8:	604a      	str	r2, [r1, #4]
 80029ba:	079a      	lsls	r2, r3, #30
 80029bc:	d506      	bpl.n	80029cc <UART_AdvFeatureConfig+0x28>
 80029be:	6801      	ldr	r1, [r0, #0]
 80029c0:	4c24      	ldr	r4, [pc, #144]	; (8002a54 <UART_AdvFeatureConfig+0xb0>)
 80029c2:	684a      	ldr	r2, [r1, #4]
 80029c4:	4022      	ands	r2, r4
 80029c6:	6b04      	ldr	r4, [r0, #48]	; 0x30
 80029c8:	4322      	orrs	r2, r4
 80029ca:	604a      	str	r2, [r1, #4]
 80029cc:	075a      	lsls	r2, r3, #29
 80029ce:	d506      	bpl.n	80029de <UART_AdvFeatureConfig+0x3a>
 80029d0:	6801      	ldr	r1, [r0, #0]
 80029d2:	4c21      	ldr	r4, [pc, #132]	; (8002a58 <UART_AdvFeatureConfig+0xb4>)
 80029d4:	684a      	ldr	r2, [r1, #4]
 80029d6:	4022      	ands	r2, r4
 80029d8:	6b44      	ldr	r4, [r0, #52]	; 0x34
 80029da:	4322      	orrs	r2, r4
 80029dc:	604a      	str	r2, [r1, #4]
 80029de:	071a      	lsls	r2, r3, #28
 80029e0:	d506      	bpl.n	80029f0 <UART_AdvFeatureConfig+0x4c>
 80029e2:	6801      	ldr	r1, [r0, #0]
 80029e4:	4c1d      	ldr	r4, [pc, #116]	; (8002a5c <UART_AdvFeatureConfig+0xb8>)
 80029e6:	684a      	ldr	r2, [r1, #4]
 80029e8:	4022      	ands	r2, r4
 80029ea:	6b84      	ldr	r4, [r0, #56]	; 0x38
 80029ec:	4322      	orrs	r2, r4
 80029ee:	604a      	str	r2, [r1, #4]
 80029f0:	06da      	lsls	r2, r3, #27
 80029f2:	d506      	bpl.n	8002a02 <UART_AdvFeatureConfig+0x5e>
 80029f4:	6801      	ldr	r1, [r0, #0]
 80029f6:	4c1a      	ldr	r4, [pc, #104]	; (8002a60 <UART_AdvFeatureConfig+0xbc>)
 80029f8:	688a      	ldr	r2, [r1, #8]
 80029fa:	4022      	ands	r2, r4
 80029fc:	6bc4      	ldr	r4, [r0, #60]	; 0x3c
 80029fe:	4322      	orrs	r2, r4
 8002a00:	608a      	str	r2, [r1, #8]
 8002a02:	069a      	lsls	r2, r3, #26
 8002a04:	d506      	bpl.n	8002a14 <UART_AdvFeatureConfig+0x70>
 8002a06:	6801      	ldr	r1, [r0, #0]
 8002a08:	4c16      	ldr	r4, [pc, #88]	; (8002a64 <UART_AdvFeatureConfig+0xc0>)
 8002a0a:	688a      	ldr	r2, [r1, #8]
 8002a0c:	4022      	ands	r2, r4
 8002a0e:	6c04      	ldr	r4, [r0, #64]	; 0x40
 8002a10:	4322      	orrs	r2, r4
 8002a12:	608a      	str	r2, [r1, #8]
 8002a14:	065a      	lsls	r2, r3, #25
 8002a16:	d510      	bpl.n	8002a3a <UART_AdvFeatureConfig+0x96>
 8002a18:	6801      	ldr	r1, [r0, #0]
 8002a1a:	4d13      	ldr	r5, [pc, #76]	; (8002a68 <UART_AdvFeatureConfig+0xc4>)
 8002a1c:	684a      	ldr	r2, [r1, #4]
 8002a1e:	6c44      	ldr	r4, [r0, #68]	; 0x44
 8002a20:	402a      	ands	r2, r5
 8002a22:	4322      	orrs	r2, r4
 8002a24:	604a      	str	r2, [r1, #4]
 8002a26:	2280      	movs	r2, #128	; 0x80
 8002a28:	0352      	lsls	r2, r2, #13
 8002a2a:	4294      	cmp	r4, r2
 8002a2c:	d105      	bne.n	8002a3a <UART_AdvFeatureConfig+0x96>
 8002a2e:	684a      	ldr	r2, [r1, #4]
 8002a30:	4c0e      	ldr	r4, [pc, #56]	; (8002a6c <UART_AdvFeatureConfig+0xc8>)
 8002a32:	4022      	ands	r2, r4
 8002a34:	6c84      	ldr	r4, [r0, #72]	; 0x48
 8002a36:	4322      	orrs	r2, r4
 8002a38:	604a      	str	r2, [r1, #4]
 8002a3a:	061b      	lsls	r3, r3, #24
 8002a3c:	d506      	bpl.n	8002a4c <UART_AdvFeatureConfig+0xa8>
 8002a3e:	6802      	ldr	r2, [r0, #0]
 8002a40:	490b      	ldr	r1, [pc, #44]	; (8002a70 <UART_AdvFeatureConfig+0xcc>)
 8002a42:	6853      	ldr	r3, [r2, #4]
 8002a44:	400b      	ands	r3, r1
 8002a46:	6cc1      	ldr	r1, [r0, #76]	; 0x4c
 8002a48:	430b      	orrs	r3, r1
 8002a4a:	6053      	str	r3, [r2, #4]
 8002a4c:	bd30      	pop	{r4, r5, pc}
 8002a4e:	46c0      	nop			; (mov r8, r8)
 8002a50:	fffdffff 	.word	0xfffdffff
 8002a54:	fffeffff 	.word	0xfffeffff
 8002a58:	fffbffff 	.word	0xfffbffff
 8002a5c:	ffff7fff 	.word	0xffff7fff
 8002a60:	ffffefff 	.word	0xffffefff
 8002a64:	ffffdfff 	.word	0xffffdfff
 8002a68:	ffefffff 	.word	0xffefffff
 8002a6c:	ff9fffff 	.word	0xff9fffff
 8002a70:	fff7ffff 	.word	0xfff7ffff

08002a74 <UART_WaitOnFlagUntilTimeout>:
 8002a74:	b5f7      	push	{r0, r1, r2, r4, r5, r6, r7, lr}
 8002a76:	2780      	movs	r7, #128	; 0x80
 8002a78:	0004      	movs	r4, r0
 8002a7a:	000d      	movs	r5, r1
 8002a7c:	0016      	movs	r6, r2
 8002a7e:	9301      	str	r3, [sp, #4]
 8002a80:	013f      	lsls	r7, r7, #4
 8002a82:	6822      	ldr	r2, [r4, #0]
 8002a84:	69d3      	ldr	r3, [r2, #28]
 8002a86:	402b      	ands	r3, r5
 8002a88:	1b5b      	subs	r3, r3, r5
 8002a8a:	4259      	negs	r1, r3
 8002a8c:	414b      	adcs	r3, r1
 8002a8e:	42b3      	cmp	r3, r6
 8002a90:	d001      	beq.n	8002a96 <UART_WaitOnFlagUntilTimeout+0x22>
 8002a92:	2000      	movs	r0, #0
 8002a94:	e02a      	b.n	8002aec <UART_WaitOnFlagUntilTimeout+0x78>
 8002a96:	9b08      	ldr	r3, [sp, #32]
 8002a98:	3301      	adds	r3, #1
 8002a9a:	d0f3      	beq.n	8002a84 <UART_WaitOnFlagUntilTimeout+0x10>
 8002a9c:	f7fe fa92 	bl	8000fc4 <HAL_GetTick>
 8002aa0:	9b01      	ldr	r3, [sp, #4]
 8002aa2:	1ac0      	subs	r0, r0, r3
 8002aa4:	9b08      	ldr	r3, [sp, #32]
 8002aa6:	4298      	cmp	r0, r3
 8002aa8:	d801      	bhi.n	8002aae <UART_WaitOnFlagUntilTimeout+0x3a>
 8002aaa:	2b00      	cmp	r3, #0
 8002aac:	d11f      	bne.n	8002aee <UART_WaitOnFlagUntilTimeout+0x7a>
 8002aae:	f3ef 8010 	mrs	r0, PRIMASK
 8002ab2:	2201      	movs	r2, #1
 8002ab4:	f382 8810 	msr	PRIMASK, r2
 8002ab8:	6821      	ldr	r1, [r4, #0]
 8002aba:	4d20      	ldr	r5, [pc, #128]	; (8002b3c <UART_WaitOnFlagUntilTimeout+0xc8>)
 8002abc:	680b      	ldr	r3, [r1, #0]
 8002abe:	402b      	ands	r3, r5
 8002ac0:	600b      	str	r3, [r1, #0]
 8002ac2:	f380 8810 	msr	PRIMASK, r0
 8002ac6:	f3ef 8010 	mrs	r0, PRIMASK
 8002aca:	f382 8810 	msr	PRIMASK, r2
 8002ace:	6821      	ldr	r1, [r4, #0]
 8002ad0:	688b      	ldr	r3, [r1, #8]
 8002ad2:	4393      	bics	r3, r2
 8002ad4:	608b      	str	r3, [r1, #8]
 8002ad6:	f380 8810 	msr	PRIMASK, r0
 8002ada:	0022      	movs	r2, r4
 8002adc:	2320      	movs	r3, #32
 8002ade:	3288      	adds	r2, #136	; 0x88
 8002ae0:	6013      	str	r3, [r2, #0]
 8002ae2:	6053      	str	r3, [r2, #4]
 8002ae4:	2300      	movs	r3, #0
 8002ae6:	2003      	movs	r0, #3
 8002ae8:	3484      	adds	r4, #132	; 0x84
 8002aea:	7023      	strb	r3, [r4, #0]
 8002aec:	bdfe      	pop	{r1, r2, r3, r4, r5, r6, r7, pc}
 8002aee:	2104      	movs	r1, #4
 8002af0:	6823      	ldr	r3, [r4, #0]
 8002af2:	681a      	ldr	r2, [r3, #0]
 8002af4:	420a      	tst	r2, r1
 8002af6:	d0c4      	beq.n	8002a82 <UART_WaitOnFlagUntilTimeout+0xe>
 8002af8:	69da      	ldr	r2, [r3, #28]
 8002afa:	423a      	tst	r2, r7
 8002afc:	d0c1      	beq.n	8002a82 <UART_WaitOnFlagUntilTimeout+0xe>
 8002afe:	621f      	str	r7, [r3, #32]
 8002b00:	f3ef 8010 	mrs	r0, PRIMASK
 8002b04:	2201      	movs	r2, #1
 8002b06:	f382 8810 	msr	PRIMASK, r2
 8002b0a:	6821      	ldr	r1, [r4, #0]
 8002b0c:	4d0b      	ldr	r5, [pc, #44]	; (8002b3c <UART_WaitOnFlagUntilTimeout+0xc8>)
 8002b0e:	680b      	ldr	r3, [r1, #0]
 8002b10:	402b      	ands	r3, r5
 8002b12:	600b      	str	r3, [r1, #0]
 8002b14:	f380 8810 	msr	PRIMASK, r0
 8002b18:	f3ef 8010 	mrs	r0, PRIMASK
 8002b1c:	f382 8810 	msr	PRIMASK, r2
 8002b20:	6821      	ldr	r1, [r4, #0]
 8002b22:	688b      	ldr	r3, [r1, #8]
 8002b24:	4393      	bics	r3, r2
 8002b26:	608b      	str	r3, [r1, #8]
 8002b28:	f380 8810 	msr	PRIMASK, r0
 8002b2c:	0022      	movs	r2, r4
 8002b2e:	2320      	movs	r3, #32
 8002b30:	3288      	adds	r2, #136	; 0x88
 8002b32:	6013      	str	r3, [r2, #0]
 8002b34:	6053      	str	r3, [r2, #4]
 8002b36:	6093      	str	r3, [r2, #8]
 8002b38:	e7d4      	b.n	8002ae4 <UART_WaitOnFlagUntilTimeout+0x70>
 8002b3a:	46c0      	nop			; (mov r8, r8)
 8002b3c:	fffffe5f 	.word	0xfffffe5f

08002b40 <UART_CheckIdleState>:
 8002b40:	0003      	movs	r3, r0
 8002b42:	b573      	push	{r0, r1, r4, r5, r6, lr}
 8002b44:	2600      	movs	r6, #0
 8002b46:	0004      	movs	r4, r0
 8002b48:	3390      	adds	r3, #144	; 0x90
 8002b4a:	601e      	str	r6, [r3, #0]
 8002b4c:	f7fe fa3a 	bl	8000fc4 <HAL_GetTick>
 8002b50:	6823      	ldr	r3, [r4, #0]
 8002b52:	0005      	movs	r5, r0
 8002b54:	681b      	ldr	r3, [r3, #0]
 8002b56:	071b      	lsls	r3, r3, #28
 8002b58:	d419      	bmi.n	8002b8e <UART_CheckIdleState+0x4e>
 8002b5a:	6823      	ldr	r3, [r4, #0]
 8002b5c:	681b      	ldr	r3, [r3, #0]
 8002b5e:	075b      	lsls	r3, r3, #29
 8002b60:	d50a      	bpl.n	8002b78 <UART_CheckIdleState+0x38>
 8002b62:	2180      	movs	r1, #128	; 0x80
 8002b64:	4b10      	ldr	r3, [pc, #64]	; (8002ba8 <UART_CheckIdleState+0x68>)
 8002b66:	2200      	movs	r2, #0
 8002b68:	9300      	str	r3, [sp, #0]
 8002b6a:	0020      	movs	r0, r4
 8002b6c:	002b      	movs	r3, r5
 8002b6e:	03c9      	lsls	r1, r1, #15
 8002b70:	f7ff ff80 	bl	8002a74 <UART_WaitOnFlagUntilTimeout>
 8002b74:	2800      	cmp	r0, #0
 8002b76:	d115      	bne.n	8002ba4 <UART_CheckIdleState+0x64>
 8002b78:	0022      	movs	r2, r4
 8002b7a:	2000      	movs	r0, #0
 8002b7c:	2320      	movs	r3, #32
 8002b7e:	3288      	adds	r2, #136	; 0x88
 8002b80:	6013      	str	r3, [r2, #0]
 8002b82:	6053      	str	r3, [r2, #4]
 8002b84:	66e0      	str	r0, [r4, #108]	; 0x6c
 8002b86:	6720      	str	r0, [r4, #112]	; 0x70
 8002b88:	3484      	adds	r4, #132	; 0x84
 8002b8a:	7020      	strb	r0, [r4, #0]
 8002b8c:	e00b      	b.n	8002ba6 <UART_CheckIdleState+0x66>
 8002b8e:	2180      	movs	r1, #128	; 0x80
 8002b90:	4b05      	ldr	r3, [pc, #20]	; (8002ba8 <UART_CheckIdleState+0x68>)
 8002b92:	0032      	movs	r2, r6
 8002b94:	9300      	str	r3, [sp, #0]
 8002b96:	0389      	lsls	r1, r1, #14
 8002b98:	0003      	movs	r3, r0
 8002b9a:	0020      	movs	r0, r4
 8002b9c:	f7ff ff6a 	bl	8002a74 <UART_WaitOnFlagUntilTimeout>
 8002ba0:	2800      	cmp	r0, #0
 8002ba2:	d0da      	beq.n	8002b5a <UART_CheckIdleState+0x1a>
 8002ba4:	2003      	movs	r0, #3
 8002ba6:	bd76      	pop	{r1, r2, r4, r5, r6, pc}
 8002ba8:	01ffffff 	.word	0x01ffffff

08002bac <HAL_UART_Init>:
 8002bac:	b570      	push	{r4, r5, r6, lr}
 8002bae:	1e04      	subs	r4, r0, #0
 8002bb0:	d101      	bne.n	8002bb6 <HAL_UART_Init+0xa>
 8002bb2:	2001      	movs	r0, #1
 8002bb4:	bd70      	pop	{r4, r5, r6, pc}
 8002bb6:	0005      	movs	r5, r0
 8002bb8:	3588      	adds	r5, #136	; 0x88
 8002bba:	682b      	ldr	r3, [r5, #0]
 8002bbc:	2b00      	cmp	r3, #0
 8002bbe:	d104      	bne.n	8002bca <HAL_UART_Init+0x1e>
 8002bc0:	0002      	movs	r2, r0
 8002bc2:	3284      	adds	r2, #132	; 0x84
 8002bc4:	7013      	strb	r3, [r2, #0]
 8002bc6:	f7fd ffe1 	bl	8000b8c <HAL_UART_MspInit>
 8002bca:	2324      	movs	r3, #36	; 0x24
 8002bcc:	2101      	movs	r1, #1
 8002bce:	6822      	ldr	r2, [r4, #0]
 8002bd0:	602b      	str	r3, [r5, #0]
 8002bd2:	6813      	ldr	r3, [r2, #0]
 8002bd4:	0020      	movs	r0, r4
 8002bd6:	438b      	bics	r3, r1
 8002bd8:	6013      	str	r3, [r2, #0]
 8002bda:	f7ff fd73 	bl	80026c4 <UART_SetConfig>
 8002bde:	2801      	cmp	r0, #1
 8002be0:	d0e7      	beq.n	8002bb2 <HAL_UART_Init+0x6>
 8002be2:	6aa3      	ldr	r3, [r4, #40]	; 0x28
 8002be4:	2b00      	cmp	r3, #0
 8002be6:	d002      	beq.n	8002bee <HAL_UART_Init+0x42>
 8002be8:	0020      	movs	r0, r4
 8002bea:	f7ff fedb 	bl	80029a4 <UART_AdvFeatureConfig>
 8002bee:	6823      	ldr	r3, [r4, #0]
 8002bf0:	4907      	ldr	r1, [pc, #28]	; (8002c10 <HAL_UART_Init+0x64>)
 8002bf2:	685a      	ldr	r2, [r3, #4]
 8002bf4:	0020      	movs	r0, r4
 8002bf6:	400a      	ands	r2, r1
 8002bf8:	212a      	movs	r1, #42	; 0x2a
 8002bfa:	605a      	str	r2, [r3, #4]
 8002bfc:	689a      	ldr	r2, [r3, #8]
 8002bfe:	438a      	bics	r2, r1
 8002c00:	609a      	str	r2, [r3, #8]
 8002c02:	2201      	movs	r2, #1
 8002c04:	6819      	ldr	r1, [r3, #0]
 8002c06:	430a      	orrs	r2, r1
 8002c08:	601a      	str	r2, [r3, #0]
 8002c0a:	f7ff ff99 	bl	8002b40 <UART_CheckIdleState>
 8002c0e:	e7d1      	b.n	8002bb4 <HAL_UART_Init+0x8>
 8002c10:	ffffb7ff 	.word	0xffffb7ff

08002c14 <UARTEx_SetNbDataToProcess>:
 8002c14:	b5f8      	push	{r3, r4, r5, r6, r7, lr}
 8002c16:	6e43      	ldr	r3, [r0, #100]	; 0x64
 8002c18:	0004      	movs	r4, r0
 8002c1a:	2b00      	cmp	r3, #0
 8002c1c:	d102      	bne.n	8002c24 <UARTEx_SetNbDataToProcess+0x10>
 8002c1e:	4b0d      	ldr	r3, [pc, #52]	; (8002c54 <UARTEx_SetNbDataToProcess+0x40>)
 8002c20:	6683      	str	r3, [r0, #104]	; 0x68
 8002c22:	bdf8      	pop	{r3, r4, r5, r6, r7, pc}
 8002c24:	6803      	ldr	r3, [r0, #0]
 8002c26:	4e0c      	ldr	r6, [pc, #48]	; (8002c58 <UARTEx_SetNbDataToProcess+0x44>)
 8002c28:	689f      	ldr	r7, [r3, #8]
 8002c2a:	689b      	ldr	r3, [r3, #8]
 8002c2c:	4d0b      	ldr	r5, [pc, #44]	; (8002c5c <UARTEx_SetNbDataToProcess+0x48>)
 8002c2e:	0f5b      	lsrs	r3, r3, #29
 8002c30:	5cf0      	ldrb	r0, [r6, r3]
 8002c32:	5ce9      	ldrb	r1, [r5, r3]
 8002c34:	00c0      	lsls	r0, r0, #3
 8002c36:	f7fd fb03 	bl	8000240 <__divsi3>
 8002c3a:	0023      	movs	r3, r4
 8002c3c:	336a      	adds	r3, #106	; 0x6a
 8002c3e:	8018      	strh	r0, [r3, #0]
 8002c40:	013b      	lsls	r3, r7, #4
 8002c42:	0f5b      	lsrs	r3, r3, #29
 8002c44:	5cf0      	ldrb	r0, [r6, r3]
 8002c46:	5ce9      	ldrb	r1, [r5, r3]
 8002c48:	00c0      	lsls	r0, r0, #3
 8002c4a:	f7fd faf9 	bl	8000240 <__divsi3>
 8002c4e:	3468      	adds	r4, #104	; 0x68
 8002c50:	8020      	strh	r0, [r4, #0]
 8002c52:	e7e6      	b.n	8002c22 <UARTEx_SetNbDataToProcess+0xe>
 8002c54:	00010001 	.word	0x00010001
 8002c58:	08002e30 	.word	0x08002e30
 8002c5c:	08002e28 	.word	0x08002e28

08002c60 <HAL_UARTEx_DisableFifoMode>:
 8002c60:	b570      	push	{r4, r5, r6, lr}
 8002c62:	0004      	movs	r4, r0
 8002c64:	3484      	adds	r4, #132	; 0x84
 8002c66:	7822      	ldrb	r2, [r4, #0]
 8002c68:	0003      	movs	r3, r0
 8002c6a:	2002      	movs	r0, #2
 8002c6c:	2a01      	cmp	r2, #1
 8002c6e:	d011      	beq.n	8002c94 <HAL_UARTEx_DisableFifoMode+0x34>
 8002c70:	001d      	movs	r5, r3
 8002c72:	2224      	movs	r2, #36	; 0x24
 8002c74:	2601      	movs	r6, #1
 8002c76:	3588      	adds	r5, #136	; 0x88
 8002c78:	602a      	str	r2, [r5, #0]
 8002c7a:	681a      	ldr	r2, [r3, #0]
 8002c7c:	6811      	ldr	r1, [r2, #0]
 8002c7e:	6810      	ldr	r0, [r2, #0]
 8002c80:	43b0      	bics	r0, r6
 8002c82:	6010      	str	r0, [r2, #0]
 8002c84:	4804      	ldr	r0, [pc, #16]	; (8002c98 <HAL_UARTEx_DisableFifoMode+0x38>)
 8002c86:	4001      	ands	r1, r0
 8002c88:	2000      	movs	r0, #0
 8002c8a:	6658      	str	r0, [r3, #100]	; 0x64
 8002c8c:	2320      	movs	r3, #32
 8002c8e:	6011      	str	r1, [r2, #0]
 8002c90:	602b      	str	r3, [r5, #0]
 8002c92:	7020      	strb	r0, [r4, #0]
 8002c94:	bd70      	pop	{r4, r5, r6, pc}
 8002c96:	46c0      	nop			; (mov r8, r8)
 8002c98:	dfffffff 	.word	0xdfffffff

08002c9c <HAL_UARTEx_SetTxFifoThreshold>:
 8002c9c:	b5f8      	push	{r3, r4, r5, r6, r7, lr}
 8002c9e:	0004      	movs	r4, r0
 8002ca0:	0025      	movs	r5, r4
 8002ca2:	3584      	adds	r5, #132	; 0x84
 8002ca4:	782a      	ldrb	r2, [r5, #0]
 8002ca6:	0008      	movs	r0, r1
 8002ca8:	2302      	movs	r3, #2
 8002caa:	2a01      	cmp	r2, #1
 8002cac:	d018      	beq.n	8002ce0 <HAL_UARTEx_SetTxFifoThreshold+0x44>
 8002cae:	2101      	movs	r1, #1
 8002cb0:	0026      	movs	r6, r4
 8002cb2:	7029      	strb	r1, [r5, #0]
 8002cb4:	6822      	ldr	r2, [r4, #0]
 8002cb6:	3688      	adds	r6, #136	; 0x88
 8002cb8:	3322      	adds	r3, #34	; 0x22
 8002cba:	6033      	str	r3, [r6, #0]
 8002cbc:	6817      	ldr	r7, [r2, #0]
 8002cbe:	6813      	ldr	r3, [r2, #0]
 8002cc0:	438b      	bics	r3, r1
 8002cc2:	6013      	str	r3, [r2, #0]
 8002cc4:	6893      	ldr	r3, [r2, #8]
 8002cc6:	00db      	lsls	r3, r3, #3
 8002cc8:	08d9      	lsrs	r1, r3, #3
 8002cca:	4301      	orrs	r1, r0
 8002ccc:	6091      	str	r1, [r2, #8]
 8002cce:	0020      	movs	r0, r4
 8002cd0:	f7ff ffa0 	bl	8002c14 <UARTEx_SetNbDataToProcess>
 8002cd4:	6823      	ldr	r3, [r4, #0]
 8002cd6:	601f      	str	r7, [r3, #0]
 8002cd8:	2320      	movs	r3, #32
 8002cda:	6033      	str	r3, [r6, #0]
 8002cdc:	2300      	movs	r3, #0
 8002cde:	702b      	strb	r3, [r5, #0]
 8002ce0:	0018      	movs	r0, r3
 8002ce2:	bdf8      	pop	{r3, r4, r5, r6, r7, pc}

08002ce4 <HAL_UARTEx_SetRxFifoThreshold>:
 8002ce4:	b5f8      	push	{r3, r4, r5, r6, r7, lr}
 8002ce6:	0005      	movs	r5, r0
 8002ce8:	3584      	adds	r5, #132	; 0x84
 8002cea:	782b      	ldrb	r3, [r5, #0]
 8002cec:	0004      	movs	r4, r0
 8002cee:	000a      	movs	r2, r1
 8002cf0:	2002      	movs	r0, #2
 8002cf2:	2b01      	cmp	r3, #1
 8002cf4:	d018      	beq.n	8002d28 <HAL_UARTEx_SetRxFifoThreshold+0x44>
 8002cf6:	0026      	movs	r6, r4
 8002cf8:	2324      	movs	r3, #36	; 0x24
 8002cfa:	3801      	subs	r0, #1
 8002cfc:	7028      	strb	r0, [r5, #0]
 8002cfe:	3688      	adds	r6, #136	; 0x88
 8002d00:	6033      	str	r3, [r6, #0]
 8002d02:	6823      	ldr	r3, [r4, #0]
 8002d04:	681f      	ldr	r7, [r3, #0]
 8002d06:	6819      	ldr	r1, [r3, #0]
 8002d08:	4381      	bics	r1, r0
 8002d0a:	6019      	str	r1, [r3, #0]
 8002d0c:	6899      	ldr	r1, [r3, #8]
 8002d0e:	4807      	ldr	r0, [pc, #28]	; (8002d2c <HAL_UARTEx_SetRxFifoThreshold+0x48>)
 8002d10:	4001      	ands	r1, r0
 8002d12:	4311      	orrs	r1, r2
 8002d14:	0020      	movs	r0, r4
 8002d16:	6099      	str	r1, [r3, #8]
 8002d18:	f7ff ff7c 	bl	8002c14 <UARTEx_SetNbDataToProcess>
 8002d1c:	6823      	ldr	r3, [r4, #0]
 8002d1e:	2000      	movs	r0, #0
 8002d20:	601f      	str	r7, [r3, #0]
 8002d22:	2320      	movs	r3, #32
 8002d24:	6033      	str	r3, [r6, #0]
 8002d26:	7028      	strb	r0, [r5, #0]
 8002d28:	bdf8      	pop	{r3, r4, r5, r6, r7, pc}
 8002d2a:	46c0      	nop			; (mov r8, r8)
 8002d2c:	f1ffffff 	.word	0xf1ffffff

08002d30 <__libc_init_array>:
 8002d30:	b570      	push	{r4, r5, r6, lr}
 8002d32:	2600      	movs	r6, #0
 8002d34:	4d0c      	ldr	r5, [pc, #48]	; (8002d68 <__libc_init_array+0x38>)
 8002d36:	4c0d      	ldr	r4, [pc, #52]	; (8002d6c <__libc_init_array+0x3c>)
 8002d38:	1b64      	subs	r4, r4, r5
 8002d3a:	10a4      	asrs	r4, r4, #2
 8002d3c:	42a6      	cmp	r6, r4
 8002d3e:	d109      	bne.n	8002d54 <__libc_init_array+0x24>
 8002d40:	2600      	movs	r6, #0
 8002d42:	f000 f821 	bl	8002d88 <_init>
 8002d46:	4d0a      	ldr	r5, [pc, #40]	; (8002d70 <__libc_init_array+0x40>)
 8002d48:	4c0a      	ldr	r4, [pc, #40]	; (8002d74 <__libc_init_array+0x44>)
 8002d4a:	1b64      	subs	r4, r4, r5
 8002d4c:	10a4      	asrs	r4, r4, #2
 8002d4e:	42a6      	cmp	r6, r4
 8002d50:	d105      	bne.n	8002d5e <__libc_init_array+0x2e>
 8002d52:	bd70      	pop	{r4, r5, r6, pc}
 8002d54:	00b3      	lsls	r3, r6, #2
 8002d56:	58eb      	ldr	r3, [r5, r3]
 8002d58:	4798      	blx	r3
 8002d5a:	3601      	adds	r6, #1
 8002d5c:	e7ee      	b.n	8002d3c <__libc_init_array+0xc>
 8002d5e:	00b3      	lsls	r3, r6, #2
 8002d60:	58eb      	ldr	r3, [r5, r3]
 8002d62:	4798      	blx	r3
 8002d64:	3601      	adds	r6, #1
 8002d66:	e7f2      	b.n	8002d4e <__libc_init_array+0x1e>
 8002d68:	08002e40 	.word	0x08002e40
 8002d6c:	08002e40 	.word	0x08002e40
 8002d70:	08002e40 	.word	0x08002e40
 8002d74:	08002e44 	.word	0x08002e44

08002d78 <memset>:
 8002d78:	0003      	movs	r3, r0
 8002d7a:	1882      	adds	r2, r0, r2
 8002d7c:	4293      	cmp	r3, r2
 8002d7e:	d100      	bne.n	8002d82 <memset+0xa>
 8002d80:	4770      	bx	lr
 8002d82:	7019      	strb	r1, [r3, #0]
 8002d84:	3301      	adds	r3, #1
 8002d86:	e7f9      	b.n	8002d7c <memset+0x4>

08002d88 <_init>:
 8002d88:	b5f8      	push	{r3, r4, r5, r6, r7, lr}
 8002d8a:	46c0      	nop			; (mov r8, r8)
 8002d8c:	bcf8      	pop	{r3, r4, r5, r6, r7}
 8002d8e:	bc08      	pop	{r3}
 8002d90:	469e      	mov	lr, r3
 8002d92:	4770      	bx	lr

08002d94 <_fini>:
 8002d94:	b5f8      	push	{r3, r4, r5, r6, r7, lr}
 8002d96:	46c0      	nop			; (mov r8, r8)
 8002d98:	bcf8      	pop	{r3, r4, r5, r6, r7}
 8002d9a:	bc08      	pop	{r3}
 8002d9c:	469e      	mov	lr, r3
 8002d9e:	4770      	bx	lr
