
HackKosice2023.elf:     file format elf32-littlearm

Sections:
Idx Name          Size      VMA       LMA       File off  Algn
  0 .isr_vector   000000bc  08000000  08000000  00010000  2**0
                  CONTENTS, ALLOC, LOAD, READONLY, DATA
  1 .text         00002d98  080000bc  080000bc  000100bc  2**2
                  CONTENTS, ALLOC, LOAD, READONLY, CODE
  2 .rodata       00000098  08002e54  08002e54  00012e54  2**2
                  CONTENTS, ALLOC, LOAD, READONLY, DATA
  3 .ARM.extab    00000000  08002eec  08002eec  0002000c  2**0
                  CONTENTS
  4 .ARM          00000008  08002eec  08002eec  00012eec  2**2
                  CONTENTS, ALLOC, LOAD, READONLY, DATA
  5 .preinit_array 00000000  08002ef4  08002ef4  0002000c  2**0
                  CONTENTS, ALLOC, LOAD, DATA
  6 .init_array   00000004  08002ef4  08002ef4  00012ef4  2**2
                  CONTENTS, ALLOC, LOAD, DATA
  7 .fini_array   00000004  08002ef8  08002ef8  00012ef8  2**2
                  CONTENTS, ALLOC, LOAD, DATA
  8 .data         0000000c  20000000  08002efc  00020000  2**2
                  CONTENTS, ALLOC, LOAD, DATA
  9 .bss          0000025c  2000000c  08002f08  0002000c  2**2
                  ALLOC
 10 ._user_heap_stack 00000600  20000268  08002f08  00020268  2**0
                  ALLOC
 11 .ARM.attributes 00000028  00000000  00000000  0002000c  2**0
                  CONTENTS, READONLY
 12 .comment      00000050  00000000  00000000  00020034  2**0
                  CONTENTS, READONLY
 13 .debug_frame  000000c8  00000000  00000000  00020084  2**2
                  CONTENTS, READONLY, DEBUGGING, OCTETS

Disassembly of section .text:

080000bc <__do_global_dtors_aux>:
 80000bc:	b510      	push	{r4, lr}
 80000be:	4c06      	ldr	r4, [pc, #24]	; (80000d8 <__do_global_dtors_aux+0x1c>)
 80000c0:	7823      	ldrb	r3, [r4, #0]
 80000c2:	2b00      	cmp	r3, #0
 80000c4:	d107      	bne.n	80000d6 <__do_global_dtors_aux+0x1a>
 80000c6:	4b05      	ldr	r3, [pc, #20]	; (80000dc <__do_global_dtors_aux+0x20>)
 80000c8:	2b00      	cmp	r3, #0
 80000ca:	d002      	beq.n	80000d2 <__do_global_dtors_aux+0x16>
 80000cc:	4804      	ldr	r0, [pc, #16]	; (80000e0 <__do_global_dtors_aux+0x24>)
 80000ce:	e000      	b.n	80000d2 <__do_global_dtors_aux+0x16>
 80000d0:	bf00      	nop
 80000d2:	2301      	movs	r3, #1
 80000d4:	7023      	strb	r3, [r4, #0]
 80000d6:	bd10      	pop	{r4, pc}
 80000d8:	2000000c 	.word	0x2000000c
 80000dc:	00000000 	.word	0x00000000
 80000e0:	08002e3c 	.word	0x08002e3c

080000e4 <frame_dummy>:
 80000e4:	4b04      	ldr	r3, [pc, #16]	; (80000f8 <frame_dummy+0x14>)
 80000e6:	b510      	push	{r4, lr}
 80000e8:	2b00      	cmp	r3, #0
 80000ea:	d003      	beq.n	80000f4 <frame_dummy+0x10>
 80000ec:	4903      	ldr	r1, [pc, #12]	; (80000fc <frame_dummy+0x18>)
 80000ee:	4804      	ldr	r0, [pc, #16]	; (8000100 <frame_dummy+0x1c>)
 80000f0:	e000      	b.n	80000f4 <frame_dummy+0x10>
 80000f2:	bf00      	nop
 80000f4:	bd10      	pop	{r4, pc}
 80000f6:	46c0      	nop			; (mov r8, r8)
 80000f8:	00000000 	.word	0x00000000
 80000fc:	20000010 	.word	0x20000010
 8000100:	08002e3c 	.word	0x08002e3c

08000104 <__gnu_thumb1_case_uqi>:
 8000104:	b402      	push	{r1}
 8000106:	4671      	mov	r1, lr
 8000108:	0849      	lsrs	r1, r1, #1
 800010a:	0049      	lsls	r1, r1, #1
 800010c:	5c09      	ldrb	r1, [r1, r0]
 800010e:	0049      	lsls	r1, r1, #1
 8000110:	448e      	add	lr, r1
 8000112:	bc02      	pop	{r1}
 8000114:	4770      	bx	lr
 8000116:	46c0      	nop			; (mov r8, r8)

08000118 <__gnu_thumb1_case_shi>:
 8000118:	b403      	push	{r0, r1}
 800011a:	4671      	mov	r1, lr
 800011c:	0849      	lsrs	r1, r1, #1
 800011e:	0040      	lsls	r0, r0, #1
 8000120:	0049      	lsls	r1, r1, #1
 8000122:	5e09      	ldrsh	r1, [r1, r0]
 8000124:	0049      	lsls	r1, r1, #1
 8000126:	448e      	add	lr, r1
 8000128:	bc03      	pop	{r0, r1}
 800012a:	4770      	bx	lr

0800012c <__udivsi3>:
 800012c:	2200      	movs	r2, #0
 800012e:	0843      	lsrs	r3, r0, #1
 8000130:	428b      	cmp	r3, r1
 8000132:	d374      	bcc.n	800021e <__udivsi3+0xf2>
 8000134:	0903      	lsrs	r3, r0, #4
 8000136:	428b      	cmp	r3, r1
 8000138:	d35f      	bcc.n	80001fa <__udivsi3+0xce>
 800013a:	0a03      	lsrs	r3, r0, #8
 800013c:	428b      	cmp	r3, r1
 800013e:	d344      	bcc.n	80001ca <__udivsi3+0x9e>
 8000140:	0b03      	lsrs	r3, r0, #12
 8000142:	428b      	cmp	r3, r1
 8000144:	d328      	bcc.n	8000198 <__udivsi3+0x6c>
 8000146:	0c03      	lsrs	r3, r0, #16
 8000148:	428b      	cmp	r3, r1
 800014a:	d30d      	bcc.n	8000168 <__udivsi3+0x3c>
 800014c:	22ff      	movs	r2, #255	; 0xff
 800014e:	0209      	lsls	r1, r1, #8
 8000150:	ba12      	rev	r2, r2
 8000152:	0c03      	lsrs	r3, r0, #16
 8000154:	428b      	cmp	r3, r1
 8000156:	d302      	bcc.n	800015e <__udivsi3+0x32>
 8000158:	1212      	asrs	r2, r2, #8
 800015a:	0209      	lsls	r1, r1, #8
 800015c:	d065      	beq.n	800022a <__udivsi3+0xfe>
 800015e:	0b03      	lsrs	r3, r0, #12
 8000160:	428b      	cmp	r3, r1
 8000162:	d319      	bcc.n	8000198 <__udivsi3+0x6c>
 8000164:	e000      	b.n	8000168 <__udivsi3+0x3c>
 8000166:	0a09      	lsrs	r1, r1, #8
 8000168:	0bc3      	lsrs	r3, r0, #15
 800016a:	428b      	cmp	r3, r1
 800016c:	d301      	bcc.n	8000172 <__udivsi3+0x46>
 800016e:	03cb      	lsls	r3, r1, #15
 8000170:	1ac0      	subs	r0, r0, r3
 8000172:	4152      	adcs	r2, r2
 8000174:	0b83      	lsrs	r3, r0, #14
 8000176:	428b      	cmp	r3, r1
 8000178:	d301      	bcc.n	800017e <__udivsi3+0x52>
 800017a:	038b      	lsls	r3, r1, #14
 800017c:	1ac0      	subs	r0, r0, r3
 800017e:	4152      	adcs	r2, r2
 8000180:	0b43      	lsrs	r3, r0, #13
 8000182:	428b      	cmp	r3, r1
 8000184:	d301      	bcc.n	800018a <__udivsi3+0x5e>
 8000186:	034b      	lsls	r3, r1, #13
 8000188:	1ac0      	subs	r0, r0, r3
 800018a:	4152      	adcs	r2, r2
 800018c:	0b03      	lsrs	r3, r0, #12
 800018e:	428b      	cmp	r3, r1
 8000190:	d301      	bcc.n	8000196 <__udivsi3+0x6a>
 8000192:	030b      	lsls	r3, r1, #12
 8000194:	1ac0      	subs	r0, r0, r3
 8000196:	4152      	adcs	r2, r2
 8000198:	0ac3      	lsrs	r3, r0, #11
 800019a:	428b      	cmp	r3, r1
 800019c:	d301      	bcc.n	80001a2 <__udivsi3+0x76>
 800019e:	02cb      	lsls	r3, r1, #11
 80001a0:	1ac0      	subs	r0, r0, r3
 80001a2:	4152      	adcs	r2, r2
 80001a4:	0a83      	lsrs	r3, r0, #10
 80001a6:	428b      	cmp	r3, r1
 80001a8:	d301      	bcc.n	80001ae <__udivsi3+0x82>
 80001aa:	028b      	lsls	r3, r1, #10
 80001ac:	1ac0      	subs	r0, r0, r3
 80001ae:	4152      	adcs	r2, r2
 80001b0:	0a43      	lsrs	r3, r0, #9
 80001b2:	428b      	cmp	r3, r1
 80001b4:	d301      	bcc.n	80001ba <__udivsi3+0x8e>
 80001b6:	024b      	lsls	r3, r1, #9
 80001b8:	1ac0      	subs	r0, r0, r3
 80001ba:	4152      	adcs	r2, r2
 80001bc:	0a03      	lsrs	r3, r0, #8
 80001be:	428b      	cmp	r3, r1
 80001c0:	d301      	bcc.n	80001c6 <__udivsi3+0x9a>
 80001c2:	020b      	lsls	r3, r1, #8
 80001c4:	1ac0      	subs	r0, r0, r3
 80001c6:	4152      	adcs	r2, r2
 80001c8:	d2cd      	bcs.n	8000166 <__udivsi3+0x3a>
 80001ca:	09c3      	lsrs	r3, r0, #7
 80001cc:	428b      	cmp	r3, r1
 80001ce:	d301      	bcc.n	80001d4 <__udivsi3+0xa8>
 80001d0:	01cb      	lsls	r3, r1, #7
 80001d2:	1ac0      	subs	r0, r0, r3
 80001d4:	4152      	adcs	r2, r2
 80001d6:	0983      	lsrs	r3, r0, #6
 80001d8:	428b      	cmp	r3, r1
 80001da:	d301      	bcc.n	80001e0 <__udivsi3+0xb4>
 80001dc:	018b      	lsls	r3, r1, #6
 80001de:	1ac0      	subs	r0, r0, r3
 80001e0:	4152      	adcs	r2, r2
 80001e2:	0943      	lsrs	r3, r0, #5
 80001e4:	428b      	cmp	r3, r1
 80001e6:	d301      	bcc.n	80001ec <__udivsi3+0xc0>
 80001e8:	014b      	lsls	r3, r1, #5
 80001ea:	1ac0      	subs	r0, r0, r3
 80001ec:	4152      	adcs	r2, r2
 80001ee:	0903      	lsrs	r3, r0, #4
 80001f0:	428b      	cmp	r3, r1
 80001f2:	d301      	bcc.n	80001f8 <__udivsi3+0xcc>
 80001f4:	010b      	lsls	r3, r1, #4
 80001f6:	1ac0      	subs	r0, r0, r3
 80001f8:	4152      	adcs	r2, r2
 80001fa:	08c3      	lsrs	r3, r0, #3
 80001fc:	428b      	cmp	r3, r1
 80001fe:	d301      	bcc.n	8000204 <__udivsi3+0xd8>
 8000200:	00cb      	lsls	r3, r1, #3
 8000202:	1ac0      	subs	r0, r0, r3
 8000204:	4152      	adcs	r2, r2
 8000206:	0883      	lsrs	r3, r0, #2
 8000208:	428b      	cmp	r3, r1
 800020a:	d301      	bcc.n	8000210 <__udivsi3+0xe4>
 800020c:	008b      	lsls	r3, r1, #2
 800020e:	1ac0      	subs	r0, r0, r3
 8000210:	4152      	adcs	r2, r2
 8000212:	0843      	lsrs	r3, r0, #1
 8000214:	428b      	cmp	r3, r1
 8000216:	d301      	bcc.n	800021c <__udivsi3+0xf0>
 8000218:	004b      	lsls	r3, r1, #1
 800021a:	1ac0      	subs	r0, r0, r3
 800021c:	4152      	adcs	r2, r2
 800021e:	1a41      	subs	r1, r0, r1
 8000220:	d200      	bcs.n	8000224 <__udivsi3+0xf8>
 8000222:	4601      	mov	r1, r0
 8000224:	4152      	adcs	r2, r2
 8000226:	4610      	mov	r0, r2
 8000228:	4770      	bx	lr
 800022a:	e7ff      	b.n	800022c <__udivsi3+0x100>
 800022c:	b501      	push	{r0, lr}
 800022e:	2000      	movs	r0, #0
 8000230:	f000 f8f0 	bl	8000414 <__aeabi_idiv0>
 8000234:	bd02      	pop	{r1, pc}
 8000236:	46c0      	nop			; (mov r8, r8)

08000238 <__aeabi_uidivmod>:
 8000238:	2900      	cmp	r1, #0
 800023a:	d0f7      	beq.n	800022c <__udivsi3+0x100>
 800023c:	e776      	b.n	800012c <__udivsi3>
 800023e:	4770      	bx	lr

08000240 <__divsi3>:
 8000240:	4603      	mov	r3, r0
 8000242:	430b      	orrs	r3, r1
 8000244:	d47f      	bmi.n	8000346 <__divsi3+0x106>
 8000246:	2200      	movs	r2, #0
 8000248:	0843      	lsrs	r3, r0, #1
 800024a:	428b      	cmp	r3, r1
 800024c:	d374      	bcc.n	8000338 <__divsi3+0xf8>
 800024e:	0903      	lsrs	r3, r0, #4
 8000250:	428b      	cmp	r3, r1
 8000252:	d35f      	bcc.n	8000314 <__divsi3+0xd4>
 8000254:	0a03      	lsrs	r3, r0, #8
 8000256:	428b      	cmp	r3, r1
 8000258:	d344      	bcc.n	80002e4 <__divsi3+0xa4>
 800025a:	0b03      	lsrs	r3, r0, #12
 800025c:	428b      	cmp	r3, r1
 800025e:	d328      	bcc.n	80002b2 <__divsi3+0x72>
 8000260:	0c03      	lsrs	r3, r0, #16
 8000262:	428b      	cmp	r3, r1
 8000264:	d30d      	bcc.n	8000282 <__divsi3+0x42>
 8000266:	22ff      	movs	r2, #255	; 0xff
 8000268:	0209      	lsls	r1, r1, #8
 800026a:	ba12      	rev	r2, r2
 800026c:	0c03      	lsrs	r3, r0, #16
 800026e:	428b      	cmp	r3, r1
 8000270:	d302      	bcc.n	8000278 <__divsi3+0x38>
 8000272:	1212      	asrs	r2, r2, #8
 8000274:	0209      	lsls	r1, r1, #8
 8000276:	d065      	beq.n	8000344 <__divsi3+0x104>
 8000278:	0b03      	lsrs	r3, r0, #12
 800027a:	428b      	cmp	r3, r1
 800027c:	d319      	bcc.n	80002b2 <__divsi3+0x72>
 800027e:	e000      	b.n	8000282 <__divsi3+0x42>
 8000280:	0a09      	lsrs	r1, r1, #8
 8000282:	0bc3      	lsrs	r3, r0, #15
 8000284:	428b      	cmp	r3, r1
 8000286:	d301      	bcc.n	800028c <__divsi3+0x4c>
 8000288:	03cb      	lsls	r3, r1, #15
 800028a:	1ac0      	subs	r0, r0, r3
 800028c:	4152      	adcs	r2, r2
 800028e:	0b83      	lsrs	r3, r0, #14
 8000290:	428b      	cmp	r3, r1
 8000292:	d301      	bcc.n	8000298 <__divsi3+0x58>
 8000294:	038b      	lsls	r3, r1, #14
 8000296:	1ac0      	subs	r0, r0, r3
 8000298:	4152      	adcs	r2, r2
 800029a:	0b43      	lsrs	r3, r0, #13
 800029c:	428b      	cmp	r3, r1
 800029e:	d301      	bcc.n	80002a4 <__divsi3+0x64>
 80002a0:	034b      	lsls	r3, r1, #13
 80002a2:	1ac0      	subs	r0, r0, r3
 80002a4:	4152      	adcs	r2, r2
 80002a6:	0b03      	lsrs	r3, r0, #12
 80002a8:	428b      	cmp	r3, r1
 80002aa:	d301      	bcc.n	80002b0 <__divsi3+0x70>
 80002ac:	030b      	lsls	r3, r1, #12
 80002ae:	1ac0      	subs	r0, r0, r3
 80002b0:	4152      	adcs	r2, r2
 80002b2:	0ac3      	lsrs	r3, r0, #11
 80002b4:	428b      	cmp	r3, r1
 80002b6:	d301      	bcc.n	80002bc <__divsi3+0x7c>
 80002b8:	02cb      	lsls	r3, r1, #11
 80002ba:	1ac0      	subs	r0, r0, r3
 80002bc:	4152      	adcs	r2, r2
 80002be:	0a83      	lsrs	r3, r0, #10
 80002c0:	428b      	cmp	r3, r1
 80002c2:	d301      	bcc.n	80002c8 <__divsi3+0x88>
 80002c4:	028b      	lsls	r3, r1, #10
 80002c6:	1ac0      	subs	r0, r0, r3
 80002c8:	4152      	adcs	r2, r2
 80002ca:	0a43      	lsrs	r3, r0, #9
 80002cc:	428b      	cmp	r3, r1
 80002ce:	d301      	bcc.n	80002d4 <__divsi3+0x94>
 80002d0:	024b      	lsls	r3, r1, #9
 80002d2:	1ac0      	subs	r0, r0, r3
 80002d4:	4152      	adcs	r2, r2
 80002d6:	0a03      	lsrs	r3, r0, #8
 80002d8:	428b      	cmp	r3, r1
 80002da:	d301      	bcc.n	80002e0 <__divsi3+0xa0>
 80002dc:	020b      	lsls	r3, r1, #8
 80002de:	1ac0      	subs	r0, r0, r3
 80002e0:	4152      	adcs	r2, r2
 80002e2:	d2cd      	bcs.n	8000280 <__divsi3+0x40>
 80002e4:	09c3      	lsrs	r3, r0, #7
 80002e6:	428b      	cmp	r3, r1
 80002e8:	d301      	bcc.n	80002ee <__divsi3+0xae>
 80002ea:	01cb      	lsls	r3, r1, #7
 80002ec:	1ac0      	subs	r0, r0, r3
 80002ee:	4152      	adcs	r2, r2
 80002f0:	0983      	lsrs	r3, r0, #6
 80002f2:	428b      	cmp	r3, r1
 80002f4:	d301      	bcc.n	80002fa <__divsi3+0xba>
 80002f6:	018b      	lsls	r3, r1, #6
 80002f8:	1ac0      	subs	r0, r0, r3
 80002fa:	4152      	adcs	r2, r2
 80002fc:	0943      	lsrs	r3, r0, #5
 80002fe:	428b      	cmp	r3, r1
 8000300:	d301      	bcc.n	8000306 <__divsi3+0xc6>
 8000302:	014b      	lsls	r3, r1, #5
 8000304:	1ac0      	subs	r0, r0, r3
 8000306:	4152      	adcs	r2, r2
 8000308:	0903      	lsrs	r3, r0, #4
 800030a:	428b      	cmp	r3, r1
 800030c:	d301      	bcc.n	8000312 <__divsi3+0xd2>
 800030e:	010b      	lsls	r3, r1, #4
 8000310:	1ac0      	subs	r0, r0, r3
 8000312:	4152      	adcs	r2, r2
 8000314:	08c3      	lsrs	r3, r0, #3
 8000316:	428b      	cmp	r3, r1
 8000318:	d301      	bcc.n	800031e <__divsi3+0xde>
 800031a:	00cb      	lsls	r3, r1, #3
 800031c:	1ac0      	subs	r0, r0, r3
 800031e:	4152      	adcs	r2, r2
 8000320:	0883      	lsrs	r3, r0, #2
 8000322:	428b      	cmp	r3, r1
 8000324:	d301      	bcc.n	800032a <__divsi3+0xea>
 8000326:	008b      	lsls	r3, r1, #2
 8000328:	1ac0      	subs	r0, r0, r3
 800032a:	4152      	adcs	r2, r2
 800032c:	0843      	lsrs	r3, r0, #1
 800032e:	428b      	cmp	r3, r1
 8000330:	d301      	bcc.n	8000336 <__divsi3+0xf6>
 8000332:	004b      	lsls	r3, r1, #1
 8000334:	1ac0      	subs	r0, r0, r3
 8000336:	4152      	adcs	r2, r2
 8000338:	1a41      	subs	r1, r0, r1
 800033a:	d200      	bcs.n	800033e <__divsi3+0xfe>
 800033c:	4601      	mov	r1, r0
 800033e:	4152      	adcs	r2, r2
 8000340:	4610      	mov	r0, r2
 8000342:	4770      	bx	lr
 8000344:	e05d      	b.n	8000402 <__divsi3+0x1c2>
 8000346:	0fca      	lsrs	r2, r1, #31
 8000348:	d000      	beq.n	800034c <__divsi3+0x10c>
 800034a:	4249      	negs	r1, r1
 800034c:	1003      	asrs	r3, r0, #32
 800034e:	d300      	bcc.n	8000352 <__divsi3+0x112>
 8000350:	4240      	negs	r0, r0
 8000352:	4053      	eors	r3, r2
 8000354:	2200      	movs	r2, #0
 8000356:	469c      	mov	ip, r3
 8000358:	0903      	lsrs	r3, r0, #4
 800035a:	428b      	cmp	r3, r1
 800035c:	d32d      	bcc.n	80003ba <__divsi3+0x17a>
 800035e:	0a03      	lsrs	r3, r0, #8
 8000360:	428b      	cmp	r3, r1
 8000362:	d312      	bcc.n	800038a <__divsi3+0x14a>
 8000364:	22fc      	movs	r2, #252	; 0xfc
 8000366:	0189      	lsls	r1, r1, #6
 8000368:	ba12      	rev	r2, r2
 800036a:	0a03      	lsrs	r3, r0, #8
 800036c:	428b      	cmp	r3, r1
 800036e:	d30c      	bcc.n	800038a <__divsi3+0x14a>
 8000370:	0189      	lsls	r1, r1, #6
 8000372:	1192      	asrs	r2, r2, #6
 8000374:	428b      	cmp	r3, r1
 8000376:	d308      	bcc.n	800038a <__divsi3+0x14a>
 8000378:	0189      	lsls	r1, r1, #6
 800037a:	1192      	asrs	r2, r2, #6
 800037c:	428b      	cmp	r3, r1
 800037e:	d304      	bcc.n	800038a <__divsi3+0x14a>
 8000380:	0189      	lsls	r1, r1, #6
 8000382:	d03a      	beq.n	80003fa <__divsi3+0x1ba>
 8000384:	1192      	asrs	r2, r2, #6
 8000386:	e000      	b.n	800038a <__divsi3+0x14a>
 8000388:	0989      	lsrs	r1, r1, #6
 800038a:	09c3      	lsrs	r3, r0, #7
 800038c:	428b      	cmp	r3, r1
 800038e:	d301      	bcc.n	8000394 <__divsi3+0x154>
 8000390:	01cb      	lsls	r3, r1, #7
 8000392:	1ac0      	subs	r0, r0, r3
 8000394:	4152      	adcs	r2, r2
 8000396:	0983      	lsrs	r3, r0, #6
 8000398:	428b      	cmp	r3, r1
 800039a:	d301      	bcc.n	80003a0 <__divsi3+0x160>
 800039c:	018b      	lsls	r3, r1, #6
 800039e:	1ac0      	subs	r0, r0, r3
 80003a0:	4152      	adcs	r2, r2
 80003a2:	0943      	lsrs	r3, r0, #5
 80003a4:	428b      	cmp	r3, r1
 80003a6:	d301      	bcc.n	80003ac <__divsi3+0x16c>
 80003a8:	014b      	lsls	r3, r1, #5
 80003aa:	1ac0      	subs	r0, r0, r3
 80003ac:	4152      	adcs	r2, r2
 80003ae:	0903      	lsrs	r3, r0, #4
 80003b0:	428b      	cmp	r3, r1
 80003b2:	d301      	bcc.n	80003b8 <__divsi3+0x178>
 80003b4:	010b      	lsls	r3, r1, #4
 80003b6:	1ac0      	subs	r0, r0, r3
 80003b8:	4152      	adcs	r2, r2
 80003ba:	08c3      	lsrs	r3, r0, #3
 80003bc:	428b      	cmp	r3, r1
 80003be:	d301      	bcc.n	80003c4 <__divsi3+0x184>
 80003c0:	00cb      	lsls	r3, r1, #3
 80003c2:	1ac0      	subs	r0, r0, r3
 80003c4:	4152      	adcs	r2, r2
 80003c6:	0883      	lsrs	r3, r0, #2
 80003c8:	428b      	cmp	r3, r1
 80003ca:	d301      	bcc.n	80003d0 <__divsi3+0x190>
 80003cc:	008b      	lsls	r3, r1, #2
 80003ce:	1ac0      	subs	r0, r0, r3
 80003d0:	4152      	adcs	r2, r2
 80003d2:	d2d9      	bcs.n	8000388 <__divsi3+0x148>
 80003d4:	0843      	lsrs	r3, r0, #1
 80003d6:	428b      	cmp	r3, r1
 80003d8:	d301      	bcc.n	80003de <__divsi3+0x19e>
 80003da:	004b      	lsls	r3, r1, #1
 80003dc:	1ac0      	subs	r0, r0, r3
 80003de:	4152      	adcs	r2, r2
 80003e0:	1a41      	subs	r1, r0, r1
 80003e2:	d200      	bcs.n	80003e6 <__divsi3+0x1a6>
 80003e4:	4601      	mov	r1, r0
 80003e6:	4663      	mov	r3, ip
 80003e8:	4152      	adcs	r2, r2
 80003ea:	105b      	asrs	r3, r3, #1
 80003ec:	4610      	mov	r0, r2
 80003ee:	d301      	bcc.n	80003f4 <__divsi3+0x1b4>
 80003f0:	4240      	negs	r0, r0
 80003f2:	2b00      	cmp	r3, #0
 80003f4:	d500      	bpl.n	80003f8 <__divsi3+0x1b8>
 80003f6:	4249      	negs	r1, r1
 80003f8:	4770      	bx	lr
 80003fa:	4663      	mov	r3, ip
 80003fc:	105b      	asrs	r3, r3, #1
 80003fe:	d300      	bcc.n	8000402 <__divsi3+0x1c2>
 8000400:	4240      	negs	r0, r0
 8000402:	b501      	push	{r0, lr}
 8000404:	2000      	movs	r0, #0
 8000406:	f000 f805 	bl	8000414 <__aeabi_idiv0>
 800040a:	bd02      	pop	{r1, pc}

0800040c <__aeabi_idivmod>:
 800040c:	2900      	cmp	r1, #0
 800040e:	d0f8      	beq.n	8000402 <__divsi3+0x1c2>
 8000410:	e716      	b.n	8000240 <__divsi3>
 8000412:	4770      	bx	lr

08000414 <__aeabi_idiv0>:
 8000414:	4770      	bx	lr
 8000416:	46c0      	nop			; (mov r8, r8)

08000418 <__aeabi_uldivmod>:
 8000418:	2b00      	cmp	r3, #0
 800041a:	d111      	bne.n	8000440 <__aeabi_uldivmod+0x28>
 800041c:	2a00      	cmp	r2, #0
 800041e:	d10f      	bne.n	8000440 <__aeabi_uldivmod+0x28>
 8000420:	2900      	cmp	r1, #0
 8000422:	d100      	bne.n	8000426 <__aeabi_uldivmod+0xe>
 8000424:	2800      	cmp	r0, #0
 8000426:	d002      	beq.n	800042e <__aeabi_uldivmod+0x16>
 8000428:	2100      	movs	r1, #0
 800042a:	43c9      	mvns	r1, r1
 800042c:	0008      	movs	r0, r1
 800042e:	b407      	push	{r0, r1, r2}
 8000430:	4802      	ldr	r0, [pc, #8]	; (800043c <__aeabi_uldivmod+0x24>)
 8000432:	a102      	add	r1, pc, #8	; (adr r1, 800043c <__aeabi_uldivmod+0x24>)
 8000434:	1840      	adds	r0, r0, r1
 8000436:	9002      	str	r0, [sp, #8]
 8000438:	bd03      	pop	{r0, r1, pc}
 800043a:	46c0      	nop			; (mov r8, r8)
 800043c:	ffffffd9 	.word	0xffffffd9
 8000440:	b403      	push	{r0, r1}
 8000442:	4668      	mov	r0, sp
 8000444:	b501      	push	{r0, lr}
 8000446:	9802      	ldr	r0, [sp, #8]
 8000448:	f000 f806 	bl	8000458 <__udivmoddi4>
 800044c:	9b01      	ldr	r3, [sp, #4]
 800044e:	469e      	mov	lr, r3
 8000450:	b002      	add	sp, #8
 8000452:	bc0c      	pop	{r2, r3}
 8000454:	4770      	bx	lr
 8000456:	46c0      	nop			; (mov r8, r8)

08000458 <__udivmoddi4>:
 8000458:	b5f0      	push	{r4, r5, r6, r7, lr}
 800045a:	4657      	mov	r7, sl
 800045c:	464e      	mov	r6, r9
 800045e:	4645      	mov	r5, r8
 8000460:	46de      	mov	lr, fp
 8000462:	b5e0      	push	{r5, r6, r7, lr}
 8000464:	0004      	movs	r4, r0
 8000466:	000d      	movs	r5, r1
 8000468:	4692      	mov	sl, r2
 800046a:	4699      	mov	r9, r3
 800046c:	b083      	sub	sp, #12
 800046e:	428b      	cmp	r3, r1
 8000470:	d830      	bhi.n	80004d4 <__udivmoddi4+0x7c>
 8000472:	d02d      	beq.n	80004d0 <__udivmoddi4+0x78>
 8000474:	4649      	mov	r1, r9
 8000476:	4650      	mov	r0, sl
 8000478:	f000 f8ba 	bl	80005f0 <__clzdi2>
 800047c:	0029      	movs	r1, r5
 800047e:	0006      	movs	r6, r0
 8000480:	0020      	movs	r0, r4
 8000482:	f000 f8b5 	bl	80005f0 <__clzdi2>
 8000486:	1a33      	subs	r3, r6, r0
 8000488:	4698      	mov	r8, r3
 800048a:	3b20      	subs	r3, #32
 800048c:	469b      	mov	fp, r3
 800048e:	d433      	bmi.n	80004f8 <__udivmoddi4+0xa0>
 8000490:	465a      	mov	r2, fp
 8000492:	4653      	mov	r3, sl
 8000494:	4093      	lsls	r3, r2
 8000496:	4642      	mov	r2, r8
 8000498:	001f      	movs	r7, r3
 800049a:	4653      	mov	r3, sl
 800049c:	4093      	lsls	r3, r2
 800049e:	001e      	movs	r6, r3
 80004a0:	42af      	cmp	r7, r5
 80004a2:	d83a      	bhi.n	800051a <__udivmoddi4+0xc2>
 80004a4:	42af      	cmp	r7, r5
 80004a6:	d100      	bne.n	80004aa <__udivmoddi4+0x52>
 80004a8:	e078      	b.n	800059c <__udivmoddi4+0x144>
 80004aa:	465b      	mov	r3, fp
 80004ac:	1ba4      	subs	r4, r4, r6
 80004ae:	41bd      	sbcs	r5, r7
 80004b0:	2b00      	cmp	r3, #0
 80004b2:	da00      	bge.n	80004b6 <__udivmoddi4+0x5e>
 80004b4:	e075      	b.n	80005a2 <__udivmoddi4+0x14a>
 80004b6:	2200      	movs	r2, #0
 80004b8:	2300      	movs	r3, #0
 80004ba:	9200      	str	r2, [sp, #0]
 80004bc:	9301      	str	r3, [sp, #4]
 80004be:	2301      	movs	r3, #1
 80004c0:	465a      	mov	r2, fp
 80004c2:	4093      	lsls	r3, r2
 80004c4:	9301      	str	r3, [sp, #4]
 80004c6:	2301      	movs	r3, #1
 80004c8:	4642      	mov	r2, r8
 80004ca:	4093      	lsls	r3, r2
 80004cc:	9300      	str	r3, [sp, #0]
 80004ce:	e028      	b.n	8000522 <__udivmoddi4+0xca>
 80004d0:	4282      	cmp	r2, r0
 80004d2:	d9cf      	bls.n	8000474 <__udivmoddi4+0x1c>
 80004d4:	2200      	movs	r2, #0
 80004d6:	2300      	movs	r3, #0
 80004d8:	9200      	str	r2, [sp, #0]
 80004da:	9301      	str	r3, [sp, #4]
 80004dc:	9b0c      	ldr	r3, [sp, #48]	; 0x30
 80004de:	2b00      	cmp	r3, #0
 80004e0:	d001      	beq.n	80004e6 <__udivmoddi4+0x8e>
 80004e2:	601c      	str	r4, [r3, #0]
 80004e4:	605d      	str	r5, [r3, #4]
 80004e6:	9800      	ldr	r0, [sp, #0]
 80004e8:	9901      	ldr	r1, [sp, #4]
 80004ea:	b003      	add	sp, #12
 80004ec:	bcf0      	pop	{r4, r5, r6, r7}
 80004ee:	46bb      	mov	fp, r7
 80004f0:	46b2      	mov	sl, r6
 80004f2:	46a9      	mov	r9, r5
 80004f4:	46a0      	mov	r8, r4
 80004f6:	bdf0      	pop	{r4, r5, r6, r7, pc}
 80004f8:	4642      	mov	r2, r8
 80004fa:	2320      	movs	r3, #32
 80004fc:	1a9b      	subs	r3, r3, r2
 80004fe:	4652      	mov	r2, sl
 8000500:	40da      	lsrs	r2, r3
 8000502:	4641      	mov	r1, r8
 8000504:	0013      	movs	r3, r2
 8000506:	464a      	mov	r2, r9
 8000508:	408a      	lsls	r2, r1
 800050a:	0017      	movs	r7, r2
 800050c:	4642      	mov	r2, r8
 800050e:	431f      	orrs	r7, r3
 8000510:	4653      	mov	r3, sl
 8000512:	4093      	lsls	r3, r2
 8000514:	001e      	movs	r6, r3
 8000516:	42af      	cmp	r7, r5
 8000518:	d9c4      	bls.n	80004a4 <__udivmoddi4+0x4c>
 800051a:	2200      	movs	r2, #0
 800051c:	2300      	movs	r3, #0
 800051e:	9200      	str	r2, [sp, #0]
 8000520:	9301      	str	r3, [sp, #4]
 8000522:	4643      	mov	r3, r8
 8000524:	2b00      	cmp	r3, #0
 8000526:	d0d9      	beq.n	80004dc <__udivmoddi4+0x84>
 8000528:	07fb      	lsls	r3, r7, #31
 800052a:	0872      	lsrs	r2, r6, #1
 800052c:	431a      	orrs	r2, r3
 800052e:	4646      	mov	r6, r8
 8000530:	087b      	lsrs	r3, r7, #1
 8000532:	e00e      	b.n	8000552 <__udivmoddi4+0xfa>
 8000534:	42ab      	cmp	r3, r5
 8000536:	d101      	bne.n	800053c <__udivmoddi4+0xe4>
 8000538:	42a2      	cmp	r2, r4
 800053a:	d80c      	bhi.n	8000556 <__udivmoddi4+0xfe>
 800053c:	1aa4      	subs	r4, r4, r2
 800053e:	419d      	sbcs	r5, r3
 8000540:	2001      	movs	r0, #1
 8000542:	1924      	adds	r4, r4, r4
 8000544:	416d      	adcs	r5, r5
 8000546:	2100      	movs	r1, #0
 8000548:	3e01      	subs	r6, #1
 800054a:	1824      	adds	r4, r4, r0
 800054c:	414d      	adcs	r5, r1
 800054e:	2e00      	cmp	r6, #0
 8000550:	d006      	beq.n	8000560 <__udivmoddi4+0x108>
 8000552:	42ab      	cmp	r3, r5
 8000554:	d9ee      	bls.n	8000534 <__udivmoddi4+0xdc>
 8000556:	3e01      	subs	r6, #1
 8000558:	1924      	adds	r4, r4, r4
 800055a:	416d      	adcs	r5, r5
 800055c:	2e00      	cmp	r6, #0
 800055e:	d1f8      	bne.n	8000552 <__udivmoddi4+0xfa>
 8000560:	9800      	ldr	r0, [sp, #0]
 8000562:	9901      	ldr	r1, [sp, #4]
 8000564:	465b      	mov	r3, fp
 8000566:	1900      	adds	r0, r0, r4
 8000568:	4169      	adcs	r1, r5
 800056a:	2b00      	cmp	r3, #0
 800056c:	db24      	blt.n	80005b8 <__udivmoddi4+0x160>
 800056e:	002b      	movs	r3, r5
 8000570:	465a      	mov	r2, fp
 8000572:	4644      	mov	r4, r8
 8000574:	40d3      	lsrs	r3, r2
 8000576:	002a      	movs	r2, r5
 8000578:	40e2      	lsrs	r2, r4
 800057a:	001c      	movs	r4, r3
 800057c:	465b      	mov	r3, fp
 800057e:	0015      	movs	r5, r2
 8000580:	2b00      	cmp	r3, #0
 8000582:	db2a      	blt.n	80005da <__udivmoddi4+0x182>
 8000584:	0026      	movs	r6, r4
 8000586:	409e      	lsls	r6, r3
 8000588:	0033      	movs	r3, r6
 800058a:	0026      	movs	r6, r4
 800058c:	4647      	mov	r7, r8
 800058e:	40be      	lsls	r6, r7
 8000590:	0032      	movs	r2, r6
 8000592:	1a80      	subs	r0, r0, r2
 8000594:	4199      	sbcs	r1, r3
 8000596:	9000      	str	r0, [sp, #0]
 8000598:	9101      	str	r1, [sp, #4]
 800059a:	e79f      	b.n	80004dc <__udivmoddi4+0x84>
 800059c:	42a3      	cmp	r3, r4
 800059e:	d8bc      	bhi.n	800051a <__udivmoddi4+0xc2>
 80005a0:	e783      	b.n	80004aa <__udivmoddi4+0x52>
 80005a2:	4642      	mov	r2, r8
 80005a4:	2320      	movs	r3, #32
 80005a6:	2100      	movs	r1, #0
 80005a8:	1a9b      	subs	r3, r3, r2
 80005aa:	2200      	movs	r2, #0
 80005ac:	9100      	str	r1, [sp, #0]
 80005ae:	9201      	str	r2, [sp, #4]
 80005b0:	2201      	movs	r2, #1
 80005b2:	40da      	lsrs	r2, r3
 80005b4:	9201      	str	r2, [sp, #4]
 80005b6:	e786      	b.n	80004c6 <__udivmoddi4+0x6e>
 80005b8:	4642      	mov	r2, r8
 80005ba:	2320      	movs	r3, #32
 80005bc:	1a9b      	subs	r3, r3, r2
 80005be:	002a      	movs	r2, r5
 80005c0:	4646      	mov	r6, r8
 80005c2:	409a      	lsls	r2, r3
 80005c4:	0023      	movs	r3, r4
 80005c6:	40f3      	lsrs	r3, r6
 80005c8:	4644      	mov	r4, r8
 80005ca:	4313      	orrs	r3, r2
 80005cc:	002a      	movs	r2, r5
 80005ce:	40e2      	lsrs	r2, r4
 80005d0:	001c      	movs	r4, r3
 80005d2:	465b      	mov	r3, fp
 80005d4:	0015      	movs	r5, r2
 80005d6:	2b00      	cmp	r3, #0
 80005d8:	dad4      	bge.n	8000584 <__udivmoddi4+0x12c>
 80005da:	4642      	mov	r2, r8
 80005dc:	002f      	movs	r7, r5
 80005de:	2320      	movs	r3, #32
 80005e0:	0026      	movs	r6, r4
 80005e2:	4097      	lsls	r7, r2
 80005e4:	1a9b      	subs	r3, r3, r2
 80005e6:	40de      	lsrs	r6, r3
 80005e8:	003b      	movs	r3, r7
 80005ea:	4333      	orrs	r3, r6
 80005ec:	e7cd      	b.n	800058a <__udivmoddi4+0x132>
 80005ee:	46c0      	nop			; (mov r8, r8)

080005f0 <__clzdi2>:
 80005f0:	b510      	push	{r4, lr}
 80005f2:	2900      	cmp	r1, #0
 80005f4:	d103      	bne.n	80005fe <__clzdi2+0xe>
 80005f6:	f000 f807 	bl	8000608 <__clzsi2>
 80005fa:	3020      	adds	r0, #32
 80005fc:	e002      	b.n	8000604 <__clzdi2+0x14>
 80005fe:	0008      	movs	r0, r1
 8000600:	f000 f802 	bl	8000608 <__clzsi2>
 8000604:	bd10      	pop	{r4, pc}
 8000606:	46c0      	nop			; (mov r8, r8)

08000608 <__clzsi2>:
 8000608:	211c      	movs	r1, #28
 800060a:	2301      	movs	r3, #1
 800060c:	041b      	lsls	r3, r3, #16
 800060e:	4298      	cmp	r0, r3
 8000610:	d301      	bcc.n	8000616 <__clzsi2+0xe>
 8000612:	0c00      	lsrs	r0, r0, #16
 8000614:	3910      	subs	r1, #16
 8000616:	0a1b      	lsrs	r3, r3, #8
 8000618:	4298      	cmp	r0, r3
 800061a:	d301      	bcc.n	8000620 <__clzsi2+0x18>
 800061c:	0a00      	lsrs	r0, r0, #8
 800061e:	3908      	subs	r1, #8
 8000620:	091b      	lsrs	r3, r3, #4
 8000622:	4298      	cmp	r0, r3
 8000624:	d301      	bcc.n	800062a <__clzsi2+0x22>
 8000626:	0900      	lsrs	r0, r0, #4
 8000628:	3904      	subs	r1, #4
 800062a:	a202      	add	r2, pc, #8	; (adr r2, 8000634 <__clzsi2+0x2c>)
 800062c:	5c10      	ldrb	r0, [r2, r0]
 800062e:	1840      	adds	r0, r0, r1
 8000630:	4770      	bx	lr
 8000632:	46c0      	nop			; (mov r8, r8)
 8000634:	02020304 	.word	0x02020304
 8000638:	01010101 	.word	0x01010101
	...

08000644 <setup>:
 8000644:	b570      	push	{r4, r5, r6, lr}
 8000646:	2400      	movs	r4, #0
 8000648:	2064      	movs	r0, #100	; 0x64
 800064a:	f000 fd1b 	bl	8001084 <HAL_Delay>
 800064e:	4b0e      	ldr	r3, [pc, #56]	; (8000688 <setup+0x44>)
 8000650:	701c      	strb	r4, [r3, #0]
 8000652:	f000 f8e1 	bl	8000818 <ClearBuffers>
 8000656:	f000 fc0b 	bl	8000e70 <LED12A1_Init>
 800065a:	4d0c      	ldr	r5, [pc, #48]	; (800068c <setup+0x48>)
 800065c:	490c      	ldr	r1, [pc, #48]	; (8000690 <setup+0x4c>)
 800065e:	0028      	movs	r0, r5
 8000660:	f000 fc5a 	bl	8000f18 <LED12A1_ScanAvailDevice>
 8000664:	4e0b      	ldr	r6, [pc, #44]	; (8000694 <setup+0x50>)
 8000666:	7030      	strb	r0, [r6, #0]
 8000668:	7833      	ldrb	r3, [r6, #0]
 800066a:	42a3      	cmp	r3, r4
 800066c:	d800      	bhi.n	8000670 <setup+0x2c>
 800066e:	bd70      	pop	{r4, r5, r6, pc}
 8000670:	0021      	movs	r1, r4
 8000672:	0028      	movs	r0, r5
 8000674:	f000 fc2e 	bl	8000ed4 <LED12A1_DeviceEnable>
 8000678:	0022      	movs	r2, r4
 800067a:	0028      	movs	r0, r5
 800067c:	4906      	ldr	r1, [pc, #24]	; (8000698 <setup+0x54>)
 800067e:	3401      	adds	r4, #1
 8000680:	f000 fca0 	bl	8000fc4 <LED12A1_ChannelDisable>
 8000684:	b2e4      	uxtb	r4, r4
 8000686:	e7ef      	b.n	8000668 <setup+0x24>
 8000688:	200000b3 	.word	0x200000b3
 800068c:	20000238 	.word	0x20000238
 8000690:	20000028 	.word	0x20000028
 8000694:	20000032 	.word	0x20000032
 8000698:	00000fff 	.word	0x00000fff

0800069c <mainLoop>:
 800069c:	230e      	movs	r3, #14
 800069e:	b5f0      	push	{r4, r5, r6, r7, lr}
 80006a0:	2400      	movs	r4, #0
 80006a2:	b085      	sub	sp, #20
 80006a4:	446b      	add	r3, sp
 80006a6:	801c      	strh	r4, [r3, #0]
 80006a8:	4b58      	ldr	r3, [pc, #352]	; (800080c <mainLoop+0x170>)
 80006aa:	781b      	ldrb	r3, [r3, #0]
 80006ac:	42a3      	cmp	r3, r4
 80006ae:	d807      	bhi.n	80006c0 <mainLoop+0x24>
 80006b0:	2400      	movs	r4, #0
 80006b2:	4b56      	ldr	r3, [pc, #344]	; (800080c <mainLoop+0x170>)
 80006b4:	781b      	ldrb	r3, [r3, #0]
 80006b6:	42a3      	cmp	r3, r4
 80006b8:	d80a      	bhi.n	80006d0 <mainLoop+0x34>
 80006ba:	2404      	movs	r4, #4
 80006bc:	2500      	movs	r5, #0
 80006be:	e03a      	b.n	8000736 <mainLoop+0x9a>
 80006c0:	0022      	movs	r2, r4
 80006c2:	4953      	ldr	r1, [pc, #332]	; (8000810 <mainLoop+0x174>)
 80006c4:	4853      	ldr	r0, [pc, #332]	; (8000814 <mainLoop+0x178>)
 80006c6:	3401      	adds	r4, #1
 80006c8:	f000 fc7c 	bl	8000fc4 <LED12A1_ChannelDisable>
 80006cc:	b2e4      	uxtb	r4, r4
 80006ce:	e7eb      	b.n	80006a8 <mainLoop+0xc>
 80006d0:	2700      	movs	r7, #0
 80006d2:	2601      	movs	r6, #1
 80006d4:	40be      	lsls	r6, r7
 80006d6:	466a      	mov	r2, sp
 80006d8:	4d4e      	ldr	r5, [pc, #312]	; (8000814 <mainLoop+0x178>)
 80006da:	4b4d      	ldr	r3, [pc, #308]	; (8000810 <mainLoop+0x174>)
 80006dc:	b2b6      	uxth	r6, r6
 80006de:	81d3      	strh	r3, [r2, #14]
 80006e0:	0031      	movs	r1, r6
 80006e2:	0022      	movs	r2, r4
 80006e4:	0028      	movs	r0, r5
 80006e6:	f000 fc5b 	bl	8000fa0 <LED12A1_ChannelEnable>
 80006ea:	b2fa      	uxtb	r2, r7
 80006ec:	0023      	movs	r3, r4
 80006ee:	2114      	movs	r1, #20
 80006f0:	0028      	movs	r0, r5
 80006f2:	f000 fc29 	bl	8000f48 <LED12A1_AnalogDimming>
 80006f6:	210e      	movs	r1, #14
 80006f8:	b2fa      	uxtb	r2, r7
 80006fa:	2300      	movs	r3, #0
 80006fc:	4469      	add	r1, sp
 80006fe:	0028      	movs	r0, r5
 8000700:	9400      	str	r4, [sp, #0]
 8000702:	f000 fc34 	bl	8000f6e <LED12A1_DigitalDimming>
 8000706:	20c8      	movs	r0, #200	; 0xc8
 8000708:	f000 fcbc 	bl	8001084 <HAL_Delay>
 800070c:	3701      	adds	r7, #1
 800070e:	0022      	movs	r2, r4
 8000710:	0031      	movs	r1, r6
 8000712:	0028      	movs	r0, r5
 8000714:	f000 fc56 	bl	8000fc4 <LED12A1_ChannelDisable>
 8000718:	2f0c      	cmp	r7, #12
 800071a:	d1da      	bne.n	80006d2 <mainLoop+0x36>
 800071c:	20c8      	movs	r0, #200	; 0xc8
 800071e:	3401      	adds	r4, #1
 8000720:	f000 fcb0 	bl	8001084 <HAL_Delay>
 8000724:	b2e4      	uxtb	r4, r4
 8000726:	e7c4      	b.n	80006b2 <mainLoop+0x16>
 8000728:	002a      	movs	r2, r5
 800072a:	4939      	ldr	r1, [pc, #228]	; (8000810 <mainLoop+0x174>)
 800072c:	4839      	ldr	r0, [pc, #228]	; (8000814 <mainLoop+0x178>)
 800072e:	f000 fc49 	bl	8000fc4 <LED12A1_ChannelDisable>
 8000732:	3501      	adds	r5, #1
 8000734:	b2ed      	uxtb	r5, r5
 8000736:	4b35      	ldr	r3, [pc, #212]	; (800080c <mainLoop+0x170>)
 8000738:	781b      	ldrb	r3, [r3, #0]
 800073a:	42ab      	cmp	r3, r5
 800073c:	d8f4      	bhi.n	8000728 <mainLoop+0x8c>
 800073e:	2096      	movs	r0, #150	; 0x96
 8000740:	0040      	lsls	r0, r0, #1
 8000742:	f000 fc9f 	bl	8001084 <HAL_Delay>
 8000746:	2500      	movs	r5, #0
 8000748:	4b30      	ldr	r3, [pc, #192]	; (800080c <mainLoop+0x170>)
 800074a:	781b      	ldrb	r3, [r3, #0]
 800074c:	42ab      	cmp	r3, r5
 800074e:	d809      	bhi.n	8000764 <mainLoop+0xc8>
 8000750:	2096      	movs	r0, #150	; 0x96
 8000752:	3c01      	subs	r4, #1
 8000754:	0040      	lsls	r0, r0, #1
 8000756:	b2e4      	uxtb	r4, r4
 8000758:	f000 fc94 	bl	8001084 <HAL_Delay>
 800075c:	2c00      	cmp	r4, #0
 800075e:	d1ad      	bne.n	80006bc <mainLoop+0x20>
 8000760:	0025      	movs	r5, r4
 8000762:	e01b      	b.n	800079c <mainLoop+0x100>
 8000764:	2600      	movs	r6, #0
 8000766:	2101      	movs	r1, #1
 8000768:	40b1      	lsls	r1, r6
 800076a:	4f2a      	ldr	r7, [pc, #168]	; (8000814 <mainLoop+0x178>)
 800076c:	002a      	movs	r2, r5
 800076e:	b289      	uxth	r1, r1
 8000770:	0038      	movs	r0, r7
 8000772:	f000 fc15 	bl	8000fa0 <LED12A1_ChannelEnable>
 8000776:	b2f2      	uxtb	r2, r6
 8000778:	002b      	movs	r3, r5
 800077a:	2114      	movs	r1, #20
 800077c:	0038      	movs	r0, r7
 800077e:	3601      	adds	r6, #1
 8000780:	f000 fbe2 	bl	8000f48 <LED12A1_AnalogDimming>
 8000784:	2e0c      	cmp	r6, #12
 8000786:	d1ee      	bne.n	8000766 <mainLoop+0xca>
 8000788:	3501      	adds	r5, #1
 800078a:	b2ed      	uxtb	r5, r5
 800078c:	e7dc      	b.n	8000748 <mainLoop+0xac>
 800078e:	002a      	movs	r2, r5
 8000790:	491f      	ldr	r1, [pc, #124]	; (8000810 <mainLoop+0x174>)
 8000792:	4820      	ldr	r0, [pc, #128]	; (8000814 <mainLoop+0x178>)
 8000794:	f000 fc16 	bl	8000fc4 <LED12A1_ChannelDisable>
 8000798:	3501      	adds	r5, #1
 800079a:	b2ed      	uxtb	r5, r5
 800079c:	4b1b      	ldr	r3, [pc, #108]	; (800080c <mainLoop+0x170>)
 800079e:	781b      	ldrb	r3, [r3, #0]
 80007a0:	42ab      	cmp	r3, r5
 80007a2:	d8f4      	bhi.n	800078e <mainLoop+0xf2>
 80007a4:	4b19      	ldr	r3, [pc, #100]	; (800080c <mainLoop+0x170>)
 80007a6:	781b      	ldrb	r3, [r3, #0]
 80007a8:	42a3      	cmp	r3, r4
 80007aa:	d801      	bhi.n	80007b0 <mainLoop+0x114>
 80007ac:	b005      	add	sp, #20
 80007ae:	bdf0      	pop	{r4, r5, r6, r7, pc}
 80007b0:	2600      	movs	r6, #0
 80007b2:	2101      	movs	r1, #1
 80007b4:	40b1      	lsls	r1, r6
 80007b6:	4d17      	ldr	r5, [pc, #92]	; (8000814 <mainLoop+0x178>)
 80007b8:	0022      	movs	r2, r4
 80007ba:	0028      	movs	r0, r5
 80007bc:	b289      	uxth	r1, r1
 80007be:	b2f7      	uxtb	r7, r6
 80007c0:	f000 fbee 	bl	8000fa0 <LED12A1_ChannelEnable>
 80007c4:	0028      	movs	r0, r5
 80007c6:	0023      	movs	r3, r4
 80007c8:	003a      	movs	r2, r7
 80007ca:	2114      	movs	r1, #20
 80007cc:	f000 fbbc 	bl	8000f48 <LED12A1_AnalogDimming>
 80007d0:	2500      	movs	r5, #0
 80007d2:	210e      	movs	r1, #14
 80007d4:	4469      	add	r1, sp
 80007d6:	800d      	strh	r5, [r1, #0]
 80007d8:	2300      	movs	r3, #0
 80007da:	003a      	movs	r2, r7
 80007dc:	480d      	ldr	r0, [pc, #52]	; (8000814 <mainLoop+0x178>)
 80007de:	9400      	str	r4, [sp, #0]
 80007e0:	f000 fbc5 	bl	8000f6e <LED12A1_DigitalDimming>
 80007e4:	2064      	movs	r0, #100	; 0x64
 80007e6:	f000 fc4d 	bl	8001084 <HAL_Delay>
 80007ea:	23fa      	movs	r3, #250	; 0xfa
 80007ec:	3591      	adds	r5, #145	; 0x91
 80007ee:	35ff      	adds	r5, #255	; 0xff
 80007f0:	b2ad      	uxth	r5, r5
 80007f2:	011b      	lsls	r3, r3, #4
 80007f4:	429d      	cmp	r5, r3
 80007f6:	d1ec      	bne.n	80007d2 <mainLoop+0x136>
 80007f8:	3601      	adds	r6, #1
 80007fa:	2e0c      	cmp	r6, #12
 80007fc:	d1d9      	bne.n	80007b2 <mainLoop+0x116>
 80007fe:	2096      	movs	r0, #150	; 0x96
 8000800:	3401      	adds	r4, #1
 8000802:	0040      	lsls	r0, r0, #1
 8000804:	f000 fc3e 	bl	8001084 <HAL_Delay>
 8000808:	b2e4      	uxtb	r4, r4
 800080a:	e7cb      	b.n	80007a4 <mainLoop+0x108>
 800080c:	20000032 	.word	0x20000032
 8000810:	00000fff 	.word	0x00000fff
 8000814:	20000238 	.word	0x20000238

08000818 <ClearBuffers>:
 8000818:	b510      	push	{r4, lr}
 800081a:	2440      	movs	r4, #64	; 0x40
 800081c:	0022      	movs	r2, r4
 800081e:	2100      	movs	r1, #0
 8000820:	4804      	ldr	r0, [pc, #16]	; (8000834 <ClearBuffers+0x1c>)
 8000822:	f002 fb03 	bl	8002e2c <memset>
 8000826:	0022      	movs	r2, r4
 8000828:	2100      	movs	r1, #0
 800082a:	4803      	ldr	r0, [pc, #12]	; (8000838 <ClearBuffers+0x20>)
 800082c:	f002 fafe 	bl	8002e2c <memset>
 8000830:	bd10      	pop	{r4, pc}
 8000832:	46c0      	nop			; (mov r8, r8)
 8000834:	20000033 	.word	0x20000033
 8000838:	20000073 	.word	0x20000073

0800083c <SystemClock_Config>:
 800083c:	b500      	push	{lr}
 800083e:	b095      	sub	sp, #84	; 0x54
 8000840:	223c      	movs	r2, #60	; 0x3c
 8000842:	2100      	movs	r1, #0
 8000844:	a805      	add	r0, sp, #20
 8000846:	f002 faf1 	bl	8002e2c <memset>
 800084a:	2100      	movs	r1, #0
 800084c:	2210      	movs	r2, #16
 800084e:	a801      	add	r0, sp, #4
 8000850:	f002 faec 	bl	8002e2c <memset>
 8000854:	2080      	movs	r0, #128	; 0x80
 8000856:	0080      	lsls	r0, r0, #2
 8000858:	f001 f942 	bl	8001ae0 <HAL_PWREx_ControlVoltageScaling>
 800085c:	2302      	movs	r3, #2
 800085e:	9305      	str	r3, [sp, #20]
 8000860:	33fe      	adds	r3, #254	; 0xfe
 8000862:	2240      	movs	r2, #64	; 0x40
 8000864:	9308      	str	r3, [sp, #32]
 8000866:	2300      	movs	r3, #0
 8000868:	a805      	add	r0, sp, #20
 800086a:	9309      	str	r3, [sp, #36]	; 0x24
 800086c:	920a      	str	r2, [sp, #40]	; 0x28
 800086e:	930d      	str	r3, [sp, #52]	; 0x34
 8000870:	f001 f962 	bl	8001b38 <HAL_RCC_OscConfig>
 8000874:	1e01      	subs	r1, r0, #0
 8000876:	d001      	beq.n	800087c <SystemClock_Config+0x40>
 8000878:	b672      	cpsid	i
 800087a:	e7fe      	b.n	800087a <SystemClock_Config+0x3e>
 800087c:	2307      	movs	r3, #7
 800087e:	9002      	str	r0, [sp, #8]
 8000880:	9003      	str	r0, [sp, #12]
 8000882:	9004      	str	r0, [sp, #16]
 8000884:	a801      	add	r0, sp, #4
 8000886:	9301      	str	r3, [sp, #4]
 8000888:	f001 fbf2 	bl	8002070 <HAL_RCC_ClockConfig>
 800088c:	2800      	cmp	r0, #0
 800088e:	d001      	beq.n	8000894 <SystemClock_Config+0x58>
 8000890:	b672      	cpsid	i
 8000892:	e7fe      	b.n	8000892 <SystemClock_Config+0x56>
 8000894:	b015      	add	sp, #84	; 0x54
 8000896:	bd00      	pop	{pc}

08000898 <MX_I2C1_Init>:
 8000898:	b510      	push	{r4, lr}
 800089a:	4b12      	ldr	r3, [pc, #72]	; (80008e4 <MX_I2C1_Init+0x4c>)
 800089c:	4c12      	ldr	r4, [pc, #72]	; (80008e8 <MX_I2C1_Init+0x50>)
 800089e:	2201      	movs	r2, #1
 80008a0:	6023      	str	r3, [r4, #0]
 80008a2:	4b12      	ldr	r3, [pc, #72]	; (80008ec <MX_I2C1_Init+0x54>)
 80008a4:	0020      	movs	r0, r4
 80008a6:	6063      	str	r3, [r4, #4]
 80008a8:	2300      	movs	r3, #0
 80008aa:	60e2      	str	r2, [r4, #12]
 80008ac:	60a3      	str	r3, [r4, #8]
 80008ae:	6123      	str	r3, [r4, #16]
 80008b0:	6163      	str	r3, [r4, #20]
 80008b2:	61a3      	str	r3, [r4, #24]
 80008b4:	61e3      	str	r3, [r4, #28]
 80008b6:	6223      	str	r3, [r4, #32]
 80008b8:	f000 fe98 	bl	80015ec <HAL_I2C_Init>
 80008bc:	1e01      	subs	r1, r0, #0
 80008be:	d001      	beq.n	80008c4 <MX_I2C1_Init+0x2c>
 80008c0:	b672      	cpsid	i
 80008c2:	e7fe      	b.n	80008c2 <MX_I2C1_Init+0x2a>
 80008c4:	0020      	movs	r0, r4
 80008c6:	f001 f8c1 	bl	8001a4c <HAL_I2CEx_ConfigAnalogFilter>
 80008ca:	1e01      	subs	r1, r0, #0
 80008cc:	d001      	beq.n	80008d2 <MX_I2C1_Init+0x3a>
 80008ce:	b672      	cpsid	i
 80008d0:	e7fe      	b.n	80008d0 <MX_I2C1_Init+0x38>
 80008d2:	0020      	movs	r0, r4
 80008d4:	f001 f8e0 	bl	8001a98 <HAL_I2CEx_ConfigDigitalFilter>
 80008d8:	2800      	cmp	r0, #0
 80008da:	d001      	beq.n	80008e0 <MX_I2C1_Init+0x48>
 80008dc:	b672      	cpsid	i
 80008de:	e7fe      	b.n	80008de <MX_I2C1_Init+0x46>
 80008e0:	bd10      	pop	{r4, pc}
 80008e2:	46c0      	nop			; (mov r8, r8)
 80008e4:	40005400 	.word	0x40005400
 80008e8:	200000b4 	.word	0x200000b4
 80008ec:	00303d5b 	.word	0x00303d5b

080008f0 <main>:
 80008f0:	b5f0      	push	{r4, r5, r6, r7, lr}
 80008f2:	b08d      	sub	sp, #52	; 0x34
 80008f4:	f000 fba0 	bl	8001038 <HAL_Init>
 80008f8:	f7ff ffa0 	bl	800083c <SystemClock_Config>
 80008fc:	2214      	movs	r2, #20
 80008fe:	2100      	movs	r1, #0
 8000900:	a807      	add	r0, sp, #28
 8000902:	f002 fa93 	bl	8002e2c <memset>
 8000906:	2004      	movs	r0, #4
 8000908:	2420      	movs	r4, #32
 800090a:	2501      	movs	r5, #1
 800090c:	4b62      	ldr	r3, [pc, #392]	; (8000a98 <main+0x1a8>)
 800090e:	2602      	movs	r6, #2
 8000910:	6b59      	ldr	r1, [r3, #52]	; 0x34
 8000912:	4301      	orrs	r1, r0
 8000914:	6359      	str	r1, [r3, #52]	; 0x34
 8000916:	6b5a      	ldr	r2, [r3, #52]	; 0x34
 8000918:	0021      	movs	r1, r4
 800091a:	4002      	ands	r2, r0
 800091c:	20a0      	movs	r0, #160	; 0xa0
 800091e:	9200      	str	r2, [sp, #0]
 8000920:	9a00      	ldr	r2, [sp, #0]
 8000922:	6b5a      	ldr	r2, [r3, #52]	; 0x34
 8000924:	05c0      	lsls	r0, r0, #23
 8000926:	4322      	orrs	r2, r4
 8000928:	635a      	str	r2, [r3, #52]	; 0x34
 800092a:	6b5a      	ldr	r2, [r3, #52]	; 0x34
 800092c:	4022      	ands	r2, r4
 800092e:	9201      	str	r2, [sp, #4]
 8000930:	9a01      	ldr	r2, [sp, #4]
 8000932:	6b5a      	ldr	r2, [r3, #52]	; 0x34
 8000934:	432a      	orrs	r2, r5
 8000936:	635a      	str	r2, [r3, #52]	; 0x34
 8000938:	6b5a      	ldr	r2, [r3, #52]	; 0x34
 800093a:	402a      	ands	r2, r5
 800093c:	9202      	str	r2, [sp, #8]
 800093e:	9a02      	ldr	r2, [sp, #8]
 8000940:	6b5a      	ldr	r2, [r3, #52]	; 0x34
 8000942:	4332      	orrs	r2, r6
 8000944:	635a      	str	r2, [r3, #52]	; 0x34
 8000946:	6b5b      	ldr	r3, [r3, #52]	; 0x34
 8000948:	2200      	movs	r2, #0
 800094a:	4033      	ands	r3, r6
 800094c:	9303      	str	r3, [sp, #12]
 800094e:	9b03      	ldr	r3, [sp, #12]
 8000950:	f000 fd24 	bl	800139c <HAL_GPIO_WritePin>
 8000954:	20a0      	movs	r0, #160	; 0xa0
 8000956:	9508      	str	r5, [sp, #32]
 8000958:	2500      	movs	r5, #0
 800095a:	a907      	add	r1, sp, #28
 800095c:	05c0      	lsls	r0, r0, #23
 800095e:	9407      	str	r4, [sp, #28]
 8000960:	960a      	str	r6, [sp, #40]	; 0x28
 8000962:	9509      	str	r5, [sp, #36]	; 0x24
 8000964:	f000 fbe4 	bl	8001130 <HAL_GPIO_Init>
 8000968:	4c4c      	ldr	r4, [pc, #304]	; (8000a9c <main+0x1ac>)
 800096a:	4b4d      	ldr	r3, [pc, #308]	; (8000aa0 <main+0x1b0>)
 800096c:	0020      	movs	r0, r4
 800096e:	6023      	str	r3, [r4, #0]
 8000970:	23e1      	movs	r3, #225	; 0xe1
 8000972:	360a      	adds	r6, #10
 8000974:	025b      	lsls	r3, r3, #9
 8000976:	6063      	str	r3, [r4, #4]
 8000978:	60a5      	str	r5, [r4, #8]
 800097a:	60e5      	str	r5, [r4, #12]
 800097c:	6125      	str	r5, [r4, #16]
 800097e:	6166      	str	r6, [r4, #20]
 8000980:	61a5      	str	r5, [r4, #24]
 8000982:	61e5      	str	r5, [r4, #28]
 8000984:	6225      	str	r5, [r4, #32]
 8000986:	6265      	str	r5, [r4, #36]	; 0x24
 8000988:	62a5      	str	r5, [r4, #40]	; 0x28
 800098a:	f002 f969 	bl	8002c60 <HAL_UART_Init>
 800098e:	0001      	movs	r1, r0
 8000990:	42a8      	cmp	r0, r5
 8000992:	d001      	beq.n	8000998 <main+0xa8>
 8000994:	b672      	cpsid	i
 8000996:	e7fe      	b.n	8000996 <main+0xa6>
 8000998:	0020      	movs	r0, r4
 800099a:	f002 f9d9 	bl	8002d50 <HAL_UARTEx_SetTxFifoThreshold>
 800099e:	1e01      	subs	r1, r0, #0
 80009a0:	d001      	beq.n	80009a6 <main+0xb6>
 80009a2:	b672      	cpsid	i
 80009a4:	e7fe      	b.n	80009a4 <main+0xb4>
 80009a6:	0020      	movs	r0, r4
 80009a8:	f002 f9f6 	bl	8002d98 <HAL_UARTEx_SetRxFifoThreshold>
 80009ac:	2800      	cmp	r0, #0
 80009ae:	d001      	beq.n	80009b4 <main+0xc4>
 80009b0:	b672      	cpsid	i
 80009b2:	e7fe      	b.n	80009b2 <main+0xc2>
 80009b4:	0020      	movs	r0, r4
 80009b6:	f002 f9ad 	bl	8002d14 <HAL_UARTEx_DisableFifoMode>
 80009ba:	1e05      	subs	r5, r0, #0
 80009bc:	d001      	beq.n	80009c2 <main+0xd2>
 80009be:	b672      	cpsid	i
 80009c0:	e7fe      	b.n	80009c0 <main+0xd0>
 80009c2:	f7ff ff69 	bl	8000898 <MX_I2C1_Init>
 80009c6:	2210      	movs	r2, #16
 80009c8:	0029      	movs	r1, r5
 80009ca:	a807      	add	r0, sp, #28
 80009cc:	f002 fa2e 	bl	8002e2c <memset>
 80009d0:	0032      	movs	r2, r6
 80009d2:	0029      	movs	r1, r5
 80009d4:	a804      	add	r0, sp, #16
 80009d6:	f002 fa29 	bl	8002e2c <memset>
 80009da:	2380      	movs	r3, #128	; 0x80
 80009dc:	4c31      	ldr	r4, [pc, #196]	; (8000aa4 <main+0x1b4>)
 80009de:	05db      	lsls	r3, r3, #23
 80009e0:	6023      	str	r3, [r4, #0]
 80009e2:	2301      	movs	r3, #1
 80009e4:	0020      	movs	r0, r4
 80009e6:	425b      	negs	r3, r3
 80009e8:	6065      	str	r5, [r4, #4]
 80009ea:	60a5      	str	r5, [r4, #8]
 80009ec:	60e3      	str	r3, [r4, #12]
 80009ee:	6125      	str	r5, [r4, #16]
 80009f0:	61a5      	str	r5, [r4, #24]
 80009f2:	f001 fda9 	bl	8002548 <HAL_TIM_Base_Init>
 80009f6:	2800      	cmp	r0, #0
 80009f8:	d001      	beq.n	80009fe <main+0x10e>
 80009fa:	b672      	cpsid	i
 80009fc:	e7fe      	b.n	80009fc <main+0x10c>
 80009fe:	2780      	movs	r7, #128	; 0x80
 8000a00:	0020      	movs	r0, r4
 8000a02:	017f      	lsls	r7, r7, #5
 8000a04:	a907      	add	r1, sp, #28
 8000a06:	9707      	str	r7, [sp, #28]
 8000a08:	f001 fdd4 	bl	80025b4 <HAL_TIM_ConfigClockSource>
 8000a0c:	2800      	cmp	r0, #0
 8000a0e:	d001      	beq.n	8000a14 <main+0x124>
 8000a10:	b672      	cpsid	i
 8000a12:	e7fe      	b.n	8000a12 <main+0x122>
 8000a14:	9004      	str	r0, [sp, #16]
 8000a16:	9006      	str	r0, [sp, #24]
 8000a18:	a904      	add	r1, sp, #16
 8000a1a:	0020      	movs	r0, r4
 8000a1c:	f001 fe6e 	bl	80026fc <HAL_TIMEx_MasterConfigSynchronization>
 8000a20:	1e05      	subs	r5, r0, #0
 8000a22:	d001      	beq.n	8000a28 <main+0x138>
 8000a24:	b672      	cpsid	i
 8000a26:	e7fe      	b.n	8000a26 <main+0x136>
 8000a28:	0001      	movs	r1, r0
 8000a2a:	2210      	movs	r2, #16
 8000a2c:	a807      	add	r0, sp, #28
 8000a2e:	f002 f9fd 	bl	8002e2c <memset>
 8000a32:	0032      	movs	r2, r6
 8000a34:	0029      	movs	r1, r5
 8000a36:	a804      	add	r0, sp, #16
 8000a38:	f002 f9f8 	bl	8002e2c <memset>
 8000a3c:	4e1a      	ldr	r6, [pc, #104]	; (8000aa8 <main+0x1b8>)
 8000a3e:	4b1b      	ldr	r3, [pc, #108]	; (8000aac <main+0x1bc>)
 8000a40:	0030      	movs	r0, r6
 8000a42:	6033      	str	r3, [r6, #0]
 8000a44:	4b1a      	ldr	r3, [pc, #104]	; (8000ab0 <main+0x1c0>)
 8000a46:	6075      	str	r5, [r6, #4]
 8000a48:	60b5      	str	r5, [r6, #8]
 8000a4a:	60f3      	str	r3, [r6, #12]
 8000a4c:	6135      	str	r5, [r6, #16]
 8000a4e:	61b5      	str	r5, [r6, #24]
 8000a50:	f001 fd7a 	bl	8002548 <HAL_TIM_Base_Init>
 8000a54:	2800      	cmp	r0, #0
 8000a56:	d001      	beq.n	8000a5c <main+0x16c>
 8000a58:	b672      	cpsid	i
 8000a5a:	e7fe      	b.n	8000a5a <main+0x16a>
 8000a5c:	0030      	movs	r0, r6
 8000a5e:	a907      	add	r1, sp, #28
 8000a60:	9707      	str	r7, [sp, #28]
 8000a62:	f001 fda7 	bl	80025b4 <HAL_TIM_ConfigClockSource>
 8000a66:	2800      	cmp	r0, #0
 8000a68:	d001      	beq.n	8000a6e <main+0x17e>
 8000a6a:	b672      	cpsid	i
 8000a6c:	e7fe      	b.n	8000a6c <main+0x17c>
 8000a6e:	9004      	str	r0, [sp, #16]
 8000a70:	9006      	str	r0, [sp, #24]
 8000a72:	a904      	add	r1, sp, #16
 8000a74:	0030      	movs	r0, r6
 8000a76:	f001 fe41 	bl	80026fc <HAL_TIMEx_MasterConfigSynchronization>
 8000a7a:	2800      	cmp	r0, #0
 8000a7c:	d001      	beq.n	8000a82 <main+0x192>
 8000a7e:	b672      	cpsid	i
 8000a80:	e7fe      	b.n	8000a80 <main+0x190>
 8000a82:	2302      	movs	r3, #2
 8000a84:	6822      	ldr	r2, [r4, #0]
 8000a86:	425b      	negs	r3, r3
 8000a88:	6113      	str	r3, [r2, #16]
 8000a8a:	6832      	ldr	r2, [r6, #0]
 8000a8c:	6113      	str	r3, [r2, #16]
 8000a8e:	f7ff fdd9 	bl	8000644 <setup>
 8000a92:	f7ff fe03 	bl	800069c <mainLoop>
 8000a96:	e7fc      	b.n	8000a92 <main+0x1a2>
 8000a98:	40021000 	.word	0x40021000
 8000a9c:	200001a0 	.word	0x200001a0
 8000aa0:	40004400 	.word	0x40004400
 8000aa4:	20000108 	.word	0x20000108
 8000aa8:	20000154 	.word	0x20000154
 8000aac:	40000400 	.word	0x40000400
 8000ab0:	0000ffff 	.word	0x0000ffff

08000ab4 <Error_Handler>:
 8000ab4:	b672      	cpsid	i
 8000ab6:	e7fe      	b.n	8000ab6 <Error_Handler+0x2>

08000ab8 <HAL_MspInit>:
 8000ab8:	2001      	movs	r0, #1
 8000aba:	4b0a      	ldr	r3, [pc, #40]	; (8000ae4 <HAL_MspInit+0x2c>)
 8000abc:	b082      	sub	sp, #8
 8000abe:	6c19      	ldr	r1, [r3, #64]	; 0x40
 8000ac0:	4301      	orrs	r1, r0
 8000ac2:	6419      	str	r1, [r3, #64]	; 0x40
 8000ac4:	2180      	movs	r1, #128	; 0x80
 8000ac6:	6c1a      	ldr	r2, [r3, #64]	; 0x40
 8000ac8:	0549      	lsls	r1, r1, #21
 8000aca:	4002      	ands	r2, r0
 8000acc:	9200      	str	r2, [sp, #0]
 8000ace:	9a00      	ldr	r2, [sp, #0]
 8000ad0:	6bda      	ldr	r2, [r3, #60]	; 0x3c
 8000ad2:	430a      	orrs	r2, r1
 8000ad4:	63da      	str	r2, [r3, #60]	; 0x3c
 8000ad6:	6bdb      	ldr	r3, [r3, #60]	; 0x3c
 8000ad8:	400b      	ands	r3, r1
 8000ada:	9301      	str	r3, [sp, #4]
 8000adc:	9b01      	ldr	r3, [sp, #4]
 8000ade:	b002      	add	sp, #8
 8000ae0:	4770      	bx	lr
 8000ae2:	46c0      	nop			; (mov r8, r8)
 8000ae4:	40021000 	.word	0x40021000

08000ae8 <HAL_I2C_MspInit>:
 8000ae8:	b510      	push	{r4, lr}
 8000aea:	0004      	movs	r4, r0
 8000aec:	b09a      	sub	sp, #104	; 0x68
 8000aee:	2214      	movs	r2, #20
 8000af0:	2100      	movs	r1, #0
 8000af2:	a802      	add	r0, sp, #8
 8000af4:	f002 f99a 	bl	8002e2c <memset>
 8000af8:	224c      	movs	r2, #76	; 0x4c
 8000afa:	2100      	movs	r1, #0
 8000afc:	a807      	add	r0, sp, #28
 8000afe:	f002 f995 	bl	8002e2c <memset>
 8000b02:	4b17      	ldr	r3, [pc, #92]	; (8000b60 <HAL_I2C_MspInit+0x78>)
 8000b04:	6822      	ldr	r2, [r4, #0]
 8000b06:	429a      	cmp	r2, r3
 8000b08:	d128      	bne.n	8000b5c <HAL_I2C_MspInit+0x74>
 8000b0a:	2320      	movs	r3, #32
 8000b0c:	a807      	add	r0, sp, #28
 8000b0e:	9307      	str	r3, [sp, #28]
 8000b10:	f001 fb70 	bl	80021f4 <HAL_RCCEx_PeriphCLKConfig>
 8000b14:	2800      	cmp	r0, #0
 8000b16:	d001      	beq.n	8000b1c <HAL_I2C_MspInit+0x34>
 8000b18:	f7ff ffcc 	bl	8000ab4 <Error_Handler>
 8000b1c:	2102      	movs	r1, #2
 8000b1e:	4c11      	ldr	r4, [pc, #68]	; (8000b64 <HAL_I2C_MspInit+0x7c>)
 8000b20:	4811      	ldr	r0, [pc, #68]	; (8000b68 <HAL_I2C_MspInit+0x80>)
 8000b22:	6b62      	ldr	r2, [r4, #52]	; 0x34
 8000b24:	430a      	orrs	r2, r1
 8000b26:	6362      	str	r2, [r4, #52]	; 0x34
 8000b28:	6b63      	ldr	r3, [r4, #52]	; 0x34
 8000b2a:	400b      	ands	r3, r1
 8000b2c:	9300      	str	r3, [sp, #0]
 8000b2e:	9b00      	ldr	r3, [sp, #0]
 8000b30:	23c0      	movs	r3, #192	; 0xc0
 8000b32:	009b      	lsls	r3, r3, #2
 8000b34:	9302      	str	r3, [sp, #8]
 8000b36:	2312      	movs	r3, #18
 8000b38:	9303      	str	r3, [sp, #12]
 8000b3a:	2300      	movs	r3, #0
 8000b3c:	a902      	add	r1, sp, #8
 8000b3e:	9304      	str	r3, [sp, #16]
 8000b40:	9305      	str	r3, [sp, #20]
 8000b42:	3306      	adds	r3, #6
 8000b44:	9306      	str	r3, [sp, #24]
 8000b46:	f000 faf3 	bl	8001130 <HAL_GPIO_Init>
 8000b4a:	2180      	movs	r1, #128	; 0x80
 8000b4c:	6be2      	ldr	r2, [r4, #60]	; 0x3c
 8000b4e:	0389      	lsls	r1, r1, #14
 8000b50:	430a      	orrs	r2, r1
 8000b52:	63e2      	str	r2, [r4, #60]	; 0x3c
 8000b54:	6be3      	ldr	r3, [r4, #60]	; 0x3c
 8000b56:	400b      	ands	r3, r1
 8000b58:	9301      	str	r3, [sp, #4]
 8000b5a:	9b01      	ldr	r3, [sp, #4]
 8000b5c:	b01a      	add	sp, #104	; 0x68
 8000b5e:	bd10      	pop	{r4, pc}
 8000b60:	40005400 	.word	0x40005400
 8000b64:	40021000 	.word	0x40021000
 8000b68:	50000400 	.word	0x50000400

08000b6c <HAL_I2C_MspDeInit>:
 8000b6c:	4b0a      	ldr	r3, [pc, #40]	; (8000b98 <HAL_I2C_MspDeInit+0x2c>)
 8000b6e:	6802      	ldr	r2, [r0, #0]
 8000b70:	b510      	push	{r4, lr}
 8000b72:	429a      	cmp	r2, r3
 8000b74:	d10e      	bne.n	8000b94 <HAL_I2C_MspDeInit+0x28>
 8000b76:	4a09      	ldr	r2, [pc, #36]	; (8000b9c <HAL_I2C_MspDeInit+0x30>)
 8000b78:	4909      	ldr	r1, [pc, #36]	; (8000ba0 <HAL_I2C_MspDeInit+0x34>)
 8000b7a:	6bd3      	ldr	r3, [r2, #60]	; 0x3c
 8000b7c:	4809      	ldr	r0, [pc, #36]	; (8000ba4 <HAL_I2C_MspDeInit+0x38>)
 8000b7e:	400b      	ands	r3, r1
 8000b80:	2180      	movs	r1, #128	; 0x80
 8000b82:	63d3      	str	r3, [r2, #60]	; 0x3c
 8000b84:	0049      	lsls	r1, r1, #1
 8000b86:	f000 fb8b 	bl	80012a0 <HAL_GPIO_DeInit>
 8000b8a:	2180      	movs	r1, #128	; 0x80
 8000b8c:	4805      	ldr	r0, [pc, #20]	; (8000ba4 <HAL_I2C_MspDeInit+0x38>)
 8000b8e:	0089      	lsls	r1, r1, #2
 8000b90:	f000 fb86 	bl	80012a0 <HAL_GPIO_DeInit>
 8000b94:	bd10      	pop	{r4, pc}
 8000b96:	46c0      	nop			; (mov r8, r8)
 8000b98:	40005400 	.word	0x40005400
 8000b9c:	40021000 	.word	0x40021000
 8000ba0:	ffdfffff 	.word	0xffdfffff
 8000ba4:	50000400 	.word	0x50000400

08000ba8 <HAL_TIM_Base_MspInit>:
 8000ba8:	2280      	movs	r2, #128	; 0x80
 8000baa:	6803      	ldr	r3, [r0, #0]
 8000bac:	b082      	sub	sp, #8
 8000bae:	05d2      	lsls	r2, r2, #23
 8000bb0:	4293      	cmp	r3, r2
 8000bb2:	d10a      	bne.n	8000bca <HAL_TIM_Base_MspInit+0x22>
 8000bb4:	2001      	movs	r0, #1
 8000bb6:	4a0b      	ldr	r2, [pc, #44]	; (8000be4 <HAL_TIM_Base_MspInit+0x3c>)
 8000bb8:	6bd1      	ldr	r1, [r2, #60]	; 0x3c
 8000bba:	4301      	orrs	r1, r0
 8000bbc:	63d1      	str	r1, [r2, #60]	; 0x3c
 8000bbe:	6bd3      	ldr	r3, [r2, #60]	; 0x3c
 8000bc0:	4003      	ands	r3, r0
 8000bc2:	9300      	str	r3, [sp, #0]
 8000bc4:	9b00      	ldr	r3, [sp, #0]
 8000bc6:	b002      	add	sp, #8
 8000bc8:	4770      	bx	lr
 8000bca:	4a07      	ldr	r2, [pc, #28]	; (8000be8 <HAL_TIM_Base_MspInit+0x40>)
 8000bcc:	4293      	cmp	r3, r2
 8000bce:	d1fa      	bne.n	8000bc6 <HAL_TIM_Base_MspInit+0x1e>
 8000bd0:	2002      	movs	r0, #2
 8000bd2:	4a04      	ldr	r2, [pc, #16]	; (8000be4 <HAL_TIM_Base_MspInit+0x3c>)
 8000bd4:	6bd1      	ldr	r1, [r2, #60]	; 0x3c
 8000bd6:	4301      	orrs	r1, r0
 8000bd8:	63d1      	str	r1, [r2, #60]	; 0x3c
 8000bda:	6bd3      	ldr	r3, [r2, #60]	; 0x3c
 8000bdc:	4003      	ands	r3, r0
 8000bde:	9301      	str	r3, [sp, #4]
 8000be0:	9b01      	ldr	r3, [sp, #4]
 8000be2:	e7f0      	b.n	8000bc6 <HAL_TIM_Base_MspInit+0x1e>
 8000be4:	40021000 	.word	0x40021000
 8000be8:	40000400 	.word	0x40000400

08000bec <HAL_UART_MspInit>:
 8000bec:	b510      	push	{r4, lr}
 8000bee:	0004      	movs	r4, r0
 8000bf0:	b09a      	sub	sp, #104	; 0x68
 8000bf2:	2214      	movs	r2, #20
 8000bf4:	2100      	movs	r1, #0
 8000bf6:	a802      	add	r0, sp, #8
 8000bf8:	f002 f918 	bl	8002e2c <memset>
 8000bfc:	224c      	movs	r2, #76	; 0x4c
 8000bfe:	2100      	movs	r1, #0
 8000c00:	a807      	add	r0, sp, #28
 8000c02:	f002 f913 	bl	8002e2c <memset>
 8000c06:	4b17      	ldr	r3, [pc, #92]	; (8000c64 <HAL_UART_MspInit+0x78>)
 8000c08:	6822      	ldr	r2, [r4, #0]
 8000c0a:	429a      	cmp	r2, r3
 8000c0c:	d127      	bne.n	8000c5e <HAL_UART_MspInit+0x72>
 8000c0e:	2302      	movs	r3, #2
 8000c10:	a807      	add	r0, sp, #28
 8000c12:	9307      	str	r3, [sp, #28]
 8000c14:	f001 faee 	bl	80021f4 <HAL_RCCEx_PeriphCLKConfig>
 8000c18:	2800      	cmp	r0, #0
 8000c1a:	d001      	beq.n	8000c20 <HAL_UART_MspInit+0x34>
 8000c1c:	f7ff ff4a 	bl	8000ab4 <Error_Handler>
 8000c20:	2080      	movs	r0, #128	; 0x80
 8000c22:	4b11      	ldr	r3, [pc, #68]	; (8000c68 <HAL_UART_MspInit+0x7c>)
 8000c24:	0280      	lsls	r0, r0, #10
 8000c26:	6bd9      	ldr	r1, [r3, #60]	; 0x3c
 8000c28:	4301      	orrs	r1, r0
 8000c2a:	63d9      	str	r1, [r3, #60]	; 0x3c
 8000c2c:	6bda      	ldr	r2, [r3, #60]	; 0x3c
 8000c2e:	4002      	ands	r2, r0
 8000c30:	9200      	str	r2, [sp, #0]
 8000c32:	9a00      	ldr	r2, [sp, #0]
 8000c34:	2201      	movs	r2, #1
 8000c36:	6b59      	ldr	r1, [r3, #52]	; 0x34
 8000c38:	20a0      	movs	r0, #160	; 0xa0
 8000c3a:	4311      	orrs	r1, r2
 8000c3c:	6359      	str	r1, [r3, #52]	; 0x34
 8000c3e:	6b5b      	ldr	r3, [r3, #52]	; 0x34
 8000c40:	a902      	add	r1, sp, #8
 8000c42:	4013      	ands	r3, r2
 8000c44:	9301      	str	r3, [sp, #4]
 8000c46:	9b01      	ldr	r3, [sp, #4]
 8000c48:	230c      	movs	r3, #12
 8000c4a:	9302      	str	r3, [sp, #8]
 8000c4c:	3b0a      	subs	r3, #10
 8000c4e:	9303      	str	r3, [sp, #12]
 8000c50:	2300      	movs	r3, #0
 8000c52:	05c0      	lsls	r0, r0, #23
 8000c54:	9304      	str	r3, [sp, #16]
 8000c56:	9305      	str	r3, [sp, #20]
 8000c58:	9206      	str	r2, [sp, #24]
 8000c5a:	f000 fa69 	bl	8001130 <HAL_GPIO_Init>
 8000c5e:	b01a      	add	sp, #104	; 0x68
 8000c60:	bd10      	pop	{r4, pc}
 8000c62:	46c0      	nop			; (mov r8, r8)
 8000c64:	40004400 	.word	0x40004400
 8000c68:	40021000 	.word	0x40021000

08000c6c <NMI_Handler>:
 8000c6c:	e7fe      	b.n	8000c6c <NMI_Handler>

08000c6e <HardFault_Handler>:
 8000c6e:	e7fe      	b.n	8000c6e <HardFault_Handler>

08000c70 <SVC_Handler>:
 8000c70:	4770      	bx	lr

08000c72 <PendSV_Handler>:
 8000c72:	4770      	bx	lr

08000c74 <SysTick_Handler>:
 8000c74:	b510      	push	{r4, lr}
 8000c76:	f000 f9f3 	bl	8001060 <HAL_IncTick>
 8000c7a:	bd10      	pop	{r4, pc}

08000c7c <SystemInit>:
 8000c7c:	4770      	bx	lr
	...

08000c80 <Reset_Handler>:
 8000c80:	480d      	ldr	r0, [pc, #52]	; (8000cb8 <LoopForever+0x2>)
 8000c82:	4685      	mov	sp, r0
 8000c84:	f7ff fffa 	bl	8000c7c <SystemInit>
 8000c88:	480c      	ldr	r0, [pc, #48]	; (8000cbc <LoopForever+0x6>)
 8000c8a:	490d      	ldr	r1, [pc, #52]	; (8000cc0 <LoopForever+0xa>)
 8000c8c:	4a0d      	ldr	r2, [pc, #52]	; (8000cc4 <LoopForever+0xe>)
 8000c8e:	2300      	movs	r3, #0
 8000c90:	e002      	b.n	8000c98 <LoopCopyDataInit>

08000c92 <CopyDataInit>:
 8000c92:	58d4      	ldr	r4, [r2, r3]
 8000c94:	50c4      	str	r4, [r0, r3]
 8000c96:	3304      	adds	r3, #4

08000c98 <LoopCopyDataInit>:
 8000c98:	18c4      	adds	r4, r0, r3
 8000c9a:	428c      	cmp	r4, r1
 8000c9c:	d3f9      	bcc.n	8000c92 <CopyDataInit>
 8000c9e:	4a0a      	ldr	r2, [pc, #40]	; (8000cc8 <LoopForever+0x12>)
 8000ca0:	4c0a      	ldr	r4, [pc, #40]	; (8000ccc <LoopForever+0x16>)
 8000ca2:	2300      	movs	r3, #0
 8000ca4:	e001      	b.n	8000caa <LoopFillZerobss>

08000ca6 <FillZerobss>:
 8000ca6:	6013      	str	r3, [r2, #0]
 8000ca8:	3204      	adds	r2, #4

08000caa <LoopFillZerobss>:
 8000caa:	42a2      	cmp	r2, r4
 8000cac:	d3fb      	bcc.n	8000ca6 <FillZerobss>
 8000cae:	f002 f899 	bl	8002de4 <__libc_init_array>
 8000cb2:	f7ff fe1d 	bl	80008f0 <main>

08000cb6 <LoopForever>:
 8000cb6:	e7fe      	b.n	8000cb6 <LoopForever>
 8000cb8:	20024000 	.word	0x20024000
 8000cbc:	20000000 	.word	0x20000000
 8000cc0:	2000000c 	.word	0x2000000c
 8000cc4:	08002efc 	.word	0x08002efc
 8000cc8:	2000000c 	.word	0x2000000c
 8000ccc:	20000268 	.word	0x20000268

08000cd0 <ADC1_COMP_IRQHandler>:
 8000cd0:	e7fe      	b.n	8000cd0 <ADC1_COMP_IRQHandler>
	...

08000cd4 <LED1202_RegisterBusIO>:
 8000cd4:	b510      	push	{r4, lr}
 8000cd6:	2800      	cmp	r0, #0
 8000cd8:	d017      	beq.n	8000d0a <LED1202_RegisterBusIO+0x36>
 8000cda:	680b      	ldr	r3, [r1, #0]
 8000cdc:	6003      	str	r3, [r0, #0]
 8000cde:	790b      	ldrb	r3, [r1, #4]
 8000ce0:	7103      	strb	r3, [r0, #4]
 8000ce2:	68ca      	ldr	r2, [r1, #12]
 8000ce4:	688b      	ldr	r3, [r1, #8]
 8000ce6:	60c2      	str	r2, [r0, #12]
 8000ce8:	690a      	ldr	r2, [r1, #16]
 8000cea:	6083      	str	r3, [r0, #8]
 8000cec:	6102      	str	r2, [r0, #16]
 8000cee:	694a      	ldr	r2, [r1, #20]
 8000cf0:	6142      	str	r2, [r0, #20]
 8000cf2:	698a      	ldr	r2, [r1, #24]
 8000cf4:	6240      	str	r0, [r0, #36]	; 0x24
 8000cf6:	6182      	str	r2, [r0, #24]
 8000cf8:	4a05      	ldr	r2, [pc, #20]	; (8000d10 <LED1202_RegisterBusIO+0x3c>)
 8000cfa:	6202      	str	r2, [r0, #32]
 8000cfc:	4a05      	ldr	r2, [pc, #20]	; (8000d14 <LED1202_RegisterBusIO+0x40>)
 8000cfe:	61c2      	str	r2, [r0, #28]
 8000d00:	2b00      	cmp	r3, #0
 8000d02:	d002      	beq.n	8000d0a <LED1202_RegisterBusIO+0x36>
 8000d04:	4798      	blx	r3
 8000d06:	2800      	cmp	r0, #0
 8000d08:	d000      	beq.n	8000d0c <LED1202_RegisterBusIO+0x38>
 8000d0a:	2003      	movs	r0, #3
 8000d0c:	bd10      	pop	{r4, pc}
 8000d0e:	46c0      	nop			; (mov r8, r8)
 8000d10:	08000ebd 	.word	0x08000ebd
 8000d14:	08000ec9 	.word	0x08000ec9

08000d18 <LED1202_ReadID>:
 8000d18:	0052      	lsls	r2, r2, #1
 8000d1a:	b510      	push	{r4, lr}
 8000d1c:	2301      	movs	r3, #1
 8000d1e:	7102      	strb	r2, [r0, #4]
 8000d20:	000c      	movs	r4, r1
 8000d22:	000a      	movs	r2, r1
 8000d24:	301c      	adds	r0, #28
 8000d26:	2100      	movs	r1, #0
 8000d28:	f000 f85e 	bl	8000de8 <LED1202_ReadReg>
 8000d2c:	4b03      	ldr	r3, [pc, #12]	; (8000d3c <LED1202_ReadID+0x24>)
 8000d2e:	6018      	str	r0, [r3, #0]
 8000d30:	7823      	ldrb	r3, [r4, #0]
 8000d32:	2000      	movs	r0, #0
 8000d34:	2b12      	cmp	r3, #18
 8000d36:	d000      	beq.n	8000d3a <LED1202_ReadID+0x22>
 8000d38:	3003      	adds	r0, #3
 8000d3a:	bd10      	pop	{r4, pc}
 8000d3c:	20000234 	.word	0x20000234

08000d40 <LED1202_SetChannelState>:
 8000d40:	005b      	lsls	r3, r3, #1
 8000d42:	b573      	push	{r0, r1, r4, r5, r6, lr}
 8000d44:	7103      	strb	r3, [r0, #4]
 8000d46:	2302      	movs	r3, #2
 8000d48:	301c      	adds	r0, #28
 8000d4a:	000e      	movs	r6, r1
 8000d4c:	0015      	movs	r5, r2
 8000d4e:	0019      	movs	r1, r3
 8000d50:	466a      	mov	r2, sp
 8000d52:	0004      	movs	r4, r0
 8000d54:	f000 f848 	bl	8000de8 <LED1202_ReadReg>
 8000d58:	466b      	mov	r3, sp
 8000d5a:	9001      	str	r0, [sp, #4]
 8000d5c:	8819      	ldrh	r1, [r3, #0]
 8000d5e:	2d00      	cmp	r5, #0
 8000d60:	d10b      	bne.n	8000d7a <LED1202_SetChannelState+0x3a>
 8000d62:	4331      	orrs	r1, r6
 8000d64:	8059      	strh	r1, [r3, #2]
 8000d66:	466a      	mov	r2, sp
 8000d68:	2302      	movs	r3, #2
 8000d6a:	0020      	movs	r0, r4
 8000d6c:	0019      	movs	r1, r3
 8000d6e:	18d2      	adds	r2, r2, r3
 8000d70:	f000 f840 	bl	8000df4 <LED1202_WriteReg>
 8000d74:	9001      	str	r0, [sp, #4]
 8000d76:	9801      	ldr	r0, [sp, #4]
 8000d78:	bd76      	pop	{r1, r2, r4, r5, r6, pc}
 8000d7a:	466b      	mov	r3, sp
 8000d7c:	43b1      	bics	r1, r6
 8000d7e:	e7f1      	b.n	8000d64 <LED1202_SetChannelState+0x24>

08000d80 <LED1202_WriteLEDCurrentReg>:
 8000d80:	005b      	lsls	r3, r3, #1
 8000d82:	b537      	push	{r0, r1, r2, r4, r5, lr}
 8000d84:	0005      	movs	r5, r0
 8000d86:	7103      	strb	r3, [r0, #4]
 8000d88:	0014      	movs	r4, r2
 8000d8a:	20ff      	movs	r0, #255	; 0xff
 8000d8c:	2913      	cmp	r1, #19
 8000d8e:	d804      	bhi.n	8000d9a <LED1202_WriteLEDCurrentReg+0x1a>
 8000d90:	4348      	muls	r0, r1
 8000d92:	2114      	movs	r1, #20
 8000d94:	f7ff fa54 	bl	8000240 <__divsi3>
 8000d98:	b2c0      	uxtb	r0, r0
 8000d9a:	466b      	mov	r3, sp
 8000d9c:	71d8      	strb	r0, [r3, #7]
 8000d9e:	0028      	movs	r0, r5
 8000da0:	3409      	adds	r4, #9
 8000da2:	1dda      	adds	r2, r3, #7
 8000da4:	b2a1      	uxth	r1, r4
 8000da6:	2301      	movs	r3, #1
 8000da8:	301c      	adds	r0, #28
 8000daa:	f000 f823 	bl	8000df4 <LED1202_WriteReg>
 8000dae:	bd3e      	pop	{r1, r2, r3, r4, r5, pc}

08000db0 <LED1202_WritePatternPWMConfig>:
 8000db0:	b570      	push	{r4, r5, r6, lr}
 8000db2:	000d      	movs	r5, r1
 8000db4:	0019      	movs	r1, r3
 8000db6:	ab04      	add	r3, sp, #16
 8000db8:	781b      	ldrb	r3, [r3, #0]
 8000dba:	0004      	movs	r4, r0
 8000dbc:	005b      	lsls	r3, r3, #1
 8000dbe:	7103      	strb	r3, [r0, #4]
 8000dc0:	2380      	movs	r3, #128	; 0x80
 8000dc2:	882e      	ldrh	r6, [r5, #0]
 8000dc4:	2000      	movs	r0, #0
 8000dc6:	015b      	lsls	r3, r3, #5
 8000dc8:	429e      	cmp	r6, r3
 8000dca:	d20c      	bcs.n	8000de6 <LED1202_WritePatternPWMConfig+0x36>
 8000dcc:	230c      	movs	r3, #12
 8000dce:	0020      	movs	r0, r4
 8000dd0:	434b      	muls	r3, r1
 8000dd2:	189b      	adds	r3, r3, r2
 8000dd4:	005b      	lsls	r3, r3, #1
 8000dd6:	331e      	adds	r3, #30
 8000dd8:	b2db      	uxtb	r3, r3
 8000dda:	b299      	uxth	r1, r3
 8000ddc:	002a      	movs	r2, r5
 8000dde:	2302      	movs	r3, #2
 8000de0:	301c      	adds	r0, #28
 8000de2:	f000 f807 	bl	8000df4 <LED1202_WriteReg>
 8000de6:	bd70      	pop	{r4, r5, r6, pc}

08000de8 <LED1202_ReadReg>:
 8000de8:	b510      	push	{r4, lr}
 8000dea:	b2c9      	uxtb	r1, r1
 8000dec:	6844      	ldr	r4, [r0, #4]
 8000dee:	6880      	ldr	r0, [r0, #8]
 8000df0:	47a0      	blx	r4
 8000df2:	bd10      	pop	{r4, pc}

08000df4 <LED1202_WriteReg>:
 8000df4:	b510      	push	{r4, lr}
 8000df6:	b2c9      	uxtb	r1, r1
 8000df8:	6804      	ldr	r4, [r0, #0]
 8000dfa:	6880      	ldr	r0, [r0, #8]
 8000dfc:	47a0      	blx	r4
 8000dfe:	bd10      	pop	{r4, pc}

08000e00 <BSP_I2C_Init>:
 8000e00:	b510      	push	{r4, lr}
 8000e02:	f7ff fd49 	bl	8000898 <MX_I2C1_Init>
 8000e06:	2000      	movs	r0, #0
 8000e08:	bd10      	pop	{r4, pc}
	...

08000e0c <BSP_I2C_DeInit>:
 8000e0c:	b510      	push	{r4, lr}
 8000e0e:	4802      	ldr	r0, [pc, #8]	; (8000e18 <BSP_I2C_DeInit+0xc>)
 8000e10:	f000 fc42 	bl	8001698 <HAL_I2C_DeInit>
 8000e14:	bd10      	pop	{r4, pc}
 8000e16:	46c0      	nop			; (mov r8, r8)
 8000e18:	200000b4 	.word	0x200000b4

08000e1c <BSP_I2C_Write>:
 8000e1c:	b51f      	push	{r0, r1, r2, r3, r4, lr}
 8000e1e:	000c      	movs	r4, r1
 8000e20:	b2c1      	uxtb	r1, r0
 8000e22:	20fa      	movs	r0, #250	; 0xfa
 8000e24:	0080      	lsls	r0, r0, #2
 8000e26:	9002      	str	r0, [sp, #8]
 8000e28:	9301      	str	r3, [sp, #4]
 8000e2a:	9200      	str	r2, [sp, #0]
 8000e2c:	2301      	movs	r3, #1
 8000e2e:	0022      	movs	r2, r4
 8000e30:	4804      	ldr	r0, [pc, #16]	; (8000e44 <BSP_I2C_Write+0x28>)
 8000e32:	f000 fc4b 	bl	80016cc <HAL_I2C_Mem_Write>
 8000e36:	2800      	cmp	r0, #0
 8000e38:	d001      	beq.n	8000e3e <BSP_I2C_Write+0x22>
 8000e3a:	2008      	movs	r0, #8
 8000e3c:	4240      	negs	r0, r0
 8000e3e:	b004      	add	sp, #16
 8000e40:	bd10      	pop	{r4, pc}
 8000e42:	46c0      	nop			; (mov r8, r8)
 8000e44:	200000b4 	.word	0x200000b4

08000e48 <BSP_I2C_Read>:
 8000e48:	b51f      	push	{r0, r1, r2, r3, r4, lr}
 8000e4a:	24fa      	movs	r4, #250	; 0xfa
 8000e4c:	00a4      	lsls	r4, r4, #2
 8000e4e:	9301      	str	r3, [sp, #4]
 8000e50:	9200      	str	r2, [sp, #0]
 8000e52:	2301      	movs	r3, #1
 8000e54:	000a      	movs	r2, r1
 8000e56:	9402      	str	r4, [sp, #8]
 8000e58:	0001      	movs	r1, r0
 8000e5a:	4804      	ldr	r0, [pc, #16]	; (8000e6c <BSP_I2C_Read+0x24>)
 8000e5c:	f000 fd14 	bl	8001888 <HAL_I2C_Mem_Read>
 8000e60:	2800      	cmp	r0, #0
 8000e62:	d001      	beq.n	8000e68 <BSP_I2C_Read+0x20>
 8000e64:	2008      	movs	r0, #8
 8000e66:	4240      	negs	r0, r0
 8000e68:	b004      	add	sp, #16
 8000e6a:	bd10      	pop	{r4, pc}
 8000e6c:	200000b4 	.word	0x200000b4

08000e70 <LED12A1_Init>:
 8000e70:	2300      	movs	r3, #0
 8000e72:	b500      	push	{lr}
 8000e74:	b089      	sub	sp, #36	; 0x24
 8000e76:	a901      	add	r1, sp, #4
 8000e78:	9300      	str	r3, [sp, #0]
 8000e7a:	9301      	str	r3, [sp, #4]
 8000e7c:	335c      	adds	r3, #92	; 0x5c
 8000e7e:	710b      	strb	r3, [r1, #4]
 8000e80:	4b08      	ldr	r3, [pc, #32]	; (8000ea4 <LED12A1_Init+0x34>)
 8000e82:	4809      	ldr	r0, [pc, #36]	; (8000ea8 <LED12A1_Init+0x38>)
 8000e84:	608b      	str	r3, [r1, #8]
 8000e86:	4b09      	ldr	r3, [pc, #36]	; (8000eac <LED12A1_Init+0x3c>)
 8000e88:	60cb      	str	r3, [r1, #12]
 8000e8a:	4b09      	ldr	r3, [pc, #36]	; (8000eb0 <LED12A1_Init+0x40>)
 8000e8c:	610b      	str	r3, [r1, #16]
 8000e8e:	4b09      	ldr	r3, [pc, #36]	; (8000eb4 <LED12A1_Init+0x44>)
 8000e90:	614b      	str	r3, [r1, #20]
 8000e92:	4b09      	ldr	r3, [pc, #36]	; (8000eb8 <LED12A1_Init+0x48>)
 8000e94:	618b      	str	r3, [r1, #24]
 8000e96:	f7ff ff1d 	bl	8000cd4 <LED1202_RegisterBusIO>
 8000e9a:	9000      	str	r0, [sp, #0]
 8000e9c:	9800      	ldr	r0, [sp, #0]
 8000e9e:	b009      	add	sp, #36	; 0x24
 8000ea0:	bd00      	pop	{pc}
 8000ea2:	46c0      	nop			; (mov r8, r8)
 8000ea4:	08000e01 	.word	0x08000e01
 8000ea8:	20000238 	.word	0x20000238
 8000eac:	08000e0d 	.word	0x08000e0d
 8000eb0:	08000e1d 	.word	0x08000e1d
 8000eb4:	08000e49 	.word	0x08000e49
 8000eb8:	08001085 	.word	0x08001085

08000ebc <ReadRegWrap>:
 8000ebc:	b510      	push	{r4, lr}
 8000ebe:	0004      	movs	r4, r0
 8000ec0:	6964      	ldr	r4, [r4, #20]
 8000ec2:	7900      	ldrb	r0, [r0, #4]
 8000ec4:	47a0      	blx	r4
 8000ec6:	bd10      	pop	{r4, pc}

08000ec8 <WriteRegWrap>:
 8000ec8:	b510      	push	{r4, lr}
 8000eca:	0004      	movs	r4, r0
 8000ecc:	6924      	ldr	r4, [r4, #16]
 8000ece:	7900      	ldrb	r0, [r0, #4]
 8000ed0:	47a0      	blx	r4
 8000ed2:	bd10      	pop	{r4, pc}

08000ed4 <LED12A1_DeviceEnable>:
 8000ed4:	2300      	movs	r3, #0
 8000ed6:	b507      	push	{r0, r1, r2, lr}
 8000ed8:	9301      	str	r3, [sp, #4]
 8000eda:	466b      	mov	r3, sp
 8000edc:	1cda      	adds	r2, r3, #3
 8000ede:	2301      	movs	r3, #1
 8000ee0:	7013      	strb	r3, [r2, #0]
 8000ee2:	335b      	adds	r3, #91	; 0x5b
 8000ee4:	2904      	cmp	r1, #4
 8000ee6:	d801      	bhi.n	8000eec <LED12A1_DeviceEnable+0x18>
 8000ee8:	3158      	adds	r1, #88	; 0x58
 8000eea:	b2cb      	uxtb	r3, r1
 8000eec:	005b      	lsls	r3, r3, #1
 8000eee:	7103      	strb	r3, [r0, #4]
 8000ef0:	2301      	movs	r3, #1
 8000ef2:	0019      	movs	r1, r3
 8000ef4:	301c      	adds	r0, #28
 8000ef6:	f7ff ff7d 	bl	8000df4 <LED1202_WriteReg>
 8000efa:	9001      	str	r0, [sp, #4]
 8000efc:	9801      	ldr	r0, [sp, #4]
 8000efe:	bd0e      	pop	{r1, r2, r3, pc}

08000f00 <LED12A1_SetDeviceAddr>:
 8000f00:	2300      	movs	r3, #0
 8000f02:	b082      	sub	sp, #8
 8000f04:	9301      	str	r3, [sp, #4]
 8000f06:	335c      	adds	r3, #92	; 0x5c
 8000f08:	2904      	cmp	r1, #4
 8000f0a:	d801      	bhi.n	8000f10 <LED12A1_SetDeviceAddr+0x10>
 8000f0c:	3158      	adds	r1, #88	; 0x58
 8000f0e:	b2cb      	uxtb	r3, r1
 8000f10:	7103      	strb	r3, [r0, #4]
 8000f12:	9801      	ldr	r0, [sp, #4]
 8000f14:	b002      	add	sp, #8
 8000f16:	4770      	bx	lr

08000f18 <LED12A1_ScanAvailDevice>:
 8000f18:	b5f7      	push	{r0, r1, r2, r4, r5, r6, r7, lr}
 8000f1a:	0007      	movs	r7, r0
 8000f1c:	000d      	movs	r5, r1
 8000f1e:	2600      	movs	r6, #0
 8000f20:	2458      	movs	r4, #88	; 0x58
 8000f22:	466b      	mov	r3, sp
 8000f24:	1dd9      	adds	r1, r3, #7
 8000f26:	2300      	movs	r3, #0
 8000f28:	0022      	movs	r2, r4
 8000f2a:	0038      	movs	r0, r7
 8000f2c:	700b      	strb	r3, [r1, #0]
 8000f2e:	f7ff fef3 	bl	8000d18 <LED1202_ReadID>
 8000f32:	2800      	cmp	r0, #0
 8000f34:	d102      	bne.n	8000f3c <LED12A1_ScanAvailDevice+0x24>
 8000f36:	702c      	strb	r4, [r5, #0]
 8000f38:	3601      	adds	r6, #1
 8000f3a:	3501      	adds	r5, #1
 8000f3c:	3401      	adds	r4, #1
 8000f3e:	b2e4      	uxtb	r4, r4
 8000f40:	2c61      	cmp	r4, #97	; 0x61
 8000f42:	d1ee      	bne.n	8000f22 <LED12A1_ScanAvailDevice+0xa>
 8000f44:	0030      	movs	r0, r6
 8000f46:	bdfe      	pop	{r1, r2, r3, r4, r5, r6, r7, pc}

08000f48 <LED12A1_AnalogDimming>:
 8000f48:	b573      	push	{r0, r1, r4, r5, r6, lr}
 8000f4a:	000e      	movs	r6, r1
 8000f4c:	0019      	movs	r1, r3
 8000f4e:	2300      	movs	r3, #0
 8000f50:	0004      	movs	r4, r0
 8000f52:	0015      	movs	r5, r2
 8000f54:	9301      	str	r3, [sp, #4]
 8000f56:	f7ff ffd3 	bl	8000f00 <LED12A1_SetDeviceAddr>
 8000f5a:	0031      	movs	r1, r6
 8000f5c:	9001      	str	r0, [sp, #4]
 8000f5e:	b2aa      	uxth	r2, r5
 8000f60:	0020      	movs	r0, r4
 8000f62:	7923      	ldrb	r3, [r4, #4]
 8000f64:	f7ff ff0c 	bl	8000d80 <LED1202_WriteLEDCurrentReg>
 8000f68:	9001      	str	r0, [sp, #4]
 8000f6a:	9801      	ldr	r0, [sp, #4]
 8000f6c:	bd76      	pop	{r1, r2, r4, r5, r6, pc}

08000f6e <LED12A1_DigitalDimming>:
 8000f6e:	b5f0      	push	{r4, r5, r6, r7, lr}
 8000f70:	b085      	sub	sp, #20
 8000f72:	001f      	movs	r7, r3
 8000f74:	ab0a      	add	r3, sp, #40	; 0x28
 8000f76:	000d      	movs	r5, r1
 8000f78:	7819      	ldrb	r1, [r3, #0]
 8000f7a:	2300      	movs	r3, #0
 8000f7c:	0004      	movs	r4, r0
 8000f7e:	0016      	movs	r6, r2
 8000f80:	9303      	str	r3, [sp, #12]
 8000f82:	f7ff ffbd 	bl	8000f00 <LED12A1_SetDeviceAddr>
 8000f86:	7923      	ldrb	r3, [r4, #4]
 8000f88:	9003      	str	r0, [sp, #12]
 8000f8a:	9300      	str	r3, [sp, #0]
 8000f8c:	0032      	movs	r2, r6
 8000f8e:	003b      	movs	r3, r7
 8000f90:	0029      	movs	r1, r5
 8000f92:	0020      	movs	r0, r4
 8000f94:	f7ff ff0c 	bl	8000db0 <LED1202_WritePatternPWMConfig>
 8000f98:	9003      	str	r0, [sp, #12]
 8000f9a:	9803      	ldr	r0, [sp, #12]
 8000f9c:	b005      	add	sp, #20
 8000f9e:	bdf0      	pop	{r4, r5, r6, r7, pc}

08000fa0 <LED12A1_ChannelEnable>:
 8000fa0:	b573      	push	{r0, r1, r4, r5, r6, lr}
 8000fa2:	2600      	movs	r6, #0
 8000fa4:	000d      	movs	r5, r1
 8000fa6:	0011      	movs	r1, r2
 8000fa8:	0004      	movs	r4, r0
 8000faa:	9601      	str	r6, [sp, #4]
 8000fac:	f7ff ffa8 	bl	8000f00 <LED12A1_SetDeviceAddr>
 8000fb0:	0032      	movs	r2, r6
 8000fb2:	0029      	movs	r1, r5
 8000fb4:	9001      	str	r0, [sp, #4]
 8000fb6:	7923      	ldrb	r3, [r4, #4]
 8000fb8:	0020      	movs	r0, r4
 8000fba:	f7ff fec1 	bl	8000d40 <LED1202_SetChannelState>
 8000fbe:	9001      	str	r0, [sp, #4]
 8000fc0:	9801      	ldr	r0, [sp, #4]
 8000fc2:	bd76      	pop	{r1, r2, r4, r5, r6, pc}

08000fc4 <LED12A1_ChannelDisable>:
 8000fc4:	2300      	movs	r3, #0
 8000fc6:	b537      	push	{r0, r1, r2, r4, r5, lr}
 8000fc8:	000d      	movs	r5, r1
 8000fca:	0011      	movs	r1, r2
 8000fcc:	0004      	movs	r4, r0
 8000fce:	9301      	str	r3, [sp, #4]
 8000fd0:	f7ff ff96 	bl	8000f00 <LED12A1_SetDeviceAddr>
 8000fd4:	0029      	movs	r1, r5
 8000fd6:	9001      	str	r0, [sp, #4]
 8000fd8:	2201      	movs	r2, #1
 8000fda:	0020      	movs	r0, r4
 8000fdc:	7923      	ldrb	r3, [r4, #4]
 8000fde:	f7ff feaf 	bl	8000d40 <LED1202_SetChannelState>
 8000fe2:	9001      	str	r0, [sp, #4]
 8000fe4:	9801      	ldr	r0, [sp, #4]
 8000fe6:	bd3e      	pop	{r1, r2, r3, r4, r5, pc}

08000fe8 <HAL_InitTick>:
 8000fe8:	b570      	push	{r4, r5, r6, lr}
 8000fea:	4b10      	ldr	r3, [pc, #64]	; (800102c <HAL_InitTick+0x44>)
 8000fec:	0005      	movs	r5, r0
 8000fee:	7819      	ldrb	r1, [r3, #0]
 8000ff0:	2900      	cmp	r1, #0
 8000ff2:	d101      	bne.n	8000ff8 <HAL_InitTick+0x10>
 8000ff4:	2001      	movs	r0, #1
 8000ff6:	bd70      	pop	{r4, r5, r6, pc}
 8000ff8:	20fa      	movs	r0, #250	; 0xfa
 8000ffa:	0080      	lsls	r0, r0, #2
 8000ffc:	f7ff f896 	bl	800012c <__udivsi3>
 8001000:	4b0b      	ldr	r3, [pc, #44]	; (8001030 <HAL_InitTick+0x48>)
 8001002:	0001      	movs	r1, r0
 8001004:	6818      	ldr	r0, [r3, #0]
 8001006:	f7ff f891 	bl	800012c <__udivsi3>
 800100a:	f000 f877 	bl	80010fc <HAL_SYSTICK_Config>
 800100e:	1e04      	subs	r4, r0, #0
 8001010:	d1f0      	bne.n	8000ff4 <HAL_InitTick+0xc>
 8001012:	2d03      	cmp	r5, #3
 8001014:	d8ee      	bhi.n	8000ff4 <HAL_InitTick+0xc>
 8001016:	0002      	movs	r2, r0
 8001018:	2001      	movs	r0, #1
 800101a:	0029      	movs	r1, r5
 800101c:	4240      	negs	r0, r0
 800101e:	f000 f843 	bl	80010a8 <HAL_NVIC_SetPriority>
 8001022:	4b04      	ldr	r3, [pc, #16]	; (8001034 <HAL_InitTick+0x4c>)
 8001024:	0020      	movs	r0, r4
 8001026:	601d      	str	r5, [r3, #0]
 8001028:	e7e5      	b.n	8000ff6 <HAL_InitTick+0xe>
 800102a:	46c0      	nop			; (mov r8, r8)
 800102c:	20000004 	.word	0x20000004
 8001030:	20000000 	.word	0x20000000
 8001034:	20000008 	.word	0x20000008

08001038 <HAL_Init>:
 8001038:	2380      	movs	r3, #128	; 0x80
 800103a:	4a08      	ldr	r2, [pc, #32]	; (800105c <HAL_Init+0x24>)
 800103c:	005b      	lsls	r3, r3, #1
 800103e:	6811      	ldr	r1, [r2, #0]
 8001040:	b510      	push	{r4, lr}
 8001042:	430b      	orrs	r3, r1
 8001044:	2000      	movs	r0, #0
 8001046:	6013      	str	r3, [r2, #0]
 8001048:	f7ff ffce 	bl	8000fe8 <HAL_InitTick>
 800104c:	1e04      	subs	r4, r0, #0
 800104e:	d103      	bne.n	8001058 <HAL_Init+0x20>
 8001050:	f7ff fd32 	bl	8000ab8 <HAL_MspInit>
 8001054:	0020      	movs	r0, r4
 8001056:	bd10      	pop	{r4, pc}
 8001058:	2401      	movs	r4, #1
 800105a:	e7fb      	b.n	8001054 <HAL_Init+0x1c>
 800105c:	40022000 	.word	0x40022000

08001060 <HAL_IncTick>:
 8001060:	4a03      	ldr	r2, [pc, #12]	; (8001070 <HAL_IncTick+0x10>)
 8001062:	4b04      	ldr	r3, [pc, #16]	; (8001074 <HAL_IncTick+0x14>)
 8001064:	6811      	ldr	r1, [r2, #0]
 8001066:	781b      	ldrb	r3, [r3, #0]
 8001068:	185b      	adds	r3, r3, r1
 800106a:	6013      	str	r3, [r2, #0]
 800106c:	4770      	bx	lr
 800106e:	46c0      	nop			; (mov r8, r8)
 8001070:	20000264 	.word	0x20000264
 8001074:	20000004 	.word	0x20000004

08001078 <HAL_GetTick>:
 8001078:	4b01      	ldr	r3, [pc, #4]	; (8001080 <HAL_GetTick+0x8>)
 800107a:	6818      	ldr	r0, [r3, #0]
 800107c:	4770      	bx	lr
 800107e:	46c0      	nop			; (mov r8, r8)
 8001080:	20000264 	.word	0x20000264

08001084 <HAL_Delay>:
 8001084:	b570      	push	{r4, r5, r6, lr}
 8001086:	0004      	movs	r4, r0
 8001088:	f7ff fff6 	bl	8001078 <HAL_GetTick>
 800108c:	0005      	movs	r5, r0
 800108e:	1c63      	adds	r3, r4, #1
 8001090:	d002      	beq.n	8001098 <HAL_Delay+0x14>
 8001092:	4b04      	ldr	r3, [pc, #16]	; (80010a4 <HAL_Delay+0x20>)
 8001094:	781b      	ldrb	r3, [r3, #0]
 8001096:	18e4      	adds	r4, r4, r3
 8001098:	f7ff ffee 	bl	8001078 <HAL_GetTick>
 800109c:	1b40      	subs	r0, r0, r5
 800109e:	42a0      	cmp	r0, r4
 80010a0:	d3fa      	bcc.n	8001098 <HAL_Delay+0x14>
 80010a2:	bd70      	pop	{r4, r5, r6, pc}
 80010a4:	20000004 	.word	0x20000004

080010a8 <HAL_NVIC_SetPriority>:
 80010a8:	b530      	push	{r4, r5, lr}
 80010aa:	25ff      	movs	r5, #255	; 0xff
 80010ac:	2403      	movs	r4, #3
 80010ae:	002a      	movs	r2, r5
 80010b0:	4004      	ands	r4, r0
 80010b2:	00e4      	lsls	r4, r4, #3
 80010b4:	40a2      	lsls	r2, r4
 80010b6:	0189      	lsls	r1, r1, #6
 80010b8:	4029      	ands	r1, r5
 80010ba:	43d2      	mvns	r2, r2
 80010bc:	40a1      	lsls	r1, r4
 80010be:	b2c3      	uxtb	r3, r0
 80010c0:	2800      	cmp	r0, #0
 80010c2:	db0a      	blt.n	80010da <HAL_NVIC_SetPriority+0x32>
 80010c4:	24c0      	movs	r4, #192	; 0xc0
 80010c6:	4b0b      	ldr	r3, [pc, #44]	; (80010f4 <HAL_NVIC_SetPriority+0x4c>)
 80010c8:	0880      	lsrs	r0, r0, #2
 80010ca:	0080      	lsls	r0, r0, #2
 80010cc:	18c0      	adds	r0, r0, r3
 80010ce:	00a4      	lsls	r4, r4, #2
 80010d0:	5903      	ldr	r3, [r0, r4]
 80010d2:	401a      	ands	r2, r3
 80010d4:	4311      	orrs	r1, r2
 80010d6:	5101      	str	r1, [r0, r4]
 80010d8:	bd30      	pop	{r4, r5, pc}
 80010da:	200f      	movs	r0, #15
 80010dc:	4003      	ands	r3, r0
 80010de:	3b08      	subs	r3, #8
 80010e0:	4805      	ldr	r0, [pc, #20]	; (80010f8 <HAL_NVIC_SetPriority+0x50>)
 80010e2:	089b      	lsrs	r3, r3, #2
 80010e4:	009b      	lsls	r3, r3, #2
 80010e6:	181b      	adds	r3, r3, r0
 80010e8:	69d8      	ldr	r0, [r3, #28]
 80010ea:	4002      	ands	r2, r0
 80010ec:	4311      	orrs	r1, r2
 80010ee:	61d9      	str	r1, [r3, #28]
 80010f0:	e7f2      	b.n	80010d8 <HAL_NVIC_SetPriority+0x30>
 80010f2:	46c0      	nop			; (mov r8, r8)
 80010f4:	e000e100 	.word	0xe000e100
 80010f8:	e000ed00 	.word	0xe000ed00

080010fc <HAL_SYSTICK_Config>:
 80010fc:	2280      	movs	r2, #128	; 0x80
 80010fe:	1e43      	subs	r3, r0, #1
 8001100:	0452      	lsls	r2, r2, #17
 8001102:	2001      	movs	r0, #1
 8001104:	4293      	cmp	r3, r2
 8001106:	d20d      	bcs.n	8001124 <HAL_SYSTICK_Config+0x28>
 8001108:	21c0      	movs	r1, #192	; 0xc0
 800110a:	4a07      	ldr	r2, [pc, #28]	; (8001128 <HAL_SYSTICK_Config+0x2c>)
 800110c:	4807      	ldr	r0, [pc, #28]	; (800112c <HAL_SYSTICK_Config+0x30>)
 800110e:	6053      	str	r3, [r2, #4]
 8001110:	6a03      	ldr	r3, [r0, #32]
 8001112:	0609      	lsls	r1, r1, #24
 8001114:	021b      	lsls	r3, r3, #8
 8001116:	0a1b      	lsrs	r3, r3, #8
 8001118:	430b      	orrs	r3, r1
 800111a:	6203      	str	r3, [r0, #32]
 800111c:	2000      	movs	r0, #0
 800111e:	2307      	movs	r3, #7
 8001120:	6090      	str	r0, [r2, #8]
 8001122:	6013      	str	r3, [r2, #0]
 8001124:	4770      	bx	lr
 8001126:	46c0      	nop			; (mov r8, r8)
 8001128:	e000e010 	.word	0xe000e010
 800112c:	e000ed00 	.word	0xe000ed00

08001130 <HAL_GPIO_Init>:
 8001130:	4a54      	ldr	r2, [pc, #336]	; (8001284 <HAL_GPIO_Init+0x154>)
 8001132:	b5f0      	push	{r4, r5, r6, r7, lr}
 8001134:	1882      	adds	r2, r0, r2
 8001136:	1e54      	subs	r4, r2, #1
 8001138:	41a2      	sbcs	r2, r4
 800113a:	2300      	movs	r3, #0
 800113c:	b087      	sub	sp, #28
 800113e:	3204      	adds	r2, #4
 8001140:	9205      	str	r2, [sp, #20]
 8001142:	680a      	ldr	r2, [r1, #0]
 8001144:	0014      	movs	r4, r2
 8001146:	40dc      	lsrs	r4, r3
 8001148:	d101      	bne.n	800114e <HAL_GPIO_Init+0x1e>
 800114a:	b007      	add	sp, #28
 800114c:	bdf0      	pop	{r4, r5, r6, r7, pc}
 800114e:	2401      	movs	r4, #1
 8001150:	0025      	movs	r5, r4
 8001152:	46a4      	mov	ip, r4
 8001154:	409d      	lsls	r5, r3
 8001156:	0014      	movs	r4, r2
 8001158:	402c      	ands	r4, r5
 800115a:	9402      	str	r4, [sp, #8]
 800115c:	422a      	tst	r2, r5
 800115e:	d100      	bne.n	8001162 <HAL_GPIO_Init+0x32>
 8001160:	e08e      	b.n	8001280 <HAL_GPIO_Init+0x150>
 8001162:	2403      	movs	r4, #3
 8001164:	684a      	ldr	r2, [r1, #4]
 8001166:	005e      	lsls	r6, r3, #1
 8001168:	9201      	str	r2, [sp, #4]
 800116a:	4022      	ands	r2, r4
 800116c:	40b4      	lsls	r4, r6
 800116e:	43e4      	mvns	r4, r4
 8001170:	9403      	str	r4, [sp, #12]
 8001172:	1e54      	subs	r4, r2, #1
 8001174:	4564      	cmp	r4, ip
 8001176:	d82a      	bhi.n	80011ce <HAL_GPIO_Init+0x9e>
 8001178:	6887      	ldr	r7, [r0, #8]
 800117a:	9c03      	ldr	r4, [sp, #12]
 800117c:	4027      	ands	r7, r4
 800117e:	68cc      	ldr	r4, [r1, #12]
 8001180:	40b4      	lsls	r4, r6
 8001182:	433c      	orrs	r4, r7
 8001184:	4667      	mov	r7, ip
 8001186:	6084      	str	r4, [r0, #8]
 8001188:	6844      	ldr	r4, [r0, #4]
 800118a:	43ac      	bics	r4, r5
 800118c:	0025      	movs	r5, r4
 800118e:	9c01      	ldr	r4, [sp, #4]
 8001190:	0924      	lsrs	r4, r4, #4
 8001192:	403c      	ands	r4, r7
 8001194:	409c      	lsls	r4, r3
 8001196:	432c      	orrs	r4, r5
 8001198:	6044      	str	r4, [r0, #4]
 800119a:	68c5      	ldr	r5, [r0, #12]
 800119c:	9c03      	ldr	r4, [sp, #12]
 800119e:	4025      	ands	r5, r4
 80011a0:	688c      	ldr	r4, [r1, #8]
 80011a2:	40b4      	lsls	r4, r6
 80011a4:	432c      	orrs	r4, r5
 80011a6:	60c4      	str	r4, [r0, #12]
 80011a8:	2a02      	cmp	r2, #2
 80011aa:	d112      	bne.n	80011d2 <HAL_GPIO_Init+0xa2>
 80011ac:	08dc      	lsrs	r4, r3, #3
 80011ae:	2507      	movs	r5, #7
 80011b0:	00a4      	lsls	r4, r4, #2
 80011b2:	1904      	adds	r4, r0, r4
 80011b4:	6a27      	ldr	r7, [r4, #32]
 80011b6:	9404      	str	r4, [sp, #16]
 80011b8:	240f      	movs	r4, #15
 80011ba:	401d      	ands	r5, r3
 80011bc:	00ad      	lsls	r5, r5, #2
 80011be:	40ac      	lsls	r4, r5
 80011c0:	43a7      	bics	r7, r4
 80011c2:	690c      	ldr	r4, [r1, #16]
 80011c4:	40ac      	lsls	r4, r5
 80011c6:	4327      	orrs	r7, r4
 80011c8:	9c04      	ldr	r4, [sp, #16]
 80011ca:	6227      	str	r7, [r4, #32]
 80011cc:	e001      	b.n	80011d2 <HAL_GPIO_Init+0xa2>
 80011ce:	2a03      	cmp	r2, #3
 80011d0:	d1e3      	bne.n	800119a <HAL_GPIO_Init+0x6a>
 80011d2:	40b2      	lsls	r2, r6
 80011d4:	6804      	ldr	r4, [r0, #0]
 80011d6:	9d03      	ldr	r5, [sp, #12]
 80011d8:	4025      	ands	r5, r4
 80011da:	432a      	orrs	r2, r5
 80011dc:	6002      	str	r2, [r0, #0]
 80011de:	22c0      	movs	r2, #192	; 0xc0
 80011e0:	9c01      	ldr	r4, [sp, #4]
 80011e2:	0292      	lsls	r2, r2, #10
 80011e4:	4214      	tst	r4, r2
 80011e6:	d04b      	beq.n	8001280 <HAL_GPIO_Init+0x150>
 80011e8:	2603      	movs	r6, #3
 80011ea:	001d      	movs	r5, r3
 80011ec:	4a26      	ldr	r2, [pc, #152]	; (8001288 <HAL_GPIO_Init+0x158>)
 80011ee:	089c      	lsrs	r4, r3, #2
 80011f0:	00a4      	lsls	r4, r4, #2
 80011f2:	4035      	ands	r5, r6
 80011f4:	18a4      	adds	r4, r4, r2
 80011f6:	40b5      	lsls	r5, r6
 80011f8:	220f      	movs	r2, #15
 80011fa:	40aa      	lsls	r2, r5
 80011fc:	6e27      	ldr	r7, [r4, #96]	; 0x60
 80011fe:	4397      	bics	r7, r2
 8001200:	46bc      	mov	ip, r7
 8001202:	27a0      	movs	r7, #160	; 0xa0
 8001204:	2200      	movs	r2, #0
 8001206:	05ff      	lsls	r7, r7, #23
 8001208:	42b8      	cmp	r0, r7
 800120a:	d00c      	beq.n	8001226 <HAL_GPIO_Init+0xf6>
 800120c:	4f1f      	ldr	r7, [pc, #124]	; (800128c <HAL_GPIO_Init+0x15c>)
 800120e:	3201      	adds	r2, #1
 8001210:	42b8      	cmp	r0, r7
 8001212:	d008      	beq.n	8001226 <HAL_GPIO_Init+0xf6>
 8001214:	4f1e      	ldr	r7, [pc, #120]	; (8001290 <HAL_GPIO_Init+0x160>)
 8001216:	3201      	adds	r2, #1
 8001218:	42b8      	cmp	r0, r7
 800121a:	d004      	beq.n	8001226 <HAL_GPIO_Init+0xf6>
 800121c:	4f1d      	ldr	r7, [pc, #116]	; (8001294 <HAL_GPIO_Init+0x164>)
 800121e:	0032      	movs	r2, r6
 8001220:	42b8      	cmp	r0, r7
 8001222:	d000      	beq.n	8001226 <HAL_GPIO_Init+0xf6>
 8001224:	9a05      	ldr	r2, [sp, #20]
 8001226:	40aa      	lsls	r2, r5
 8001228:	4665      	mov	r5, ip
 800122a:	432a      	orrs	r2, r5
 800122c:	6622      	str	r2, [r4, #96]	; 0x60
 800122e:	4c16      	ldr	r4, [pc, #88]	; (8001288 <HAL_GPIO_Init+0x158>)
 8001230:	9a02      	ldr	r2, [sp, #8]
 8001232:	6826      	ldr	r6, [r4, #0]
 8001234:	9d02      	ldr	r5, [sp, #8]
 8001236:	9f01      	ldr	r7, [sp, #4]
 8001238:	43d2      	mvns	r2, r2
 800123a:	4335      	orrs	r5, r6
 800123c:	02ff      	lsls	r7, r7, #11
 800123e:	d401      	bmi.n	8001244 <HAL_GPIO_Init+0x114>
 8001240:	0035      	movs	r5, r6
 8001242:	4015      	ands	r5, r2
 8001244:	6025      	str	r5, [r4, #0]
 8001246:	6866      	ldr	r6, [r4, #4]
 8001248:	9d02      	ldr	r5, [sp, #8]
 800124a:	9f01      	ldr	r7, [sp, #4]
 800124c:	4335      	orrs	r5, r6
 800124e:	02bf      	lsls	r7, r7, #10
 8001250:	d401      	bmi.n	8001256 <HAL_GPIO_Init+0x126>
 8001252:	0035      	movs	r5, r6
 8001254:	4015      	ands	r5, r2
 8001256:	6065      	str	r5, [r4, #4]
 8001258:	4c0f      	ldr	r4, [pc, #60]	; (8001298 <HAL_GPIO_Init+0x168>)
 800125a:	9d02      	ldr	r5, [sp, #8]
 800125c:	6fe6      	ldr	r6, [r4, #124]	; 0x7c
 800125e:	9f01      	ldr	r7, [sp, #4]
 8001260:	4335      	orrs	r5, r6
 8001262:	03bf      	lsls	r7, r7, #14
 8001264:	d401      	bmi.n	800126a <HAL_GPIO_Init+0x13a>
 8001266:	0035      	movs	r5, r6
 8001268:	4015      	ands	r5, r2
 800126a:	67e5      	str	r5, [r4, #124]	; 0x7c
 800126c:	4c0b      	ldr	r4, [pc, #44]	; (800129c <HAL_GPIO_Init+0x16c>)
 800126e:	9e02      	ldr	r6, [sp, #8]
 8001270:	6fe5      	ldr	r5, [r4, #124]	; 0x7c
 8001272:	9f01      	ldr	r7, [sp, #4]
 8001274:	432e      	orrs	r6, r5
 8001276:	03ff      	lsls	r7, r7, #15
 8001278:	d401      	bmi.n	800127e <HAL_GPIO_Init+0x14e>
 800127a:	4015      	ands	r5, r2
 800127c:	002e      	movs	r6, r5
 800127e:	67e6      	str	r6, [r4, #124]	; 0x7c
 8001280:	3301      	adds	r3, #1
 8001282:	e75e      	b.n	8001142 <HAL_GPIO_Init+0x12>
 8001284:	affff000 	.word	0xaffff000
 8001288:	40021800 	.word	0x40021800
 800128c:	50000400 	.word	0x50000400
 8001290:	50000800 	.word	0x50000800
 8001294:	50000c00 	.word	0x50000c00
 8001298:	40021808 	.word	0x40021808
 800129c:	40021804 	.word	0x40021804

080012a0 <HAL_GPIO_DeInit>:
 80012a0:	b5f0      	push	{r4, r5, r6, r7, lr}
 80012a2:	4a37      	ldr	r2, [pc, #220]	; (8001380 <HAL_GPIO_DeInit+0xe0>)
 80012a4:	b085      	sub	sp, #20
 80012a6:	1882      	adds	r2, r0, r2
 80012a8:	9101      	str	r1, [sp, #4]
 80012aa:	1e51      	subs	r1, r2, #1
 80012ac:	418a      	sbcs	r2, r1
 80012ae:	2300      	movs	r3, #0
 80012b0:	3204      	adds	r2, #4
 80012b2:	9203      	str	r2, [sp, #12]
 80012b4:	9a01      	ldr	r2, [sp, #4]
 80012b6:	40da      	lsrs	r2, r3
 80012b8:	d101      	bne.n	80012be <HAL_GPIO_DeInit+0x1e>
 80012ba:	b005      	add	sp, #20
 80012bc:	bdf0      	pop	{r4, r5, r6, r7, pc}
 80012be:	2701      	movs	r7, #1
 80012c0:	003a      	movs	r2, r7
 80012c2:	409a      	lsls	r2, r3
 80012c4:	9c01      	ldr	r4, [sp, #4]
 80012c6:	9200      	str	r2, [sp, #0]
 80012c8:	4014      	ands	r4, r2
 80012ca:	9900      	ldr	r1, [sp, #0]
 80012cc:	9a01      	ldr	r2, [sp, #4]
 80012ce:	420a      	tst	r2, r1
 80012d0:	d053      	beq.n	800137a <HAL_GPIO_DeInit+0xda>
 80012d2:	492c      	ldr	r1, [pc, #176]	; (8001384 <HAL_GPIO_DeInit+0xe4>)
 80012d4:	089a      	lsrs	r2, r3, #2
 80012d6:	0092      	lsls	r2, r2, #2
 80012d8:	1852      	adds	r2, r2, r1
 80012da:	6e11      	ldr	r1, [r2, #96]	; 0x60
 80012dc:	001d      	movs	r5, r3
 80012de:	000e      	movs	r6, r1
 80012e0:	2103      	movs	r1, #3
 80012e2:	400d      	ands	r5, r1
 80012e4:	408d      	lsls	r5, r1
 80012e6:	310c      	adds	r1, #12
 80012e8:	40a9      	lsls	r1, r5
 80012ea:	9102      	str	r1, [sp, #8]
 80012ec:	4031      	ands	r1, r6
 80012ee:	000e      	movs	r6, r1
 80012f0:	21a0      	movs	r1, #160	; 0xa0
 80012f2:	05c9      	lsls	r1, r1, #23
 80012f4:	468c      	mov	ip, r1
 80012f6:	2100      	movs	r1, #0
 80012f8:	4560      	cmp	r0, ip
 80012fa:	d00d      	beq.n	8001318 <HAL_GPIO_DeInit+0x78>
 80012fc:	4922      	ldr	r1, [pc, #136]	; (8001388 <HAL_GPIO_DeInit+0xe8>)
 80012fe:	468c      	mov	ip, r1
 8001300:	0039      	movs	r1, r7
 8001302:	4560      	cmp	r0, ip
 8001304:	d008      	beq.n	8001318 <HAL_GPIO_DeInit+0x78>
 8001306:	4f21      	ldr	r7, [pc, #132]	; (800138c <HAL_GPIO_DeInit+0xec>)
 8001308:	1849      	adds	r1, r1, r1
 800130a:	42b8      	cmp	r0, r7
 800130c:	d004      	beq.n	8001318 <HAL_GPIO_DeInit+0x78>
 800130e:	4f20      	ldr	r7, [pc, #128]	; (8001390 <HAL_GPIO_DeInit+0xf0>)
 8001310:	3101      	adds	r1, #1
 8001312:	42b8      	cmp	r0, r7
 8001314:	d000      	beq.n	8001318 <HAL_GPIO_DeInit+0x78>
 8001316:	9903      	ldr	r1, [sp, #12]
 8001318:	40a9      	lsls	r1, r5
 800131a:	42b1      	cmp	r1, r6
 800131c:	d112      	bne.n	8001344 <HAL_GPIO_DeInit+0xa4>
 800131e:	4e1d      	ldr	r6, [pc, #116]	; (8001394 <HAL_GPIO_DeInit+0xf4>)
 8001320:	4918      	ldr	r1, [pc, #96]	; (8001384 <HAL_GPIO_DeInit+0xe4>)
 8001322:	6ff5      	ldr	r5, [r6, #124]	; 0x7c
 8001324:	43a5      	bics	r5, r4
 8001326:	67f5      	str	r5, [r6, #124]	; 0x7c
 8001328:	4e1b      	ldr	r6, [pc, #108]	; (8001398 <HAL_GPIO_DeInit+0xf8>)
 800132a:	6ff5      	ldr	r5, [r6, #124]	; 0x7c
 800132c:	43a5      	bics	r5, r4
 800132e:	67f5      	str	r5, [r6, #124]	; 0x7c
 8001330:	684d      	ldr	r5, [r1, #4]
 8001332:	43a5      	bics	r5, r4
 8001334:	604d      	str	r5, [r1, #4]
 8001336:	680d      	ldr	r5, [r1, #0]
 8001338:	43a5      	bics	r5, r4
 800133a:	600d      	str	r5, [r1, #0]
 800133c:	6e11      	ldr	r1, [r2, #96]	; 0x60
 800133e:	9c02      	ldr	r4, [sp, #8]
 8001340:	43a1      	bics	r1, r4
 8001342:	6611      	str	r1, [r2, #96]	; 0x60
 8001344:	2103      	movs	r1, #3
 8001346:	005c      	lsls	r4, r3, #1
 8001348:	40a1      	lsls	r1, r4
 800134a:	2407      	movs	r4, #7
 800134c:	260f      	movs	r6, #15
 800134e:	401c      	ands	r4, r3
 8001350:	00a4      	lsls	r4, r4, #2
 8001352:	40a6      	lsls	r6, r4
 8001354:	6802      	ldr	r2, [r0, #0]
 8001356:	9c00      	ldr	r4, [sp, #0]
 8001358:	430a      	orrs	r2, r1
 800135a:	6002      	str	r2, [r0, #0]
 800135c:	08da      	lsrs	r2, r3, #3
 800135e:	0092      	lsls	r2, r2, #2
 8001360:	1882      	adds	r2, r0, r2
 8001362:	6a15      	ldr	r5, [r2, #32]
 8001364:	43b5      	bics	r5, r6
 8001366:	6215      	str	r5, [r2, #32]
 8001368:	6882      	ldr	r2, [r0, #8]
 800136a:	438a      	bics	r2, r1
 800136c:	6082      	str	r2, [r0, #8]
 800136e:	6842      	ldr	r2, [r0, #4]
 8001370:	43a2      	bics	r2, r4
 8001372:	6042      	str	r2, [r0, #4]
 8001374:	68c2      	ldr	r2, [r0, #12]
 8001376:	438a      	bics	r2, r1
 8001378:	60c2      	str	r2, [r0, #12]
 800137a:	3301      	adds	r3, #1
 800137c:	e79a      	b.n	80012b4 <HAL_GPIO_DeInit+0x14>
 800137e:	46c0      	nop			; (mov r8, r8)
 8001380:	affff000 	.word	0xaffff000
 8001384:	40021800 	.word	0x40021800
 8001388:	50000400 	.word	0x50000400
 800138c:	50000800 	.word	0x50000800
 8001390:	50000c00 	.word	0x50000c00
 8001394:	40021804 	.word	0x40021804
 8001398:	40021808 	.word	0x40021808

0800139c <HAL_GPIO_WritePin>:
 800139c:	2a00      	cmp	r2, #0
 800139e:	d001      	beq.n	80013a4 <HAL_GPIO_WritePin+0x8>
 80013a0:	6181      	str	r1, [r0, #24]
 80013a2:	4770      	bx	lr
 80013a4:	6281      	str	r1, [r0, #40]	; 0x28
 80013a6:	e7fc      	b.n	80013a2 <HAL_GPIO_WritePin+0x6>

080013a8 <I2C_Flush_TXDR>:
 80013a8:	6803      	ldr	r3, [r0, #0]
 80013aa:	699a      	ldr	r2, [r3, #24]
 80013ac:	0792      	lsls	r2, r2, #30
 80013ae:	d501      	bpl.n	80013b4 <I2C_Flush_TXDR+0xc>
 80013b0:	2200      	movs	r2, #0
 80013b2:	629a      	str	r2, [r3, #40]	; 0x28
 80013b4:	2201      	movs	r2, #1
 80013b6:	6999      	ldr	r1, [r3, #24]
 80013b8:	4211      	tst	r1, r2
 80013ba:	d102      	bne.n	80013c2 <I2C_Flush_TXDR+0x1a>
 80013bc:	6999      	ldr	r1, [r3, #24]
 80013be:	430a      	orrs	r2, r1
 80013c0:	619a      	str	r2, [r3, #24]
 80013c2:	4770      	bx	lr

080013c4 <I2C_TransferConfig>:
 80013c4:	b530      	push	{r4, r5, lr}
 80013c6:	9c03      	ldr	r4, [sp, #12]
 80013c8:	6800      	ldr	r0, [r0, #0]
 80013ca:	4323      	orrs	r3, r4
 80013cc:	0412      	lsls	r2, r2, #16
 80013ce:	0589      	lsls	r1, r1, #22
 80013d0:	431a      	orrs	r2, r3
 80013d2:	0d89      	lsrs	r1, r1, #22
 80013d4:	4b05      	ldr	r3, [pc, #20]	; (80013ec <I2C_TransferConfig+0x28>)
 80013d6:	6845      	ldr	r5, [r0, #4]
 80013d8:	430a      	orrs	r2, r1
 80013da:	0d64      	lsrs	r4, r4, #21
 80013dc:	431c      	orrs	r4, r3
 80013de:	0052      	lsls	r2, r2, #1
 80013e0:	43a5      	bics	r5, r4
 80013e2:	0852      	lsrs	r2, r2, #1
 80013e4:	432a      	orrs	r2, r5
 80013e6:	6042      	str	r2, [r0, #4]
 80013e8:	bd30      	pop	{r4, r5, pc}
 80013ea:	46c0      	nop			; (mov r8, r8)
 80013ec:	03ff63ff 	.word	0x03ff63ff

080013f0 <I2C_IsErrorOccurred>:
 80013f0:	b5f7      	push	{r0, r1, r2, r4, r5, r6, r7, lr}
 80013f2:	0015      	movs	r5, r2
 80013f4:	6802      	ldr	r2, [r0, #0]
 80013f6:	000e      	movs	r6, r1
 80013f8:	6991      	ldr	r1, [r2, #24]
 80013fa:	2310      	movs	r3, #16
 80013fc:	000f      	movs	r7, r1
 80013fe:	0004      	movs	r4, r0
 8001400:	401f      	ands	r7, r3
 8001402:	2000      	movs	r0, #0
 8001404:	4219      	tst	r1, r3
 8001406:	d00e      	beq.n	8001426 <I2C_IsErrorOccurred+0x36>
 8001408:	2720      	movs	r7, #32
 800140a:	61d3      	str	r3, [r2, #28]
 800140c:	9000      	str	r0, [sp, #0]
 800140e:	9001      	str	r0, [sp, #4]
 8001410:	6823      	ldr	r3, [r4, #0]
 8001412:	699a      	ldr	r2, [r3, #24]
 8001414:	423a      	tst	r2, r7
 8001416:	d164      	bne.n	80014e2 <I2C_IsErrorOccurred+0xf2>
 8001418:	9a01      	ldr	r2, [sp, #4]
 800141a:	2a00      	cmp	r2, #0
 800141c:	d032      	beq.n	8001484 <I2C_IsErrorOccurred+0x94>
 800141e:	2704      	movs	r7, #4
 8001420:	2001      	movs	r0, #1
 8001422:	9b00      	ldr	r3, [sp, #0]
 8001424:	431f      	orrs	r7, r3
 8001426:	2180      	movs	r1, #128	; 0x80
 8001428:	6823      	ldr	r3, [r4, #0]
 800142a:	0049      	lsls	r1, r1, #1
 800142c:	699a      	ldr	r2, [r3, #24]
 800142e:	420a      	tst	r2, r1
 8001430:	d002      	beq.n	8001438 <I2C_IsErrorOccurred+0x48>
 8001432:	2001      	movs	r0, #1
 8001434:	61d9      	str	r1, [r3, #28]
 8001436:	4307      	orrs	r7, r0
 8001438:	2180      	movs	r1, #128	; 0x80
 800143a:	00c9      	lsls	r1, r1, #3
 800143c:	420a      	tst	r2, r1
 800143e:	d003      	beq.n	8001448 <I2C_IsErrorOccurred+0x58>
 8001440:	2008      	movs	r0, #8
 8001442:	61d9      	str	r1, [r3, #28]
 8001444:	4307      	orrs	r7, r0
 8001446:	3807      	subs	r0, #7
 8001448:	2180      	movs	r1, #128	; 0x80
 800144a:	0089      	lsls	r1, r1, #2
 800144c:	420a      	tst	r2, r1
 800144e:	d04d      	beq.n	80014ec <I2C_IsErrorOccurred+0xfc>
 8001450:	2202      	movs	r2, #2
 8001452:	61d9      	str	r1, [r3, #28]
 8001454:	4317      	orrs	r7, r2
 8001456:	0020      	movs	r0, r4
 8001458:	f7ff ffa6 	bl	80013a8 <I2C_Flush_TXDR>
 800145c:	6822      	ldr	r2, [r4, #0]
 800145e:	4925      	ldr	r1, [pc, #148]	; (80014f4 <I2C_IsErrorOccurred+0x104>)
 8001460:	6853      	ldr	r3, [r2, #4]
 8001462:	400b      	ands	r3, r1
 8001464:	6053      	str	r3, [r2, #4]
 8001466:	0023      	movs	r3, r4
 8001468:	2220      	movs	r2, #32
 800146a:	6c60      	ldr	r0, [r4, #68]	; 0x44
 800146c:	3341      	adds	r3, #65	; 0x41
 800146e:	4307      	orrs	r7, r0
 8001470:	6467      	str	r7, [r4, #68]	; 0x44
 8001472:	701a      	strb	r2, [r3, #0]
 8001474:	0022      	movs	r2, r4
 8001476:	2300      	movs	r3, #0
 8001478:	3242      	adds	r2, #66	; 0x42
 800147a:	3440      	adds	r4, #64	; 0x40
 800147c:	7013      	strb	r3, [r2, #0]
 800147e:	2001      	movs	r0, #1
 8001480:	7023      	strb	r3, [r4, #0]
 8001482:	e035      	b.n	80014f0 <I2C_IsErrorOccurred+0x100>
 8001484:	1c72      	adds	r2, r6, #1
 8001486:	d0c4      	beq.n	8001412 <I2C_IsErrorOccurred+0x22>
 8001488:	f7ff fdf6 	bl	8001078 <HAL_GetTick>
 800148c:	1b40      	subs	r0, r0, r5
 800148e:	42b0      	cmp	r0, r6
 8001490:	d801      	bhi.n	8001496 <I2C_IsErrorOccurred+0xa6>
 8001492:	2e00      	cmp	r6, #0
 8001494:	d1bc      	bne.n	8001410 <I2C_IsErrorOccurred+0x20>
 8001496:	0022      	movs	r2, r4
 8001498:	6823      	ldr	r3, [r4, #0]
 800149a:	3242      	adds	r2, #66	; 0x42
 800149c:	6858      	ldr	r0, [r3, #4]
 800149e:	7811      	ldrb	r1, [r2, #0]
 80014a0:	b2ca      	uxtb	r2, r1
 80014a2:	2180      	movs	r1, #128	; 0x80
 80014a4:	4694      	mov	ip, r2
 80014a6:	699a      	ldr	r2, [r3, #24]
 80014a8:	0209      	lsls	r1, r1, #8
 80014aa:	420a      	tst	r2, r1
 80014ac:	d00c      	beq.n	80014c8 <I2C_IsErrorOccurred+0xd8>
 80014ae:	2280      	movs	r2, #128	; 0x80
 80014b0:	01d2      	lsls	r2, r2, #7
 80014b2:	4210      	tst	r0, r2
 80014b4:	d108      	bne.n	80014c8 <I2C_IsErrorOccurred+0xd8>
 80014b6:	4661      	mov	r1, ip
 80014b8:	2920      	cmp	r1, #32
 80014ba:	d005      	beq.n	80014c8 <I2C_IsErrorOccurred+0xd8>
 80014bc:	6859      	ldr	r1, [r3, #4]
 80014be:	430a      	orrs	r2, r1
 80014c0:	605a      	str	r2, [r3, #4]
 80014c2:	f7ff fdd9 	bl	8001078 <HAL_GetTick>
 80014c6:	0005      	movs	r5, r0
 80014c8:	6823      	ldr	r3, [r4, #0]
 80014ca:	699b      	ldr	r3, [r3, #24]
 80014cc:	423b      	tst	r3, r7
 80014ce:	d19f      	bne.n	8001410 <I2C_IsErrorOccurred+0x20>
 80014d0:	f7ff fdd2 	bl	8001078 <HAL_GetTick>
 80014d4:	1b40      	subs	r0, r0, r5
 80014d6:	2819      	cmp	r0, #25
 80014d8:	d9f6      	bls.n	80014c8 <I2C_IsErrorOccurred+0xd8>
 80014da:	2301      	movs	r3, #1
 80014dc:	9700      	str	r7, [sp, #0]
 80014de:	9301      	str	r3, [sp, #4]
 80014e0:	e796      	b.n	8001410 <I2C_IsErrorOccurred+0x20>
 80014e2:	9a01      	ldr	r2, [sp, #4]
 80014e4:	2a00      	cmp	r2, #0
 80014e6:	d19a      	bne.n	800141e <I2C_IsErrorOccurred+0x2e>
 80014e8:	61df      	str	r7, [r3, #28]
 80014ea:	e798      	b.n	800141e <I2C_IsErrorOccurred+0x2e>
 80014ec:	2800      	cmp	r0, #0
 80014ee:	d1b2      	bne.n	8001456 <I2C_IsErrorOccurred+0x66>
 80014f0:	bdfe      	pop	{r1, r2, r3, r4, r5, r6, r7, pc}
 80014f2:	46c0      	nop			; (mov r8, r8)
 80014f4:	fe00e800 	.word	0xfe00e800

080014f8 <I2C_WaitOnTXISFlagUntilTimeout>:
 80014f8:	b5f8      	push	{r3, r4, r5, r6, r7, lr}
 80014fa:	0004      	movs	r4, r0
 80014fc:	000d      	movs	r5, r1
 80014fe:	0016      	movs	r6, r2
 8001500:	2702      	movs	r7, #2
 8001502:	6823      	ldr	r3, [r4, #0]
 8001504:	699b      	ldr	r3, [r3, #24]
 8001506:	423b      	tst	r3, r7
 8001508:	d001      	beq.n	800150e <I2C_WaitOnTXISFlagUntilTimeout+0x16>
 800150a:	2000      	movs	r0, #0
 800150c:	bdf8      	pop	{r3, r4, r5, r6, r7, pc}
 800150e:	0032      	movs	r2, r6
 8001510:	0029      	movs	r1, r5
 8001512:	0020      	movs	r0, r4
 8001514:	f7ff ff6c 	bl	80013f0 <I2C_IsErrorOccurred>
 8001518:	2800      	cmp	r0, #0
 800151a:	d115      	bne.n	8001548 <I2C_WaitOnTXISFlagUntilTimeout+0x50>
 800151c:	1c6b      	adds	r3, r5, #1
 800151e:	d0f0      	beq.n	8001502 <I2C_WaitOnTXISFlagUntilTimeout+0xa>
 8001520:	f7ff fdaa 	bl	8001078 <HAL_GetTick>
 8001524:	1b80      	subs	r0, r0, r6
 8001526:	42a8      	cmp	r0, r5
 8001528:	d801      	bhi.n	800152e <I2C_WaitOnTXISFlagUntilTimeout+0x36>
 800152a:	2d00      	cmp	r5, #0
 800152c:	d1e9      	bne.n	8001502 <I2C_WaitOnTXISFlagUntilTimeout+0xa>
 800152e:	2220      	movs	r2, #32
 8001530:	6c63      	ldr	r3, [r4, #68]	; 0x44
 8001532:	4313      	orrs	r3, r2
 8001534:	6463      	str	r3, [r4, #68]	; 0x44
 8001536:	0023      	movs	r3, r4
 8001538:	3341      	adds	r3, #65	; 0x41
 800153a:	701a      	strb	r2, [r3, #0]
 800153c:	0022      	movs	r2, r4
 800153e:	2300      	movs	r3, #0
 8001540:	3242      	adds	r2, #66	; 0x42
 8001542:	3440      	adds	r4, #64	; 0x40
 8001544:	7013      	strb	r3, [r2, #0]
 8001546:	7023      	strb	r3, [r4, #0]
 8001548:	2001      	movs	r0, #1
 800154a:	e7df      	b.n	800150c <I2C_WaitOnTXISFlagUntilTimeout+0x14>

0800154c <I2C_WaitOnFlagUntilTimeout>:
 800154c:	b5f8      	push	{r3, r4, r5, r6, r7, lr}
 800154e:	0004      	movs	r4, r0
 8001550:	000e      	movs	r6, r1
 8001552:	0017      	movs	r7, r2
 8001554:	001d      	movs	r5, r3
 8001556:	6822      	ldr	r2, [r4, #0]
 8001558:	6993      	ldr	r3, [r2, #24]
 800155a:	4033      	ands	r3, r6
 800155c:	1b9b      	subs	r3, r3, r6
 800155e:	4259      	negs	r1, r3
 8001560:	414b      	adcs	r3, r1
 8001562:	42bb      	cmp	r3, r7
 8001564:	d001      	beq.n	800156a <I2C_WaitOnFlagUntilTimeout+0x1e>
 8001566:	2000      	movs	r0, #0
 8001568:	e017      	b.n	800159a <I2C_WaitOnFlagUntilTimeout+0x4e>
 800156a:	1c6b      	adds	r3, r5, #1
 800156c:	d0f4      	beq.n	8001558 <I2C_WaitOnFlagUntilTimeout+0xc>
 800156e:	f7ff fd83 	bl	8001078 <HAL_GetTick>
 8001572:	9b06      	ldr	r3, [sp, #24]
 8001574:	1ac0      	subs	r0, r0, r3
 8001576:	42a8      	cmp	r0, r5
 8001578:	d801      	bhi.n	800157e <I2C_WaitOnFlagUntilTimeout+0x32>
 800157a:	2d00      	cmp	r5, #0
 800157c:	d1eb      	bne.n	8001556 <I2C_WaitOnFlagUntilTimeout+0xa>
 800157e:	2220      	movs	r2, #32
 8001580:	6c63      	ldr	r3, [r4, #68]	; 0x44
 8001582:	2001      	movs	r0, #1
 8001584:	4313      	orrs	r3, r2
 8001586:	6463      	str	r3, [r4, #68]	; 0x44
 8001588:	0023      	movs	r3, r4
 800158a:	3341      	adds	r3, #65	; 0x41
 800158c:	701a      	strb	r2, [r3, #0]
 800158e:	0022      	movs	r2, r4
 8001590:	2300      	movs	r3, #0
 8001592:	3242      	adds	r2, #66	; 0x42
 8001594:	3440      	adds	r4, #64	; 0x40
 8001596:	7013      	strb	r3, [r2, #0]
 8001598:	7023      	strb	r3, [r4, #0]
 800159a:	bdf8      	pop	{r3, r4, r5, r6, r7, pc}

0800159c <I2C_WaitOnSTOPFlagUntilTimeout>:
 800159c:	b5f8      	push	{r3, r4, r5, r6, r7, lr}
 800159e:	0004      	movs	r4, r0
 80015a0:	000d      	movs	r5, r1
 80015a2:	0016      	movs	r6, r2
 80015a4:	2720      	movs	r7, #32
 80015a6:	6823      	ldr	r3, [r4, #0]
 80015a8:	699b      	ldr	r3, [r3, #24]
 80015aa:	423b      	tst	r3, r7
 80015ac:	d001      	beq.n	80015b2 <I2C_WaitOnSTOPFlagUntilTimeout+0x16>
 80015ae:	2000      	movs	r0, #0
 80015b0:	bdf8      	pop	{r3, r4, r5, r6, r7, pc}
 80015b2:	0032      	movs	r2, r6
 80015b4:	0029      	movs	r1, r5
 80015b6:	0020      	movs	r0, r4
 80015b8:	f7ff ff1a 	bl	80013f0 <I2C_IsErrorOccurred>
 80015bc:	2800      	cmp	r0, #0
 80015be:	d113      	bne.n	80015e8 <I2C_WaitOnSTOPFlagUntilTimeout+0x4c>
 80015c0:	f7ff fd5a 	bl	8001078 <HAL_GetTick>
 80015c4:	1b80      	subs	r0, r0, r6
 80015c6:	42a8      	cmp	r0, r5
 80015c8:	d801      	bhi.n	80015ce <I2C_WaitOnSTOPFlagUntilTimeout+0x32>
 80015ca:	2d00      	cmp	r5, #0
 80015cc:	d1eb      	bne.n	80015a6 <I2C_WaitOnSTOPFlagUntilTimeout+0xa>
 80015ce:	2220      	movs	r2, #32
 80015d0:	6c63      	ldr	r3, [r4, #68]	; 0x44
 80015d2:	4313      	orrs	r3, r2
 80015d4:	6463      	str	r3, [r4, #68]	; 0x44
 80015d6:	0023      	movs	r3, r4
 80015d8:	3341      	adds	r3, #65	; 0x41
 80015da:	701a      	strb	r2, [r3, #0]
 80015dc:	0022      	movs	r2, r4
 80015de:	2300      	movs	r3, #0
 80015e0:	3242      	adds	r2, #66	; 0x42
 80015e2:	3440      	adds	r4, #64	; 0x40
 80015e4:	7013      	strb	r3, [r2, #0]
 80015e6:	7023      	strb	r3, [r4, #0]
 80015e8:	2001      	movs	r0, #1
 80015ea:	e7e1      	b.n	80015b0 <I2C_WaitOnSTOPFlagUntilTimeout+0x14>

080015ec <HAL_I2C_Init>:
 80015ec:	b570      	push	{r4, r5, r6, lr}
 80015ee:	0004      	movs	r4, r0
 80015f0:	2001      	movs	r0, #1
 80015f2:	2c00      	cmp	r4, #0
 80015f4:	d03f      	beq.n	8001676 <HAL_I2C_Init+0x8a>
 80015f6:	0025      	movs	r5, r4
 80015f8:	3541      	adds	r5, #65	; 0x41
 80015fa:	782b      	ldrb	r3, [r5, #0]
 80015fc:	b2da      	uxtb	r2, r3
 80015fe:	2b00      	cmp	r3, #0
 8001600:	d105      	bne.n	800160e <HAL_I2C_Init+0x22>
 8001602:	0023      	movs	r3, r4
 8001604:	3340      	adds	r3, #64	; 0x40
 8001606:	0020      	movs	r0, r4
 8001608:	701a      	strb	r2, [r3, #0]
 800160a:	f7ff fa6d 	bl	8000ae8 <HAL_I2C_MspInit>
 800160e:	2324      	movs	r3, #36	; 0x24
 8001610:	2101      	movs	r1, #1
 8001612:	702b      	strb	r3, [r5, #0]
 8001614:	6823      	ldr	r3, [r4, #0]
 8001616:	481d      	ldr	r0, [pc, #116]	; (800168c <HAL_I2C_Init+0xa0>)
 8001618:	681a      	ldr	r2, [r3, #0]
 800161a:	68a6      	ldr	r6, [r4, #8]
 800161c:	438a      	bics	r2, r1
 800161e:	601a      	str	r2, [r3, #0]
 8001620:	6861      	ldr	r1, [r4, #4]
 8001622:	4a1b      	ldr	r2, [pc, #108]	; (8001690 <HAL_I2C_Init+0xa4>)
 8001624:	400a      	ands	r2, r1
 8001626:	611a      	str	r2, [r3, #16]
 8001628:	689a      	ldr	r2, [r3, #8]
 800162a:	4002      	ands	r2, r0
 800162c:	609a      	str	r2, [r3, #8]
 800162e:	68e2      	ldr	r2, [r4, #12]
 8001630:	2a01      	cmp	r2, #1
 8001632:	d121      	bne.n	8001678 <HAL_I2C_Init+0x8c>
 8001634:	2180      	movs	r1, #128	; 0x80
 8001636:	0209      	lsls	r1, r1, #8
 8001638:	4331      	orrs	r1, r6
 800163a:	6099      	str	r1, [r3, #8]
 800163c:	685a      	ldr	r2, [r3, #4]
 800163e:	4915      	ldr	r1, [pc, #84]	; (8001694 <HAL_I2C_Init+0xa8>)
 8001640:	4311      	orrs	r1, r2
 8001642:	6059      	str	r1, [r3, #4]
 8001644:	68da      	ldr	r2, [r3, #12]
 8001646:	6961      	ldr	r1, [r4, #20]
 8001648:	4002      	ands	r2, r0
 800164a:	60da      	str	r2, [r3, #12]
 800164c:	6922      	ldr	r2, [r4, #16]
 800164e:	2000      	movs	r0, #0
 8001650:	430a      	orrs	r2, r1
 8001652:	69a1      	ldr	r1, [r4, #24]
 8001654:	0209      	lsls	r1, r1, #8
 8001656:	430a      	orrs	r2, r1
 8001658:	60da      	str	r2, [r3, #12]
 800165a:	6a21      	ldr	r1, [r4, #32]
 800165c:	69e2      	ldr	r2, [r4, #28]
 800165e:	430a      	orrs	r2, r1
 8001660:	601a      	str	r2, [r3, #0]
 8001662:	2201      	movs	r2, #1
 8001664:	6819      	ldr	r1, [r3, #0]
 8001666:	430a      	orrs	r2, r1
 8001668:	601a      	str	r2, [r3, #0]
 800166a:	2320      	movs	r3, #32
 800166c:	6460      	str	r0, [r4, #68]	; 0x44
 800166e:	702b      	strb	r3, [r5, #0]
 8001670:	6320      	str	r0, [r4, #48]	; 0x30
 8001672:	3442      	adds	r4, #66	; 0x42
 8001674:	7020      	strb	r0, [r4, #0]
 8001676:	bd70      	pop	{r4, r5, r6, pc}
 8001678:	2184      	movs	r1, #132	; 0x84
 800167a:	0209      	lsls	r1, r1, #8
 800167c:	4331      	orrs	r1, r6
 800167e:	6099      	str	r1, [r3, #8]
 8001680:	2a02      	cmp	r2, #2
 8001682:	d1db      	bne.n	800163c <HAL_I2C_Init+0x50>
 8001684:	2280      	movs	r2, #128	; 0x80
 8001686:	0112      	lsls	r2, r2, #4
 8001688:	605a      	str	r2, [r3, #4]
 800168a:	e7d7      	b.n	800163c <HAL_I2C_Init+0x50>
 800168c:	ffff7fff 	.word	0xffff7fff
 8001690:	f0ffffff 	.word	0xf0ffffff
 8001694:	02008000 	.word	0x02008000

08001698 <HAL_I2C_DeInit>:
 8001698:	b570      	push	{r4, r5, r6, lr}
 800169a:	0004      	movs	r4, r0
 800169c:	2001      	movs	r0, #1
 800169e:	2c00      	cmp	r4, #0
 80016a0:	d013      	beq.n	80016ca <HAL_I2C_DeInit+0x32>
 80016a2:	0025      	movs	r5, r4
 80016a4:	2324      	movs	r3, #36	; 0x24
 80016a6:	3541      	adds	r5, #65	; 0x41
 80016a8:	702b      	strb	r3, [r5, #0]
 80016aa:	6822      	ldr	r2, [r4, #0]
 80016ac:	6813      	ldr	r3, [r2, #0]
 80016ae:	4383      	bics	r3, r0
 80016b0:	6013      	str	r3, [r2, #0]
 80016b2:	0020      	movs	r0, r4
 80016b4:	f7ff fa5a 	bl	8000b6c <HAL_I2C_MspDeInit>
 80016b8:	2000      	movs	r0, #0
 80016ba:	0023      	movs	r3, r4
 80016bc:	6460      	str	r0, [r4, #68]	; 0x44
 80016be:	3342      	adds	r3, #66	; 0x42
 80016c0:	7028      	strb	r0, [r5, #0]
 80016c2:	6320      	str	r0, [r4, #48]	; 0x30
 80016c4:	3440      	adds	r4, #64	; 0x40
 80016c6:	7018      	strb	r0, [r3, #0]
 80016c8:	7020      	strb	r0, [r4, #0]
 80016ca:	bd70      	pop	{r4, r5, r6, pc}

080016cc <HAL_I2C_Mem_Write>:
 80016cc:	b5f0      	push	{r4, r5, r6, r7, lr}
 80016ce:	b089      	sub	sp, #36	; 0x24
 80016d0:	9304      	str	r3, [sp, #16]
 80016d2:	ab0e      	add	r3, sp, #56	; 0x38
 80016d4:	9203      	str	r2, [sp, #12]
 80016d6:	cb04      	ldmia	r3!, {r2}
 80016d8:	0004      	movs	r4, r0
 80016da:	881b      	ldrh	r3, [r3, #0]
 80016dc:	9205      	str	r2, [sp, #20]
 80016de:	9306      	str	r3, [sp, #24]
 80016e0:	0003      	movs	r3, r0
 80016e2:	3341      	adds	r3, #65	; 0x41
 80016e4:	9307      	str	r3, [sp, #28]
 80016e6:	781b      	ldrb	r3, [r3, #0]
 80016e8:	000f      	movs	r7, r1
 80016ea:	2002      	movs	r0, #2
 80016ec:	9e10      	ldr	r6, [sp, #64]	; 0x40
 80016ee:	2b20      	cmp	r3, #32
 80016f0:	d108      	bne.n	8001704 <HAL_I2C_Mem_Write+0x38>
 80016f2:	2a00      	cmp	r2, #0
 80016f4:	d002      	beq.n	80016fc <HAL_I2C_Mem_Write+0x30>
 80016f6:	9b06      	ldr	r3, [sp, #24]
 80016f8:	2b00      	cmp	r3, #0
 80016fa:	d105      	bne.n	8001708 <HAL_I2C_Mem_Write+0x3c>
 80016fc:	2380      	movs	r3, #128	; 0x80
 80016fe:	009b      	lsls	r3, r3, #2
 8001700:	6463      	str	r3, [r4, #68]	; 0x44
 8001702:	2001      	movs	r0, #1
 8001704:	b009      	add	sp, #36	; 0x24
 8001706:	bdf0      	pop	{r4, r5, r6, r7, pc}
 8001708:	0023      	movs	r3, r4
 800170a:	3340      	adds	r3, #64	; 0x40
 800170c:	781a      	ldrb	r2, [r3, #0]
 800170e:	2002      	movs	r0, #2
 8001710:	2a01      	cmp	r2, #1
 8001712:	d0f7      	beq.n	8001704 <HAL_I2C_Mem_Write+0x38>
 8001714:	2201      	movs	r2, #1
 8001716:	701a      	strb	r2, [r3, #0]
 8001718:	f7ff fcae 	bl	8001078 <HAL_GetTick>
 800171c:	2180      	movs	r1, #128	; 0x80
 800171e:	0005      	movs	r5, r0
 8001720:	9000      	str	r0, [sp, #0]
 8001722:	2319      	movs	r3, #25
 8001724:	2201      	movs	r2, #1
 8001726:	0020      	movs	r0, r4
 8001728:	0209      	lsls	r1, r1, #8
 800172a:	f7ff ff0f 	bl	800154c <I2C_WaitOnFlagUntilTimeout>
 800172e:	2800      	cmp	r0, #0
 8001730:	d1e7      	bne.n	8001702 <HAL_I2C_Mem_Write+0x36>
 8001732:	2321      	movs	r3, #33	; 0x21
 8001734:	9a07      	ldr	r2, [sp, #28]
 8001736:	0039      	movs	r1, r7
 8001738:	7013      	strb	r3, [r2, #0]
 800173a:	0023      	movs	r3, r4
 800173c:	3342      	adds	r3, #66	; 0x42
 800173e:	9307      	str	r3, [sp, #28]
 8001740:	2340      	movs	r3, #64	; 0x40
 8001742:	9a07      	ldr	r2, [sp, #28]
 8001744:	7013      	strb	r3, [r2, #0]
 8001746:	9b05      	ldr	r3, [sp, #20]
 8001748:	6460      	str	r0, [r4, #68]	; 0x44
 800174a:	6263      	str	r3, [r4, #36]	; 0x24
 800174c:	9b06      	ldr	r3, [sp, #24]
 800174e:	6360      	str	r0, [r4, #52]	; 0x34
 8001750:	8563      	strh	r3, [r4, #42]	; 0x2a
 8001752:	466b      	mov	r3, sp
 8001754:	7c1a      	ldrb	r2, [r3, #16]
 8001756:	4b4a      	ldr	r3, [pc, #296]	; (8001880 <HAL_I2C_Mem_Write+0x1b4>)
 8001758:	0020      	movs	r0, r4
 800175a:	9300      	str	r3, [sp, #0]
 800175c:	2380      	movs	r3, #128	; 0x80
 800175e:	045b      	lsls	r3, r3, #17
 8001760:	f7ff fe30 	bl	80013c4 <I2C_TransferConfig>
 8001764:	002a      	movs	r2, r5
 8001766:	0031      	movs	r1, r6
 8001768:	0020      	movs	r0, r4
 800176a:	f7ff fec5 	bl	80014f8 <I2C_WaitOnTXISFlagUntilTimeout>
 800176e:	2800      	cmp	r0, #0
 8001770:	d126      	bne.n	80017c0 <HAL_I2C_Mem_Write+0xf4>
 8001772:	9a04      	ldr	r2, [sp, #16]
 8001774:	6823      	ldr	r3, [r4, #0]
 8001776:	2a01      	cmp	r2, #1
 8001778:	d116      	bne.n	80017a8 <HAL_I2C_Mem_Write+0xdc>
 800177a:	466a      	mov	r2, sp
 800177c:	7b12      	ldrb	r2, [r2, #12]
 800177e:	2180      	movs	r1, #128	; 0x80
 8001780:	629a      	str	r2, [r3, #40]	; 0x28
 8001782:	0020      	movs	r0, r4
 8001784:	0033      	movs	r3, r6
 8001786:	2200      	movs	r2, #0
 8001788:	9500      	str	r5, [sp, #0]
 800178a:	f7ff fedf 	bl	800154c <I2C_WaitOnFlagUntilTimeout>
 800178e:	2800      	cmp	r0, #0
 8001790:	d116      	bne.n	80017c0 <HAL_I2C_Mem_Write+0xf4>
 8001792:	8d63      	ldrh	r3, [r4, #42]	; 0x2a
 8001794:	2bff      	cmp	r3, #255	; 0xff
 8001796:	d817      	bhi.n	80017c8 <HAL_I2C_Mem_Write+0xfc>
 8001798:	2380      	movs	r3, #128	; 0x80
 800179a:	8d62      	ldrh	r2, [r4, #42]	; 0x2a
 800179c:	049b      	lsls	r3, r3, #18
 800179e:	b292      	uxth	r2, r2
 80017a0:	8522      	strh	r2, [r4, #40]	; 0x28
 80017a2:	b2d2      	uxtb	r2, r2
 80017a4:	9000      	str	r0, [sp, #0]
 80017a6:	e014      	b.n	80017d2 <HAL_I2C_Mem_Write+0x106>
 80017a8:	9a03      	ldr	r2, [sp, #12]
 80017aa:	0031      	movs	r1, r6
 80017ac:	0a12      	lsrs	r2, r2, #8
 80017ae:	629a      	str	r2, [r3, #40]	; 0x28
 80017b0:	0020      	movs	r0, r4
 80017b2:	002a      	movs	r2, r5
 80017b4:	f7ff fea0 	bl	80014f8 <I2C_WaitOnTXISFlagUntilTimeout>
 80017b8:	2800      	cmp	r0, #0
 80017ba:	d101      	bne.n	80017c0 <HAL_I2C_Mem_Write+0xf4>
 80017bc:	6823      	ldr	r3, [r4, #0]
 80017be:	e7dc      	b.n	800177a <HAL_I2C_Mem_Write+0xae>
 80017c0:	2300      	movs	r3, #0
 80017c2:	3440      	adds	r4, #64	; 0x40
 80017c4:	7023      	strb	r3, [r4, #0]
 80017c6:	e79c      	b.n	8001702 <HAL_I2C_Mem_Write+0x36>
 80017c8:	22ff      	movs	r2, #255	; 0xff
 80017ca:	2380      	movs	r3, #128	; 0x80
 80017cc:	8522      	strh	r2, [r4, #40]	; 0x28
 80017ce:	045b      	lsls	r3, r3, #17
 80017d0:	9000      	str	r0, [sp, #0]
 80017d2:	0039      	movs	r1, r7
 80017d4:	0020      	movs	r0, r4
 80017d6:	f7ff fdf5 	bl	80013c4 <I2C_TransferConfig>
 80017da:	002a      	movs	r2, r5
 80017dc:	0031      	movs	r1, r6
 80017de:	0020      	movs	r0, r4
 80017e0:	f7ff fe8a 	bl	80014f8 <I2C_WaitOnTXISFlagUntilTimeout>
 80017e4:	2800      	cmp	r0, #0
 80017e6:	d000      	beq.n	80017ea <HAL_I2C_Mem_Write+0x11e>
 80017e8:	e78b      	b.n	8001702 <HAL_I2C_Mem_Write+0x36>
 80017ea:	6a63      	ldr	r3, [r4, #36]	; 0x24
 80017ec:	6822      	ldr	r2, [r4, #0]
 80017ee:	7819      	ldrb	r1, [r3, #0]
 80017f0:	3301      	adds	r3, #1
 80017f2:	6291      	str	r1, [r2, #40]	; 0x28
 80017f4:	6263      	str	r3, [r4, #36]	; 0x24
 80017f6:	8d63      	ldrh	r3, [r4, #42]	; 0x2a
 80017f8:	8d22      	ldrh	r2, [r4, #40]	; 0x28
 80017fa:	3b01      	subs	r3, #1
 80017fc:	b29b      	uxth	r3, r3
 80017fe:	8563      	strh	r3, [r4, #42]	; 0x2a
 8001800:	3a01      	subs	r2, #1
 8001802:	8d63      	ldrh	r3, [r4, #42]	; 0x2a
 8001804:	b292      	uxth	r2, r2
 8001806:	8522      	strh	r2, [r4, #40]	; 0x28
 8001808:	2b00      	cmp	r3, #0
 800180a:	d017      	beq.n	800183c <HAL_I2C_Mem_Write+0x170>
 800180c:	2a00      	cmp	r2, #0
 800180e:	d115      	bne.n	800183c <HAL_I2C_Mem_Write+0x170>
 8001810:	0033      	movs	r3, r6
 8001812:	2180      	movs	r1, #128	; 0x80
 8001814:	0020      	movs	r0, r4
 8001816:	9500      	str	r5, [sp, #0]
 8001818:	f7ff fe98 	bl	800154c <I2C_WaitOnFlagUntilTimeout>
 800181c:	2800      	cmp	r0, #0
 800181e:	d000      	beq.n	8001822 <HAL_I2C_Mem_Write+0x156>
 8001820:	e76f      	b.n	8001702 <HAL_I2C_Mem_Write+0x36>
 8001822:	8d63      	ldrh	r3, [r4, #42]	; 0x2a
 8001824:	2bff      	cmp	r3, #255	; 0xff
 8001826:	d923      	bls.n	8001870 <HAL_I2C_Mem_Write+0x1a4>
 8001828:	23ff      	movs	r3, #255	; 0xff
 800182a:	8523      	strh	r3, [r4, #40]	; 0x28
 800182c:	2380      	movs	r3, #128	; 0x80
 800182e:	22ff      	movs	r2, #255	; 0xff
 8001830:	9000      	str	r0, [sp, #0]
 8001832:	045b      	lsls	r3, r3, #17
 8001834:	0039      	movs	r1, r7
 8001836:	0020      	movs	r0, r4
 8001838:	f7ff fdc4 	bl	80013c4 <I2C_TransferConfig>
 800183c:	8d63      	ldrh	r3, [r4, #42]	; 0x2a
 800183e:	2b00      	cmp	r3, #0
 8001840:	d1cb      	bne.n	80017da <HAL_I2C_Mem_Write+0x10e>
 8001842:	002a      	movs	r2, r5
 8001844:	0031      	movs	r1, r6
 8001846:	0020      	movs	r0, r4
 8001848:	f7ff fea8 	bl	800159c <I2C_WaitOnSTOPFlagUntilTimeout>
 800184c:	2800      	cmp	r0, #0
 800184e:	d000      	beq.n	8001852 <HAL_I2C_Mem_Write+0x186>
 8001850:	e757      	b.n	8001702 <HAL_I2C_Mem_Write+0x36>
 8001852:	2120      	movs	r1, #32
 8001854:	6823      	ldr	r3, [r4, #0]
 8001856:	4d0b      	ldr	r5, [pc, #44]	; (8001884 <HAL_I2C_Mem_Write+0x1b8>)
 8001858:	61d9      	str	r1, [r3, #28]
 800185a:	685a      	ldr	r2, [r3, #4]
 800185c:	402a      	ands	r2, r5
 800185e:	605a      	str	r2, [r3, #4]
 8001860:	0023      	movs	r3, r4
 8001862:	3341      	adds	r3, #65	; 0x41
 8001864:	7019      	strb	r1, [r3, #0]
 8001866:	9b07      	ldr	r3, [sp, #28]
 8001868:	3440      	adds	r4, #64	; 0x40
 800186a:	7018      	strb	r0, [r3, #0]
 800186c:	7020      	strb	r0, [r4, #0]
 800186e:	e749      	b.n	8001704 <HAL_I2C_Mem_Write+0x38>
 8001870:	2380      	movs	r3, #128	; 0x80
 8001872:	8d62      	ldrh	r2, [r4, #42]	; 0x2a
 8001874:	049b      	lsls	r3, r3, #18
 8001876:	b292      	uxth	r2, r2
 8001878:	8522      	strh	r2, [r4, #40]	; 0x28
 800187a:	b2d2      	uxtb	r2, r2
 800187c:	9000      	str	r0, [sp, #0]
 800187e:	e7d9      	b.n	8001834 <HAL_I2C_Mem_Write+0x168>
 8001880:	80002000 	.word	0x80002000
 8001884:	fe00e800 	.word	0xfe00e800

08001888 <HAL_I2C_Mem_Read>:
 8001888:	b5f0      	push	{r4, r5, r6, r7, lr}
 800188a:	b089      	sub	sp, #36	; 0x24
 800188c:	9304      	str	r3, [sp, #16]
 800188e:	ab0e      	add	r3, sp, #56	; 0x38
 8001890:	9203      	str	r2, [sp, #12]
 8001892:	cb04      	ldmia	r3!, {r2}
 8001894:	0004      	movs	r4, r0
 8001896:	881b      	ldrh	r3, [r3, #0]
 8001898:	9205      	str	r2, [sp, #20]
 800189a:	9306      	str	r3, [sp, #24]
 800189c:	0003      	movs	r3, r0
 800189e:	3341      	adds	r3, #65	; 0x41
 80018a0:	9307      	str	r3, [sp, #28]
 80018a2:	781b      	ldrb	r3, [r3, #0]
 80018a4:	000f      	movs	r7, r1
 80018a6:	2002      	movs	r0, #2
 80018a8:	9e10      	ldr	r6, [sp, #64]	; 0x40
 80018aa:	2b20      	cmp	r3, #32
 80018ac:	d108      	bne.n	80018c0 <HAL_I2C_Mem_Read+0x38>
 80018ae:	2a00      	cmp	r2, #0
 80018b0:	d002      	beq.n	80018b8 <HAL_I2C_Mem_Read+0x30>
 80018b2:	9b06      	ldr	r3, [sp, #24]
 80018b4:	2b00      	cmp	r3, #0
 80018b6:	d105      	bne.n	80018c4 <HAL_I2C_Mem_Read+0x3c>
 80018b8:	2380      	movs	r3, #128	; 0x80
 80018ba:	009b      	lsls	r3, r3, #2
 80018bc:	6463      	str	r3, [r4, #68]	; 0x44
 80018be:	2001      	movs	r0, #1
 80018c0:	b009      	add	sp, #36	; 0x24
 80018c2:	bdf0      	pop	{r4, r5, r6, r7, pc}
 80018c4:	0023      	movs	r3, r4
 80018c6:	3340      	adds	r3, #64	; 0x40
 80018c8:	781a      	ldrb	r2, [r3, #0]
 80018ca:	2002      	movs	r0, #2
 80018cc:	2a01      	cmp	r2, #1
 80018ce:	d0f7      	beq.n	80018c0 <HAL_I2C_Mem_Read+0x38>
 80018d0:	2201      	movs	r2, #1
 80018d2:	701a      	strb	r2, [r3, #0]
 80018d4:	f7ff fbd0 	bl	8001078 <HAL_GetTick>
 80018d8:	2180      	movs	r1, #128	; 0x80
 80018da:	2319      	movs	r3, #25
 80018dc:	9000      	str	r0, [sp, #0]
 80018de:	0005      	movs	r5, r0
 80018e0:	2201      	movs	r2, #1
 80018e2:	0020      	movs	r0, r4
 80018e4:	0209      	lsls	r1, r1, #8
 80018e6:	f7ff fe31 	bl	800154c <I2C_WaitOnFlagUntilTimeout>
 80018ea:	1e03      	subs	r3, r0, #0
 80018ec:	d1e7      	bne.n	80018be <HAL_I2C_Mem_Read+0x36>
 80018ee:	2222      	movs	r2, #34	; 0x22
 80018f0:	9907      	ldr	r1, [sp, #28]
 80018f2:	700a      	strb	r2, [r1, #0]
 80018f4:	0022      	movs	r2, r4
 80018f6:	3242      	adds	r2, #66	; 0x42
 80018f8:	9207      	str	r2, [sp, #28]
 80018fa:	2240      	movs	r2, #64	; 0x40
 80018fc:	9907      	ldr	r1, [sp, #28]
 80018fe:	700a      	strb	r2, [r1, #0]
 8001900:	9a05      	ldr	r2, [sp, #20]
 8001902:	6460      	str	r0, [r4, #68]	; 0x44
 8001904:	6262      	str	r2, [r4, #36]	; 0x24
 8001906:	9a06      	ldr	r2, [sp, #24]
 8001908:	494d      	ldr	r1, [pc, #308]	; (8001a40 <HAL_I2C_Mem_Read+0x1b8>)
 800190a:	8562      	strh	r2, [r4, #42]	; 0x2a
 800190c:	466a      	mov	r2, sp
 800190e:	6360      	str	r0, [r4, #52]	; 0x34
 8001910:	7c12      	ldrb	r2, [r2, #16]
 8001912:	0020      	movs	r0, r4
 8001914:	9100      	str	r1, [sp, #0]
 8001916:	0039      	movs	r1, r7
 8001918:	f7ff fd54 	bl	80013c4 <I2C_TransferConfig>
 800191c:	002a      	movs	r2, r5
 800191e:	0031      	movs	r1, r6
 8001920:	0020      	movs	r0, r4
 8001922:	f7ff fde9 	bl	80014f8 <I2C_WaitOnTXISFlagUntilTimeout>
 8001926:	2800      	cmp	r0, #0
 8001928:	d127      	bne.n	800197a <HAL_I2C_Mem_Read+0xf2>
 800192a:	9a04      	ldr	r2, [sp, #16]
 800192c:	6823      	ldr	r3, [r4, #0]
 800192e:	2a01      	cmp	r2, #1
 8001930:	d117      	bne.n	8001962 <HAL_I2C_Mem_Read+0xda>
 8001932:	466a      	mov	r2, sp
 8001934:	7b12      	ldrb	r2, [r2, #12]
 8001936:	2140      	movs	r1, #64	; 0x40
 8001938:	629a      	str	r2, [r3, #40]	; 0x28
 800193a:	0020      	movs	r0, r4
 800193c:	0033      	movs	r3, r6
 800193e:	2200      	movs	r2, #0
 8001940:	9500      	str	r5, [sp, #0]
 8001942:	f7ff fe03 	bl	800154c <I2C_WaitOnFlagUntilTimeout>
 8001946:	2800      	cmp	r0, #0
 8001948:	d117      	bne.n	800197a <HAL_I2C_Mem_Read+0xf2>
 800194a:	8d62      	ldrh	r2, [r4, #42]	; 0x2a
 800194c:	4b3d      	ldr	r3, [pc, #244]	; (8001a44 <HAL_I2C_Mem_Read+0x1bc>)
 800194e:	2aff      	cmp	r2, #255	; 0xff
 8001950:	d817      	bhi.n	8001982 <HAL_I2C_Mem_Read+0xfa>
 8001952:	8d62      	ldrh	r2, [r4, #42]	; 0x2a
 8001954:	b292      	uxth	r2, r2
 8001956:	8522      	strh	r2, [r4, #40]	; 0x28
 8001958:	9300      	str	r3, [sp, #0]
 800195a:	2380      	movs	r3, #128	; 0x80
 800195c:	b2d2      	uxtb	r2, r2
 800195e:	049b      	lsls	r3, r3, #18
 8001960:	e014      	b.n	800198c <HAL_I2C_Mem_Read+0x104>
 8001962:	9a03      	ldr	r2, [sp, #12]
 8001964:	0031      	movs	r1, r6
 8001966:	0a12      	lsrs	r2, r2, #8
 8001968:	629a      	str	r2, [r3, #40]	; 0x28
 800196a:	0020      	movs	r0, r4
 800196c:	002a      	movs	r2, r5
 800196e:	f7ff fdc3 	bl	80014f8 <I2C_WaitOnTXISFlagUntilTimeout>
 8001972:	2800      	cmp	r0, #0
 8001974:	d101      	bne.n	800197a <HAL_I2C_Mem_Read+0xf2>
 8001976:	6823      	ldr	r3, [r4, #0]
 8001978:	e7db      	b.n	8001932 <HAL_I2C_Mem_Read+0xaa>
 800197a:	2300      	movs	r3, #0
 800197c:	3440      	adds	r4, #64	; 0x40
 800197e:	7023      	strb	r3, [r4, #0]
 8001980:	e79d      	b.n	80018be <HAL_I2C_Mem_Read+0x36>
 8001982:	22ff      	movs	r2, #255	; 0xff
 8001984:	8522      	strh	r2, [r4, #40]	; 0x28
 8001986:	9300      	str	r3, [sp, #0]
 8001988:	2380      	movs	r3, #128	; 0x80
 800198a:	045b      	lsls	r3, r3, #17
 800198c:	0039      	movs	r1, r7
 800198e:	0020      	movs	r0, r4
 8001990:	f7ff fd18 	bl	80013c4 <I2C_TransferConfig>
 8001994:	0033      	movs	r3, r6
 8001996:	2200      	movs	r2, #0
 8001998:	2104      	movs	r1, #4
 800199a:	0020      	movs	r0, r4
 800199c:	9500      	str	r5, [sp, #0]
 800199e:	f7ff fdd5 	bl	800154c <I2C_WaitOnFlagUntilTimeout>
 80019a2:	2800      	cmp	r0, #0
 80019a4:	d000      	beq.n	80019a8 <HAL_I2C_Mem_Read+0x120>
 80019a6:	e78a      	b.n	80018be <HAL_I2C_Mem_Read+0x36>
 80019a8:	6823      	ldr	r3, [r4, #0]
 80019aa:	6a62      	ldr	r2, [r4, #36]	; 0x24
 80019ac:	6a5b      	ldr	r3, [r3, #36]	; 0x24
 80019ae:	7013      	strb	r3, [r2, #0]
 80019b0:	6a63      	ldr	r3, [r4, #36]	; 0x24
 80019b2:	8d22      	ldrh	r2, [r4, #40]	; 0x28
 80019b4:	3301      	adds	r3, #1
 80019b6:	6263      	str	r3, [r4, #36]	; 0x24
 80019b8:	8d63      	ldrh	r3, [r4, #42]	; 0x2a
 80019ba:	3a01      	subs	r2, #1
 80019bc:	3b01      	subs	r3, #1
 80019be:	b29b      	uxth	r3, r3
 80019c0:	8563      	strh	r3, [r4, #42]	; 0x2a
 80019c2:	8d63      	ldrh	r3, [r4, #42]	; 0x2a
 80019c4:	b292      	uxth	r2, r2
 80019c6:	8522      	strh	r2, [r4, #40]	; 0x28
 80019c8:	2b00      	cmp	r3, #0
 80019ca:	d017      	beq.n	80019fc <HAL_I2C_Mem_Read+0x174>
 80019cc:	2a00      	cmp	r2, #0
 80019ce:	d115      	bne.n	80019fc <HAL_I2C_Mem_Read+0x174>
 80019d0:	0033      	movs	r3, r6
 80019d2:	2180      	movs	r1, #128	; 0x80
 80019d4:	0020      	movs	r0, r4
 80019d6:	9500      	str	r5, [sp, #0]
 80019d8:	f7ff fdb8 	bl	800154c <I2C_WaitOnFlagUntilTimeout>
 80019dc:	2800      	cmp	r0, #0
 80019de:	d000      	beq.n	80019e2 <HAL_I2C_Mem_Read+0x15a>
 80019e0:	e76d      	b.n	80018be <HAL_I2C_Mem_Read+0x36>
 80019e2:	8d63      	ldrh	r3, [r4, #42]	; 0x2a
 80019e4:	2bff      	cmp	r3, #255	; 0xff
 80019e6:	d923      	bls.n	8001a30 <HAL_I2C_Mem_Read+0x1a8>
 80019e8:	23ff      	movs	r3, #255	; 0xff
 80019ea:	8523      	strh	r3, [r4, #40]	; 0x28
 80019ec:	2380      	movs	r3, #128	; 0x80
 80019ee:	22ff      	movs	r2, #255	; 0xff
 80019f0:	9000      	str	r0, [sp, #0]
 80019f2:	045b      	lsls	r3, r3, #17
 80019f4:	0039      	movs	r1, r7
 80019f6:	0020      	movs	r0, r4
 80019f8:	f7ff fce4 	bl	80013c4 <I2C_TransferConfig>
 80019fc:	8d63      	ldrh	r3, [r4, #42]	; 0x2a
 80019fe:	2b00      	cmp	r3, #0
 8001a00:	d1c8      	bne.n	8001994 <HAL_I2C_Mem_Read+0x10c>
 8001a02:	002a      	movs	r2, r5
 8001a04:	0031      	movs	r1, r6
 8001a06:	0020      	movs	r0, r4
 8001a08:	f7ff fdc8 	bl	800159c <I2C_WaitOnSTOPFlagUntilTimeout>
 8001a0c:	2800      	cmp	r0, #0
 8001a0e:	d000      	beq.n	8001a12 <HAL_I2C_Mem_Read+0x18a>
 8001a10:	e755      	b.n	80018be <HAL_I2C_Mem_Read+0x36>
 8001a12:	2120      	movs	r1, #32
 8001a14:	6823      	ldr	r3, [r4, #0]
 8001a16:	4d0c      	ldr	r5, [pc, #48]	; (8001a48 <HAL_I2C_Mem_Read+0x1c0>)
 8001a18:	61d9      	str	r1, [r3, #28]
 8001a1a:	685a      	ldr	r2, [r3, #4]
 8001a1c:	402a      	ands	r2, r5
 8001a1e:	605a      	str	r2, [r3, #4]
 8001a20:	0023      	movs	r3, r4
 8001a22:	3341      	adds	r3, #65	; 0x41
 8001a24:	7019      	strb	r1, [r3, #0]
 8001a26:	9b07      	ldr	r3, [sp, #28]
 8001a28:	3440      	adds	r4, #64	; 0x40
 8001a2a:	7018      	strb	r0, [r3, #0]
 8001a2c:	7020      	strb	r0, [r4, #0]
 8001a2e:	e747      	b.n	80018c0 <HAL_I2C_Mem_Read+0x38>
 8001a30:	2380      	movs	r3, #128	; 0x80
 8001a32:	8d62      	ldrh	r2, [r4, #42]	; 0x2a
 8001a34:	049b      	lsls	r3, r3, #18
 8001a36:	b292      	uxth	r2, r2
 8001a38:	8522      	strh	r2, [r4, #40]	; 0x28
 8001a3a:	b2d2      	uxtb	r2, r2
 8001a3c:	9000      	str	r0, [sp, #0]
 8001a3e:	e7d9      	b.n	80019f4 <HAL_I2C_Mem_Read+0x16c>
 8001a40:	80002000 	.word	0x80002000
 8001a44:	80002400 	.word	0x80002400
 8001a48:	fe00e800 	.word	0xfe00e800

08001a4c <HAL_I2CEx_ConfigAnalogFilter>:
 8001a4c:	b5f0      	push	{r4, r5, r6, r7, lr}
 8001a4e:	0004      	movs	r4, r0
 8001a50:	3441      	adds	r4, #65	; 0x41
 8001a52:	7822      	ldrb	r2, [r4, #0]
 8001a54:	0003      	movs	r3, r0
 8001a56:	000f      	movs	r7, r1
 8001a58:	2002      	movs	r0, #2
 8001a5a:	b2d6      	uxtb	r6, r2
 8001a5c:	2a20      	cmp	r2, #32
 8001a5e:	d118      	bne.n	8001a92 <HAL_I2CEx_ConfigAnalogFilter+0x46>
 8001a60:	001d      	movs	r5, r3
 8001a62:	3540      	adds	r5, #64	; 0x40
 8001a64:	782a      	ldrb	r2, [r5, #0]
 8001a66:	2a01      	cmp	r2, #1
 8001a68:	d013      	beq.n	8001a92 <HAL_I2CEx_ConfigAnalogFilter+0x46>
 8001a6a:	2224      	movs	r2, #36	; 0x24
 8001a6c:	7022      	strb	r2, [r4, #0]
 8001a6e:	681b      	ldr	r3, [r3, #0]
 8001a70:	3a23      	subs	r2, #35	; 0x23
 8001a72:	6819      	ldr	r1, [r3, #0]
 8001a74:	4807      	ldr	r0, [pc, #28]	; (8001a94 <HAL_I2CEx_ConfigAnalogFilter+0x48>)
 8001a76:	4391      	bics	r1, r2
 8001a78:	6019      	str	r1, [r3, #0]
 8001a7a:	6819      	ldr	r1, [r3, #0]
 8001a7c:	4001      	ands	r1, r0
 8001a7e:	2000      	movs	r0, #0
 8001a80:	6019      	str	r1, [r3, #0]
 8001a82:	6819      	ldr	r1, [r3, #0]
 8001a84:	4339      	orrs	r1, r7
 8001a86:	6019      	str	r1, [r3, #0]
 8001a88:	6819      	ldr	r1, [r3, #0]
 8001a8a:	430a      	orrs	r2, r1
 8001a8c:	601a      	str	r2, [r3, #0]
 8001a8e:	7026      	strb	r6, [r4, #0]
 8001a90:	7028      	strb	r0, [r5, #0]
 8001a92:	bdf0      	pop	{r4, r5, r6, r7, pc}
 8001a94:	ffffefff 	.word	0xffffefff

08001a98 <HAL_I2CEx_ConfigDigitalFilter>:
 8001a98:	0002      	movs	r2, r0
 8001a9a:	b5f0      	push	{r4, r5, r6, r7, lr}
 8001a9c:	3241      	adds	r2, #65	; 0x41
 8001a9e:	7814      	ldrb	r4, [r2, #0]
 8001aa0:	0003      	movs	r3, r0
 8001aa2:	b2e5      	uxtb	r5, r4
 8001aa4:	2002      	movs	r0, #2
 8001aa6:	2c20      	cmp	r4, #32
 8001aa8:	d117      	bne.n	8001ada <HAL_I2CEx_ConfigDigitalFilter+0x42>
 8001aaa:	001c      	movs	r4, r3
 8001aac:	3440      	adds	r4, #64	; 0x40
 8001aae:	7826      	ldrb	r6, [r4, #0]
 8001ab0:	2e01      	cmp	r6, #1
 8001ab2:	d012      	beq.n	8001ada <HAL_I2CEx_ConfigDigitalFilter+0x42>
 8001ab4:	3022      	adds	r0, #34	; 0x22
 8001ab6:	7010      	strb	r0, [r2, #0]
 8001ab8:	681b      	ldr	r3, [r3, #0]
 8001aba:	3823      	subs	r0, #35	; 0x23
 8001abc:	681e      	ldr	r6, [r3, #0]
 8001abe:	4f07      	ldr	r7, [pc, #28]	; (8001adc <HAL_I2CEx_ConfigDigitalFilter+0x44>)
 8001ac0:	4386      	bics	r6, r0
 8001ac2:	601e      	str	r6, [r3, #0]
 8001ac4:	681e      	ldr	r6, [r3, #0]
 8001ac6:	0209      	lsls	r1, r1, #8
 8001ac8:	403e      	ands	r6, r7
 8001aca:	4331      	orrs	r1, r6
 8001acc:	6019      	str	r1, [r3, #0]
 8001ace:	6819      	ldr	r1, [r3, #0]
 8001ad0:	4308      	orrs	r0, r1
 8001ad2:	6018      	str	r0, [r3, #0]
 8001ad4:	2000      	movs	r0, #0
 8001ad6:	7015      	strb	r5, [r2, #0]
 8001ad8:	7020      	strb	r0, [r4, #0]
 8001ada:	bdf0      	pop	{r4, r5, r6, r7, pc}
 8001adc:	fffff0ff 	.word	0xfffff0ff

08001ae0 <HAL_PWREx_ControlVoltageScaling>:
 8001ae0:	b510      	push	{r4, lr}
 8001ae2:	4c11      	ldr	r4, [pc, #68]	; (8001b28 <HAL_PWREx_ControlVoltageScaling+0x48>)
 8001ae4:	4911      	ldr	r1, [pc, #68]	; (8001b2c <HAL_PWREx_ControlVoltageScaling+0x4c>)
 8001ae6:	6823      	ldr	r3, [r4, #0]
 8001ae8:	0002      	movs	r2, r0
 8001aea:	400b      	ands	r3, r1
 8001aec:	4303      	orrs	r3, r0
 8001aee:	6023      	str	r3, [r4, #0]
 8001af0:	2380      	movs	r3, #128	; 0x80
 8001af2:	2000      	movs	r0, #0
 8001af4:	009b      	lsls	r3, r3, #2
 8001af6:	429a      	cmp	r2, r3
 8001af8:	d10e      	bne.n	8001b18 <HAL_PWREx_ControlVoltageScaling+0x38>
 8001afa:	4b0d      	ldr	r3, [pc, #52]	; (8001b30 <HAL_PWREx_ControlVoltageScaling+0x50>)
 8001afc:	490d      	ldr	r1, [pc, #52]	; (8001b34 <HAL_PWREx_ControlVoltageScaling+0x54>)
 8001afe:	6818      	ldr	r0, [r3, #0]
 8001b00:	2306      	movs	r3, #6
 8001b02:	4358      	muls	r0, r3
 8001b04:	f7fe fb12 	bl	800012c <__udivsi3>
 8001b08:	2280      	movs	r2, #128	; 0x80
 8001b0a:	1c43      	adds	r3, r0, #1
 8001b0c:	00d2      	lsls	r2, r2, #3
 8001b0e:	6961      	ldr	r1, [r4, #20]
 8001b10:	0008      	movs	r0, r1
 8001b12:	4010      	ands	r0, r2
 8001b14:	4211      	tst	r1, r2
 8001b16:	d100      	bne.n	8001b1a <HAL_PWREx_ControlVoltageScaling+0x3a>
 8001b18:	bd10      	pop	{r4, pc}
 8001b1a:	2b00      	cmp	r3, #0
 8001b1c:	d001      	beq.n	8001b22 <HAL_PWREx_ControlVoltageScaling+0x42>
 8001b1e:	3b01      	subs	r3, #1
 8001b20:	e7f5      	b.n	8001b0e <HAL_PWREx_ControlVoltageScaling+0x2e>
 8001b22:	2003      	movs	r0, #3
 8001b24:	e7f8      	b.n	8001b18 <HAL_PWREx_ControlVoltageScaling+0x38>
 8001b26:	46c0      	nop			; (mov r8, r8)
 8001b28:	40007000 	.word	0x40007000
 8001b2c:	fffff9ff 	.word	0xfffff9ff
 8001b30:	20000000 	.word	0x20000000
 8001b34:	000f4240 	.word	0x000f4240

08001b38 <HAL_RCC_OscConfig>:
 8001b38:	b5f0      	push	{r4, r5, r6, r7, lr}
 8001b3a:	0004      	movs	r4, r0
 8001b3c:	b085      	sub	sp, #20
 8001b3e:	2800      	cmp	r0, #0
 8001b40:	d027      	beq.n	8001b92 <HAL_RCC_OscConfig+0x5a>
 8001b42:	6803      	ldr	r3, [r0, #0]
 8001b44:	07db      	lsls	r3, r3, #31
 8001b46:	d414      	bmi.n	8001b72 <HAL_RCC_OscConfig+0x3a>
 8001b48:	6823      	ldr	r3, [r4, #0]
 8001b4a:	079b      	lsls	r3, r3, #30
 8001b4c:	d462      	bmi.n	8001c14 <HAL_RCC_OscConfig+0xdc>
 8001b4e:	6823      	ldr	r3, [r4, #0]
 8001b50:	071b      	lsls	r3, r3, #28
 8001b52:	d500      	bpl.n	8001b56 <HAL_RCC_OscConfig+0x1e>
 8001b54:	e0c7      	b.n	8001ce6 <HAL_RCC_OscConfig+0x1ae>
 8001b56:	6823      	ldr	r3, [r4, #0]
 8001b58:	075b      	lsls	r3, r3, #29
 8001b5a:	d500      	bpl.n	8001b5e <HAL_RCC_OscConfig+0x26>
 8001b5c:	e0f8      	b.n	8001d50 <HAL_RCC_OscConfig+0x218>
 8001b5e:	6823      	ldr	r3, [r4, #0]
 8001b60:	069b      	lsls	r3, r3, #26
 8001b62:	d500      	bpl.n	8001b66 <HAL_RCC_OscConfig+0x2e>
 8001b64:	e166      	b.n	8001e34 <HAL_RCC_OscConfig+0x2fc>
 8001b66:	6a23      	ldr	r3, [r4, #32]
 8001b68:	2b00      	cmp	r3, #0
 8001b6a:	d000      	beq.n	8001b6e <HAL_RCC_OscConfig+0x36>
 8001b6c:	e1a5      	b.n	8001eba <HAL_RCC_OscConfig+0x382>
 8001b6e:	2000      	movs	r0, #0
 8001b70:	e029      	b.n	8001bc6 <HAL_RCC_OscConfig+0x8e>
 8001b72:	2238      	movs	r2, #56	; 0x38
 8001b74:	4dbb      	ldr	r5, [pc, #748]	; (8001e64 <HAL_RCC_OscConfig+0x32c>)
 8001b76:	68ab      	ldr	r3, [r5, #8]
 8001b78:	4013      	ands	r3, r2
 8001b7a:	68ea      	ldr	r2, [r5, #12]
 8001b7c:	2b10      	cmp	r3, #16
 8001b7e:	d10a      	bne.n	8001b96 <HAL_RCC_OscConfig+0x5e>
 8001b80:	43d2      	mvns	r2, r2
 8001b82:	0793      	lsls	r3, r2, #30
 8001b84:	d109      	bne.n	8001b9a <HAL_RCC_OscConfig+0x62>
 8001b86:	682b      	ldr	r3, [r5, #0]
 8001b88:	039b      	lsls	r3, r3, #14
 8001b8a:	d5dd      	bpl.n	8001b48 <HAL_RCC_OscConfig+0x10>
 8001b8c:	6863      	ldr	r3, [r4, #4]
 8001b8e:	2b00      	cmp	r3, #0
 8001b90:	d1da      	bne.n	8001b48 <HAL_RCC_OscConfig+0x10>
 8001b92:	2001      	movs	r0, #1
 8001b94:	e017      	b.n	8001bc6 <HAL_RCC_OscConfig+0x8e>
 8001b96:	2b08      	cmp	r3, #8
 8001b98:	d0f5      	beq.n	8001b86 <HAL_RCC_OscConfig+0x4e>
 8001b9a:	2280      	movs	r2, #128	; 0x80
 8001b9c:	6863      	ldr	r3, [r4, #4]
 8001b9e:	0252      	lsls	r2, r2, #9
 8001ba0:	4293      	cmp	r3, r2
 8001ba2:	d112      	bne.n	8001bca <HAL_RCC_OscConfig+0x92>
 8001ba4:	682a      	ldr	r2, [r5, #0]
 8001ba6:	4313      	orrs	r3, r2
 8001ba8:	602b      	str	r3, [r5, #0]
 8001baa:	f7ff fa65 	bl	8001078 <HAL_GetTick>
 8001bae:	2780      	movs	r7, #128	; 0x80
 8001bb0:	0006      	movs	r6, r0
 8001bb2:	02bf      	lsls	r7, r7, #10
 8001bb4:	682b      	ldr	r3, [r5, #0]
 8001bb6:	423b      	tst	r3, r7
 8001bb8:	d1c6      	bne.n	8001b48 <HAL_RCC_OscConfig+0x10>
 8001bba:	f7ff fa5d 	bl	8001078 <HAL_GetTick>
 8001bbe:	1b80      	subs	r0, r0, r6
 8001bc0:	2864      	cmp	r0, #100	; 0x64
 8001bc2:	d9f7      	bls.n	8001bb4 <HAL_RCC_OscConfig+0x7c>
 8001bc4:	2003      	movs	r0, #3
 8001bc6:	b005      	add	sp, #20
 8001bc8:	bdf0      	pop	{r4, r5, r6, r7, pc}
 8001bca:	21a0      	movs	r1, #160	; 0xa0
 8001bcc:	02c9      	lsls	r1, r1, #11
 8001bce:	428b      	cmp	r3, r1
 8001bd0:	d108      	bne.n	8001be4 <HAL_RCC_OscConfig+0xac>
 8001bd2:	2380      	movs	r3, #128	; 0x80
 8001bd4:	6829      	ldr	r1, [r5, #0]
 8001bd6:	02db      	lsls	r3, r3, #11
 8001bd8:	430b      	orrs	r3, r1
 8001bda:	602b      	str	r3, [r5, #0]
 8001bdc:	682b      	ldr	r3, [r5, #0]
 8001bde:	431a      	orrs	r2, r3
 8001be0:	602a      	str	r2, [r5, #0]
 8001be2:	e7e2      	b.n	8001baa <HAL_RCC_OscConfig+0x72>
 8001be4:	682a      	ldr	r2, [r5, #0]
 8001be6:	49a0      	ldr	r1, [pc, #640]	; (8001e68 <HAL_RCC_OscConfig+0x330>)
 8001be8:	400a      	ands	r2, r1
 8001bea:	602a      	str	r2, [r5, #0]
 8001bec:	682a      	ldr	r2, [r5, #0]
 8001bee:	499f      	ldr	r1, [pc, #636]	; (8001e6c <HAL_RCC_OscConfig+0x334>)
 8001bf0:	400a      	ands	r2, r1
 8001bf2:	602a      	str	r2, [r5, #0]
 8001bf4:	2b00      	cmp	r3, #0
 8001bf6:	d1d8      	bne.n	8001baa <HAL_RCC_OscConfig+0x72>
 8001bf8:	f7ff fa3e 	bl	8001078 <HAL_GetTick>
 8001bfc:	2780      	movs	r7, #128	; 0x80
 8001bfe:	0006      	movs	r6, r0
 8001c00:	02bf      	lsls	r7, r7, #10
 8001c02:	682b      	ldr	r3, [r5, #0]
 8001c04:	423b      	tst	r3, r7
 8001c06:	d09f      	beq.n	8001b48 <HAL_RCC_OscConfig+0x10>
 8001c08:	f7ff fa36 	bl	8001078 <HAL_GetTick>
 8001c0c:	1b80      	subs	r0, r0, r6
 8001c0e:	2864      	cmp	r0, #100	; 0x64
 8001c10:	d9f7      	bls.n	8001c02 <HAL_RCC_OscConfig+0xca>
 8001c12:	e7d7      	b.n	8001bc4 <HAL_RCC_OscConfig+0x8c>
 8001c14:	2338      	movs	r3, #56	; 0x38
 8001c16:	4d93      	ldr	r5, [pc, #588]	; (8001e64 <HAL_RCC_OscConfig+0x32c>)
 8001c18:	68aa      	ldr	r2, [r5, #8]
 8001c1a:	4013      	ands	r3, r2
 8001c1c:	68ea      	ldr	r2, [r5, #12]
 8001c1e:	2b10      	cmp	r3, #16
 8001c20:	d128      	bne.n	8001c74 <HAL_RCC_OscConfig+0x13c>
 8001c22:	2103      	movs	r1, #3
 8001c24:	400a      	ands	r2, r1
 8001c26:	2a02      	cmp	r2, #2
 8001c28:	d126      	bne.n	8001c78 <HAL_RCC_OscConfig+0x140>
 8001c2a:	682a      	ldr	r2, [r5, #0]
 8001c2c:	0552      	lsls	r2, r2, #21
 8001c2e:	d502      	bpl.n	8001c36 <HAL_RCC_OscConfig+0xfe>
 8001c30:	68e2      	ldr	r2, [r4, #12]
 8001c32:	2a00      	cmp	r2, #0
 8001c34:	d0ad      	beq.n	8001b92 <HAL_RCC_OscConfig+0x5a>
 8001c36:	6869      	ldr	r1, [r5, #4]
 8001c38:	6962      	ldr	r2, [r4, #20]
 8001c3a:	488d      	ldr	r0, [pc, #564]	; (8001e70 <HAL_RCC_OscConfig+0x338>)
 8001c3c:	0212      	lsls	r2, r2, #8
 8001c3e:	4001      	ands	r1, r0
 8001c40:	430a      	orrs	r2, r1
 8001c42:	606a      	str	r2, [r5, #4]
 8001c44:	2b00      	cmp	r3, #0
 8001c46:	d10d      	bne.n	8001c64 <HAL_RCC_OscConfig+0x12c>
 8001c48:	682b      	ldr	r3, [r5, #0]
 8001c4a:	4a8a      	ldr	r2, [pc, #552]	; (8001e74 <HAL_RCC_OscConfig+0x33c>)
 8001c4c:	4013      	ands	r3, r2
 8001c4e:	6922      	ldr	r2, [r4, #16]
 8001c50:	4313      	orrs	r3, r2
 8001c52:	602b      	str	r3, [r5, #0]
 8001c54:	682b      	ldr	r3, [r5, #0]
 8001c56:	4a88      	ldr	r2, [pc, #544]	; (8001e78 <HAL_RCC_OscConfig+0x340>)
 8001c58:	049b      	lsls	r3, r3, #18
 8001c5a:	0f5b      	lsrs	r3, r3, #29
 8001c5c:	40da      	lsrs	r2, r3
 8001c5e:	0013      	movs	r3, r2
 8001c60:	4a86      	ldr	r2, [pc, #536]	; (8001e7c <HAL_RCC_OscConfig+0x344>)
 8001c62:	6013      	str	r3, [r2, #0]
 8001c64:	4b86      	ldr	r3, [pc, #536]	; (8001e80 <HAL_RCC_OscConfig+0x348>)
 8001c66:	6818      	ldr	r0, [r3, #0]
 8001c68:	f7ff f9be 	bl	8000fe8 <HAL_InitTick>
 8001c6c:	2800      	cmp	r0, #0
 8001c6e:	d100      	bne.n	8001c72 <HAL_RCC_OscConfig+0x13a>
 8001c70:	e76d      	b.n	8001b4e <HAL_RCC_OscConfig+0x16>
 8001c72:	e78e      	b.n	8001b92 <HAL_RCC_OscConfig+0x5a>
 8001c74:	2b00      	cmp	r3, #0
 8001c76:	d0d8      	beq.n	8001c2a <HAL_RCC_OscConfig+0xf2>
 8001c78:	68e3      	ldr	r3, [r4, #12]
 8001c7a:	2b00      	cmp	r3, #0
 8001c7c:	d020      	beq.n	8001cc0 <HAL_RCC_OscConfig+0x188>
 8001c7e:	682b      	ldr	r3, [r5, #0]
 8001c80:	4a7c      	ldr	r2, [pc, #496]	; (8001e74 <HAL_RCC_OscConfig+0x33c>)
 8001c82:	2780      	movs	r7, #128	; 0x80
 8001c84:	4013      	ands	r3, r2
 8001c86:	6922      	ldr	r2, [r4, #16]
 8001c88:	00ff      	lsls	r7, r7, #3
 8001c8a:	4313      	orrs	r3, r2
 8001c8c:	602b      	str	r3, [r5, #0]
 8001c8e:	2380      	movs	r3, #128	; 0x80
 8001c90:	682a      	ldr	r2, [r5, #0]
 8001c92:	005b      	lsls	r3, r3, #1
 8001c94:	4313      	orrs	r3, r2
 8001c96:	602b      	str	r3, [r5, #0]
 8001c98:	f7ff f9ee 	bl	8001078 <HAL_GetTick>
 8001c9c:	0006      	movs	r6, r0
 8001c9e:	682b      	ldr	r3, [r5, #0]
 8001ca0:	423b      	tst	r3, r7
 8001ca2:	d007      	beq.n	8001cb4 <HAL_RCC_OscConfig+0x17c>
 8001ca4:	686a      	ldr	r2, [r5, #4]
 8001ca6:	6963      	ldr	r3, [r4, #20]
 8001ca8:	4971      	ldr	r1, [pc, #452]	; (8001e70 <HAL_RCC_OscConfig+0x338>)
 8001caa:	021b      	lsls	r3, r3, #8
 8001cac:	400a      	ands	r2, r1
 8001cae:	4313      	orrs	r3, r2
 8001cb0:	606b      	str	r3, [r5, #4]
 8001cb2:	e74c      	b.n	8001b4e <HAL_RCC_OscConfig+0x16>
 8001cb4:	f7ff f9e0 	bl	8001078 <HAL_GetTick>
 8001cb8:	1b80      	subs	r0, r0, r6
 8001cba:	2802      	cmp	r0, #2
 8001cbc:	d9ef      	bls.n	8001c9e <HAL_RCC_OscConfig+0x166>
 8001cbe:	e781      	b.n	8001bc4 <HAL_RCC_OscConfig+0x8c>
 8001cc0:	682b      	ldr	r3, [r5, #0]
 8001cc2:	4a70      	ldr	r2, [pc, #448]	; (8001e84 <HAL_RCC_OscConfig+0x34c>)
 8001cc4:	2780      	movs	r7, #128	; 0x80
 8001cc6:	4013      	ands	r3, r2
 8001cc8:	602b      	str	r3, [r5, #0]
 8001cca:	f7ff f9d5 	bl	8001078 <HAL_GetTick>
 8001cce:	0006      	movs	r6, r0
 8001cd0:	00ff      	lsls	r7, r7, #3
 8001cd2:	682b      	ldr	r3, [r5, #0]
 8001cd4:	423b      	tst	r3, r7
 8001cd6:	d100      	bne.n	8001cda <HAL_RCC_OscConfig+0x1a2>
 8001cd8:	e739      	b.n	8001b4e <HAL_RCC_OscConfig+0x16>
 8001cda:	f7ff f9cd 	bl	8001078 <HAL_GetTick>
 8001cde:	1b80      	subs	r0, r0, r6
 8001ce0:	2802      	cmp	r0, #2
 8001ce2:	d9f6      	bls.n	8001cd2 <HAL_RCC_OscConfig+0x19a>
 8001ce4:	e76e      	b.n	8001bc4 <HAL_RCC_OscConfig+0x8c>
 8001ce6:	2238      	movs	r2, #56	; 0x38
 8001ce8:	4d5e      	ldr	r5, [pc, #376]	; (8001e64 <HAL_RCC_OscConfig+0x32c>)
 8001cea:	68ab      	ldr	r3, [r5, #8]
 8001cec:	4013      	ands	r3, r2
 8001cee:	2b18      	cmp	r3, #24
 8001cf0:	d108      	bne.n	8001d04 <HAL_RCC_OscConfig+0x1cc>
 8001cf2:	6e2b      	ldr	r3, [r5, #96]	; 0x60
 8001cf4:	079b      	lsls	r3, r3, #30
 8001cf6:	d400      	bmi.n	8001cfa <HAL_RCC_OscConfig+0x1c2>
 8001cf8:	e72d      	b.n	8001b56 <HAL_RCC_OscConfig+0x1e>
 8001cfa:	69a3      	ldr	r3, [r4, #24]
 8001cfc:	2b00      	cmp	r3, #0
 8001cfe:	d000      	beq.n	8001d02 <HAL_RCC_OscConfig+0x1ca>
 8001d00:	e729      	b.n	8001b56 <HAL_RCC_OscConfig+0x1e>
 8001d02:	e746      	b.n	8001b92 <HAL_RCC_OscConfig+0x5a>
 8001d04:	69a2      	ldr	r2, [r4, #24]
 8001d06:	2301      	movs	r3, #1
 8001d08:	2a00      	cmp	r2, #0
 8001d0a:	d010      	beq.n	8001d2e <HAL_RCC_OscConfig+0x1f6>
 8001d0c:	6e2a      	ldr	r2, [r5, #96]	; 0x60
 8001d0e:	2702      	movs	r7, #2
 8001d10:	4313      	orrs	r3, r2
 8001d12:	662b      	str	r3, [r5, #96]	; 0x60
 8001d14:	f7ff f9b0 	bl	8001078 <HAL_GetTick>
 8001d18:	0006      	movs	r6, r0
 8001d1a:	6e2b      	ldr	r3, [r5, #96]	; 0x60
 8001d1c:	423b      	tst	r3, r7
 8001d1e:	d000      	beq.n	8001d22 <HAL_RCC_OscConfig+0x1ea>
 8001d20:	e719      	b.n	8001b56 <HAL_RCC_OscConfig+0x1e>
 8001d22:	f7ff f9a9 	bl	8001078 <HAL_GetTick>
 8001d26:	1b80      	subs	r0, r0, r6
 8001d28:	2802      	cmp	r0, #2
 8001d2a:	d9f6      	bls.n	8001d1a <HAL_RCC_OscConfig+0x1e2>
 8001d2c:	e74a      	b.n	8001bc4 <HAL_RCC_OscConfig+0x8c>
 8001d2e:	6e2a      	ldr	r2, [r5, #96]	; 0x60
 8001d30:	2702      	movs	r7, #2
 8001d32:	439a      	bics	r2, r3
 8001d34:	662a      	str	r2, [r5, #96]	; 0x60
 8001d36:	f7ff f99f 	bl	8001078 <HAL_GetTick>
 8001d3a:	0006      	movs	r6, r0
 8001d3c:	6e2b      	ldr	r3, [r5, #96]	; 0x60
 8001d3e:	423b      	tst	r3, r7
 8001d40:	d100      	bne.n	8001d44 <HAL_RCC_OscConfig+0x20c>
 8001d42:	e708      	b.n	8001b56 <HAL_RCC_OscConfig+0x1e>
 8001d44:	f7ff f998 	bl	8001078 <HAL_GetTick>
 8001d48:	1b80      	subs	r0, r0, r6
 8001d4a:	2802      	cmp	r0, #2
 8001d4c:	d9f6      	bls.n	8001d3c <HAL_RCC_OscConfig+0x204>
 8001d4e:	e739      	b.n	8001bc4 <HAL_RCC_OscConfig+0x8c>
 8001d50:	2238      	movs	r2, #56	; 0x38
 8001d52:	4d44      	ldr	r5, [pc, #272]	; (8001e64 <HAL_RCC_OscConfig+0x32c>)
 8001d54:	68ab      	ldr	r3, [r5, #8]
 8001d56:	4013      	ands	r3, r2
 8001d58:	2b20      	cmp	r3, #32
 8001d5a:	d108      	bne.n	8001d6e <HAL_RCC_OscConfig+0x236>
 8001d5c:	6deb      	ldr	r3, [r5, #92]	; 0x5c
 8001d5e:	079b      	lsls	r3, r3, #30
 8001d60:	d400      	bmi.n	8001d64 <HAL_RCC_OscConfig+0x22c>
 8001d62:	e6fc      	b.n	8001b5e <HAL_RCC_OscConfig+0x26>
 8001d64:	68a3      	ldr	r3, [r4, #8]
 8001d66:	2b00      	cmp	r3, #0
 8001d68:	d000      	beq.n	8001d6c <HAL_RCC_OscConfig+0x234>
 8001d6a:	e6f8      	b.n	8001b5e <HAL_RCC_OscConfig+0x26>
 8001d6c:	e711      	b.n	8001b92 <HAL_RCC_OscConfig+0x5a>
 8001d6e:	2280      	movs	r2, #128	; 0x80
 8001d70:	2100      	movs	r1, #0
 8001d72:	6beb      	ldr	r3, [r5, #60]	; 0x3c
 8001d74:	0552      	lsls	r2, r2, #21
 8001d76:	9100      	str	r1, [sp, #0]
 8001d78:	4213      	tst	r3, r2
 8001d7a:	d108      	bne.n	8001d8e <HAL_RCC_OscConfig+0x256>
 8001d7c:	6beb      	ldr	r3, [r5, #60]	; 0x3c
 8001d7e:	4313      	orrs	r3, r2
 8001d80:	63eb      	str	r3, [r5, #60]	; 0x3c
 8001d82:	6beb      	ldr	r3, [r5, #60]	; 0x3c
 8001d84:	4013      	ands	r3, r2
 8001d86:	9303      	str	r3, [sp, #12]
 8001d88:	9b03      	ldr	r3, [sp, #12]
 8001d8a:	2301      	movs	r3, #1
 8001d8c:	9300      	str	r3, [sp, #0]
 8001d8e:	2780      	movs	r7, #128	; 0x80
 8001d90:	4e3d      	ldr	r6, [pc, #244]	; (8001e88 <HAL_RCC_OscConfig+0x350>)
 8001d92:	007f      	lsls	r7, r7, #1
 8001d94:	6833      	ldr	r3, [r6, #0]
 8001d96:	423b      	tst	r3, r7
 8001d98:	d015      	beq.n	8001dc6 <HAL_RCC_OscConfig+0x28e>
 8001d9a:	68a3      	ldr	r3, [r4, #8]
 8001d9c:	2b01      	cmp	r3, #1
 8001d9e:	d122      	bne.n	8001de6 <HAL_RCC_OscConfig+0x2ae>
 8001da0:	6dea      	ldr	r2, [r5, #92]	; 0x5c
 8001da2:	4313      	orrs	r3, r2
 8001da4:	65eb      	str	r3, [r5, #92]	; 0x5c
 8001da6:	f7ff f967 	bl	8001078 <HAL_GetTick>
 8001daa:	2702      	movs	r7, #2
 8001dac:	0006      	movs	r6, r0
 8001dae:	6deb      	ldr	r3, [r5, #92]	; 0x5c
 8001db0:	423b      	tst	r3, r7
 8001db2:	d038      	beq.n	8001e26 <HAL_RCC_OscConfig+0x2ee>
 8001db4:	9b00      	ldr	r3, [sp, #0]
 8001db6:	2b01      	cmp	r3, #1
 8001db8:	d000      	beq.n	8001dbc <HAL_RCC_OscConfig+0x284>
 8001dba:	e6d0      	b.n	8001b5e <HAL_RCC_OscConfig+0x26>
 8001dbc:	6beb      	ldr	r3, [r5, #60]	; 0x3c
 8001dbe:	4a33      	ldr	r2, [pc, #204]	; (8001e8c <HAL_RCC_OscConfig+0x354>)
 8001dc0:	4013      	ands	r3, r2
 8001dc2:	63eb      	str	r3, [r5, #60]	; 0x3c
 8001dc4:	e6cb      	b.n	8001b5e <HAL_RCC_OscConfig+0x26>
 8001dc6:	6833      	ldr	r3, [r6, #0]
 8001dc8:	433b      	orrs	r3, r7
 8001dca:	6033      	str	r3, [r6, #0]
 8001dcc:	f7ff f954 	bl	8001078 <HAL_GetTick>
 8001dd0:	9001      	str	r0, [sp, #4]
 8001dd2:	6833      	ldr	r3, [r6, #0]
 8001dd4:	423b      	tst	r3, r7
 8001dd6:	d1e0      	bne.n	8001d9a <HAL_RCC_OscConfig+0x262>
 8001dd8:	f7ff f94e 	bl	8001078 <HAL_GetTick>
 8001ddc:	9b01      	ldr	r3, [sp, #4]
 8001dde:	1ac0      	subs	r0, r0, r3
 8001de0:	2802      	cmp	r0, #2
 8001de2:	d9f6      	bls.n	8001dd2 <HAL_RCC_OscConfig+0x29a>
 8001de4:	e6ee      	b.n	8001bc4 <HAL_RCC_OscConfig+0x8c>
 8001de6:	6dea      	ldr	r2, [r5, #92]	; 0x5c
 8001de8:	2b05      	cmp	r3, #5
 8001dea:	d105      	bne.n	8001df8 <HAL_RCC_OscConfig+0x2c0>
 8001dec:	3b01      	subs	r3, #1
 8001dee:	4313      	orrs	r3, r2
 8001df0:	65eb      	str	r3, [r5, #92]	; 0x5c
 8001df2:	6dea      	ldr	r2, [r5, #92]	; 0x5c
 8001df4:	2301      	movs	r3, #1
 8001df6:	e7d4      	b.n	8001da2 <HAL_RCC_OscConfig+0x26a>
 8001df8:	2101      	movs	r1, #1
 8001dfa:	438a      	bics	r2, r1
 8001dfc:	65ea      	str	r2, [r5, #92]	; 0x5c
 8001dfe:	6dea      	ldr	r2, [r5, #92]	; 0x5c
 8001e00:	3103      	adds	r1, #3
 8001e02:	438a      	bics	r2, r1
 8001e04:	65ea      	str	r2, [r5, #92]	; 0x5c
 8001e06:	2b00      	cmp	r3, #0
 8001e08:	d1cd      	bne.n	8001da6 <HAL_RCC_OscConfig+0x26e>
 8001e0a:	f7ff f935 	bl	8001078 <HAL_GetTick>
 8001e0e:	2702      	movs	r7, #2
 8001e10:	0006      	movs	r6, r0
 8001e12:	6deb      	ldr	r3, [r5, #92]	; 0x5c
 8001e14:	423b      	tst	r3, r7
 8001e16:	d0cd      	beq.n	8001db4 <HAL_RCC_OscConfig+0x27c>
 8001e18:	f7ff f92e 	bl	8001078 <HAL_GetTick>
 8001e1c:	4b1c      	ldr	r3, [pc, #112]	; (8001e90 <HAL_RCC_OscConfig+0x358>)
 8001e1e:	1b80      	subs	r0, r0, r6
 8001e20:	4298      	cmp	r0, r3
 8001e22:	d9f6      	bls.n	8001e12 <HAL_RCC_OscConfig+0x2da>
 8001e24:	e6ce      	b.n	8001bc4 <HAL_RCC_OscConfig+0x8c>
 8001e26:	f7ff f927 	bl	8001078 <HAL_GetTick>
 8001e2a:	4b19      	ldr	r3, [pc, #100]	; (8001e90 <HAL_RCC_OscConfig+0x358>)
 8001e2c:	1b80      	subs	r0, r0, r6
 8001e2e:	4298      	cmp	r0, r3
 8001e30:	d9bd      	bls.n	8001dae <HAL_RCC_OscConfig+0x276>
 8001e32:	e6c7      	b.n	8001bc4 <HAL_RCC_OscConfig+0x8c>
 8001e34:	69e3      	ldr	r3, [r4, #28]
 8001e36:	4d0b      	ldr	r5, [pc, #44]	; (8001e64 <HAL_RCC_OscConfig+0x32c>)
 8001e38:	2b00      	cmp	r3, #0
 8001e3a:	d02b      	beq.n	8001e94 <HAL_RCC_OscConfig+0x35c>
 8001e3c:	2380      	movs	r3, #128	; 0x80
 8001e3e:	682a      	ldr	r2, [r5, #0]
 8001e40:	03db      	lsls	r3, r3, #15
 8001e42:	4313      	orrs	r3, r2
 8001e44:	602b      	str	r3, [r5, #0]
 8001e46:	f7ff f917 	bl	8001078 <HAL_GetTick>
 8001e4a:	2780      	movs	r7, #128	; 0x80
 8001e4c:	0006      	movs	r6, r0
 8001e4e:	043f      	lsls	r7, r7, #16
 8001e50:	682b      	ldr	r3, [r5, #0]
 8001e52:	423b      	tst	r3, r7
 8001e54:	d000      	beq.n	8001e58 <HAL_RCC_OscConfig+0x320>
 8001e56:	e686      	b.n	8001b66 <HAL_RCC_OscConfig+0x2e>
 8001e58:	f7ff f90e 	bl	8001078 <HAL_GetTick>
 8001e5c:	1b80      	subs	r0, r0, r6
 8001e5e:	2802      	cmp	r0, #2
 8001e60:	d9f6      	bls.n	8001e50 <HAL_RCC_OscConfig+0x318>
 8001e62:	e6af      	b.n	8001bc4 <HAL_RCC_OscConfig+0x8c>
 8001e64:	40021000 	.word	0x40021000
 8001e68:	fffeffff 	.word	0xfffeffff
 8001e6c:	fffbffff 	.word	0xfffbffff
 8001e70:	ffff80ff 	.word	0xffff80ff
 8001e74:	ffffc7ff 	.word	0xffffc7ff
 8001e78:	00f42400 	.word	0x00f42400
 8001e7c:	20000000 	.word	0x20000000
 8001e80:	20000008 	.word	0x20000008
 8001e84:	fffffeff 	.word	0xfffffeff
 8001e88:	40007000 	.word	0x40007000
 8001e8c:	efffffff 	.word	0xefffffff
 8001e90:	00001388 	.word	0x00001388
 8001e94:	682b      	ldr	r3, [r5, #0]
 8001e96:	4a4e      	ldr	r2, [pc, #312]	; (8001fd0 <HAL_RCC_OscConfig+0x498>)
 8001e98:	2780      	movs	r7, #128	; 0x80
 8001e9a:	4013      	ands	r3, r2
 8001e9c:	602b      	str	r3, [r5, #0]
 8001e9e:	f7ff f8eb 	bl	8001078 <HAL_GetTick>
 8001ea2:	0006      	movs	r6, r0
 8001ea4:	043f      	lsls	r7, r7, #16
 8001ea6:	682b      	ldr	r3, [r5, #0]
 8001ea8:	423b      	tst	r3, r7
 8001eaa:	d100      	bne.n	8001eae <HAL_RCC_OscConfig+0x376>
 8001eac:	e65b      	b.n	8001b66 <HAL_RCC_OscConfig+0x2e>
 8001eae:	f7ff f8e3 	bl	8001078 <HAL_GetTick>
 8001eb2:	1b80      	subs	r0, r0, r6
 8001eb4:	2802      	cmp	r0, #2
 8001eb6:	d9f6      	bls.n	8001ea6 <HAL_RCC_OscConfig+0x36e>
 8001eb8:	e684      	b.n	8001bc4 <HAL_RCC_OscConfig+0x8c>
 8001eba:	2138      	movs	r1, #56	; 0x38
 8001ebc:	4d45      	ldr	r5, [pc, #276]	; (8001fd4 <HAL_RCC_OscConfig+0x49c>)
 8001ebe:	68aa      	ldr	r2, [r5, #8]
 8001ec0:	400a      	ands	r2, r1
 8001ec2:	2a10      	cmp	r2, #16
 8001ec4:	d055      	beq.n	8001f72 <HAL_RCC_OscConfig+0x43a>
 8001ec6:	4a44      	ldr	r2, [pc, #272]	; (8001fd8 <HAL_RCC_OscConfig+0x4a0>)
 8001ec8:	2b02      	cmp	r3, #2
 8001eca:	d13a      	bne.n	8001f42 <HAL_RCC_OscConfig+0x40a>
 8001ecc:	682b      	ldr	r3, [r5, #0]
 8001ece:	2780      	movs	r7, #128	; 0x80
 8001ed0:	4013      	ands	r3, r2
 8001ed2:	602b      	str	r3, [r5, #0]
 8001ed4:	f7ff f8d0 	bl	8001078 <HAL_GetTick>
 8001ed8:	0006      	movs	r6, r0
 8001eda:	04bf      	lsls	r7, r7, #18
 8001edc:	682b      	ldr	r3, [r5, #0]
 8001ede:	423b      	tst	r3, r7
 8001ee0:	d129      	bne.n	8001f36 <HAL_RCC_OscConfig+0x3fe>
 8001ee2:	6aa1      	ldr	r1, [r4, #40]	; 0x28
 8001ee4:	6a63      	ldr	r3, [r4, #36]	; 0x24
 8001ee6:	68ea      	ldr	r2, [r5, #12]
 8001ee8:	430b      	orrs	r3, r1
 8001eea:	493c      	ldr	r1, [pc, #240]	; (8001fdc <HAL_RCC_OscConfig+0x4a4>)
 8001eec:	2680      	movs	r6, #128	; 0x80
 8001eee:	400a      	ands	r2, r1
 8001ef0:	4313      	orrs	r3, r2
 8001ef2:	6b22      	ldr	r2, [r4, #48]	; 0x30
 8001ef4:	04b6      	lsls	r6, r6, #18
 8001ef6:	4313      	orrs	r3, r2
 8001ef8:	6b62      	ldr	r2, [r4, #52]	; 0x34
 8001efa:	4313      	orrs	r3, r2
 8001efc:	6ba2      	ldr	r2, [r4, #56]	; 0x38
 8001efe:	4313      	orrs	r3, r2
 8001f00:	6ae2      	ldr	r2, [r4, #44]	; 0x2c
 8001f02:	0212      	lsls	r2, r2, #8
 8001f04:	4313      	orrs	r3, r2
 8001f06:	60eb      	str	r3, [r5, #12]
 8001f08:	2380      	movs	r3, #128	; 0x80
 8001f0a:	682a      	ldr	r2, [r5, #0]
 8001f0c:	045b      	lsls	r3, r3, #17
 8001f0e:	4313      	orrs	r3, r2
 8001f10:	602b      	str	r3, [r5, #0]
 8001f12:	2380      	movs	r3, #128	; 0x80
 8001f14:	68ea      	ldr	r2, [r5, #12]
 8001f16:	055b      	lsls	r3, r3, #21
 8001f18:	4313      	orrs	r3, r2
 8001f1a:	60eb      	str	r3, [r5, #12]
 8001f1c:	f7ff f8ac 	bl	8001078 <HAL_GetTick>
 8001f20:	0004      	movs	r4, r0
 8001f22:	682b      	ldr	r3, [r5, #0]
 8001f24:	4233      	tst	r3, r6
 8001f26:	d000      	beq.n	8001f2a <HAL_RCC_OscConfig+0x3f2>
 8001f28:	e621      	b.n	8001b6e <HAL_RCC_OscConfig+0x36>
 8001f2a:	f7ff f8a5 	bl	8001078 <HAL_GetTick>
 8001f2e:	1b00      	subs	r0, r0, r4
 8001f30:	2802      	cmp	r0, #2
 8001f32:	d9f6      	bls.n	8001f22 <HAL_RCC_OscConfig+0x3ea>
 8001f34:	e646      	b.n	8001bc4 <HAL_RCC_OscConfig+0x8c>
 8001f36:	f7ff f89f 	bl	8001078 <HAL_GetTick>
 8001f3a:	1b80      	subs	r0, r0, r6
 8001f3c:	2802      	cmp	r0, #2
 8001f3e:	d9cd      	bls.n	8001edc <HAL_RCC_OscConfig+0x3a4>
 8001f40:	e640      	b.n	8001bc4 <HAL_RCC_OscConfig+0x8c>
 8001f42:	682b      	ldr	r3, [r5, #0]
 8001f44:	2680      	movs	r6, #128	; 0x80
 8001f46:	4013      	ands	r3, r2
 8001f48:	602b      	str	r3, [r5, #0]
 8001f4a:	f7ff f895 	bl	8001078 <HAL_GetTick>
 8001f4e:	0004      	movs	r4, r0
 8001f50:	04b6      	lsls	r6, r6, #18
 8001f52:	682b      	ldr	r3, [r5, #0]
 8001f54:	0018      	movs	r0, r3
 8001f56:	4030      	ands	r0, r6
 8001f58:	4233      	tst	r3, r6
 8001f5a:	d104      	bne.n	8001f66 <HAL_RCC_OscConfig+0x42e>
 8001f5c:	68eb      	ldr	r3, [r5, #12]
 8001f5e:	4a20      	ldr	r2, [pc, #128]	; (8001fe0 <HAL_RCC_OscConfig+0x4a8>)
 8001f60:	4013      	ands	r3, r2
 8001f62:	60eb      	str	r3, [r5, #12]
 8001f64:	e62f      	b.n	8001bc6 <HAL_RCC_OscConfig+0x8e>
 8001f66:	f7ff f887 	bl	8001078 <HAL_GetTick>
 8001f6a:	1b00      	subs	r0, r0, r4
 8001f6c:	2802      	cmp	r0, #2
 8001f6e:	d9f0      	bls.n	8001f52 <HAL_RCC_OscConfig+0x41a>
 8001f70:	e628      	b.n	8001bc4 <HAL_RCC_OscConfig+0x8c>
 8001f72:	0018      	movs	r0, r3
 8001f74:	2b01      	cmp	r3, #1
 8001f76:	d100      	bne.n	8001f7a <HAL_RCC_OscConfig+0x442>
 8001f78:	e625      	b.n	8001bc6 <HAL_RCC_OscConfig+0x8e>
 8001f7a:	2203      	movs	r2, #3
 8001f7c:	68eb      	ldr	r3, [r5, #12]
 8001f7e:	6a61      	ldr	r1, [r4, #36]	; 0x24
 8001f80:	401a      	ands	r2, r3
 8001f82:	428a      	cmp	r2, r1
 8001f84:	d000      	beq.n	8001f88 <HAL_RCC_OscConfig+0x450>
 8001f86:	e604      	b.n	8001b92 <HAL_RCC_OscConfig+0x5a>
 8001f88:	2270      	movs	r2, #112	; 0x70
 8001f8a:	6aa1      	ldr	r1, [r4, #40]	; 0x28
 8001f8c:	401a      	ands	r2, r3
 8001f8e:	428a      	cmp	r2, r1
 8001f90:	d000      	beq.n	8001f94 <HAL_RCC_OscConfig+0x45c>
 8001f92:	e5fe      	b.n	8001b92 <HAL_RCC_OscConfig+0x5a>
 8001f94:	21fe      	movs	r1, #254	; 0xfe
 8001f96:	6ae2      	ldr	r2, [r4, #44]	; 0x2c
 8001f98:	01c9      	lsls	r1, r1, #7
 8001f9a:	4019      	ands	r1, r3
 8001f9c:	0212      	lsls	r2, r2, #8
 8001f9e:	4291      	cmp	r1, r2
 8001fa0:	d000      	beq.n	8001fa4 <HAL_RCC_OscConfig+0x46c>
 8001fa2:	e5f6      	b.n	8001b92 <HAL_RCC_OscConfig+0x5a>
 8001fa4:	22f8      	movs	r2, #248	; 0xf8
 8001fa6:	6b21      	ldr	r1, [r4, #48]	; 0x30
 8001fa8:	0392      	lsls	r2, r2, #14
 8001faa:	401a      	ands	r2, r3
 8001fac:	428a      	cmp	r2, r1
 8001fae:	d000      	beq.n	8001fb2 <HAL_RCC_OscConfig+0x47a>
 8001fb0:	e5ef      	b.n	8001b92 <HAL_RCC_OscConfig+0x5a>
 8001fb2:	22e0      	movs	r2, #224	; 0xe0
 8001fb4:	6b61      	ldr	r1, [r4, #52]	; 0x34
 8001fb6:	0512      	lsls	r2, r2, #20
 8001fb8:	401a      	ands	r2, r3
 8001fba:	428a      	cmp	r2, r1
 8001fbc:	d000      	beq.n	8001fc0 <HAL_RCC_OscConfig+0x488>
 8001fbe:	e5e8      	b.n	8001b92 <HAL_RCC_OscConfig+0x5a>
 8001fc0:	6ba2      	ldr	r2, [r4, #56]	; 0x38
 8001fc2:	0f5b      	lsrs	r3, r3, #29
 8001fc4:	075b      	lsls	r3, r3, #29
 8001fc6:	4293      	cmp	r3, r2
 8001fc8:	d100      	bne.n	8001fcc <HAL_RCC_OscConfig+0x494>
 8001fca:	e5d0      	b.n	8001b6e <HAL_RCC_OscConfig+0x36>
 8001fcc:	e5e1      	b.n	8001b92 <HAL_RCC_OscConfig+0x5a>
 8001fce:	46c0      	nop			; (mov r8, r8)
 8001fd0:	ffbfffff 	.word	0xffbfffff
 8001fd4:	40021000 	.word	0x40021000
 8001fd8:	feffffff 	.word	0xfeffffff
 8001fdc:	11c1808c 	.word	0x11c1808c
 8001fe0:	eefefffc 	.word	0xeefefffc

08001fe4 <HAL_RCC_GetSysClockFreq>:
 8001fe4:	2338      	movs	r3, #56	; 0x38
 8001fe6:	b570      	push	{r4, r5, r6, lr}
 8001fe8:	4c1e      	ldr	r4, [pc, #120]	; (8002064 <HAL_RCC_GetSysClockFreq+0x80>)
 8001fea:	68a2      	ldr	r2, [r4, #8]
 8001fec:	421a      	tst	r2, r3
 8001fee:	d105      	bne.n	8001ffc <HAL_RCC_GetSysClockFreq+0x18>
 8001ff0:	6823      	ldr	r3, [r4, #0]
 8001ff2:	481d      	ldr	r0, [pc, #116]	; (8002068 <HAL_RCC_GetSysClockFreq+0x84>)
 8001ff4:	049b      	lsls	r3, r3, #18
 8001ff6:	0f5b      	lsrs	r3, r3, #29
 8001ff8:	40d8      	lsrs	r0, r3
 8001ffa:	bd70      	pop	{r4, r5, r6, pc}
 8001ffc:	68a2      	ldr	r2, [r4, #8]
 8001ffe:	401a      	ands	r2, r3
 8002000:	2a08      	cmp	r2, #8
 8002002:	d02a      	beq.n	800205a <HAL_RCC_GetSysClockFreq+0x76>
 8002004:	68a2      	ldr	r2, [r4, #8]
 8002006:	401a      	ands	r2, r3
 8002008:	2a10      	cmp	r2, #16
 800200a:	d11a      	bne.n	8002042 <HAL_RCC_GetSysClockFreq+0x5e>
 800200c:	68e3      	ldr	r3, [r4, #12]
 800200e:	68e1      	ldr	r1, [r4, #12]
 8002010:	43db      	mvns	r3, r3
 8002012:	0649      	lsls	r1, r1, #25
 8002014:	0f49      	lsrs	r1, r1, #29
 8002016:	257f      	movs	r5, #127	; 0x7f
 8002018:	3101      	adds	r1, #1
 800201a:	079b      	lsls	r3, r3, #30
 800201c:	d10c      	bne.n	8002038 <HAL_RCC_GetSysClockFreq+0x54>
 800201e:	68e3      	ldr	r3, [r4, #12]
 8002020:	4812      	ldr	r0, [pc, #72]	; (800206c <HAL_RCC_GetSysClockFreq+0x88>)
 8002022:	0a1b      	lsrs	r3, r3, #8
 8002024:	401d      	ands	r5, r3
 8002026:	f7fe f881 	bl	800012c <__udivsi3>
 800202a:	68e1      	ldr	r1, [r4, #12]
 800202c:	4368      	muls	r0, r5
 800202e:	0f49      	lsrs	r1, r1, #29
 8002030:	3101      	adds	r1, #1
 8002032:	f7fe f87b 	bl	800012c <__udivsi3>
 8002036:	e7e0      	b.n	8001ffa <HAL_RCC_GetSysClockFreq+0x16>
 8002038:	68e3      	ldr	r3, [r4, #12]
 800203a:	480b      	ldr	r0, [pc, #44]	; (8002068 <HAL_RCC_GetSysClockFreq+0x84>)
 800203c:	0a1b      	lsrs	r3, r3, #8
 800203e:	401d      	ands	r5, r3
 8002040:	e7f1      	b.n	8002026 <HAL_RCC_GetSysClockFreq+0x42>
 8002042:	68a2      	ldr	r2, [r4, #8]
 8002044:	401a      	ands	r2, r3
 8002046:	2a20      	cmp	r2, #32
 8002048:	d009      	beq.n	800205e <HAL_RCC_GetSysClockFreq+0x7a>
 800204a:	68a2      	ldr	r2, [r4, #8]
 800204c:	2000      	movs	r0, #0
 800204e:	4013      	ands	r3, r2
 8002050:	2b18      	cmp	r3, #24
 8002052:	d1d2      	bne.n	8001ffa <HAL_RCC_GetSysClockFreq+0x16>
 8002054:	20fa      	movs	r0, #250	; 0xfa
 8002056:	01c0      	lsls	r0, r0, #7
 8002058:	e7cf      	b.n	8001ffa <HAL_RCC_GetSysClockFreq+0x16>
 800205a:	4804      	ldr	r0, [pc, #16]	; (800206c <HAL_RCC_GetSysClockFreq+0x88>)
 800205c:	e7cd      	b.n	8001ffa <HAL_RCC_GetSysClockFreq+0x16>
 800205e:	2080      	movs	r0, #128	; 0x80
 8002060:	0200      	lsls	r0, r0, #8
 8002062:	e7ca      	b.n	8001ffa <HAL_RCC_GetSysClockFreq+0x16>
 8002064:	40021000 	.word	0x40021000
 8002068:	00f42400 	.word	0x00f42400
 800206c:	007a1200 	.word	0x007a1200

08002070 <HAL_RCC_ClockConfig>:
 8002070:	b5f7      	push	{r0, r1, r2, r4, r5, r6, r7, lr}
 8002072:	0004      	movs	r4, r0
 8002074:	000d      	movs	r5, r1
 8002076:	2800      	cmp	r0, #0
 8002078:	d101      	bne.n	800207e <HAL_RCC_ClockConfig+0xe>
 800207a:	2001      	movs	r0, #1
 800207c:	bdfe      	pop	{r1, r2, r3, r4, r5, r6, r7, pc}
 800207e:	2707      	movs	r7, #7
 8002080:	4e4a      	ldr	r6, [pc, #296]	; (80021ac <HAL_RCC_ClockConfig+0x13c>)
 8002082:	6833      	ldr	r3, [r6, #0]
 8002084:	403b      	ands	r3, r7
 8002086:	428b      	cmp	r3, r1
 8002088:	d32a      	bcc.n	80020e0 <HAL_RCC_ClockConfig+0x70>
 800208a:	6821      	ldr	r1, [r4, #0]
 800208c:	078b      	lsls	r3, r1, #30
 800208e:	d43b      	bmi.n	8002108 <HAL_RCC_ClockConfig+0x98>
 8002090:	07cb      	lsls	r3, r1, #31
 8002092:	d448      	bmi.n	8002126 <HAL_RCC_ClockConfig+0xb6>
 8002094:	2707      	movs	r7, #7
 8002096:	6833      	ldr	r3, [r6, #0]
 8002098:	403b      	ands	r3, r7
 800209a:	42ab      	cmp	r3, r5
 800209c:	d90a      	bls.n	80020b4 <HAL_RCC_ClockConfig+0x44>
 800209e:	6833      	ldr	r3, [r6, #0]
 80020a0:	43bb      	bics	r3, r7
 80020a2:	432b      	orrs	r3, r5
 80020a4:	6033      	str	r3, [r6, #0]
 80020a6:	f7fe ffe7 	bl	8001078 <HAL_GetTick>
 80020aa:	9001      	str	r0, [sp, #4]
 80020ac:	6833      	ldr	r3, [r6, #0]
 80020ae:	403b      	ands	r3, r7
 80020b0:	42ab      	cmp	r3, r5
 80020b2:	d16b      	bne.n	800218c <HAL_RCC_ClockConfig+0x11c>
 80020b4:	6823      	ldr	r3, [r4, #0]
 80020b6:	4d3e      	ldr	r5, [pc, #248]	; (80021b0 <HAL_RCC_ClockConfig+0x140>)
 80020b8:	075b      	lsls	r3, r3, #29
 80020ba:	d46f      	bmi.n	800219c <HAL_RCC_ClockConfig+0x12c>
 80020bc:	f7ff ff92 	bl	8001fe4 <HAL_RCC_GetSysClockFreq>
 80020c0:	68ab      	ldr	r3, [r5, #8]
 80020c2:	4a3c      	ldr	r2, [pc, #240]	; (80021b4 <HAL_RCC_ClockConfig+0x144>)
 80020c4:	051b      	lsls	r3, r3, #20
 80020c6:	0f1b      	lsrs	r3, r3, #28
 80020c8:	009b      	lsls	r3, r3, #2
 80020ca:	589b      	ldr	r3, [r3, r2]
 80020cc:	221f      	movs	r2, #31
 80020ce:	4013      	ands	r3, r2
 80020d0:	40d8      	lsrs	r0, r3
 80020d2:	4b39      	ldr	r3, [pc, #228]	; (80021b8 <HAL_RCC_ClockConfig+0x148>)
 80020d4:	6018      	str	r0, [r3, #0]
 80020d6:	4b39      	ldr	r3, [pc, #228]	; (80021bc <HAL_RCC_ClockConfig+0x14c>)
 80020d8:	6818      	ldr	r0, [r3, #0]
 80020da:	f7fe ff85 	bl	8000fe8 <HAL_InitTick>
 80020de:	e7cd      	b.n	800207c <HAL_RCC_ClockConfig+0xc>
 80020e0:	6833      	ldr	r3, [r6, #0]
 80020e2:	43bb      	bics	r3, r7
 80020e4:	430b      	orrs	r3, r1
 80020e6:	6033      	str	r3, [r6, #0]
 80020e8:	f7fe ffc6 	bl	8001078 <HAL_GetTick>
 80020ec:	9001      	str	r0, [sp, #4]
 80020ee:	6833      	ldr	r3, [r6, #0]
 80020f0:	403b      	ands	r3, r7
 80020f2:	42ab      	cmp	r3, r5
 80020f4:	d0c9      	beq.n	800208a <HAL_RCC_ClockConfig+0x1a>
 80020f6:	f7fe ffbf 	bl	8001078 <HAL_GetTick>
 80020fa:	9b01      	ldr	r3, [sp, #4]
 80020fc:	1ac0      	subs	r0, r0, r3
 80020fe:	4b30      	ldr	r3, [pc, #192]	; (80021c0 <HAL_RCC_ClockConfig+0x150>)
 8002100:	4298      	cmp	r0, r3
 8002102:	d9f4      	bls.n	80020ee <HAL_RCC_ClockConfig+0x7e>
 8002104:	2003      	movs	r0, #3
 8002106:	e7b9      	b.n	800207c <HAL_RCC_ClockConfig+0xc>
 8002108:	4a29      	ldr	r2, [pc, #164]	; (80021b0 <HAL_RCC_ClockConfig+0x140>)
 800210a:	074b      	lsls	r3, r1, #29
 800210c:	d504      	bpl.n	8002118 <HAL_RCC_ClockConfig+0xa8>
 800210e:	23e0      	movs	r3, #224	; 0xe0
 8002110:	6890      	ldr	r0, [r2, #8]
 8002112:	01db      	lsls	r3, r3, #7
 8002114:	4303      	orrs	r3, r0
 8002116:	6093      	str	r3, [r2, #8]
 8002118:	6893      	ldr	r3, [r2, #8]
 800211a:	482a      	ldr	r0, [pc, #168]	; (80021c4 <HAL_RCC_ClockConfig+0x154>)
 800211c:	4003      	ands	r3, r0
 800211e:	68a0      	ldr	r0, [r4, #8]
 8002120:	4303      	orrs	r3, r0
 8002122:	6093      	str	r3, [r2, #8]
 8002124:	e7b4      	b.n	8002090 <HAL_RCC_ClockConfig+0x20>
 8002126:	6862      	ldr	r2, [r4, #4]
 8002128:	4f21      	ldr	r7, [pc, #132]	; (80021b0 <HAL_RCC_ClockConfig+0x140>)
 800212a:	2a01      	cmp	r2, #1
 800212c:	d119      	bne.n	8002162 <HAL_RCC_ClockConfig+0xf2>
 800212e:	683b      	ldr	r3, [r7, #0]
 8002130:	039b      	lsls	r3, r3, #14
 8002132:	d5a2      	bpl.n	800207a <HAL_RCC_ClockConfig+0xa>
 8002134:	2107      	movs	r1, #7
 8002136:	68bb      	ldr	r3, [r7, #8]
 8002138:	438b      	bics	r3, r1
 800213a:	4313      	orrs	r3, r2
 800213c:	60bb      	str	r3, [r7, #8]
 800213e:	f7fe ff9b 	bl	8001078 <HAL_GetTick>
 8002142:	9001      	str	r0, [sp, #4]
 8002144:	2338      	movs	r3, #56	; 0x38
 8002146:	68ba      	ldr	r2, [r7, #8]
 8002148:	401a      	ands	r2, r3
 800214a:	6863      	ldr	r3, [r4, #4]
 800214c:	00db      	lsls	r3, r3, #3
 800214e:	429a      	cmp	r2, r3
 8002150:	d0a0      	beq.n	8002094 <HAL_RCC_ClockConfig+0x24>
 8002152:	f7fe ff91 	bl	8001078 <HAL_GetTick>
 8002156:	9b01      	ldr	r3, [sp, #4]
 8002158:	1ac0      	subs	r0, r0, r3
 800215a:	4b19      	ldr	r3, [pc, #100]	; (80021c0 <HAL_RCC_ClockConfig+0x150>)
 800215c:	4298      	cmp	r0, r3
 800215e:	d9f1      	bls.n	8002144 <HAL_RCC_ClockConfig+0xd4>
 8002160:	e7d0      	b.n	8002104 <HAL_RCC_ClockConfig+0x94>
 8002162:	2a02      	cmp	r2, #2
 8002164:	d103      	bne.n	800216e <HAL_RCC_ClockConfig+0xfe>
 8002166:	683b      	ldr	r3, [r7, #0]
 8002168:	019b      	lsls	r3, r3, #6
 800216a:	d4e3      	bmi.n	8002134 <HAL_RCC_ClockConfig+0xc4>
 800216c:	e785      	b.n	800207a <HAL_RCC_ClockConfig+0xa>
 800216e:	2a00      	cmp	r2, #0
 8002170:	d103      	bne.n	800217a <HAL_RCC_ClockConfig+0x10a>
 8002172:	683b      	ldr	r3, [r7, #0]
 8002174:	055b      	lsls	r3, r3, #21
 8002176:	d4dd      	bmi.n	8002134 <HAL_RCC_ClockConfig+0xc4>
 8002178:	e77f      	b.n	800207a <HAL_RCC_ClockConfig+0xa>
 800217a:	2302      	movs	r3, #2
 800217c:	2a03      	cmp	r2, #3
 800217e:	d103      	bne.n	8002188 <HAL_RCC_ClockConfig+0x118>
 8002180:	6e39      	ldr	r1, [r7, #96]	; 0x60
 8002182:	4219      	tst	r1, r3
 8002184:	d1d6      	bne.n	8002134 <HAL_RCC_ClockConfig+0xc4>
 8002186:	e778      	b.n	800207a <HAL_RCC_ClockConfig+0xa>
 8002188:	6df9      	ldr	r1, [r7, #92]	; 0x5c
 800218a:	e7fa      	b.n	8002182 <HAL_RCC_ClockConfig+0x112>
 800218c:	f7fe ff74 	bl	8001078 <HAL_GetTick>
 8002190:	9b01      	ldr	r3, [sp, #4]
 8002192:	1ac0      	subs	r0, r0, r3
 8002194:	4b0a      	ldr	r3, [pc, #40]	; (80021c0 <HAL_RCC_ClockConfig+0x150>)
 8002196:	4298      	cmp	r0, r3
 8002198:	d988      	bls.n	80020ac <HAL_RCC_ClockConfig+0x3c>
 800219a:	e7b3      	b.n	8002104 <HAL_RCC_ClockConfig+0x94>
 800219c:	68ab      	ldr	r3, [r5, #8]
 800219e:	4a0a      	ldr	r2, [pc, #40]	; (80021c8 <HAL_RCC_ClockConfig+0x158>)
 80021a0:	4013      	ands	r3, r2
 80021a2:	68e2      	ldr	r2, [r4, #12]
 80021a4:	4313      	orrs	r3, r2
 80021a6:	60ab      	str	r3, [r5, #8]
 80021a8:	e788      	b.n	80020bc <HAL_RCC_ClockConfig+0x4c>
 80021aa:	46c0      	nop			; (mov r8, r8)
 80021ac:	40022000 	.word	0x40022000
 80021b0:	40021000 	.word	0x40021000
 80021b4:	08002e54 	.word	0x08002e54
 80021b8:	20000000 	.word	0x20000000
 80021bc:	20000008 	.word	0x20000008
 80021c0:	00001388 	.word	0x00001388
 80021c4:	fffff0ff 	.word	0xfffff0ff
 80021c8:	ffff8fff 	.word	0xffff8fff

080021cc <HAL_RCC_GetPCLK1Freq>:
 80021cc:	4b06      	ldr	r3, [pc, #24]	; (80021e8 <HAL_RCC_GetPCLK1Freq+0x1c>)
 80021ce:	4a07      	ldr	r2, [pc, #28]	; (80021ec <HAL_RCC_GetPCLK1Freq+0x20>)
 80021d0:	689b      	ldr	r3, [r3, #8]
 80021d2:	045b      	lsls	r3, r3, #17
 80021d4:	0f5b      	lsrs	r3, r3, #29
 80021d6:	009b      	lsls	r3, r3, #2
 80021d8:	589b      	ldr	r3, [r3, r2]
 80021da:	221f      	movs	r2, #31
 80021dc:	4013      	ands	r3, r2
 80021de:	4a04      	ldr	r2, [pc, #16]	; (80021f0 <HAL_RCC_GetPCLK1Freq+0x24>)
 80021e0:	6810      	ldr	r0, [r2, #0]
 80021e2:	40d8      	lsrs	r0, r3
 80021e4:	4770      	bx	lr
 80021e6:	46c0      	nop			; (mov r8, r8)
 80021e8:	40021000 	.word	0x40021000
 80021ec:	08002e94 	.word	0x08002e94
 80021f0:	20000000 	.word	0x20000000

080021f4 <HAL_RCCEx_PeriphCLKConfig>:
 80021f4:	b5f0      	push	{r4, r5, r6, r7, lr}
 80021f6:	0004      	movs	r4, r0
 80021f8:	6823      	ldr	r3, [r4, #0]
 80021fa:	2000      	movs	r0, #0
 80021fc:	b085      	sub	sp, #20
 80021fe:	039b      	lsls	r3, r3, #14
 8002200:	d53c      	bpl.n	800227c <HAL_RCCEx_PeriphCLKConfig+0x88>
 8002202:	2280      	movs	r2, #128	; 0x80
 8002204:	4d97      	ldr	r5, [pc, #604]	; (8002464 <HAL_RCCEx_PeriphCLKConfig+0x270>)
 8002206:	0552      	lsls	r2, r2, #21
 8002208:	6beb      	ldr	r3, [r5, #60]	; 0x3c
 800220a:	9000      	str	r0, [sp, #0]
 800220c:	4213      	tst	r3, r2
 800220e:	d108      	bne.n	8002222 <HAL_RCCEx_PeriphCLKConfig+0x2e>
 8002210:	6beb      	ldr	r3, [r5, #60]	; 0x3c
 8002212:	4313      	orrs	r3, r2
 8002214:	63eb      	str	r3, [r5, #60]	; 0x3c
 8002216:	6beb      	ldr	r3, [r5, #60]	; 0x3c
 8002218:	4013      	ands	r3, r2
 800221a:	9303      	str	r3, [sp, #12]
 800221c:	9b03      	ldr	r3, [sp, #12]
 800221e:	2301      	movs	r3, #1
 8002220:	9300      	str	r3, [sp, #0]
 8002222:	2780      	movs	r7, #128	; 0x80
 8002224:	4e90      	ldr	r6, [pc, #576]	; (8002468 <HAL_RCCEx_PeriphCLKConfig+0x274>)
 8002226:	007f      	lsls	r7, r7, #1
 8002228:	6833      	ldr	r3, [r6, #0]
 800222a:	433b      	orrs	r3, r7
 800222c:	6033      	str	r3, [r6, #0]
 800222e:	f7fe ff23 	bl	8001078 <HAL_GetTick>
 8002232:	9001      	str	r0, [sp, #4]
 8002234:	6833      	ldr	r3, [r6, #0]
 8002236:	423b      	tst	r3, r7
 8002238:	d012      	beq.n	8002260 <HAL_RCCEx_PeriphCLKConfig+0x6c>
 800223a:	6dea      	ldr	r2, [r5, #92]	; 0x5c
 800223c:	23c0      	movs	r3, #192	; 0xc0
 800223e:	0011      	movs	r1, r2
 8002240:	009b      	lsls	r3, r3, #2
 8002242:	4e8a      	ldr	r6, [pc, #552]	; (800246c <HAL_RCCEx_PeriphCLKConfig+0x278>)
 8002244:	4019      	ands	r1, r3
 8002246:	421a      	tst	r2, r3
 8002248:	d003      	beq.n	8002252 <HAL_RCCEx_PeriphCLKConfig+0x5e>
 800224a:	6c23      	ldr	r3, [r4, #64]	; 0x40
 800224c:	4299      	cmp	r1, r3
 800224e:	d000      	beq.n	8002252 <HAL_RCCEx_PeriphCLKConfig+0x5e>
 8002250:	e0e9      	b.n	8002426 <HAL_RCCEx_PeriphCLKConfig+0x232>
 8002252:	6deb      	ldr	r3, [r5, #92]	; 0x5c
 8002254:	2000      	movs	r0, #0
 8002256:	401e      	ands	r6, r3
 8002258:	6c23      	ldr	r3, [r4, #64]	; 0x40
 800225a:	431e      	orrs	r6, r3
 800225c:	65ee      	str	r6, [r5, #92]	; 0x5c
 800225e:	e006      	b.n	800226e <HAL_RCCEx_PeriphCLKConfig+0x7a>
 8002260:	f7fe ff0a 	bl	8001078 <HAL_GetTick>
 8002264:	9b01      	ldr	r3, [sp, #4]
 8002266:	1ac0      	subs	r0, r0, r3
 8002268:	2802      	cmp	r0, #2
 800226a:	d9e3      	bls.n	8002234 <HAL_RCCEx_PeriphCLKConfig+0x40>
 800226c:	2003      	movs	r0, #3
 800226e:	9b00      	ldr	r3, [sp, #0]
 8002270:	2b01      	cmp	r3, #1
 8002272:	d103      	bne.n	800227c <HAL_RCCEx_PeriphCLKConfig+0x88>
 8002274:	6beb      	ldr	r3, [r5, #60]	; 0x3c
 8002276:	4a7e      	ldr	r2, [pc, #504]	; (8002470 <HAL_RCCEx_PeriphCLKConfig+0x27c>)
 8002278:	4013      	ands	r3, r2
 800227a:	63eb      	str	r3, [r5, #60]	; 0x3c
 800227c:	6823      	ldr	r3, [r4, #0]
 800227e:	07da      	lsls	r2, r3, #31
 8002280:	d506      	bpl.n	8002290 <HAL_RCCEx_PeriphCLKConfig+0x9c>
 8002282:	2503      	movs	r5, #3
 8002284:	4977      	ldr	r1, [pc, #476]	; (8002464 <HAL_RCCEx_PeriphCLKConfig+0x270>)
 8002286:	6d4a      	ldr	r2, [r1, #84]	; 0x54
 8002288:	43aa      	bics	r2, r5
 800228a:	6865      	ldr	r5, [r4, #4]
 800228c:	432a      	orrs	r2, r5
 800228e:	654a      	str	r2, [r1, #84]	; 0x54
 8002290:	079a      	lsls	r2, r3, #30
 8002292:	d506      	bpl.n	80022a2 <HAL_RCCEx_PeriphCLKConfig+0xae>
 8002294:	250c      	movs	r5, #12
 8002296:	4973      	ldr	r1, [pc, #460]	; (8002464 <HAL_RCCEx_PeriphCLKConfig+0x270>)
 8002298:	6d4a      	ldr	r2, [r1, #84]	; 0x54
 800229a:	43aa      	bics	r2, r5
 800229c:	68a5      	ldr	r5, [r4, #8]
 800229e:	432a      	orrs	r2, r5
 80022a0:	654a      	str	r2, [r1, #84]	; 0x54
 80022a2:	075a      	lsls	r2, r3, #29
 80022a4:	d506      	bpl.n	80022b4 <HAL_RCCEx_PeriphCLKConfig+0xc0>
 80022a6:	2530      	movs	r5, #48	; 0x30
 80022a8:	496e      	ldr	r1, [pc, #440]	; (8002464 <HAL_RCCEx_PeriphCLKConfig+0x270>)
 80022aa:	6d4a      	ldr	r2, [r1, #84]	; 0x54
 80022ac:	43aa      	bics	r2, r5
 80022ae:	68e5      	ldr	r5, [r4, #12]
 80022b0:	432a      	orrs	r2, r5
 80022b2:	654a      	str	r2, [r1, #84]	; 0x54
 80022b4:	06da      	lsls	r2, r3, #27
 80022b6:	d506      	bpl.n	80022c6 <HAL_RCCEx_PeriphCLKConfig+0xd2>
 80022b8:	496a      	ldr	r1, [pc, #424]	; (8002464 <HAL_RCCEx_PeriphCLKConfig+0x270>)
 80022ba:	4d6e      	ldr	r5, [pc, #440]	; (8002474 <HAL_RCCEx_PeriphCLKConfig+0x280>)
 80022bc:	6d4a      	ldr	r2, [r1, #84]	; 0x54
 80022be:	402a      	ands	r2, r5
 80022c0:	6925      	ldr	r5, [r4, #16]
 80022c2:	432a      	orrs	r2, r5
 80022c4:	654a      	str	r2, [r1, #84]	; 0x54
 80022c6:	04da      	lsls	r2, r3, #19
 80022c8:	d506      	bpl.n	80022d8 <HAL_RCCEx_PeriphCLKConfig+0xe4>
 80022ca:	4966      	ldr	r1, [pc, #408]	; (8002464 <HAL_RCCEx_PeriphCLKConfig+0x270>)
 80022cc:	4d67      	ldr	r5, [pc, #412]	; (800246c <HAL_RCCEx_PeriphCLKConfig+0x278>)
 80022ce:	6d4a      	ldr	r2, [r1, #84]	; 0x54
 80022d0:	402a      	ands	r2, r5
 80022d2:	6965      	ldr	r5, [r4, #20]
 80022d4:	432a      	orrs	r2, r5
 80022d6:	654a      	str	r2, [r1, #84]	; 0x54
 80022d8:	059a      	lsls	r2, r3, #22
 80022da:	d506      	bpl.n	80022ea <HAL_RCCEx_PeriphCLKConfig+0xf6>
 80022dc:	4961      	ldr	r1, [pc, #388]	; (8002464 <HAL_RCCEx_PeriphCLKConfig+0x270>)
 80022de:	4d66      	ldr	r5, [pc, #408]	; (8002478 <HAL_RCCEx_PeriphCLKConfig+0x284>)
 80022e0:	6d4a      	ldr	r2, [r1, #84]	; 0x54
 80022e2:	402a      	ands	r2, r5
 80022e4:	6aa5      	ldr	r5, [r4, #40]	; 0x28
 80022e6:	432a      	orrs	r2, r5
 80022e8:	654a      	str	r2, [r1, #84]	; 0x54
 80022ea:	055a      	lsls	r2, r3, #21
 80022ec:	d506      	bpl.n	80022fc <HAL_RCCEx_PeriphCLKConfig+0x108>
 80022ee:	495d      	ldr	r1, [pc, #372]	; (8002464 <HAL_RCCEx_PeriphCLKConfig+0x270>)
 80022f0:	4d62      	ldr	r5, [pc, #392]	; (800247c <HAL_RCCEx_PeriphCLKConfig+0x288>)
 80022f2:	6d4a      	ldr	r2, [r1, #84]	; 0x54
 80022f4:	402a      	ands	r2, r5
 80022f6:	6ae5      	ldr	r5, [r4, #44]	; 0x2c
 80022f8:	432a      	orrs	r2, r5
 80022fa:	654a      	str	r2, [r1, #84]	; 0x54
 80022fc:	069a      	lsls	r2, r3, #26
 80022fe:	d506      	bpl.n	800230e <HAL_RCCEx_PeriphCLKConfig+0x11a>
 8002300:	4958      	ldr	r1, [pc, #352]	; (8002464 <HAL_RCCEx_PeriphCLKConfig+0x270>)
 8002302:	4d5f      	ldr	r5, [pc, #380]	; (8002480 <HAL_RCCEx_PeriphCLKConfig+0x28c>)
 8002304:	6d4a      	ldr	r2, [r1, #84]	; 0x54
 8002306:	402a      	ands	r2, r5
 8002308:	69a5      	ldr	r5, [r4, #24]
 800230a:	432a      	orrs	r2, r5
 800230c:	654a      	str	r2, [r1, #84]	; 0x54
 800230e:	065a      	lsls	r2, r3, #25
 8002310:	d506      	bpl.n	8002320 <HAL_RCCEx_PeriphCLKConfig+0x12c>
 8002312:	4954      	ldr	r1, [pc, #336]	; (8002464 <HAL_RCCEx_PeriphCLKConfig+0x270>)
 8002314:	4d5b      	ldr	r5, [pc, #364]	; (8002484 <HAL_RCCEx_PeriphCLKConfig+0x290>)
 8002316:	6d4a      	ldr	r2, [r1, #84]	; 0x54
 8002318:	402a      	ands	r2, r5
 800231a:	69e5      	ldr	r5, [r4, #28]
 800231c:	432a      	orrs	r2, r5
 800231e:	654a      	str	r2, [r1, #84]	; 0x54
 8002320:	045a      	lsls	r2, r3, #17
 8002322:	d50f      	bpl.n	8002344 <HAL_RCCEx_PeriphCLKConfig+0x150>
 8002324:	494f      	ldr	r1, [pc, #316]	; (8002464 <HAL_RCCEx_PeriphCLKConfig+0x270>)
 8002326:	6b25      	ldr	r5, [r4, #48]	; 0x30
 8002328:	6d4a      	ldr	r2, [r1, #84]	; 0x54
 800232a:	0092      	lsls	r2, r2, #2
 800232c:	0892      	lsrs	r2, r2, #2
 800232e:	432a      	orrs	r2, r5
 8002330:	654a      	str	r2, [r1, #84]	; 0x54
 8002332:	2280      	movs	r2, #128	; 0x80
 8002334:	05d2      	lsls	r2, r2, #23
 8002336:	4295      	cmp	r5, r2
 8002338:	d104      	bne.n	8002344 <HAL_RCCEx_PeriphCLKConfig+0x150>
 800233a:	2280      	movs	r2, #128	; 0x80
 800233c:	68cd      	ldr	r5, [r1, #12]
 800233e:	0252      	lsls	r2, r2, #9
 8002340:	432a      	orrs	r2, r5
 8002342:	60ca      	str	r2, [r1, #12]
 8002344:	031a      	lsls	r2, r3, #12
 8002346:	d506      	bpl.n	8002356 <HAL_RCCEx_PeriphCLKConfig+0x162>
 8002348:	2540      	movs	r5, #64	; 0x40
 800234a:	4946      	ldr	r1, [pc, #280]	; (8002464 <HAL_RCCEx_PeriphCLKConfig+0x270>)
 800234c:	6d4a      	ldr	r2, [r1, #84]	; 0x54
 800234e:	43aa      	bics	r2, r5
 8002350:	6b65      	ldr	r5, [r4, #52]	; 0x34
 8002352:	432a      	orrs	r2, r5
 8002354:	654a      	str	r2, [r1, #84]	; 0x54
 8002356:	029a      	lsls	r2, r3, #10
 8002358:	d50f      	bpl.n	800237a <HAL_RCCEx_PeriphCLKConfig+0x186>
 800235a:	4942      	ldr	r1, [pc, #264]	; (8002464 <HAL_RCCEx_PeriphCLKConfig+0x270>)
 800235c:	4e4a      	ldr	r6, [pc, #296]	; (8002488 <HAL_RCCEx_PeriphCLKConfig+0x294>)
 800235e:	6d4a      	ldr	r2, [r1, #84]	; 0x54
 8002360:	6ba5      	ldr	r5, [r4, #56]	; 0x38
 8002362:	4032      	ands	r2, r6
 8002364:	432a      	orrs	r2, r5
 8002366:	654a      	str	r2, [r1, #84]	; 0x54
 8002368:	2280      	movs	r2, #128	; 0x80
 800236a:	03d2      	lsls	r2, r2, #15
 800236c:	4295      	cmp	r5, r2
 800236e:	d104      	bne.n	800237a <HAL_RCCEx_PeriphCLKConfig+0x186>
 8002370:	2280      	movs	r2, #128	; 0x80
 8002372:	68cd      	ldr	r5, [r1, #12]
 8002374:	0452      	lsls	r2, r2, #17
 8002376:	432a      	orrs	r2, r5
 8002378:	60ca      	str	r2, [r1, #12]
 800237a:	025a      	lsls	r2, r3, #9
 800237c:	d50d      	bpl.n	800239a <HAL_RCCEx_PeriphCLKConfig+0x1a6>
 800237e:	4d39      	ldr	r5, [pc, #228]	; (8002464 <HAL_RCCEx_PeriphCLKConfig+0x270>)
 8002380:	4e42      	ldr	r6, [pc, #264]	; (800248c <HAL_RCCEx_PeriphCLKConfig+0x298>)
 8002382:	6d69      	ldr	r1, [r5, #84]	; 0x54
 8002384:	6be2      	ldr	r2, [r4, #60]	; 0x3c
 8002386:	4031      	ands	r1, r6
 8002388:	4311      	orrs	r1, r2
 800238a:	6569      	str	r1, [r5, #84]	; 0x54
 800238c:	2180      	movs	r1, #128	; 0x80
 800238e:	0449      	lsls	r1, r1, #17
 8002390:	428a      	cmp	r2, r1
 8002392:	d102      	bne.n	800239a <HAL_RCCEx_PeriphCLKConfig+0x1a6>
 8002394:	68e9      	ldr	r1, [r5, #12]
 8002396:	430a      	orrs	r2, r1
 8002398:	60ea      	str	r2, [r5, #12]
 800239a:	051a      	lsls	r2, r3, #20
 800239c:	d50d      	bpl.n	80023ba <HAL_RCCEx_PeriphCLKConfig+0x1c6>
 800239e:	2603      	movs	r6, #3
 80023a0:	4930      	ldr	r1, [pc, #192]	; (8002464 <HAL_RCCEx_PeriphCLKConfig+0x270>)
 80023a2:	6a25      	ldr	r5, [r4, #32]
 80023a4:	6d8a      	ldr	r2, [r1, #88]	; 0x58
 80023a6:	43b2      	bics	r2, r6
 80023a8:	432a      	orrs	r2, r5
 80023aa:	658a      	str	r2, [r1, #88]	; 0x58
 80023ac:	2d01      	cmp	r5, #1
 80023ae:	d104      	bne.n	80023ba <HAL_RCCEx_PeriphCLKConfig+0x1c6>
 80023b0:	2280      	movs	r2, #128	; 0x80
 80023b2:	68cd      	ldr	r5, [r1, #12]
 80023b4:	0252      	lsls	r2, r2, #9
 80023b6:	432a      	orrs	r2, r5
 80023b8:	60ca      	str	r2, [r1, #12]
 80023ba:	049a      	lsls	r2, r3, #18
 80023bc:	d50d      	bpl.n	80023da <HAL_RCCEx_PeriphCLKConfig+0x1e6>
 80023be:	260c      	movs	r6, #12
 80023c0:	4928      	ldr	r1, [pc, #160]	; (8002464 <HAL_RCCEx_PeriphCLKConfig+0x270>)
 80023c2:	6a65      	ldr	r5, [r4, #36]	; 0x24
 80023c4:	6d8a      	ldr	r2, [r1, #88]	; 0x58
 80023c6:	43b2      	bics	r2, r6
 80023c8:	432a      	orrs	r2, r5
 80023ca:	658a      	str	r2, [r1, #88]	; 0x58
 80023cc:	2d04      	cmp	r5, #4
 80023ce:	d104      	bne.n	80023da <HAL_RCCEx_PeriphCLKConfig+0x1e6>
 80023d0:	2280      	movs	r2, #128	; 0x80
 80023d2:	68cd      	ldr	r5, [r1, #12]
 80023d4:	0252      	lsls	r2, r2, #9
 80023d6:	432a      	orrs	r2, r5
 80023d8:	60ca      	str	r2, [r1, #12]
 80023da:	2580      	movs	r5, #128	; 0x80
 80023dc:	046d      	lsls	r5, r5, #17
 80023de:	422b      	tst	r3, r5
 80023e0:	d00d      	beq.n	80023fe <HAL_RCCEx_PeriphCLKConfig+0x20a>
 80023e2:	4920      	ldr	r1, [pc, #128]	; (8002464 <HAL_RCCEx_PeriphCLKConfig+0x270>)
 80023e4:	4f26      	ldr	r7, [pc, #152]	; (8002480 <HAL_RCCEx_PeriphCLKConfig+0x28c>)
 80023e6:	6d8a      	ldr	r2, [r1, #88]	; 0x58
 80023e8:	6c66      	ldr	r6, [r4, #68]	; 0x44
 80023ea:	403a      	ands	r2, r7
 80023ec:	4332      	orrs	r2, r6
 80023ee:	658a      	str	r2, [r1, #88]	; 0x58
 80023f0:	2280      	movs	r2, #128	; 0x80
 80023f2:	0192      	lsls	r2, r2, #6
 80023f4:	4296      	cmp	r6, r2
 80023f6:	d102      	bne.n	80023fe <HAL_RCCEx_PeriphCLKConfig+0x20a>
 80023f8:	68ca      	ldr	r2, [r1, #12]
 80023fa:	4315      	orrs	r5, r2
 80023fc:	60cd      	str	r5, [r1, #12]
 80023fe:	019b      	lsls	r3, r3, #6
 8002400:	d50f      	bpl.n	8002422 <HAL_RCCEx_PeriphCLKConfig+0x22e>
 8002402:	4a18      	ldr	r2, [pc, #96]	; (8002464 <HAL_RCCEx_PeriphCLKConfig+0x270>)
 8002404:	6ca1      	ldr	r1, [r4, #72]	; 0x48
 8002406:	6d93      	ldr	r3, [r2, #88]	; 0x58
 8002408:	4c18      	ldr	r4, [pc, #96]	; (800246c <HAL_RCCEx_PeriphCLKConfig+0x278>)
 800240a:	4023      	ands	r3, r4
 800240c:	430b      	orrs	r3, r1
 800240e:	6593      	str	r3, [r2, #88]	; 0x58
 8002410:	2380      	movs	r3, #128	; 0x80
 8002412:	005b      	lsls	r3, r3, #1
 8002414:	4299      	cmp	r1, r3
 8002416:	d104      	bne.n	8002422 <HAL_RCCEx_PeriphCLKConfig+0x22e>
 8002418:	2380      	movs	r3, #128	; 0x80
 800241a:	68d1      	ldr	r1, [r2, #12]
 800241c:	045b      	lsls	r3, r3, #17
 800241e:	430b      	orrs	r3, r1
 8002420:	60d3      	str	r3, [r2, #12]
 8002422:	b005      	add	sp, #20
 8002424:	bdf0      	pop	{r4, r5, r6, r7, pc}
 8002426:	2380      	movs	r3, #128	; 0x80
 8002428:	6dea      	ldr	r2, [r5, #92]	; 0x5c
 800242a:	6de8      	ldr	r0, [r5, #92]	; 0x5c
 800242c:	0011      	movs	r1, r2
 800242e:	025b      	lsls	r3, r3, #9
 8002430:	4303      	orrs	r3, r0
 8002432:	65eb      	str	r3, [r5, #92]	; 0x5c
 8002434:	6deb      	ldr	r3, [r5, #92]	; 0x5c
 8002436:	4816      	ldr	r0, [pc, #88]	; (8002490 <HAL_RCCEx_PeriphCLKConfig+0x29c>)
 8002438:	4031      	ands	r1, r6
 800243a:	4003      	ands	r3, r0
 800243c:	65eb      	str	r3, [r5, #92]	; 0x5c
 800243e:	65e9      	str	r1, [r5, #92]	; 0x5c
 8002440:	07d3      	lsls	r3, r2, #31
 8002442:	d400      	bmi.n	8002446 <HAL_RCCEx_PeriphCLKConfig+0x252>
 8002444:	e705      	b.n	8002252 <HAL_RCCEx_PeriphCLKConfig+0x5e>
 8002446:	f7fe fe17 	bl	8001078 <HAL_GetTick>
 800244a:	0007      	movs	r7, r0
 800244c:	2202      	movs	r2, #2
 800244e:	6deb      	ldr	r3, [r5, #92]	; 0x5c
 8002450:	4213      	tst	r3, r2
 8002452:	d000      	beq.n	8002456 <HAL_RCCEx_PeriphCLKConfig+0x262>
 8002454:	e6fd      	b.n	8002252 <HAL_RCCEx_PeriphCLKConfig+0x5e>
 8002456:	f7fe fe0f 	bl	8001078 <HAL_GetTick>
 800245a:	4b0e      	ldr	r3, [pc, #56]	; (8002494 <HAL_RCCEx_PeriphCLKConfig+0x2a0>)
 800245c:	1bc0      	subs	r0, r0, r7
 800245e:	4298      	cmp	r0, r3
 8002460:	d9f4      	bls.n	800244c <HAL_RCCEx_PeriphCLKConfig+0x258>
 8002462:	e703      	b.n	800226c <HAL_RCCEx_PeriphCLKConfig+0x78>
 8002464:	40021000 	.word	0x40021000
 8002468:	40007000 	.word	0x40007000
 800246c:	fffffcff 	.word	0xfffffcff
 8002470:	efffffff 	.word	0xefffffff
 8002474:	fffff3ff 	.word	0xfffff3ff
 8002478:	fff3ffff 	.word	0xfff3ffff
 800247c:	ffcfffff 	.word	0xffcfffff
 8002480:	ffffcfff 	.word	0xffffcfff
 8002484:	ffff3fff 	.word	0xffff3fff
 8002488:	ffbfffff 	.word	0xffbfffff
 800248c:	feffffff 	.word	0xfeffffff
 8002490:	fffeffff 	.word	0xfffeffff
 8002494:	00001388 	.word	0x00001388

08002498 <TIM_Base_SetConfig>:
 8002498:	4a23      	ldr	r2, [pc, #140]	; (8002528 <TIM_Base_SetConfig+0x90>)
 800249a:	b510      	push	{r4, lr}
 800249c:	6803      	ldr	r3, [r0, #0]
 800249e:	4290      	cmp	r0, r2
 80024a0:	d009      	beq.n	80024b6 <TIM_Base_SetConfig+0x1e>
 80024a2:	2480      	movs	r4, #128	; 0x80
 80024a4:	05e4      	lsls	r4, r4, #23
 80024a6:	42a0      	cmp	r0, r4
 80024a8:	d005      	beq.n	80024b6 <TIM_Base_SetConfig+0x1e>
 80024aa:	4c20      	ldr	r4, [pc, #128]	; (800252c <TIM_Base_SetConfig+0x94>)
 80024ac:	42a0      	cmp	r0, r4
 80024ae:	d002      	beq.n	80024b6 <TIM_Base_SetConfig+0x1e>
 80024b0:	4c1f      	ldr	r4, [pc, #124]	; (8002530 <TIM_Base_SetConfig+0x98>)
 80024b2:	42a0      	cmp	r0, r4
 80024b4:	d10f      	bne.n	80024d6 <TIM_Base_SetConfig+0x3e>
 80024b6:	2470      	movs	r4, #112	; 0x70
 80024b8:	43a3      	bics	r3, r4
 80024ba:	684c      	ldr	r4, [r1, #4]
 80024bc:	4323      	orrs	r3, r4
 80024be:	4290      	cmp	r0, r2
 80024c0:	d015      	beq.n	80024ee <TIM_Base_SetConfig+0x56>
 80024c2:	2480      	movs	r4, #128	; 0x80
 80024c4:	05e4      	lsls	r4, r4, #23
 80024c6:	42a0      	cmp	r0, r4
 80024c8:	d011      	beq.n	80024ee <TIM_Base_SetConfig+0x56>
 80024ca:	4c18      	ldr	r4, [pc, #96]	; (800252c <TIM_Base_SetConfig+0x94>)
 80024cc:	42a0      	cmp	r0, r4
 80024ce:	d00e      	beq.n	80024ee <TIM_Base_SetConfig+0x56>
 80024d0:	4c17      	ldr	r4, [pc, #92]	; (8002530 <TIM_Base_SetConfig+0x98>)
 80024d2:	42a0      	cmp	r0, r4
 80024d4:	d00b      	beq.n	80024ee <TIM_Base_SetConfig+0x56>
 80024d6:	4c17      	ldr	r4, [pc, #92]	; (8002534 <TIM_Base_SetConfig+0x9c>)
 80024d8:	42a0      	cmp	r0, r4
 80024da:	d008      	beq.n	80024ee <TIM_Base_SetConfig+0x56>
 80024dc:	4c16      	ldr	r4, [pc, #88]	; (8002538 <TIM_Base_SetConfig+0xa0>)
 80024de:	42a0      	cmp	r0, r4
 80024e0:	d005      	beq.n	80024ee <TIM_Base_SetConfig+0x56>
 80024e2:	4c16      	ldr	r4, [pc, #88]	; (800253c <TIM_Base_SetConfig+0xa4>)
 80024e4:	42a0      	cmp	r0, r4
 80024e6:	d002      	beq.n	80024ee <TIM_Base_SetConfig+0x56>
 80024e8:	4c15      	ldr	r4, [pc, #84]	; (8002540 <TIM_Base_SetConfig+0xa8>)
 80024ea:	42a0      	cmp	r0, r4
 80024ec:	d103      	bne.n	80024f6 <TIM_Base_SetConfig+0x5e>
 80024ee:	4c15      	ldr	r4, [pc, #84]	; (8002544 <TIM_Base_SetConfig+0xac>)
 80024f0:	4023      	ands	r3, r4
 80024f2:	68cc      	ldr	r4, [r1, #12]
 80024f4:	4323      	orrs	r3, r4
 80024f6:	2480      	movs	r4, #128	; 0x80
 80024f8:	43a3      	bics	r3, r4
 80024fa:	694c      	ldr	r4, [r1, #20]
 80024fc:	4323      	orrs	r3, r4
 80024fe:	6003      	str	r3, [r0, #0]
 8002500:	688b      	ldr	r3, [r1, #8]
 8002502:	62c3      	str	r3, [r0, #44]	; 0x2c
 8002504:	680b      	ldr	r3, [r1, #0]
 8002506:	6283      	str	r3, [r0, #40]	; 0x28
 8002508:	4290      	cmp	r0, r2
 800250a:	d008      	beq.n	800251e <TIM_Base_SetConfig+0x86>
 800250c:	4b0a      	ldr	r3, [pc, #40]	; (8002538 <TIM_Base_SetConfig+0xa0>)
 800250e:	4298      	cmp	r0, r3
 8002510:	d005      	beq.n	800251e <TIM_Base_SetConfig+0x86>
 8002512:	4b0a      	ldr	r3, [pc, #40]	; (800253c <TIM_Base_SetConfig+0xa4>)
 8002514:	4298      	cmp	r0, r3
 8002516:	d002      	beq.n	800251e <TIM_Base_SetConfig+0x86>
 8002518:	4b09      	ldr	r3, [pc, #36]	; (8002540 <TIM_Base_SetConfig+0xa8>)
 800251a:	4298      	cmp	r0, r3
 800251c:	d101      	bne.n	8002522 <TIM_Base_SetConfig+0x8a>
 800251e:	690b      	ldr	r3, [r1, #16]
 8002520:	6303      	str	r3, [r0, #48]	; 0x30
 8002522:	2301      	movs	r3, #1
 8002524:	6143      	str	r3, [r0, #20]
 8002526:	bd10      	pop	{r4, pc}
 8002528:	40012c00 	.word	0x40012c00
 800252c:	40000400 	.word	0x40000400
 8002530:	40000800 	.word	0x40000800
 8002534:	40002000 	.word	0x40002000
 8002538:	40014000 	.word	0x40014000
 800253c:	40014400 	.word	0x40014400
 8002540:	40014800 	.word	0x40014800
 8002544:	fffffcff 	.word	0xfffffcff

08002548 <HAL_TIM_Base_Init>:
 8002548:	b570      	push	{r4, r5, r6, lr}
 800254a:	0004      	movs	r4, r0
 800254c:	2001      	movs	r0, #1
 800254e:	2c00      	cmp	r4, #0
 8002550:	d023      	beq.n	800259a <HAL_TIM_Base_Init+0x52>
 8002552:	0025      	movs	r5, r4
 8002554:	353d      	adds	r5, #61	; 0x3d
 8002556:	782b      	ldrb	r3, [r5, #0]
 8002558:	b2da      	uxtb	r2, r3
 800255a:	2b00      	cmp	r3, #0
 800255c:	d105      	bne.n	800256a <HAL_TIM_Base_Init+0x22>
 800255e:	0023      	movs	r3, r4
 8002560:	333c      	adds	r3, #60	; 0x3c
 8002562:	0020      	movs	r0, r4
 8002564:	701a      	strb	r2, [r3, #0]
 8002566:	f7fe fb1f 	bl	8000ba8 <HAL_TIM_Base_MspInit>
 800256a:	2302      	movs	r3, #2
 800256c:	702b      	strb	r3, [r5, #0]
 800256e:	6820      	ldr	r0, [r4, #0]
 8002570:	1d21      	adds	r1, r4, #4
 8002572:	f7ff ff91 	bl	8002498 <TIM_Base_SetConfig>
 8002576:	0022      	movs	r2, r4
 8002578:	2301      	movs	r3, #1
 800257a:	2000      	movs	r0, #0
 800257c:	3248      	adds	r2, #72	; 0x48
 800257e:	7013      	strb	r3, [r2, #0]
 8002580:	3447      	adds	r4, #71	; 0x47
 8002582:	3a0a      	subs	r2, #10
 8002584:	7013      	strb	r3, [r2, #0]
 8002586:	7053      	strb	r3, [r2, #1]
 8002588:	7093      	strb	r3, [r2, #2]
 800258a:	70d3      	strb	r3, [r2, #3]
 800258c:	7113      	strb	r3, [r2, #4]
 800258e:	7153      	strb	r3, [r2, #5]
 8002590:	7193      	strb	r3, [r2, #6]
 8002592:	71d3      	strb	r3, [r2, #7]
 8002594:	7213      	strb	r3, [r2, #8]
 8002596:	7023      	strb	r3, [r4, #0]
 8002598:	702b      	strb	r3, [r5, #0]
 800259a:	bd70      	pop	{r4, r5, r6, pc}

0800259c <TIM_ETR_SetConfig>:
 800259c:	b530      	push	{r4, r5, lr}
 800259e:	6884      	ldr	r4, [r0, #8]
 80025a0:	4d03      	ldr	r5, [pc, #12]	; (80025b0 <TIM_ETR_SetConfig+0x14>)
 80025a2:	430a      	orrs	r2, r1
 80025a4:	021b      	lsls	r3, r3, #8
 80025a6:	402c      	ands	r4, r5
 80025a8:	4313      	orrs	r3, r2
 80025aa:	4323      	orrs	r3, r4
 80025ac:	6083      	str	r3, [r0, #8]
 80025ae:	bd30      	pop	{r4, r5, pc}
 80025b0:	ffff00ff 	.word	0xffff00ff

080025b4 <HAL_TIM_ConfigClockSource>:
 80025b4:	b5f8      	push	{r3, r4, r5, r6, r7, lr}
 80025b6:	0005      	movs	r5, r0
 80025b8:	2302      	movs	r3, #2
 80025ba:	353c      	adds	r5, #60	; 0x3c
 80025bc:	0004      	movs	r4, r0
 80025be:	7828      	ldrb	r0, [r5, #0]
 80025c0:	001a      	movs	r2, r3
 80025c2:	2801      	cmp	r0, #1
 80025c4:	d01d      	beq.n	8002602 <HAL_TIM_ConfigClockSource+0x4e>
 80025c6:	0026      	movs	r6, r4
 80025c8:	2701      	movs	r7, #1
 80025ca:	363d      	adds	r6, #61	; 0x3d
 80025cc:	702f      	strb	r7, [r5, #0]
 80025ce:	7033      	strb	r3, [r6, #0]
 80025d0:	6820      	ldr	r0, [r4, #0]
 80025d2:	4a47      	ldr	r2, [pc, #284]	; (80026f0 <HAL_TIM_ConfigClockSource+0x13c>)
 80025d4:	6883      	ldr	r3, [r0, #8]
 80025d6:	4013      	ands	r3, r2
 80025d8:	6083      	str	r3, [r0, #8]
 80025da:	680b      	ldr	r3, [r1, #0]
 80025dc:	2b60      	cmp	r3, #96	; 0x60
 80025de:	d058      	beq.n	8002692 <HAL_TIM_ConfigClockSource+0xde>
 80025e0:	d834      	bhi.n	800264c <HAL_TIM_ConfigClockSource+0x98>
 80025e2:	2b40      	cmp	r3, #64	; 0x40
 80025e4:	d100      	bne.n	80025e8 <HAL_TIM_ConfigClockSource+0x34>
 80025e6:	e06c      	b.n	80026c2 <HAL_TIM_ConfigClockSource+0x10e>
 80025e8:	d815      	bhi.n	8002616 <HAL_TIM_ConfigClockSource+0x62>
 80025ea:	2b20      	cmp	r3, #32
 80025ec:	d00d      	beq.n	800260a <HAL_TIM_ConfigClockSource+0x56>
 80025ee:	d80a      	bhi.n	8002606 <HAL_TIM_ConfigClockSource+0x52>
 80025f0:	2210      	movs	r2, #16
 80025f2:	0019      	movs	r1, r3
 80025f4:	4391      	bics	r1, r2
 80025f6:	d008      	beq.n	800260a <HAL_TIM_ConfigClockSource+0x56>
 80025f8:	003a      	movs	r2, r7
 80025fa:	2301      	movs	r3, #1
 80025fc:	7033      	strb	r3, [r6, #0]
 80025fe:	2300      	movs	r3, #0
 8002600:	702b      	strb	r3, [r5, #0]
 8002602:	0010      	movs	r0, r2
 8002604:	bdf8      	pop	{r3, r4, r5, r6, r7, pc}
 8002606:	2b30      	cmp	r3, #48	; 0x30
 8002608:	d1f6      	bne.n	80025f8 <HAL_TIM_ConfigClockSource+0x44>
 800260a:	6882      	ldr	r2, [r0, #8]
 800260c:	4939      	ldr	r1, [pc, #228]	; (80026f4 <HAL_TIM_ConfigClockSource+0x140>)
 800260e:	400a      	ands	r2, r1
 8002610:	4313      	orrs	r3, r2
 8002612:	2207      	movs	r2, #7
 8002614:	e017      	b.n	8002646 <HAL_TIM_ConfigClockSource+0x92>
 8002616:	2b50      	cmp	r3, #80	; 0x50
 8002618:	d1ee      	bne.n	80025f8 <HAL_TIM_ConfigClockSource+0x44>
 800261a:	68ca      	ldr	r2, [r1, #12]
 800261c:	684c      	ldr	r4, [r1, #4]
 800261e:	6a01      	ldr	r1, [r0, #32]
 8002620:	6a03      	ldr	r3, [r0, #32]
 8002622:	43bb      	bics	r3, r7
 8002624:	27f0      	movs	r7, #240	; 0xf0
 8002626:	6203      	str	r3, [r0, #32]
 8002628:	6983      	ldr	r3, [r0, #24]
 800262a:	43bb      	bics	r3, r7
 800262c:	001f      	movs	r7, r3
 800262e:	0113      	lsls	r3, r2, #4
 8002630:	220a      	movs	r2, #10
 8002632:	4391      	bics	r1, r2
 8002634:	000a      	movs	r2, r1
 8002636:	433b      	orrs	r3, r7
 8002638:	4322      	orrs	r2, r4
 800263a:	6183      	str	r3, [r0, #24]
 800263c:	6202      	str	r2, [r0, #32]
 800263e:	6883      	ldr	r3, [r0, #8]
 8002640:	4a2c      	ldr	r2, [pc, #176]	; (80026f4 <HAL_TIM_ConfigClockSource+0x140>)
 8002642:	401a      	ands	r2, r3
 8002644:	2357      	movs	r3, #87	; 0x57
 8002646:	4313      	orrs	r3, r2
 8002648:	6083      	str	r3, [r0, #8]
 800264a:	e016      	b.n	800267a <HAL_TIM_ConfigClockSource+0xc6>
 800264c:	2280      	movs	r2, #128	; 0x80
 800264e:	0152      	lsls	r2, r2, #5
 8002650:	4694      	mov	ip, r2
 8002652:	2200      	movs	r2, #0
 8002654:	4563      	cmp	r3, ip
 8002656:	d0d0      	beq.n	80025fa <HAL_TIM_ConfigClockSource+0x46>
 8002658:	2280      	movs	r2, #128	; 0x80
 800265a:	0192      	lsls	r2, r2, #6
 800265c:	4293      	cmp	r3, r2
 800265e:	d00e      	beq.n	800267e <HAL_TIM_ConfigClockSource+0xca>
 8002660:	003a      	movs	r2, r7
 8002662:	2b70      	cmp	r3, #112	; 0x70
 8002664:	d1c9      	bne.n	80025fa <HAL_TIM_ConfigClockSource+0x46>
 8002666:	68cb      	ldr	r3, [r1, #12]
 8002668:	684a      	ldr	r2, [r1, #4]
 800266a:	6889      	ldr	r1, [r1, #8]
 800266c:	f7ff ff96 	bl	800259c <TIM_ETR_SetConfig>
 8002670:	2377      	movs	r3, #119	; 0x77
 8002672:	6822      	ldr	r2, [r4, #0]
 8002674:	6891      	ldr	r1, [r2, #8]
 8002676:	430b      	orrs	r3, r1
 8002678:	6093      	str	r3, [r2, #8]
 800267a:	2200      	movs	r2, #0
 800267c:	e7bd      	b.n	80025fa <HAL_TIM_ConfigClockSource+0x46>
 800267e:	68cb      	ldr	r3, [r1, #12]
 8002680:	684a      	ldr	r2, [r1, #4]
 8002682:	6889      	ldr	r1, [r1, #8]
 8002684:	f7ff ff8a 	bl	800259c <TIM_ETR_SetConfig>
 8002688:	2380      	movs	r3, #128	; 0x80
 800268a:	6822      	ldr	r2, [r4, #0]
 800268c:	01db      	lsls	r3, r3, #7
 800268e:	6891      	ldr	r1, [r2, #8]
 8002690:	e7f1      	b.n	8002676 <HAL_TIM_ConfigClockSource+0xc2>
 8002692:	684a      	ldr	r2, [r1, #4]
 8002694:	68cf      	ldr	r7, [r1, #12]
 8002696:	2110      	movs	r1, #16
 8002698:	6a03      	ldr	r3, [r0, #32]
 800269a:	4c17      	ldr	r4, [pc, #92]	; (80026f8 <HAL_TIM_ConfigClockSource+0x144>)
 800269c:	438b      	bics	r3, r1
 800269e:	6203      	str	r3, [r0, #32]
 80026a0:	6981      	ldr	r1, [r0, #24]
 80026a2:	6a03      	ldr	r3, [r0, #32]
 80026a4:	4021      	ands	r1, r4
 80026a6:	24a0      	movs	r4, #160	; 0xa0
 80026a8:	43a3      	bics	r3, r4
 80026aa:	001c      	movs	r4, r3
 80026ac:	033f      	lsls	r7, r7, #12
 80026ae:	0113      	lsls	r3, r2, #4
 80026b0:	4323      	orrs	r3, r4
 80026b2:	4339      	orrs	r1, r7
 80026b4:	6181      	str	r1, [r0, #24]
 80026b6:	6203      	str	r3, [r0, #32]
 80026b8:	6883      	ldr	r3, [r0, #8]
 80026ba:	4a0e      	ldr	r2, [pc, #56]	; (80026f4 <HAL_TIM_ConfigClockSource+0x140>)
 80026bc:	401a      	ands	r2, r3
 80026be:	2367      	movs	r3, #103	; 0x67
 80026c0:	e7c1      	b.n	8002646 <HAL_TIM_ConfigClockSource+0x92>
 80026c2:	68ca      	ldr	r2, [r1, #12]
 80026c4:	684c      	ldr	r4, [r1, #4]
 80026c6:	6a01      	ldr	r1, [r0, #32]
 80026c8:	6a03      	ldr	r3, [r0, #32]
 80026ca:	43bb      	bics	r3, r7
 80026cc:	27f0      	movs	r7, #240	; 0xf0
 80026ce:	6203      	str	r3, [r0, #32]
 80026d0:	6983      	ldr	r3, [r0, #24]
 80026d2:	43bb      	bics	r3, r7
 80026d4:	001f      	movs	r7, r3
 80026d6:	0113      	lsls	r3, r2, #4
 80026d8:	220a      	movs	r2, #10
 80026da:	4391      	bics	r1, r2
 80026dc:	000a      	movs	r2, r1
 80026de:	433b      	orrs	r3, r7
 80026e0:	4322      	orrs	r2, r4
 80026e2:	6183      	str	r3, [r0, #24]
 80026e4:	6202      	str	r2, [r0, #32]
 80026e6:	6883      	ldr	r3, [r0, #8]
 80026e8:	4a02      	ldr	r2, [pc, #8]	; (80026f4 <HAL_TIM_ConfigClockSource+0x140>)
 80026ea:	401a      	ands	r2, r3
 80026ec:	2347      	movs	r3, #71	; 0x47
 80026ee:	e7aa      	b.n	8002646 <HAL_TIM_ConfigClockSource+0x92>
 80026f0:	ffce0088 	.word	0xffce0088
 80026f4:	ffcfff8f 	.word	0xffcfff8f
 80026f8:	ffff0fff 	.word	0xffff0fff

080026fc <HAL_TIMEx_MasterConfigSynchronization>:
 80026fc:	b5f0      	push	{r4, r5, r6, r7, lr}
 80026fe:	0004      	movs	r4, r0
 8002700:	2202      	movs	r2, #2
 8002702:	343c      	adds	r4, #60	; 0x3c
 8002704:	7825      	ldrb	r5, [r4, #0]
 8002706:	0003      	movs	r3, r0
 8002708:	0010      	movs	r0, r2
 800270a:	2d01      	cmp	r5, #1
 800270c:	d029      	beq.n	8002762 <HAL_TIMEx_MasterConfigSynchronization+0x66>
 800270e:	001d      	movs	r5, r3
 8002710:	353d      	adds	r5, #61	; 0x3d
 8002712:	702a      	strb	r2, [r5, #0]
 8002714:	681b      	ldr	r3, [r3, #0]
 8002716:	4e13      	ldr	r6, [pc, #76]	; (8002764 <HAL_TIMEx_MasterConfigSynchronization+0x68>)
 8002718:	685a      	ldr	r2, [r3, #4]
 800271a:	6898      	ldr	r0, [r3, #8]
 800271c:	42b3      	cmp	r3, r6
 800271e:	d103      	bne.n	8002728 <HAL_TIMEx_MasterConfigSynchronization+0x2c>
 8002720:	4f11      	ldr	r7, [pc, #68]	; (8002768 <HAL_TIMEx_MasterConfigSynchronization+0x6c>)
 8002722:	403a      	ands	r2, r7
 8002724:	684f      	ldr	r7, [r1, #4]
 8002726:	433a      	orrs	r2, r7
 8002728:	2770      	movs	r7, #112	; 0x70
 800272a:	43ba      	bics	r2, r7
 800272c:	680f      	ldr	r7, [r1, #0]
 800272e:	433a      	orrs	r2, r7
 8002730:	605a      	str	r2, [r3, #4]
 8002732:	42b3      	cmp	r3, r6
 8002734:	d00c      	beq.n	8002750 <HAL_TIMEx_MasterConfigSynchronization+0x54>
 8002736:	2280      	movs	r2, #128	; 0x80
 8002738:	05d2      	lsls	r2, r2, #23
 800273a:	4293      	cmp	r3, r2
 800273c:	d008      	beq.n	8002750 <HAL_TIMEx_MasterConfigSynchronization+0x54>
 800273e:	4a0b      	ldr	r2, [pc, #44]	; (800276c <HAL_TIMEx_MasterConfigSynchronization+0x70>)
 8002740:	4293      	cmp	r3, r2
 8002742:	d005      	beq.n	8002750 <HAL_TIMEx_MasterConfigSynchronization+0x54>
 8002744:	4a0a      	ldr	r2, [pc, #40]	; (8002770 <HAL_TIMEx_MasterConfigSynchronization+0x74>)
 8002746:	4293      	cmp	r3, r2
 8002748:	d002      	beq.n	8002750 <HAL_TIMEx_MasterConfigSynchronization+0x54>
 800274a:	4a0a      	ldr	r2, [pc, #40]	; (8002774 <HAL_TIMEx_MasterConfigSynchronization+0x78>)
 800274c:	4293      	cmp	r3, r2
 800274e:	d104      	bne.n	800275a <HAL_TIMEx_MasterConfigSynchronization+0x5e>
 8002750:	2280      	movs	r2, #128	; 0x80
 8002752:	4390      	bics	r0, r2
 8002754:	688a      	ldr	r2, [r1, #8]
 8002756:	4310      	orrs	r0, r2
 8002758:	6098      	str	r0, [r3, #8]
 800275a:	2301      	movs	r3, #1
 800275c:	2000      	movs	r0, #0
 800275e:	702b      	strb	r3, [r5, #0]
 8002760:	7020      	strb	r0, [r4, #0]
 8002762:	bdf0      	pop	{r4, r5, r6, r7, pc}
 8002764:	40012c00 	.word	0x40012c00
 8002768:	ff0fffff 	.word	0xff0fffff
 800276c:	40000400 	.word	0x40000400
 8002770:	40000800 	.word	0x40000800
 8002774:	40014000 	.word	0x40014000

08002778 <UART_SetConfig>:
 8002778:	b5f8      	push	{r3, r4, r5, r6, r7, lr}
 800277a:	0004      	movs	r4, r0
 800277c:	6925      	ldr	r5, [r4, #16]
 800277e:	68a1      	ldr	r1, [r4, #8]
 8002780:	6803      	ldr	r3, [r0, #0]
 8002782:	4329      	orrs	r1, r5
 8002784:	6965      	ldr	r5, [r4, #20]
 8002786:	69c2      	ldr	r2, [r0, #28]
 8002788:	4329      	orrs	r1, r5
 800278a:	6818      	ldr	r0, [r3, #0]
 800278c:	4d9e      	ldr	r5, [pc, #632]	; (8002a08 <UART_SetConfig+0x290>)
 800278e:	4311      	orrs	r1, r2
 8002790:	4028      	ands	r0, r5
 8002792:	4301      	orrs	r1, r0
 8002794:	6019      	str	r1, [r3, #0]
 8002796:	6859      	ldr	r1, [r3, #4]
 8002798:	489c      	ldr	r0, [pc, #624]	; (8002a0c <UART_SetConfig+0x294>)
 800279a:	69a5      	ldr	r5, [r4, #24]
 800279c:	4001      	ands	r1, r0
 800279e:	68e0      	ldr	r0, [r4, #12]
 80027a0:	4301      	orrs	r1, r0
 80027a2:	489b      	ldr	r0, [pc, #620]	; (8002a10 <UART_SetConfig+0x298>)
 80027a4:	6059      	str	r1, [r3, #4]
 80027a6:	4283      	cmp	r3, r0
 80027a8:	d004      	beq.n	80027b4 <UART_SetConfig+0x3c>
 80027aa:	499a      	ldr	r1, [pc, #616]	; (8002a14 <UART_SetConfig+0x29c>)
 80027ac:	428b      	cmp	r3, r1
 80027ae:	d001      	beq.n	80027b4 <UART_SetConfig+0x3c>
 80027b0:	6a21      	ldr	r1, [r4, #32]
 80027b2:	430d      	orrs	r5, r1
 80027b4:	6899      	ldr	r1, [r3, #8]
 80027b6:	4e98      	ldr	r6, [pc, #608]	; (8002a18 <UART_SetConfig+0x2a0>)
 80027b8:	4031      	ands	r1, r6
 80027ba:	4329      	orrs	r1, r5
 80027bc:	250f      	movs	r5, #15
 80027be:	6099      	str	r1, [r3, #8]
 80027c0:	6ad9      	ldr	r1, [r3, #44]	; 0x2c
 80027c2:	43a9      	bics	r1, r5
 80027c4:	6a65      	ldr	r5, [r4, #36]	; 0x24
 80027c6:	4329      	orrs	r1, r5
 80027c8:	62d9      	str	r1, [r3, #44]	; 0x2c
 80027ca:	4994      	ldr	r1, [pc, #592]	; (8002a1c <UART_SetConfig+0x2a4>)
 80027cc:	428b      	cmp	r3, r1
 80027ce:	d116      	bne.n	80027fe <UART_SetConfig+0x86>
 80027d0:	2103      	movs	r1, #3
 80027d2:	4b93      	ldr	r3, [pc, #588]	; (8002a20 <UART_SetConfig+0x2a8>)
 80027d4:	2000      	movs	r0, #0
 80027d6:	6d5b      	ldr	r3, [r3, #84]	; 0x54
 80027d8:	400b      	ands	r3, r1
 80027da:	3b01      	subs	r3, #1
 80027dc:	4991      	ldr	r1, [pc, #580]	; (8002a24 <UART_SetConfig+0x2ac>)
 80027de:	2b02      	cmp	r3, #2
 80027e0:	d915      	bls.n	800280e <UART_SetConfig+0x96>
 80027e2:	2380      	movs	r3, #128	; 0x80
 80027e4:	021b      	lsls	r3, r3, #8
 80027e6:	429a      	cmp	r2, r3
 80027e8:	d000      	beq.n	80027ec <UART_SetConfig+0x74>
 80027ea:	e0a7      	b.n	800293c <UART_SetConfig+0x1c4>
 80027ec:	2808      	cmp	r0, #8
 80027ee:	d821      	bhi.n	8002834 <UART_SetConfig+0xbc>
 80027f0:	f7fd fc88 	bl	8000104 <__gnu_thumb1_case_uqi>
 80027f4:	20a220dd 	.word	0x20a220dd
 80027f8:	202020d0 	.word	0x202020d0
 80027fc:	e2          	.byte	0xe2
 80027fd:	00          	.byte	0x00
 80027fe:	498a      	ldr	r1, [pc, #552]	; (8002a28 <UART_SetConfig+0x2b0>)
 8002800:	428b      	cmp	r3, r1
 8002802:	d106      	bne.n	8002812 <UART_SetConfig+0x9a>
 8002804:	210c      	movs	r1, #12
 8002806:	4b86      	ldr	r3, [pc, #536]	; (8002a20 <UART_SetConfig+0x2a8>)
 8002808:	6d5b      	ldr	r3, [r3, #84]	; 0x54
 800280a:	400b      	ands	r3, r1
 800280c:	4987      	ldr	r1, [pc, #540]	; (8002a2c <UART_SetConfig+0x2b4>)
 800280e:	5cc8      	ldrb	r0, [r1, r3]
 8002810:	e7e7      	b.n	80027e2 <UART_SetConfig+0x6a>
 8002812:	4987      	ldr	r1, [pc, #540]	; (8002a30 <UART_SetConfig+0x2b8>)
 8002814:	428b      	cmp	r3, r1
 8002816:	d117      	bne.n	8002848 <UART_SetConfig+0xd0>
 8002818:	2030      	movs	r0, #48	; 0x30
 800281a:	4981      	ldr	r1, [pc, #516]	; (8002a20 <UART_SetConfig+0x2a8>)
 800281c:	6d49      	ldr	r1, [r1, #84]	; 0x54
 800281e:	4001      	ands	r1, r0
 8002820:	2920      	cmp	r1, #32
 8002822:	d100      	bne.n	8002826 <UART_SetConfig+0xae>
 8002824:	e0b9      	b.n	800299a <UART_SetConfig+0x222>
 8002826:	d807      	bhi.n	8002838 <UART_SetConfig+0xc0>
 8002828:	2900      	cmp	r1, #0
 800282a:	d100      	bne.n	800282e <UART_SetConfig+0xb6>
 800282c:	e0e2      	b.n	80029f4 <UART_SetConfig+0x27c>
 800282e:	2910      	cmp	r1, #16
 8002830:	d100      	bne.n	8002834 <UART_SetConfig+0xbc>
 8002832:	e0ab      	b.n	800298c <UART_SetConfig+0x214>
 8002834:	2001      	movs	r0, #1
 8002836:	e04b      	b.n	80028d0 <UART_SetConfig+0x158>
 8002838:	2930      	cmp	r1, #48	; 0x30
 800283a:	d1fb      	bne.n	8002834 <UART_SetConfig+0xbc>
 800283c:	2080      	movs	r0, #128	; 0x80
 800283e:	0200      	lsls	r0, r0, #8
 8002840:	4282      	cmp	r2, r0
 8002842:	d000      	beq.n	8002846 <UART_SetConfig+0xce>
 8002844:	e08a      	b.n	800295c <UART_SetConfig+0x1e4>
 8002846:	e0b7      	b.n	80029b8 <UART_SetConfig+0x240>
 8002848:	497a      	ldr	r1, [pc, #488]	; (8002a34 <UART_SetConfig+0x2bc>)
 800284a:	428b      	cmp	r3, r1
 800284c:	d100      	bne.n	8002850 <UART_SetConfig+0xd8>
 800284e:	e0aa      	b.n	80029a6 <UART_SetConfig+0x22e>
 8002850:	4979      	ldr	r1, [pc, #484]	; (8002a38 <UART_SetConfig+0x2c0>)
 8002852:	428b      	cmp	r3, r1
 8002854:	d100      	bne.n	8002858 <UART_SetConfig+0xe0>
 8002856:	e0a6      	b.n	80029a6 <UART_SetConfig+0x22e>
 8002858:	4978      	ldr	r1, [pc, #480]	; (8002a3c <UART_SetConfig+0x2c4>)
 800285a:	428b      	cmp	r3, r1
 800285c:	d100      	bne.n	8002860 <UART_SetConfig+0xe8>
 800285e:	e0a2      	b.n	80029a6 <UART_SetConfig+0x22e>
 8002860:	4283      	cmp	r3, r0
 8002862:	d117      	bne.n	8002894 <UART_SetConfig+0x11c>
 8002864:	22c0      	movs	r2, #192	; 0xc0
 8002866:	2180      	movs	r1, #128	; 0x80
 8002868:	4b6d      	ldr	r3, [pc, #436]	; (8002a20 <UART_SetConfig+0x2a8>)
 800286a:	0112      	lsls	r2, r2, #4
 800286c:	6d5b      	ldr	r3, [r3, #84]	; 0x54
 800286e:	0109      	lsls	r1, r1, #4
 8002870:	4013      	ands	r3, r2
 8002872:	428b      	cmp	r3, r1
 8002874:	d032      	beq.n	80028dc <UART_SetConfig+0x164>
 8002876:	d808      	bhi.n	800288a <UART_SetConfig+0x112>
 8002878:	2b00      	cmp	r3, #0
 800287a:	d024      	beq.n	80028c6 <UART_SetConfig+0x14e>
 800287c:	2280      	movs	r2, #128	; 0x80
 800287e:	00d2      	lsls	r2, r2, #3
 8002880:	4293      	cmp	r3, r2
 8002882:	d1d7      	bne.n	8002834 <UART_SetConfig+0xbc>
 8002884:	f7ff fbae 	bl	8001fe4 <HAL_RCC_GetSysClockFreq>
 8002888:	e01f      	b.n	80028ca <UART_SetConfig+0x152>
 800288a:	4293      	cmp	r3, r2
 800288c:	d1d2      	bne.n	8002834 <UART_SetConfig+0xbc>
 800288e:	2680      	movs	r6, #128	; 0x80
 8002890:	0236      	lsls	r6, r6, #8
 8002892:	e024      	b.n	80028de <UART_SetConfig+0x166>
 8002894:	495f      	ldr	r1, [pc, #380]	; (8002a14 <UART_SetConfig+0x29c>)
 8002896:	2001      	movs	r0, #1
 8002898:	428b      	cmp	r3, r1
 800289a:	d119      	bne.n	80028d0 <UART_SetConfig+0x158>
 800289c:	20c0      	movs	r0, #192	; 0xc0
 800289e:	2580      	movs	r5, #128	; 0x80
 80028a0:	495f      	ldr	r1, [pc, #380]	; (8002a20 <UART_SetConfig+0x2a8>)
 80028a2:	0080      	lsls	r0, r0, #2
 80028a4:	6d49      	ldr	r1, [r1, #84]	; 0x54
 80028a6:	00ad      	lsls	r5, r5, #2
 80028a8:	4001      	ands	r1, r0
 80028aa:	42a9      	cmp	r1, r5
 80028ac:	d016      	beq.n	80028dc <UART_SetConfig+0x164>
 80028ae:	d807      	bhi.n	80028c0 <UART_SetConfig+0x148>
 80028b0:	2900      	cmp	r1, #0
 80028b2:	d100      	bne.n	80028b6 <UART_SetConfig+0x13e>
 80028b4:	e09e      	b.n	80029f4 <UART_SetConfig+0x27c>
 80028b6:	2380      	movs	r3, #128	; 0x80
 80028b8:	005b      	lsls	r3, r3, #1
 80028ba:	4299      	cmp	r1, r3
 80028bc:	d0e2      	beq.n	8002884 <UART_SetConfig+0x10c>
 80028be:	e7b9      	b.n	8002834 <UART_SetConfig+0xbc>
 80028c0:	4281      	cmp	r1, r0
 80028c2:	d0e4      	beq.n	800288e <UART_SetConfig+0x116>
 80028c4:	e7b6      	b.n	8002834 <UART_SetConfig+0xbc>
 80028c6:	f7ff fc81 	bl	80021cc <HAL_RCC_GetPCLK1Freq>
 80028ca:	1e06      	subs	r6, r0, #0
 80028cc:	d107      	bne.n	80028de <UART_SetConfig+0x166>
 80028ce:	2000      	movs	r0, #0
 80028d0:	4b5b      	ldr	r3, [pc, #364]	; (8002a40 <UART_SetConfig+0x2c8>)
 80028d2:	66a3      	str	r3, [r4, #104]	; 0x68
 80028d4:	2300      	movs	r3, #0
 80028d6:	6763      	str	r3, [r4, #116]	; 0x74
 80028d8:	67a3      	str	r3, [r4, #120]	; 0x78
 80028da:	bdf8      	pop	{r3, r4, r5, r6, r7, pc}
 80028dc:	4e59      	ldr	r6, [pc, #356]	; (8002a44 <UART_SetConfig+0x2cc>)
 80028de:	6a63      	ldr	r3, [r4, #36]	; 0x24
 80028e0:	4a59      	ldr	r2, [pc, #356]	; (8002a48 <UART_SetConfig+0x2d0>)
 80028e2:	005b      	lsls	r3, r3, #1
 80028e4:	5a9f      	ldrh	r7, [r3, r2]
 80028e6:	0030      	movs	r0, r6
 80028e8:	0039      	movs	r1, r7
 80028ea:	f7fd fc1f 	bl	800012c <__udivsi3>
 80028ee:	2303      	movs	r3, #3
 80028f0:	6865      	ldr	r5, [r4, #4]
 80028f2:	436b      	muls	r3, r5
 80028f4:	4283      	cmp	r3, r0
 80028f6:	d89d      	bhi.n	8002834 <UART_SetConfig+0xbc>
 80028f8:	032b      	lsls	r3, r5, #12
 80028fa:	4283      	cmp	r3, r0
 80028fc:	d39a      	bcc.n	8002834 <UART_SetConfig+0xbc>
 80028fe:	2300      	movs	r3, #0
 8002900:	003a      	movs	r2, r7
 8002902:	0030      	movs	r0, r6
 8002904:	0019      	movs	r1, r3
 8002906:	f7fd fd87 	bl	8000418 <__aeabi_uldivmod>
 800290a:	2700      	movs	r7, #0
 800290c:	0e06      	lsrs	r6, r0, #24
 800290e:	020b      	lsls	r3, r1, #8
 8002910:	4333      	orrs	r3, r6
 8002912:	0202      	lsls	r2, r0, #8
 8002914:	086e      	lsrs	r6, r5, #1
 8002916:	1992      	adds	r2, r2, r6
 8002918:	417b      	adcs	r3, r7
 800291a:	0010      	movs	r0, r2
 800291c:	0019      	movs	r1, r3
 800291e:	002a      	movs	r2, r5
 8002920:	003b      	movs	r3, r7
 8002922:	f7fd fd79 	bl	8000418 <__aeabi_uldivmod>
 8002926:	4b49      	ldr	r3, [pc, #292]	; (8002a4c <UART_SetConfig+0x2d4>)
 8002928:	18c2      	adds	r2, r0, r3
 800292a:	4b49      	ldr	r3, [pc, #292]	; (8002a50 <UART_SetConfig+0x2d8>)
 800292c:	429a      	cmp	r2, r3
 800292e:	d900      	bls.n	8002932 <UART_SetConfig+0x1ba>
 8002930:	e780      	b.n	8002834 <UART_SetConfig+0xbc>
 8002932:	6823      	ldr	r3, [r4, #0]
 8002934:	60d8      	str	r0, [r3, #12]
 8002936:	e7ca      	b.n	80028ce <UART_SetConfig+0x156>
 8002938:	4a42      	ldr	r2, [pc, #264]	; (8002a44 <UART_SetConfig+0x2cc>)
 800293a:	e03d      	b.n	80029b8 <UART_SetConfig+0x240>
 800293c:	2808      	cmp	r0, #8
 800293e:	d900      	bls.n	8002942 <UART_SetConfig+0x1ca>
 8002940:	e778      	b.n	8002834 <UART_SetConfig+0xbc>
 8002942:	f7fd fbe9 	bl	8000118 <__gnu_thumb1_case_shi>
 8002946:	001b      	.short	0x001b
 8002948:	002eff77 	.word	0x002eff77
 800294c:	0020ff77 	.word	0x0020ff77
 8002950:	ff77ff77 	.word	0xff77ff77
 8002954:	0009ff77 	.word	0x0009ff77
 8002958:	2080      	movs	r0, #128	; 0x80
 800295a:	0200      	lsls	r0, r0, #8
 800295c:	6a63      	ldr	r3, [r4, #36]	; 0x24
 800295e:	4a3a      	ldr	r2, [pc, #232]	; (8002a48 <UART_SetConfig+0x2d0>)
 8002960:	005b      	lsls	r3, r3, #1
 8002962:	5a99      	ldrh	r1, [r3, r2]
 8002964:	f7fd fbe2 	bl	800012c <__udivsi3>
 8002968:	6865      	ldr	r5, [r4, #4]
 800296a:	086b      	lsrs	r3, r5, #1
 800296c:	18c0      	adds	r0, r0, r3
 800296e:	0029      	movs	r1, r5
 8002970:	f7fd fbdc 	bl	800012c <__udivsi3>
 8002974:	0002      	movs	r2, r0
 8002976:	4b37      	ldr	r3, [pc, #220]	; (8002a54 <UART_SetConfig+0x2dc>)
 8002978:	3a10      	subs	r2, #16
 800297a:	e7d7      	b.n	800292c <UART_SetConfig+0x1b4>
 800297c:	f7ff fc26 	bl	80021cc <HAL_RCC_GetPCLK1Freq>
 8002980:	2800      	cmp	r0, #0
 8002982:	d0a4      	beq.n	80028ce <UART_SetConfig+0x156>
 8002984:	e7ea      	b.n	800295c <UART_SetConfig+0x1e4>
 8002986:	f7ff fb2d 	bl	8001fe4 <HAL_RCC_GetSysClockFreq>
 800298a:	e7f9      	b.n	8002980 <UART_SetConfig+0x208>
 800298c:	2380      	movs	r3, #128	; 0x80
 800298e:	021b      	lsls	r3, r3, #8
 8002990:	429a      	cmp	r2, r3
 8002992:	d1f8      	bne.n	8002986 <UART_SetConfig+0x20e>
 8002994:	f7ff fb26 	bl	8001fe4 <HAL_RCC_GetSysClockFreq>
 8002998:	e00b      	b.n	80029b2 <UART_SetConfig+0x23a>
 800299a:	2380      	movs	r3, #128	; 0x80
 800299c:	021b      	lsls	r3, r3, #8
 800299e:	429a      	cmp	r2, r3
 80029a0:	d0ca      	beq.n	8002938 <UART_SetConfig+0x1c0>
 80029a2:	4828      	ldr	r0, [pc, #160]	; (8002a44 <UART_SetConfig+0x2cc>)
 80029a4:	e7da      	b.n	800295c <UART_SetConfig+0x1e4>
 80029a6:	2380      	movs	r3, #128	; 0x80
 80029a8:	021b      	lsls	r3, r3, #8
 80029aa:	429a      	cmp	r2, r3
 80029ac:	d1e6      	bne.n	800297c <UART_SetConfig+0x204>
 80029ae:	f7ff fc0d 	bl	80021cc <HAL_RCC_GetPCLK1Freq>
 80029b2:	1e02      	subs	r2, r0, #0
 80029b4:	d100      	bne.n	80029b8 <UART_SetConfig+0x240>
 80029b6:	e78a      	b.n	80028ce <UART_SetConfig+0x156>
 80029b8:	6a63      	ldr	r3, [r4, #36]	; 0x24
 80029ba:	4923      	ldr	r1, [pc, #140]	; (8002a48 <UART_SetConfig+0x2d0>)
 80029bc:	005b      	lsls	r3, r3, #1
 80029be:	0010      	movs	r0, r2
 80029c0:	5a59      	ldrh	r1, [r3, r1]
 80029c2:	f7fd fbb3 	bl	800012c <__udivsi3>
 80029c6:	6865      	ldr	r5, [r4, #4]
 80029c8:	0040      	lsls	r0, r0, #1
 80029ca:	086b      	lsrs	r3, r5, #1
 80029cc:	18c0      	adds	r0, r0, r3
 80029ce:	0029      	movs	r1, r5
 80029d0:	f7fd fbac 	bl	800012c <__udivsi3>
 80029d4:	0002      	movs	r2, r0
 80029d6:	4b1f      	ldr	r3, [pc, #124]	; (8002a54 <UART_SetConfig+0x2dc>)
 80029d8:	3a10      	subs	r2, #16
 80029da:	429a      	cmp	r2, r3
 80029dc:	d900      	bls.n	80029e0 <UART_SetConfig+0x268>
 80029de:	e729      	b.n	8002834 <UART_SetConfig+0xbc>
 80029e0:	230f      	movs	r3, #15
 80029e2:	0002      	movs	r2, r0
 80029e4:	0700      	lsls	r0, r0, #28
 80029e6:	439a      	bics	r2, r3
 80029e8:	b293      	uxth	r3, r2
 80029ea:	0f40      	lsrs	r0, r0, #29
 80029ec:	6822      	ldr	r2, [r4, #0]
 80029ee:	4318      	orrs	r0, r3
 80029f0:	60d0      	str	r0, [r2, #12]
 80029f2:	e76c      	b.n	80028ce <UART_SetConfig+0x156>
 80029f4:	4907      	ldr	r1, [pc, #28]	; (8002a14 <UART_SetConfig+0x29c>)
 80029f6:	428b      	cmp	r3, r1
 80029f8:	d100      	bne.n	80029fc <UART_SetConfig+0x284>
 80029fa:	e764      	b.n	80028c6 <UART_SetConfig+0x14e>
 80029fc:	2380      	movs	r3, #128	; 0x80
 80029fe:	2000      	movs	r0, #0
 8002a00:	021b      	lsls	r3, r3, #8
 8002a02:	429a      	cmp	r2, r3
 8002a04:	d19d      	bne.n	8002942 <UART_SetConfig+0x1ca>
 8002a06:	e7d2      	b.n	80029ae <UART_SetConfig+0x236>
 8002a08:	cfff69f3 	.word	0xcfff69f3
 8002a0c:	ffffcfff 	.word	0xffffcfff
 8002a10:	40008000 	.word	0x40008000
 8002a14:	40008400 	.word	0x40008400
 8002a18:	11fff4ff 	.word	0x11fff4ff
 8002a1c:	40013800 	.word	0x40013800
 8002a20:	40021000 	.word	0x40021000
 8002a24:	08002eb4 	.word	0x08002eb4
 8002a28:	40004400 	.word	0x40004400
 8002a2c:	08002eb7 	.word	0x08002eb7
 8002a30:	40004800 	.word	0x40004800
 8002a34:	40004c00 	.word	0x40004c00
 8002a38:	40005000 	.word	0x40005000
 8002a3c:	40013c00 	.word	0x40013c00
 8002a40:	00010001 	.word	0x00010001
 8002a44:	00f42400 	.word	0x00f42400
 8002a48:	08002ec4 	.word	0x08002ec4
 8002a4c:	fffffd00 	.word	0xfffffd00
 8002a50:	000ffcff 	.word	0x000ffcff
 8002a54:	0000ffef 	.word	0x0000ffef

08002a58 <UART_AdvFeatureConfig>:
 8002a58:	6a83      	ldr	r3, [r0, #40]	; 0x28
 8002a5a:	b530      	push	{r4, r5, lr}
 8002a5c:	07da      	lsls	r2, r3, #31
 8002a5e:	d506      	bpl.n	8002a6e <UART_AdvFeatureConfig+0x16>
 8002a60:	6801      	ldr	r1, [r0, #0]
 8002a62:	4c28      	ldr	r4, [pc, #160]	; (8002b04 <UART_AdvFeatureConfig+0xac>)
 8002a64:	684a      	ldr	r2, [r1, #4]
 8002a66:	4022      	ands	r2, r4
 8002a68:	6ac4      	ldr	r4, [r0, #44]	; 0x2c
 8002a6a:	4322      	orrs	r2, r4
 8002a6c:	604a      	str	r2, [r1, #4]
 8002a6e:	079a      	lsls	r2, r3, #30
 8002a70:	d506      	bpl.n	8002a80 <UART_AdvFeatureConfig+0x28>
 8002a72:	6801      	ldr	r1, [r0, #0]
 8002a74:	4c24      	ldr	r4, [pc, #144]	; (8002b08 <UART_AdvFeatureConfig+0xb0>)
 8002a76:	684a      	ldr	r2, [r1, #4]
 8002a78:	4022      	ands	r2, r4
 8002a7a:	6b04      	ldr	r4, [r0, #48]	; 0x30
 8002a7c:	4322      	orrs	r2, r4
 8002a7e:	604a      	str	r2, [r1, #4]
 8002a80:	075a      	lsls	r2, r3, #29
 8002a82:	d506      	bpl.n	8002a92 <UART_AdvFeatureConfig+0x3a>
 8002a84:	6801      	ldr	r1, [r0, #0]
 8002a86:	4c21      	ldr	r4, [pc, #132]	; (8002b0c <UART_AdvFeatureConfig+0xb4>)
 8002a88:	684a      	ldr	r2, [r1, #4]
 8002a8a:	4022      	ands	r2, r4
 8002a8c:	6b44      	ldr	r4, [r0, #52]	; 0x34
 8002a8e:	4322      	orrs	r2, r4
 8002a90:	604a      	str	r2, [r1, #4]
 8002a92:	071a      	lsls	r2, r3, #28
 8002a94:	d506      	bpl.n	8002aa4 <UART_AdvFeatureConfig+0x4c>
 8002a96:	6801      	ldr	r1, [r0, #0]
 8002a98:	4c1d      	ldr	r4, [pc, #116]	; (8002b10 <UART_AdvFeatureConfig+0xb8>)
 8002a9a:	684a      	ldr	r2, [r1, #4]
 8002a9c:	4022      	ands	r2, r4
 8002a9e:	6b84      	ldr	r4, [r0, #56]	; 0x38
 8002aa0:	4322      	orrs	r2, r4
 8002aa2:	604a      	str	r2, [r1, #4]
 8002aa4:	06da      	lsls	r2, r3, #27
 8002aa6:	d506      	bpl.n	8002ab6 <UART_AdvFeatureConfig+0x5e>
 8002aa8:	6801      	ldr	r1, [r0, #0]
 8002aaa:	4c1a      	ldr	r4, [pc, #104]	; (8002b14 <UART_AdvFeatureConfig+0xbc>)
 8002aac:	688a      	ldr	r2, [r1, #8]
 8002aae:	4022      	ands	r2, r4
 8002ab0:	6bc4      	ldr	r4, [r0, #60]	; 0x3c
 8002ab2:	4322      	orrs	r2, r4
 8002ab4:	608a      	str	r2, [r1, #8]
 8002ab6:	069a      	lsls	r2, r3, #26
 8002ab8:	d506      	bpl.n	8002ac8 <UART_AdvFeatureConfig+0x70>
 8002aba:	6801      	ldr	r1, [r0, #0]
 8002abc:	4c16      	ldr	r4, [pc, #88]	; (8002b18 <UART_AdvFeatureConfig+0xc0>)
 8002abe:	688a      	ldr	r2, [r1, #8]
 8002ac0:	4022      	ands	r2, r4
 8002ac2:	6c04      	ldr	r4, [r0, #64]	; 0x40
 8002ac4:	4322      	orrs	r2, r4
 8002ac6:	608a      	str	r2, [r1, #8]
 8002ac8:	065a      	lsls	r2, r3, #25
 8002aca:	d510      	bpl.n	8002aee <UART_AdvFeatureConfig+0x96>
 8002acc:	6801      	ldr	r1, [r0, #0]
 8002ace:	4d13      	ldr	r5, [pc, #76]	; (8002b1c <UART_AdvFeatureConfig+0xc4>)
 8002ad0:	684a      	ldr	r2, [r1, #4]
 8002ad2:	6c44      	ldr	r4, [r0, #68]	; 0x44
 8002ad4:	402a      	ands	r2, r5
 8002ad6:	4322      	orrs	r2, r4
 8002ad8:	604a      	str	r2, [r1, #4]
 8002ada:	2280      	movs	r2, #128	; 0x80
 8002adc:	0352      	lsls	r2, r2, #13
 8002ade:	4294      	cmp	r4, r2
 8002ae0:	d105      	bne.n	8002aee <UART_AdvFeatureConfig+0x96>
 8002ae2:	684a      	ldr	r2, [r1, #4]
 8002ae4:	4c0e      	ldr	r4, [pc, #56]	; (8002b20 <UART_AdvFeatureConfig+0xc8>)
 8002ae6:	4022      	ands	r2, r4
 8002ae8:	6c84      	ldr	r4, [r0, #72]	; 0x48
 8002aea:	4322      	orrs	r2, r4
 8002aec:	604a      	str	r2, [r1, #4]
 8002aee:	061b      	lsls	r3, r3, #24
 8002af0:	d506      	bpl.n	8002b00 <UART_AdvFeatureConfig+0xa8>
 8002af2:	6802      	ldr	r2, [r0, #0]
 8002af4:	490b      	ldr	r1, [pc, #44]	; (8002b24 <UART_AdvFeatureConfig+0xcc>)
 8002af6:	6853      	ldr	r3, [r2, #4]
 8002af8:	400b      	ands	r3, r1
 8002afa:	6cc1      	ldr	r1, [r0, #76]	; 0x4c
 8002afc:	430b      	orrs	r3, r1
 8002afe:	6053      	str	r3, [r2, #4]
 8002b00:	bd30      	pop	{r4, r5, pc}
 8002b02:	46c0      	nop			; (mov r8, r8)
 8002b04:	fffdffff 	.word	0xfffdffff
 8002b08:	fffeffff 	.word	0xfffeffff
 8002b0c:	fffbffff 	.word	0xfffbffff
 8002b10:	ffff7fff 	.word	0xffff7fff
 8002b14:	ffffefff 	.word	0xffffefff
 8002b18:	ffffdfff 	.word	0xffffdfff
 8002b1c:	ffefffff 	.word	0xffefffff
 8002b20:	ff9fffff 	.word	0xff9fffff
 8002b24:	fff7ffff 	.word	0xfff7ffff

08002b28 <UART_WaitOnFlagUntilTimeout>:
 8002b28:	b5f7      	push	{r0, r1, r2, r4, r5, r6, r7, lr}
 8002b2a:	2780      	movs	r7, #128	; 0x80
 8002b2c:	0004      	movs	r4, r0
 8002b2e:	000d      	movs	r5, r1
 8002b30:	0016      	movs	r6, r2
 8002b32:	9301      	str	r3, [sp, #4]
 8002b34:	013f      	lsls	r7, r7, #4
 8002b36:	6822      	ldr	r2, [r4, #0]
 8002b38:	69d3      	ldr	r3, [r2, #28]
 8002b3a:	402b      	ands	r3, r5
 8002b3c:	1b5b      	subs	r3, r3, r5
 8002b3e:	4259      	negs	r1, r3
 8002b40:	414b      	adcs	r3, r1
 8002b42:	42b3      	cmp	r3, r6
 8002b44:	d001      	beq.n	8002b4a <UART_WaitOnFlagUntilTimeout+0x22>
 8002b46:	2000      	movs	r0, #0
 8002b48:	e02a      	b.n	8002ba0 <UART_WaitOnFlagUntilTimeout+0x78>
 8002b4a:	9b08      	ldr	r3, [sp, #32]
 8002b4c:	3301      	adds	r3, #1
 8002b4e:	d0f3      	beq.n	8002b38 <UART_WaitOnFlagUntilTimeout+0x10>
 8002b50:	f7fe fa92 	bl	8001078 <HAL_GetTick>
 8002b54:	9b01      	ldr	r3, [sp, #4]
 8002b56:	1ac0      	subs	r0, r0, r3
 8002b58:	9b08      	ldr	r3, [sp, #32]
 8002b5a:	4298      	cmp	r0, r3
 8002b5c:	d801      	bhi.n	8002b62 <UART_WaitOnFlagUntilTimeout+0x3a>
 8002b5e:	2b00      	cmp	r3, #0
 8002b60:	d11f      	bne.n	8002ba2 <UART_WaitOnFlagUntilTimeout+0x7a>
 8002b62:	f3ef 8010 	mrs	r0, PRIMASK
 8002b66:	2201      	movs	r2, #1
 8002b68:	f382 8810 	msr	PRIMASK, r2
 8002b6c:	6821      	ldr	r1, [r4, #0]
 8002b6e:	4d20      	ldr	r5, [pc, #128]	; (8002bf0 <UART_WaitOnFlagUntilTimeout+0xc8>)
 8002b70:	680b      	ldr	r3, [r1, #0]
 8002b72:	402b      	ands	r3, r5
 8002b74:	600b      	str	r3, [r1, #0]
 8002b76:	f380 8810 	msr	PRIMASK, r0
 8002b7a:	f3ef 8010 	mrs	r0, PRIMASK
 8002b7e:	f382 8810 	msr	PRIMASK, r2
 8002b82:	6821      	ldr	r1, [r4, #0]
 8002b84:	688b      	ldr	r3, [r1, #8]
 8002b86:	4393      	bics	r3, r2
 8002b88:	608b      	str	r3, [r1, #8]
 8002b8a:	f380 8810 	msr	PRIMASK, r0
 8002b8e:	0022      	movs	r2, r4
 8002b90:	2320      	movs	r3, #32
 8002b92:	3288      	adds	r2, #136	; 0x88
 8002b94:	6013      	str	r3, [r2, #0]
 8002b96:	6053      	str	r3, [r2, #4]
 8002b98:	2300      	movs	r3, #0
 8002b9a:	2003      	movs	r0, #3
 8002b9c:	3484      	adds	r4, #132	; 0x84
 8002b9e:	7023      	strb	r3, [r4, #0]
 8002ba0:	bdfe      	pop	{r1, r2, r3, r4, r5, r6, r7, pc}
 8002ba2:	2104      	movs	r1, #4
 8002ba4:	6823      	ldr	r3, [r4, #0]
 8002ba6:	681a      	ldr	r2, [r3, #0]
 8002ba8:	420a      	tst	r2, r1
 8002baa:	d0c4      	beq.n	8002b36 <UART_WaitOnFlagUntilTimeout+0xe>
 8002bac:	69da      	ldr	r2, [r3, #28]
 8002bae:	423a      	tst	r2, r7
 8002bb0:	d0c1      	beq.n	8002b36 <UART_WaitOnFlagUntilTimeout+0xe>
 8002bb2:	621f      	str	r7, [r3, #32]
 8002bb4:	f3ef 8010 	mrs	r0, PRIMASK
 8002bb8:	2201      	movs	r2, #1
 8002bba:	f382 8810 	msr	PRIMASK, r2
 8002bbe:	6821      	ldr	r1, [r4, #0]
 8002bc0:	4d0b      	ldr	r5, [pc, #44]	; (8002bf0 <UART_WaitOnFlagUntilTimeout+0xc8>)
 8002bc2:	680b      	ldr	r3, [r1, #0]
 8002bc4:	402b      	ands	r3, r5
 8002bc6:	600b      	str	r3, [r1, #0]
 8002bc8:	f380 8810 	msr	PRIMASK, r0
 8002bcc:	f3ef 8010 	mrs	r0, PRIMASK
 8002bd0:	f382 8810 	msr	PRIMASK, r2
 8002bd4:	6821      	ldr	r1, [r4, #0]
 8002bd6:	688b      	ldr	r3, [r1, #8]
 8002bd8:	4393      	bics	r3, r2
 8002bda:	608b      	str	r3, [r1, #8]
 8002bdc:	f380 8810 	msr	PRIMASK, r0
 8002be0:	0022      	movs	r2, r4
 8002be2:	2320      	movs	r3, #32
 8002be4:	3288      	adds	r2, #136	; 0x88
 8002be6:	6013      	str	r3, [r2, #0]
 8002be8:	6053      	str	r3, [r2, #4]
 8002bea:	6093      	str	r3, [r2, #8]
 8002bec:	e7d4      	b.n	8002b98 <UART_WaitOnFlagUntilTimeout+0x70>
 8002bee:	46c0      	nop			; (mov r8, r8)
 8002bf0:	fffffe5f 	.word	0xfffffe5f

08002bf4 <UART_CheckIdleState>:
 8002bf4:	0003      	movs	r3, r0
 8002bf6:	b573      	push	{r0, r1, r4, r5, r6, lr}
 8002bf8:	2600      	movs	r6, #0
 8002bfa:	0004      	movs	r4, r0
 8002bfc:	3390      	adds	r3, #144	; 0x90
 8002bfe:	601e      	str	r6, [r3, #0]
 8002c00:	f7fe fa3a 	bl	8001078 <HAL_GetTick>
 8002c04:	6823      	ldr	r3, [r4, #0]
 8002c06:	0005      	movs	r5, r0
 8002c08:	681b      	ldr	r3, [r3, #0]
 8002c0a:	071b      	lsls	r3, r3, #28
 8002c0c:	d419      	bmi.n	8002c42 <UART_CheckIdleState+0x4e>
 8002c0e:	6823      	ldr	r3, [r4, #0]
 8002c10:	681b      	ldr	r3, [r3, #0]
 8002c12:	075b      	lsls	r3, r3, #29
 8002c14:	d50a      	bpl.n	8002c2c <UART_CheckIdleState+0x38>
 8002c16:	2180      	movs	r1, #128	; 0x80
 8002c18:	4b10      	ldr	r3, [pc, #64]	; (8002c5c <UART_CheckIdleState+0x68>)
 8002c1a:	2200      	movs	r2, #0
 8002c1c:	9300      	str	r3, [sp, #0]
 8002c1e:	0020      	movs	r0, r4
 8002c20:	002b      	movs	r3, r5
 8002c22:	03c9      	lsls	r1, r1, #15
 8002c24:	f7ff ff80 	bl	8002b28 <UART_WaitOnFlagUntilTimeout>
 8002c28:	2800      	cmp	r0, #0
 8002c2a:	d115      	bne.n	8002c58 <UART_CheckIdleState+0x64>
 8002c2c:	0022      	movs	r2, r4
 8002c2e:	2000      	movs	r0, #0
 8002c30:	2320      	movs	r3, #32
 8002c32:	3288      	adds	r2, #136	; 0x88
 8002c34:	6013      	str	r3, [r2, #0]
 8002c36:	6053      	str	r3, [r2, #4]
 8002c38:	66e0      	str	r0, [r4, #108]	; 0x6c
 8002c3a:	6720      	str	r0, [r4, #112]	; 0x70
 8002c3c:	3484      	adds	r4, #132	; 0x84
 8002c3e:	7020      	strb	r0, [r4, #0]
 8002c40:	e00b      	b.n	8002c5a <UART_CheckIdleState+0x66>
 8002c42:	2180      	movs	r1, #128	; 0x80
 8002c44:	4b05      	ldr	r3, [pc, #20]	; (8002c5c <UART_CheckIdleState+0x68>)
 8002c46:	0032      	movs	r2, r6
 8002c48:	9300      	str	r3, [sp, #0]
 8002c4a:	0389      	lsls	r1, r1, #14
 8002c4c:	0003      	movs	r3, r0
 8002c4e:	0020      	movs	r0, r4
 8002c50:	f7ff ff6a 	bl	8002b28 <UART_WaitOnFlagUntilTimeout>
 8002c54:	2800      	cmp	r0, #0
 8002c56:	d0da      	beq.n	8002c0e <UART_CheckIdleState+0x1a>
 8002c58:	2003      	movs	r0, #3
 8002c5a:	bd76      	pop	{r1, r2, r4, r5, r6, pc}
 8002c5c:	01ffffff 	.word	0x01ffffff

08002c60 <HAL_UART_Init>:
 8002c60:	b570      	push	{r4, r5, r6, lr}
 8002c62:	1e04      	subs	r4, r0, #0
 8002c64:	d101      	bne.n	8002c6a <HAL_UART_Init+0xa>
 8002c66:	2001      	movs	r0, #1
 8002c68:	bd70      	pop	{r4, r5, r6, pc}
 8002c6a:	0005      	movs	r5, r0
 8002c6c:	3588      	adds	r5, #136	; 0x88
 8002c6e:	682b      	ldr	r3, [r5, #0]
 8002c70:	2b00      	cmp	r3, #0
 8002c72:	d104      	bne.n	8002c7e <HAL_UART_Init+0x1e>
 8002c74:	0002      	movs	r2, r0
 8002c76:	3284      	adds	r2, #132	; 0x84
 8002c78:	7013      	strb	r3, [r2, #0]
 8002c7a:	f7fd ffb7 	bl	8000bec <HAL_UART_MspInit>
 8002c7e:	2324      	movs	r3, #36	; 0x24
 8002c80:	2101      	movs	r1, #1
 8002c82:	6822      	ldr	r2, [r4, #0]
 8002c84:	602b      	str	r3, [r5, #0]
 8002c86:	6813      	ldr	r3, [r2, #0]
 8002c88:	0020      	movs	r0, r4
 8002c8a:	438b      	bics	r3, r1
 8002c8c:	6013      	str	r3, [r2, #0]
 8002c8e:	f7ff fd73 	bl	8002778 <UART_SetConfig>
 8002c92:	2801      	cmp	r0, #1
 8002c94:	d0e7      	beq.n	8002c66 <HAL_UART_Init+0x6>
 8002c96:	6aa3      	ldr	r3, [r4, #40]	; 0x28
 8002c98:	2b00      	cmp	r3, #0
 8002c9a:	d002      	beq.n	8002ca2 <HAL_UART_Init+0x42>
 8002c9c:	0020      	movs	r0, r4
 8002c9e:	f7ff fedb 	bl	8002a58 <UART_AdvFeatureConfig>
 8002ca2:	6823      	ldr	r3, [r4, #0]
 8002ca4:	4907      	ldr	r1, [pc, #28]	; (8002cc4 <HAL_UART_Init+0x64>)
 8002ca6:	685a      	ldr	r2, [r3, #4]
 8002ca8:	0020      	movs	r0, r4
 8002caa:	400a      	ands	r2, r1
 8002cac:	212a      	movs	r1, #42	; 0x2a
 8002cae:	605a      	str	r2, [r3, #4]
 8002cb0:	689a      	ldr	r2, [r3, #8]
 8002cb2:	438a      	bics	r2, r1
 8002cb4:	609a      	str	r2, [r3, #8]
 8002cb6:	2201      	movs	r2, #1
 8002cb8:	6819      	ldr	r1, [r3, #0]
 8002cba:	430a      	orrs	r2, r1
 8002cbc:	601a      	str	r2, [r3, #0]
 8002cbe:	f7ff ff99 	bl	8002bf4 <UART_CheckIdleState>
 8002cc2:	e7d1      	b.n	8002c68 <HAL_UART_Init+0x8>
 8002cc4:	ffffb7ff 	.word	0xffffb7ff

08002cc8 <UARTEx_SetNbDataToProcess>:
 8002cc8:	b5f8      	push	{r3, r4, r5, r6, r7, lr}
 8002cca:	6e43      	ldr	r3, [r0, #100]	; 0x64
 8002ccc:	0004      	movs	r4, r0
 8002cce:	2b00      	cmp	r3, #0
 8002cd0:	d102      	bne.n	8002cd8 <UARTEx_SetNbDataToProcess+0x10>
 8002cd2:	4b0d      	ldr	r3, [pc, #52]	; (8002d08 <UARTEx_SetNbDataToProcess+0x40>)
 8002cd4:	6683      	str	r3, [r0, #104]	; 0x68
 8002cd6:	bdf8      	pop	{r3, r4, r5, r6, r7, pc}
 8002cd8:	6803      	ldr	r3, [r0, #0]
 8002cda:	4e0c      	ldr	r6, [pc, #48]	; (8002d0c <UARTEx_SetNbDataToProcess+0x44>)
 8002cdc:	689f      	ldr	r7, [r3, #8]
 8002cde:	689b      	ldr	r3, [r3, #8]
 8002ce0:	4d0b      	ldr	r5, [pc, #44]	; (8002d10 <UARTEx_SetNbDataToProcess+0x48>)
 8002ce2:	0f5b      	lsrs	r3, r3, #29
 8002ce4:	5cf0      	ldrb	r0, [r6, r3]
 8002ce6:	5ce9      	ldrb	r1, [r5, r3]
 8002ce8:	00c0      	lsls	r0, r0, #3
 8002cea:	f7fd faa9 	bl	8000240 <__divsi3>
 8002cee:	0023      	movs	r3, r4
 8002cf0:	336a      	adds	r3, #106	; 0x6a
 8002cf2:	8018      	strh	r0, [r3, #0]
 8002cf4:	013b      	lsls	r3, r7, #4
 8002cf6:	0f5b      	lsrs	r3, r3, #29
 8002cf8:	5cf0      	ldrb	r0, [r6, r3]
 8002cfa:	5ce9      	ldrb	r1, [r5, r3]
 8002cfc:	00c0      	lsls	r0, r0, #3
 8002cfe:	f7fd fa9f 	bl	8000240 <__divsi3>
 8002d02:	3468      	adds	r4, #104	; 0x68
 8002d04:	8020      	strh	r0, [r4, #0]
 8002d06:	e7e6      	b.n	8002cd6 <UARTEx_SetNbDataToProcess+0xe>
 8002d08:	00010001 	.word	0x00010001
 8002d0c:	08002ee4 	.word	0x08002ee4
 8002d10:	08002edc 	.word	0x08002edc

08002d14 <HAL_UARTEx_DisableFifoMode>:
 8002d14:	b570      	push	{r4, r5, r6, lr}
 8002d16:	0004      	movs	r4, r0
 8002d18:	3484      	adds	r4, #132	; 0x84
 8002d1a:	7822      	ldrb	r2, [r4, #0]
 8002d1c:	0003      	movs	r3, r0
 8002d1e:	2002      	movs	r0, #2
 8002d20:	2a01      	cmp	r2, #1
 8002d22:	d011      	beq.n	8002d48 <HAL_UARTEx_DisableFifoMode+0x34>
 8002d24:	001d      	movs	r5, r3
 8002d26:	2224      	movs	r2, #36	; 0x24
 8002d28:	2601      	movs	r6, #1
 8002d2a:	3588      	adds	r5, #136	; 0x88
 8002d2c:	602a      	str	r2, [r5, #0]
 8002d2e:	681a      	ldr	r2, [r3, #0]
 8002d30:	6811      	ldr	r1, [r2, #0]
 8002d32:	6810      	ldr	r0, [r2, #0]
 8002d34:	43b0      	bics	r0, r6
 8002d36:	6010      	str	r0, [r2, #0]
 8002d38:	4804      	ldr	r0, [pc, #16]	; (8002d4c <HAL_UARTEx_DisableFifoMode+0x38>)
 8002d3a:	4001      	ands	r1, r0
 8002d3c:	2000      	movs	r0, #0
 8002d3e:	6658      	str	r0, [r3, #100]	; 0x64
 8002d40:	2320      	movs	r3, #32
 8002d42:	6011      	str	r1, [r2, #0]
 8002d44:	602b      	str	r3, [r5, #0]
 8002d46:	7020      	strb	r0, [r4, #0]
 8002d48:	bd70      	pop	{r4, r5, r6, pc}
 8002d4a:	46c0      	nop			; (mov r8, r8)
 8002d4c:	dfffffff 	.word	0xdfffffff

08002d50 <HAL_UARTEx_SetTxFifoThreshold>:
 8002d50:	b5f8      	push	{r3, r4, r5, r6, r7, lr}
 8002d52:	0004      	movs	r4, r0
 8002d54:	0025      	movs	r5, r4
 8002d56:	3584      	adds	r5, #132	; 0x84
 8002d58:	782a      	ldrb	r2, [r5, #0]
 8002d5a:	0008      	movs	r0, r1
 8002d5c:	2302      	movs	r3, #2
 8002d5e:	2a01      	cmp	r2, #1
 8002d60:	d018      	beq.n	8002d94 <HAL_UARTEx_SetTxFifoThreshold+0x44>
 8002d62:	2101      	movs	r1, #1
 8002d64:	0026      	movs	r6, r4
 8002d66:	7029      	strb	r1, [r5, #0]
 8002d68:	6822      	ldr	r2, [r4, #0]
 8002d6a:	3688      	adds	r6, #136	; 0x88
 8002d6c:	3322      	adds	r3, #34	; 0x22
 8002d6e:	6033      	str	r3, [r6, #0]
 8002d70:	6817      	ldr	r7, [r2, #0]
 8002d72:	6813      	ldr	r3, [r2, #0]
 8002d74:	438b      	bics	r3, r1
 8002d76:	6013      	str	r3, [r2, #0]
 8002d78:	6893      	ldr	r3, [r2, #8]
 8002d7a:	00db      	lsls	r3, r3, #3
 8002d7c:	08d9      	lsrs	r1, r3, #3
 8002d7e:	4301      	orrs	r1, r0
 8002d80:	6091      	str	r1, [r2, #8]
 8002d82:	0020      	movs	r0, r4
 8002d84:	f7ff ffa0 	bl	8002cc8 <UARTEx_SetNbDataToProcess>
 8002d88:	6823      	ldr	r3, [r4, #0]
 8002d8a:	601f      	str	r7, [r3, #0]
 8002d8c:	2320      	movs	r3, #32
 8002d8e:	6033      	str	r3, [r6, #0]
 8002d90:	2300      	movs	r3, #0
 8002d92:	702b      	strb	r3, [r5, #0]
 8002d94:	0018      	movs	r0, r3
 8002d96:	bdf8      	pop	{r3, r4, r5, r6, r7, pc}

08002d98 <HAL_UARTEx_SetRxFifoThreshold>:
 8002d98:	b5f8      	push	{r3, r4, r5, r6, r7, lr}
 8002d9a:	0005      	movs	r5, r0
 8002d9c:	3584      	adds	r5, #132	; 0x84
 8002d9e:	782b      	ldrb	r3, [r5, #0]
 8002da0:	0004      	movs	r4, r0
 8002da2:	000a      	movs	r2, r1
 8002da4:	2002      	movs	r0, #2
 8002da6:	2b01      	cmp	r3, #1
 8002da8:	d018      	beq.n	8002ddc <HAL_UARTEx_SetRxFifoThreshold+0x44>
 8002daa:	0026      	movs	r6, r4
 8002dac:	2324      	movs	r3, #36	; 0x24
 8002dae:	3801      	subs	r0, #1
 8002db0:	7028      	strb	r0, [r5, #0]
 8002db2:	3688      	adds	r6, #136	; 0x88
 8002db4:	6033      	str	r3, [r6, #0]
 8002db6:	6823      	ldr	r3, [r4, #0]
 8002db8:	681f      	ldr	r7, [r3, #0]
 8002dba:	6819      	ldr	r1, [r3, #0]
 8002dbc:	4381      	bics	r1, r0
 8002dbe:	6019      	str	r1, [r3, #0]
 8002dc0:	6899      	ldr	r1, [r3, #8]
 8002dc2:	4807      	ldr	r0, [pc, #28]	; (8002de0 <HAL_UARTEx_SetRxFifoThreshold+0x48>)
 8002dc4:	4001      	ands	r1, r0
 8002dc6:	4311      	orrs	r1, r2
 8002dc8:	0020      	movs	r0, r4
 8002dca:	6099      	str	r1, [r3, #8]
 8002dcc:	f7ff ff7c 	bl	8002cc8 <UARTEx_SetNbDataToProcess>
 8002dd0:	6823      	ldr	r3, [r4, #0]
 8002dd2:	2000      	movs	r0, #0
 8002dd4:	601f      	str	r7, [r3, #0]
 8002dd6:	2320      	movs	r3, #32
 8002dd8:	6033      	str	r3, [r6, #0]
 8002dda:	7028      	strb	r0, [r5, #0]
 8002ddc:	bdf8      	pop	{r3, r4, r5, r6, r7, pc}
 8002dde:	46c0      	nop			; (mov r8, r8)
 8002de0:	f1ffffff 	.word	0xf1ffffff

08002de4 <__libc_init_array>:
 8002de4:	b570      	push	{r4, r5, r6, lr}
 8002de6:	2600      	movs	r6, #0
 8002de8:	4d0c      	ldr	r5, [pc, #48]	; (8002e1c <__libc_init_array+0x38>)
 8002dea:	4c0d      	ldr	r4, [pc, #52]	; (8002e20 <__libc_init_array+0x3c>)
 8002dec:	1b64      	subs	r4, r4, r5
 8002dee:	10a4      	asrs	r4, r4, #2
 8002df0:	42a6      	cmp	r6, r4
 8002df2:	d109      	bne.n	8002e08 <__libc_init_array+0x24>
 8002df4:	2600      	movs	r6, #0
 8002df6:	f000 f821 	bl	8002e3c <_init>
 8002dfa:	4d0a      	ldr	r5, [pc, #40]	; (8002e24 <__libc_init_array+0x40>)
 8002dfc:	4c0a      	ldr	r4, [pc, #40]	; (8002e28 <__libc_init_array+0x44>)
 8002dfe:	1b64      	subs	r4, r4, r5
 8002e00:	10a4      	asrs	r4, r4, #2
 8002e02:	42a6      	cmp	r6, r4
 8002e04:	d105      	bne.n	8002e12 <__libc_init_array+0x2e>
 8002e06:	bd70      	pop	{r4, r5, r6, pc}
 8002e08:	00b3      	lsls	r3, r6, #2
 8002e0a:	58eb      	ldr	r3, [r5, r3]
 8002e0c:	4798      	blx	r3
 8002e0e:	3601      	adds	r6, #1
 8002e10:	e7ee      	b.n	8002df0 <__libc_init_array+0xc>
 8002e12:	00b3      	lsls	r3, r6, #2
 8002e14:	58eb      	ldr	r3, [r5, r3]
 8002e16:	4798      	blx	r3
 8002e18:	3601      	adds	r6, #1
 8002e1a:	e7f2      	b.n	8002e02 <__libc_init_array+0x1e>
 8002e1c:	08002ef4 	.word	0x08002ef4
 8002e20:	08002ef4 	.word	0x08002ef4
 8002e24:	08002ef4 	.word	0x08002ef4
 8002e28:	08002ef8 	.word	0x08002ef8

08002e2c <memset>:
 8002e2c:	0003      	movs	r3, r0
 8002e2e:	1882      	adds	r2, r0, r2
 8002e30:	4293      	cmp	r3, r2
 8002e32:	d100      	bne.n	8002e36 <memset+0xa>
 8002e34:	4770      	bx	lr
 8002e36:	7019      	strb	r1, [r3, #0]
 8002e38:	3301      	adds	r3, #1
 8002e3a:	e7f9      	b.n	8002e30 <memset+0x4>

08002e3c <_init>:
 8002e3c:	b5f8      	push	{r3, r4, r5, r6, r7, lr}
 8002e3e:	46c0      	nop			; (mov r8, r8)
 8002e40:	bcf8      	pop	{r3, r4, r5, r6, r7}
 8002e42:	bc08      	pop	{r3}
 8002e44:	469e      	mov	lr, r3
 8002e46:	4770      	bx	lr

08002e48 <_fini>:
 8002e48:	b5f8      	push	{r3, r4, r5, r6, r7, lr}
 8002e4a:	46c0      	nop			; (mov r8, r8)
 8002e4c:	bcf8      	pop	{r3, r4, r5, r6, r7}
 8002e4e:	bc08      	pop	{r3}
 8002e50:	469e      	mov	lr, r3
 8002e52:	4770      	bx	lr
