
HackKosice2023.elf:     file format elf32-littlearm

Sections:
Idx Name          Size      VMA       LMA       File off  Algn
  0 .isr_vector   000000bc  08000000  08000000  00010000  2**0
                  CONTENTS, ALLOC, LOAD, READONLY, DATA
  1 .text         00002d80  080000bc  080000bc  000100bc  2**2
                  CONTENTS, ALLOC, LOAD, READONLY, CODE
  2 .rodata       00000284  08002e3c  08002e3c  00012e3c  2**2
                  CONTENTS, ALLOC, LOAD, READONLY, DATA
  3 .ARM.extab    00000000  080030c0  080030c0  0002000c  2**0
                  CONTENTS
  4 .ARM          00000008  080030c0  080030c0  000130c0  2**2
                  CONTENTS, ALLOC, LOAD, READONLY, DATA
  5 .preinit_array 00000000  080030c8  080030c8  0002000c  2**0
                  CONTENTS, ALLOC, LOAD, DATA
  6 .init_array   00000004  080030c8  080030c8  000130c8  2**2
                  CONTENTS, ALLOC, LOAD, DATA
  7 .fini_array   00000004  080030cc  080030cc  000130cc  2**2
                  CONTENTS, ALLOC, LOAD, DATA
  8 .data         0000000c  20000000  080030d0  00020000  2**2
                  CONTENTS, ALLOC, LOAD, DATA
  9 .bss          0000025c  2000000c  080030dc  0002000c  2**2
                  ALLOC
 10 ._user_heap_stack 00000600  20000268  080030dc  00020268  2**0
                  ALLOC
 11 .ARM.attributes 00000028  00000000  00000000  0002000c  2**0
                  CONTENTS, READONLY
 12 .comment      00000050  00000000  00000000  00020034  2**0
                  CONTENTS, READONLY
 13 .debug_frame  000000f0  00000000  00000000  00020084  2**2
                  CONTENTS, READONLY, DEBUGGING, OCTETS

Disassembly of section .text:

080000bc <__do_global_dtors_aux>:
 80000bc:	b510      	push	{r4, lr}
 80000be:	4c06      	ldr	r4, [pc, #24]	; (80000d8 <__do_global_dtors_aux+0x1c>)
 80000c0:	7823      	ldrb	r3, [r4, #0]
 80000c2:	2b00      	cmp	r3, #0
 80000c4:	d107      	bne.n	80000d6 <__do_global_dtors_aux+0x1a>
 80000c6:	4b05      	ldr	r3, [pc, #20]	; (80000dc <__do_global_dtors_aux+0x20>)
 80000c8:	2b00      	cmp	r3, #0
 80000ca:	d002      	beq.n	80000d2 <__do_global_dtors_aux+0x16>
 80000cc:	4804      	ldr	r0, [pc, #16]	; (80000e0 <__do_global_dtors_aux+0x24>)
 80000ce:	e000      	b.n	80000d2 <__do_global_dtors_aux+0x16>
 80000d0:	bf00      	nop
 80000d2:	2301      	movs	r3, #1
 80000d4:	7023      	strb	r3, [r4, #0]
 80000d6:	bd10      	pop	{r4, pc}
 80000d8:	2000000c 	.word	0x2000000c
 80000dc:	00000000 	.word	0x00000000
 80000e0:	08002e24 	.word	0x08002e24

080000e4 <frame_dummy>:
 80000e4:	4b04      	ldr	r3, [pc, #16]	; (80000f8 <frame_dummy+0x14>)
 80000e6:	b510      	push	{r4, lr}
 80000e8:	2b00      	cmp	r3, #0
 80000ea:	d003      	beq.n	80000f4 <frame_dummy+0x10>
 80000ec:	4903      	ldr	r1, [pc, #12]	; (80000fc <frame_dummy+0x18>)
 80000ee:	4804      	ldr	r0, [pc, #16]	; (8000100 <frame_dummy+0x1c>)
 80000f0:	e000      	b.n	80000f4 <frame_dummy+0x10>
 80000f2:	bf00      	nop
 80000f4:	bd10      	pop	{r4, pc}
 80000f6:	46c0      	nop			; (mov r8, r8)
 80000f8:	00000000 	.word	0x00000000
 80000fc:	20000010 	.word	0x20000010
 8000100:	08002e24 	.word	0x08002e24

08000104 <__gnu_thumb1_case_uqi>:
 8000104:	b402      	push	{r1}
 8000106:	4671      	mov	r1, lr
 8000108:	0849      	lsrs	r1, r1, #1
 800010a:	0049      	lsls	r1, r1, #1
 800010c:	5c09      	ldrb	r1, [r1, r0]
 800010e:	0049      	lsls	r1, r1, #1
 8000110:	448e      	add	lr, r1
 8000112:	bc02      	pop	{r1}
 8000114:	4770      	bx	lr
 8000116:	46c0      	nop			; (mov r8, r8)

08000118 <__gnu_thumb1_case_shi>:
 8000118:	b403      	push	{r0, r1}
 800011a:	4671      	mov	r1, lr
 800011c:	0849      	lsrs	r1, r1, #1
 800011e:	0040      	lsls	r0, r0, #1
 8000120:	0049      	lsls	r1, r1, #1
 8000122:	5e09      	ldrsh	r1, [r1, r0]
 8000124:	0049      	lsls	r1, r1, #1
 8000126:	448e      	add	lr, r1
 8000128:	bc03      	pop	{r0, r1}
 800012a:	4770      	bx	lr

0800012c <__udivsi3>:
 800012c:	2200      	movs	r2, #0
 800012e:	0843      	lsrs	r3, r0, #1
 8000130:	428b      	cmp	r3, r1
 8000132:	d374      	bcc.n	800021e <__udivsi3+0xf2>
 8000134:	0903      	lsrs	r3, r0, #4
 8000136:	428b      	cmp	r3, r1
 8000138:	d35f      	bcc.n	80001fa <__udivsi3+0xce>
 800013a:	0a03      	lsrs	r3, r0, #8
 800013c:	428b      	cmp	r3, r1
 800013e:	d344      	bcc.n	80001ca <__udivsi3+0x9e>
 8000140:	0b03      	lsrs	r3, r0, #12
 8000142:	428b      	cmp	r3, r1
 8000144:	d328      	bcc.n	8000198 <__udivsi3+0x6c>
 8000146:	0c03      	lsrs	r3, r0, #16
 8000148:	428b      	cmp	r3, r1
 800014a:	d30d      	bcc.n	8000168 <__udivsi3+0x3c>
 800014c:	22ff      	movs	r2, #255	; 0xff
 800014e:	0209      	lsls	r1, r1, #8
 8000150:	ba12      	rev	r2, r2
 8000152:	0c03      	lsrs	r3, r0, #16
 8000154:	428b      	cmp	r3, r1
 8000156:	d302      	bcc.n	800015e <__udivsi3+0x32>
 8000158:	1212      	asrs	r2, r2, #8
 800015a:	0209      	lsls	r1, r1, #8
 800015c:	d065      	beq.n	800022a <__udivsi3+0xfe>
 800015e:	0b03      	lsrs	r3, r0, #12
 8000160:	428b      	cmp	r3, r1
 8000162:	d319      	bcc.n	8000198 <__udivsi3+0x6c>
 8000164:	e000      	b.n	8000168 <__udivsi3+0x3c>
 8000166:	0a09      	lsrs	r1, r1, #8
 8000168:	0bc3      	lsrs	r3, r0, #15
 800016a:	428b      	cmp	r3, r1
 800016c:	d301      	bcc.n	8000172 <__udivsi3+0x46>
 800016e:	03cb      	lsls	r3, r1, #15
 8000170:	1ac0      	subs	r0, r0, r3
 8000172:	4152      	adcs	r2, r2
 8000174:	0b83      	lsrs	r3, r0, #14
 8000176:	428b      	cmp	r3, r1
 8000178:	d301      	bcc.n	800017e <__udivsi3+0x52>
 800017a:	038b      	lsls	r3, r1, #14
 800017c:	1ac0      	subs	r0, r0, r3
 800017e:	4152      	adcs	r2, r2
 8000180:	0b43      	lsrs	r3, r0, #13
 8000182:	428b      	cmp	r3, r1
 8000184:	d301      	bcc.n	800018a <__udivsi3+0x5e>
 8000186:	034b      	lsls	r3, r1, #13
 8000188:	1ac0      	subs	r0, r0, r3
 800018a:	4152      	adcs	r2, r2
 800018c:	0b03      	lsrs	r3, r0, #12
 800018e:	428b      	cmp	r3, r1
 8000190:	d301      	bcc.n	8000196 <__udivsi3+0x6a>
 8000192:	030b      	lsls	r3, r1, #12
 8000194:	1ac0      	subs	r0, r0, r3
 8000196:	4152      	adcs	r2, r2
 8000198:	0ac3      	lsrs	r3, r0, #11
 800019a:	428b      	cmp	r3, r1
 800019c:	d301      	bcc.n	80001a2 <__udivsi3+0x76>
 800019e:	02cb      	lsls	r3, r1, #11
 80001a0:	1ac0      	subs	r0, r0, r3
 80001a2:	4152      	adcs	r2, r2
 80001a4:	0a83      	lsrs	r3, r0, #10
 80001a6:	428b      	cmp	r3, r1
 80001a8:	d301      	bcc.n	80001ae <__udivsi3+0x82>
 80001aa:	028b      	lsls	r3, r1, #10
 80001ac:	1ac0      	subs	r0, r0, r3
 80001ae:	4152      	adcs	r2, r2
 80001b0:	0a43      	lsrs	r3, r0, #9
 80001b2:	428b      	cmp	r3, r1
 80001b4:	d301      	bcc.n	80001ba <__udivsi3+0x8e>
 80001b6:	024b      	lsls	r3, r1, #9
 80001b8:	1ac0      	subs	r0, r0, r3
 80001ba:	4152      	adcs	r2, r2
 80001bc:	0a03      	lsrs	r3, r0, #8
 80001be:	428b      	cmp	r3, r1
 80001c0:	d301      	bcc.n	80001c6 <__udivsi3+0x9a>
 80001c2:	020b      	lsls	r3, r1, #8
 80001c4:	1ac0      	subs	r0, r0, r3
 80001c6:	4152      	adcs	r2, r2
 80001c8:	d2cd      	bcs.n	8000166 <__udivsi3+0x3a>
 80001ca:	09c3      	lsrs	r3, r0, #7
 80001cc:	428b      	cmp	r3, r1
 80001ce:	d301      	bcc.n	80001d4 <__udivsi3+0xa8>
 80001d0:	01cb      	lsls	r3, r1, #7
 80001d2:	1ac0      	subs	r0, r0, r3
 80001d4:	4152      	adcs	r2, r2
 80001d6:	0983      	lsrs	r3, r0, #6
 80001d8:	428b      	cmp	r3, r1
 80001da:	d301      	bcc.n	80001e0 <__udivsi3+0xb4>
 80001dc:	018b      	lsls	r3, r1, #6
 80001de:	1ac0      	subs	r0, r0, r3
 80001e0:	4152      	adcs	r2, r2
 80001e2:	0943      	lsrs	r3, r0, #5
 80001e4:	428b      	cmp	r3, r1
 80001e6:	d301      	bcc.n	80001ec <__udivsi3+0xc0>
 80001e8:	014b      	lsls	r3, r1, #5
 80001ea:	1ac0      	subs	r0, r0, r3
 80001ec:	4152      	adcs	r2, r2
 80001ee:	0903      	lsrs	r3, r0, #4
 80001f0:	428b      	cmp	r3, r1
 80001f2:	d301      	bcc.n	80001f8 <__udivsi3+0xcc>
 80001f4:	010b      	lsls	r3, r1, #4
 80001f6:	1ac0      	subs	r0, r0, r3
 80001f8:	4152      	adcs	r2, r2
 80001fa:	08c3      	lsrs	r3, r0, #3
 80001fc:	428b      	cmp	r3, r1
 80001fe:	d301      	bcc.n	8000204 <__udivsi3+0xd8>
 8000200:	00cb      	lsls	r3, r1, #3
 8000202:	1ac0      	subs	r0, r0, r3
 8000204:	4152      	adcs	r2, r2
 8000206:	0883      	lsrs	r3, r0, #2
 8000208:	428b      	cmp	r3, r1
 800020a:	d301      	bcc.n	8000210 <__udivsi3+0xe4>
 800020c:	008b      	lsls	r3, r1, #2
 800020e:	1ac0      	subs	r0, r0, r3
 8000210:	4152      	adcs	r2, r2
 8000212:	0843      	lsrs	r3, r0, #1
 8000214:	428b      	cmp	r3, r1
 8000216:	d301      	bcc.n	800021c <__udivsi3+0xf0>
 8000218:	004b      	lsls	r3, r1, #1
 800021a:	1ac0      	subs	r0, r0, r3
 800021c:	4152      	adcs	r2, r2
 800021e:	1a41      	subs	r1, r0, r1
 8000220:	d200      	bcs.n	8000224 <__udivsi3+0xf8>
 8000222:	4601      	mov	r1, r0
 8000224:	4152      	adcs	r2, r2
 8000226:	4610      	mov	r0, r2
 8000228:	4770      	bx	lr
 800022a:	e7ff      	b.n	800022c <__udivsi3+0x100>
 800022c:	b501      	push	{r0, lr}
 800022e:	2000      	movs	r0, #0
 8000230:	f000 f8f0 	bl	8000414 <__aeabi_idiv0>
 8000234:	bd02      	pop	{r1, pc}
 8000236:	46c0      	nop			; (mov r8, r8)

08000238 <__aeabi_uidivmod>:
 8000238:	2900      	cmp	r1, #0
 800023a:	d0f7      	beq.n	800022c <__udivsi3+0x100>
 800023c:	e776      	b.n	800012c <__udivsi3>
 800023e:	4770      	bx	lr

08000240 <__divsi3>:
 8000240:	4603      	mov	r3, r0
 8000242:	430b      	orrs	r3, r1
 8000244:	d47f      	bmi.n	8000346 <__divsi3+0x106>
 8000246:	2200      	movs	r2, #0
 8000248:	0843      	lsrs	r3, r0, #1
 800024a:	428b      	cmp	r3, r1
 800024c:	d374      	bcc.n	8000338 <__divsi3+0xf8>
 800024e:	0903      	lsrs	r3, r0, #4
 8000250:	428b      	cmp	r3, r1
 8000252:	d35f      	bcc.n	8000314 <__divsi3+0xd4>
 8000254:	0a03      	lsrs	r3, r0, #8
 8000256:	428b      	cmp	r3, r1
 8000258:	d344      	bcc.n	80002e4 <__divsi3+0xa4>
 800025a:	0b03      	lsrs	r3, r0, #12
 800025c:	428b      	cmp	r3, r1
 800025e:	d328      	bcc.n	80002b2 <__divsi3+0x72>
 8000260:	0c03      	lsrs	r3, r0, #16
 8000262:	428b      	cmp	r3, r1
 8000264:	d30d      	bcc.n	8000282 <__divsi3+0x42>
 8000266:	22ff      	movs	r2, #255	; 0xff
 8000268:	0209      	lsls	r1, r1, #8
 800026a:	ba12      	rev	r2, r2
 800026c:	0c03      	lsrs	r3, r0, #16
 800026e:	428b      	cmp	r3, r1
 8000270:	d302      	bcc.n	8000278 <__divsi3+0x38>
 8000272:	1212      	asrs	r2, r2, #8
 8000274:	0209      	lsls	r1, r1, #8
 8000276:	d065      	beq.n	8000344 <__divsi3+0x104>
 8000278:	0b03      	lsrs	r3, r0, #12
 800027a:	428b      	cmp	r3, r1
 800027c:	d319      	bcc.n	80002b2 <__divsi3+0x72>
 800027e:	e000      	b.n	8000282 <__divsi3+0x42>
 8000280:	0a09      	lsrs	r1, r1, #8
 8000282:	0bc3      	lsrs	r3, r0, #15
 8000284:	428b      	cmp	r3, r1
 8000286:	d301      	bcc.n	800028c <__divsi3+0x4c>
 8000288:	03cb      	lsls	r3, r1, #15
 800028a:	1ac0      	subs	r0, r0, r3
 800028c:	4152      	adcs	r2, r2
 800028e:	0b83      	lsrs	r3, r0, #14
 8000290:	428b      	cmp	r3, r1
 8000292:	d301      	bcc.n	8000298 <__divsi3+0x58>
 8000294:	038b      	lsls	r3, r1, #14
 8000296:	1ac0      	subs	r0, r0, r3
 8000298:	4152      	adcs	r2, r2
 800029a:	0b43      	lsrs	r3, r0, #13
 800029c:	428b      	cmp	r3, r1
 800029e:	d301      	bcc.n	80002a4 <__divsi3+0x64>
 80002a0:	034b      	lsls	r3, r1, #13
 80002a2:	1ac0      	subs	r0, r0, r3
 80002a4:	4152      	adcs	r2, r2
 80002a6:	0b03      	lsrs	r3, r0, #12
 80002a8:	428b      	cmp	r3, r1
 80002aa:	d301      	bcc.n	80002b0 <__divsi3+0x70>
 80002ac:	030b      	lsls	r3, r1, #12
 80002ae:	1ac0      	subs	r0, r0, r3
 80002b0:	4152      	adcs	r2, r2
 80002b2:	0ac3      	lsrs	r3, r0, #11
 80002b4:	428b      	cmp	r3, r1
 80002b6:	d301      	bcc.n	80002bc <__divsi3+0x7c>
 80002b8:	02cb      	lsls	r3, r1, #11
 80002ba:	1ac0      	subs	r0, r0, r3
 80002bc:	4152      	adcs	r2, r2
 80002be:	0a83      	lsrs	r3, r0, #10
 80002c0:	428b      	cmp	r3, r1
 80002c2:	d301      	bcc.n	80002c8 <__divsi3+0x88>
 80002c4:	028b      	lsls	r3, r1, #10
 80002c6:	1ac0      	subs	r0, r0, r3
 80002c8:	4152      	adcs	r2, r2
 80002ca:	0a43      	lsrs	r3, r0, #9
 80002cc:	428b      	cmp	r3, r1
 80002ce:	d301      	bcc.n	80002d4 <__divsi3+0x94>
 80002d0:	024b      	lsls	r3, r1, #9
 80002d2:	1ac0      	subs	r0, r0, r3
 80002d4:	4152      	adcs	r2, r2
 80002d6:	0a03      	lsrs	r3, r0, #8
 80002d8:	428b      	cmp	r3, r1
 80002da:	d301      	bcc.n	80002e0 <__divsi3+0xa0>
 80002dc:	020b      	lsls	r3, r1, #8
 80002de:	1ac0      	subs	r0, r0, r3
 80002e0:	4152      	adcs	r2, r2
 80002e2:	d2cd      	bcs.n	8000280 <__divsi3+0x40>
 80002e4:	09c3      	lsrs	r3, r0, #7
 80002e6:	428b      	cmp	r3, r1
 80002e8:	d301      	bcc.n	80002ee <__divsi3+0xae>
 80002ea:	01cb      	lsls	r3, r1, #7
 80002ec:	1ac0      	subs	r0, r0, r3
 80002ee:	4152      	adcs	r2, r2
 80002f0:	0983      	lsrs	r3, r0, #6
 80002f2:	428b      	cmp	r3, r1
 80002f4:	d301      	bcc.n	80002fa <__divsi3+0xba>
 80002f6:	018b      	lsls	r3, r1, #6
 80002f8:	1ac0      	subs	r0, r0, r3
 80002fa:	4152      	adcs	r2, r2
 80002fc:	0943      	lsrs	r3, r0, #5
 80002fe:	428b      	cmp	r3, r1
 8000300:	d301      	bcc.n	8000306 <__divsi3+0xc6>
 8000302:	014b      	lsls	r3, r1, #5
 8000304:	1ac0      	subs	r0, r0, r3
 8000306:	4152      	adcs	r2, r2
 8000308:	0903      	lsrs	r3, r0, #4
 800030a:	428b      	cmp	r3, r1
 800030c:	d301      	bcc.n	8000312 <__divsi3+0xd2>
 800030e:	010b      	lsls	r3, r1, #4
 8000310:	1ac0      	subs	r0, r0, r3
 8000312:	4152      	adcs	r2, r2
 8000314:	08c3      	lsrs	r3, r0, #3
 8000316:	428b      	cmp	r3, r1
 8000318:	d301      	bcc.n	800031e <__divsi3+0xde>
 800031a:	00cb      	lsls	r3, r1, #3
 800031c:	1ac0      	subs	r0, r0, r3
 800031e:	4152      	adcs	r2, r2
 8000320:	0883      	lsrs	r3, r0, #2
 8000322:	428b      	cmp	r3, r1
 8000324:	d301      	bcc.n	800032a <__divsi3+0xea>
 8000326:	008b      	lsls	r3, r1, #2
 8000328:	1ac0      	subs	r0, r0, r3
 800032a:	4152      	adcs	r2, r2
 800032c:	0843      	lsrs	r3, r0, #1
 800032e:	428b      	cmp	r3, r1
 8000330:	d301      	bcc.n	8000336 <__divsi3+0xf6>
 8000332:	004b      	lsls	r3, r1, #1
 8000334:	1ac0      	subs	r0, r0, r3
 8000336:	4152      	adcs	r2, r2
 8000338:	1a41      	subs	r1, r0, r1
 800033a:	d200      	bcs.n	800033e <__divsi3+0xfe>
 800033c:	4601      	mov	r1, r0
 800033e:	4152      	adcs	r2, r2
 8000340:	4610      	mov	r0, r2
 8000342:	4770      	bx	lr
 8000344:	e05d      	b.n	8000402 <__divsi3+0x1c2>
 8000346:	0fca      	lsrs	r2, r1, #31
 8000348:	d000      	beq.n	800034c <__divsi3+0x10c>
 800034a:	4249      	negs	r1, r1
 800034c:	1003      	asrs	r3, r0, #32
 800034e:	d300      	bcc.n	8000352 <__divsi3+0x112>
 8000350:	4240      	negs	r0, r0
 8000352:	4053      	eors	r3, r2
 8000354:	2200      	movs	r2, #0
 8000356:	469c      	mov	ip, r3
 8000358:	0903      	lsrs	r3, r0, #4
 800035a:	428b      	cmp	r3, r1
 800035c:	d32d      	bcc.n	80003ba <__divsi3+0x17a>
 800035e:	0a03      	lsrs	r3, r0, #8
 8000360:	428b      	cmp	r3, r1
 8000362:	d312      	bcc.n	800038a <__divsi3+0x14a>
 8000364:	22fc      	movs	r2, #252	; 0xfc
 8000366:	0189      	lsls	r1, r1, #6
 8000368:	ba12      	rev	r2, r2
 800036a:	0a03      	lsrs	r3, r0, #8
 800036c:	428b      	cmp	r3, r1
 800036e:	d30c      	bcc.n	800038a <__divsi3+0x14a>
 8000370:	0189      	lsls	r1, r1, #6
 8000372:	1192      	asrs	r2, r2, #6
 8000374:	428b      	cmp	r3, r1
 8000376:	d308      	bcc.n	800038a <__divsi3+0x14a>
 8000378:	0189      	lsls	r1, r1, #6
 800037a:	1192      	asrs	r2, r2, #6
 800037c:	428b      	cmp	r3, r1
 800037e:	d304      	bcc.n	800038a <__divsi3+0x14a>
 8000380:	0189      	lsls	r1, r1, #6
 8000382:	d03a      	beq.n	80003fa <__divsi3+0x1ba>
 8000384:	1192      	asrs	r2, r2, #6
 8000386:	e000      	b.n	800038a <__divsi3+0x14a>
 8000388:	0989      	lsrs	r1, r1, #6
 800038a:	09c3      	lsrs	r3, r0, #7
 800038c:	428b      	cmp	r3, r1
 800038e:	d301      	bcc.n	8000394 <__divsi3+0x154>
 8000390:	01cb      	lsls	r3, r1, #7
 8000392:	1ac0      	subs	r0, r0, r3
 8000394:	4152      	adcs	r2, r2
 8000396:	0983      	lsrs	r3, r0, #6
 8000398:	428b      	cmp	r3, r1
 800039a:	d301      	bcc.n	80003a0 <__divsi3+0x160>
 800039c:	018b      	lsls	r3, r1, #6
 800039e:	1ac0      	subs	r0, r0, r3
 80003a0:	4152      	adcs	r2, r2
 80003a2:	0943      	lsrs	r3, r0, #5
 80003a4:	428b      	cmp	r3, r1
 80003a6:	d301      	bcc.n	80003ac <__divsi3+0x16c>
 80003a8:	014b      	lsls	r3, r1, #5
 80003aa:	1ac0      	subs	r0, r0, r3
 80003ac:	4152      	adcs	r2, r2
 80003ae:	0903      	lsrs	r3, r0, #4
 80003b0:	428b      	cmp	r3, r1
 80003b2:	d301      	bcc.n	80003b8 <__divsi3+0x178>
 80003b4:	010b      	lsls	r3, r1, #4
 80003b6:	1ac0      	subs	r0, r0, r3
 80003b8:	4152      	adcs	r2, r2
 80003ba:	08c3      	lsrs	r3, r0, #3
 80003bc:	428b      	cmp	r3, r1
 80003be:	d301      	bcc.n	80003c4 <__divsi3+0x184>
 80003c0:	00cb      	lsls	r3, r1, #3
 80003c2:	1ac0      	subs	r0, r0, r3
 80003c4:	4152      	adcs	r2, r2
 80003c6:	0883      	lsrs	r3, r0, #2
 80003c8:	428b      	cmp	r3, r1
 80003ca:	d301      	bcc.n	80003d0 <__divsi3+0x190>
 80003cc:	008b      	lsls	r3, r1, #2
 80003ce:	1ac0      	subs	r0, r0, r3
 80003d0:	4152      	adcs	r2, r2
 80003d2:	d2d9      	bcs.n	8000388 <__divsi3+0x148>
 80003d4:	0843      	lsrs	r3, r0, #1
 80003d6:	428b      	cmp	r3, r1
 80003d8:	d301      	bcc.n	80003de <__divsi3+0x19e>
 80003da:	004b      	lsls	r3, r1, #1
 80003dc:	1ac0      	subs	r0, r0, r3
 80003de:	4152      	adcs	r2, r2
 80003e0:	1a41      	subs	r1, r0, r1
 80003e2:	d200      	bcs.n	80003e6 <__divsi3+0x1a6>
 80003e4:	4601      	mov	r1, r0
 80003e6:	4663      	mov	r3, ip
 80003e8:	4152      	adcs	r2, r2
 80003ea:	105b      	asrs	r3, r3, #1
 80003ec:	4610      	mov	r0, r2
 80003ee:	d301      	bcc.n	80003f4 <__divsi3+0x1b4>
 80003f0:	4240      	negs	r0, r0
 80003f2:	2b00      	cmp	r3, #0
 80003f4:	d500      	bpl.n	80003f8 <__divsi3+0x1b8>
 80003f6:	4249      	negs	r1, r1
 80003f8:	4770      	bx	lr
 80003fa:	4663      	mov	r3, ip
 80003fc:	105b      	asrs	r3, r3, #1
 80003fe:	d300      	bcc.n	8000402 <__divsi3+0x1c2>
 8000400:	4240      	negs	r0, r0
 8000402:	b501      	push	{r0, lr}
 8000404:	2000      	movs	r0, #0
 8000406:	f000 f805 	bl	8000414 <__aeabi_idiv0>
 800040a:	bd02      	pop	{r1, pc}

0800040c <__aeabi_idivmod>:
 800040c:	2900      	cmp	r1, #0
 800040e:	d0f8      	beq.n	8000402 <__divsi3+0x1c2>
 8000410:	e716      	b.n	8000240 <__divsi3>
 8000412:	4770      	bx	lr

08000414 <__aeabi_idiv0>:
 8000414:	4770      	bx	lr
 8000416:	46c0      	nop			; (mov r8, r8)

08000418 <__aeabi_uldivmod>:
 8000418:	2b00      	cmp	r3, #0
 800041a:	d111      	bne.n	8000440 <__aeabi_uldivmod+0x28>
 800041c:	2a00      	cmp	r2, #0
 800041e:	d10f      	bne.n	8000440 <__aeabi_uldivmod+0x28>
 8000420:	2900      	cmp	r1, #0
 8000422:	d100      	bne.n	8000426 <__aeabi_uldivmod+0xe>
 8000424:	2800      	cmp	r0, #0
 8000426:	d002      	beq.n	800042e <__aeabi_uldivmod+0x16>
 8000428:	2100      	movs	r1, #0
 800042a:	43c9      	mvns	r1, r1
 800042c:	0008      	movs	r0, r1
 800042e:	b407      	push	{r0, r1, r2}
 8000430:	4802      	ldr	r0, [pc, #8]	; (800043c <__aeabi_uldivmod+0x24>)
 8000432:	a102      	add	r1, pc, #8	; (adr r1, 800043c <__aeabi_uldivmod+0x24>)
 8000434:	1840      	adds	r0, r0, r1
 8000436:	9002      	str	r0, [sp, #8]
 8000438:	bd03      	pop	{r0, r1, pc}
 800043a:	46c0      	nop			; (mov r8, r8)
 800043c:	ffffffd9 	.word	0xffffffd9
 8000440:	b403      	push	{r0, r1}
 8000442:	4668      	mov	r0, sp
 8000444:	b501      	push	{r0, lr}
 8000446:	9802      	ldr	r0, [sp, #8]
 8000448:	f000 f806 	bl	8000458 <__udivmoddi4>
 800044c:	9b01      	ldr	r3, [sp, #4]
 800044e:	469e      	mov	lr, r3
 8000450:	b002      	add	sp, #8
 8000452:	bc0c      	pop	{r2, r3}
 8000454:	4770      	bx	lr
 8000456:	46c0      	nop			; (mov r8, r8)

08000458 <__udivmoddi4>:
 8000458:	b5f0      	push	{r4, r5, r6, r7, lr}
 800045a:	4657      	mov	r7, sl
 800045c:	464e      	mov	r6, r9
 800045e:	4645      	mov	r5, r8
 8000460:	46de      	mov	lr, fp
 8000462:	b5e0      	push	{r5, r6, r7, lr}
 8000464:	0004      	movs	r4, r0
 8000466:	000d      	movs	r5, r1
 8000468:	4692      	mov	sl, r2
 800046a:	4699      	mov	r9, r3
 800046c:	b083      	sub	sp, #12
 800046e:	428b      	cmp	r3, r1
 8000470:	d830      	bhi.n	80004d4 <__udivmoddi4+0x7c>
 8000472:	d02d      	beq.n	80004d0 <__udivmoddi4+0x78>
 8000474:	4649      	mov	r1, r9
 8000476:	4650      	mov	r0, sl
 8000478:	f000 f8d8 	bl	800062c <__clzdi2>
 800047c:	0029      	movs	r1, r5
 800047e:	0006      	movs	r6, r0
 8000480:	0020      	movs	r0, r4
 8000482:	f000 f8d3 	bl	800062c <__clzdi2>
 8000486:	1a33      	subs	r3, r6, r0
 8000488:	4698      	mov	r8, r3
 800048a:	3b20      	subs	r3, #32
 800048c:	469b      	mov	fp, r3
 800048e:	d433      	bmi.n	80004f8 <__udivmoddi4+0xa0>
 8000490:	465a      	mov	r2, fp
 8000492:	4653      	mov	r3, sl
 8000494:	4093      	lsls	r3, r2
 8000496:	4642      	mov	r2, r8
 8000498:	001f      	movs	r7, r3
 800049a:	4653      	mov	r3, sl
 800049c:	4093      	lsls	r3, r2
 800049e:	001e      	movs	r6, r3
 80004a0:	42af      	cmp	r7, r5
 80004a2:	d83a      	bhi.n	800051a <__udivmoddi4+0xc2>
 80004a4:	42af      	cmp	r7, r5
 80004a6:	d100      	bne.n	80004aa <__udivmoddi4+0x52>
 80004a8:	e078      	b.n	800059c <__udivmoddi4+0x144>
 80004aa:	465b      	mov	r3, fp
 80004ac:	1ba4      	subs	r4, r4, r6
 80004ae:	41bd      	sbcs	r5, r7
 80004b0:	2b00      	cmp	r3, #0
 80004b2:	da00      	bge.n	80004b6 <__udivmoddi4+0x5e>
 80004b4:	e075      	b.n	80005a2 <__udivmoddi4+0x14a>
 80004b6:	2200      	movs	r2, #0
 80004b8:	2300      	movs	r3, #0
 80004ba:	9200      	str	r2, [sp, #0]
 80004bc:	9301      	str	r3, [sp, #4]
 80004be:	2301      	movs	r3, #1
 80004c0:	465a      	mov	r2, fp
 80004c2:	4093      	lsls	r3, r2
 80004c4:	9301      	str	r3, [sp, #4]
 80004c6:	2301      	movs	r3, #1
 80004c8:	4642      	mov	r2, r8
 80004ca:	4093      	lsls	r3, r2
 80004cc:	9300      	str	r3, [sp, #0]
 80004ce:	e028      	b.n	8000522 <__udivmoddi4+0xca>
 80004d0:	4282      	cmp	r2, r0
 80004d2:	d9cf      	bls.n	8000474 <__udivmoddi4+0x1c>
 80004d4:	2200      	movs	r2, #0
 80004d6:	2300      	movs	r3, #0
 80004d8:	9200      	str	r2, [sp, #0]
 80004da:	9301      	str	r3, [sp, #4]
 80004dc:	9b0c      	ldr	r3, [sp, #48]	; 0x30
 80004de:	2b00      	cmp	r3, #0
 80004e0:	d001      	beq.n	80004e6 <__udivmoddi4+0x8e>
 80004e2:	601c      	str	r4, [r3, #0]
 80004e4:	605d      	str	r5, [r3, #4]
 80004e6:	9800      	ldr	r0, [sp, #0]
 80004e8:	9901      	ldr	r1, [sp, #4]
 80004ea:	b003      	add	sp, #12
 80004ec:	bcf0      	pop	{r4, r5, r6, r7}
 80004ee:	46bb      	mov	fp, r7
 80004f0:	46b2      	mov	sl, r6
 80004f2:	46a9      	mov	r9, r5
 80004f4:	46a0      	mov	r8, r4
 80004f6:	bdf0      	pop	{r4, r5, r6, r7, pc}
 80004f8:	4642      	mov	r2, r8
 80004fa:	2320      	movs	r3, #32
 80004fc:	1a9b      	subs	r3, r3, r2
 80004fe:	4652      	mov	r2, sl
 8000500:	40da      	lsrs	r2, r3
 8000502:	4641      	mov	r1, r8
 8000504:	0013      	movs	r3, r2
 8000506:	464a      	mov	r2, r9
 8000508:	408a      	lsls	r2, r1
 800050a:	0017      	movs	r7, r2
 800050c:	4642      	mov	r2, r8
 800050e:	431f      	orrs	r7, r3
 8000510:	4653      	mov	r3, sl
 8000512:	4093      	lsls	r3, r2
 8000514:	001e      	movs	r6, r3
 8000516:	42af      	cmp	r7, r5
 8000518:	d9c4      	bls.n	80004a4 <__udivmoddi4+0x4c>
 800051a:	2200      	movs	r2, #0
 800051c:	2300      	movs	r3, #0
 800051e:	9200      	str	r2, [sp, #0]
 8000520:	9301      	str	r3, [sp, #4]
 8000522:	4643      	mov	r3, r8
 8000524:	2b00      	cmp	r3, #0
 8000526:	d0d9      	beq.n	80004dc <__udivmoddi4+0x84>
 8000528:	07fb      	lsls	r3, r7, #31
 800052a:	0872      	lsrs	r2, r6, #1
 800052c:	431a      	orrs	r2, r3
 800052e:	4646      	mov	r6, r8
 8000530:	087b      	lsrs	r3, r7, #1
 8000532:	e00e      	b.n	8000552 <__udivmoddi4+0xfa>
 8000534:	42ab      	cmp	r3, r5
 8000536:	d101      	bne.n	800053c <__udivmoddi4+0xe4>
 8000538:	42a2      	cmp	r2, r4
 800053a:	d80c      	bhi.n	8000556 <__udivmoddi4+0xfe>
 800053c:	1aa4      	subs	r4, r4, r2
 800053e:	419d      	sbcs	r5, r3
 8000540:	2001      	movs	r0, #1
 8000542:	1924      	adds	r4, r4, r4
 8000544:	416d      	adcs	r5, r5
 8000546:	2100      	movs	r1, #0
 8000548:	3e01      	subs	r6, #1
 800054a:	1824      	adds	r4, r4, r0
 800054c:	414d      	adcs	r5, r1
 800054e:	2e00      	cmp	r6, #0
 8000550:	d006      	beq.n	8000560 <__udivmoddi4+0x108>
 8000552:	42ab      	cmp	r3, r5
 8000554:	d9ee      	bls.n	8000534 <__udivmoddi4+0xdc>
 8000556:	3e01      	subs	r6, #1
 8000558:	1924      	adds	r4, r4, r4
 800055a:	416d      	adcs	r5, r5
 800055c:	2e00      	cmp	r6, #0
 800055e:	d1f8      	bne.n	8000552 <__udivmoddi4+0xfa>
 8000560:	9800      	ldr	r0, [sp, #0]
 8000562:	9901      	ldr	r1, [sp, #4]
 8000564:	465b      	mov	r3, fp
 8000566:	1900      	adds	r0, r0, r4
 8000568:	4169      	adcs	r1, r5
 800056a:	2b00      	cmp	r3, #0
 800056c:	db24      	blt.n	80005b8 <__udivmoddi4+0x160>
 800056e:	002b      	movs	r3, r5
 8000570:	465a      	mov	r2, fp
 8000572:	4644      	mov	r4, r8
 8000574:	40d3      	lsrs	r3, r2
 8000576:	002a      	movs	r2, r5
 8000578:	40e2      	lsrs	r2, r4
 800057a:	001c      	movs	r4, r3
 800057c:	465b      	mov	r3, fp
 800057e:	0015      	movs	r5, r2
 8000580:	2b00      	cmp	r3, #0
 8000582:	db2a      	blt.n	80005da <__udivmoddi4+0x182>
 8000584:	0026      	movs	r6, r4
 8000586:	409e      	lsls	r6, r3
 8000588:	0033      	movs	r3, r6
 800058a:	0026      	movs	r6, r4
 800058c:	4647      	mov	r7, r8
 800058e:	40be      	lsls	r6, r7
 8000590:	0032      	movs	r2, r6
 8000592:	1a80      	subs	r0, r0, r2
 8000594:	4199      	sbcs	r1, r3
 8000596:	9000      	str	r0, [sp, #0]
 8000598:	9101      	str	r1, [sp, #4]
 800059a:	e79f      	b.n	80004dc <__udivmoddi4+0x84>
 800059c:	42a3      	cmp	r3, r4
 800059e:	d8bc      	bhi.n	800051a <__udivmoddi4+0xc2>
 80005a0:	e783      	b.n	80004aa <__udivmoddi4+0x52>
 80005a2:	4642      	mov	r2, r8
 80005a4:	2320      	movs	r3, #32
 80005a6:	2100      	movs	r1, #0
 80005a8:	1a9b      	subs	r3, r3, r2
 80005aa:	2200      	movs	r2, #0
 80005ac:	9100      	str	r1, [sp, #0]
 80005ae:	9201      	str	r2, [sp, #4]
 80005b0:	2201      	movs	r2, #1
 80005b2:	40da      	lsrs	r2, r3
 80005b4:	9201      	str	r2, [sp, #4]
 80005b6:	e786      	b.n	80004c6 <__udivmoddi4+0x6e>
 80005b8:	4642      	mov	r2, r8
 80005ba:	2320      	movs	r3, #32
 80005bc:	1a9b      	subs	r3, r3, r2
 80005be:	002a      	movs	r2, r5
 80005c0:	4646      	mov	r6, r8
 80005c2:	409a      	lsls	r2, r3
 80005c4:	0023      	movs	r3, r4
 80005c6:	40f3      	lsrs	r3, r6
 80005c8:	4644      	mov	r4, r8
 80005ca:	4313      	orrs	r3, r2
 80005cc:	002a      	movs	r2, r5
 80005ce:	40e2      	lsrs	r2, r4
 80005d0:	001c      	movs	r4, r3
 80005d2:	465b      	mov	r3, fp
 80005d4:	0015      	movs	r5, r2
 80005d6:	2b00      	cmp	r3, #0
 80005d8:	dad4      	bge.n	8000584 <__udivmoddi4+0x12c>
 80005da:	4642      	mov	r2, r8
 80005dc:	002f      	movs	r7, r5
 80005de:	2320      	movs	r3, #32
 80005e0:	0026      	movs	r6, r4
 80005e2:	4097      	lsls	r7, r2
 80005e4:	1a9b      	subs	r3, r3, r2
 80005e6:	40de      	lsrs	r6, r3
 80005e8:	003b      	movs	r3, r7
 80005ea:	4333      	orrs	r3, r6
 80005ec:	e7cd      	b.n	800058a <__udivmoddi4+0x132>
 80005ee:	46c0      	nop			; (mov r8, r8)

080005f0 <__clzsi2>:
 80005f0:	211c      	movs	r1, #28
 80005f2:	2301      	movs	r3, #1
 80005f4:	041b      	lsls	r3, r3, #16
 80005f6:	4298      	cmp	r0, r3
 80005f8:	d301      	bcc.n	80005fe <__clzsi2+0xe>
 80005fa:	0c00      	lsrs	r0, r0, #16
 80005fc:	3910      	subs	r1, #16
 80005fe:	0a1b      	lsrs	r3, r3, #8
 8000600:	4298      	cmp	r0, r3
 8000602:	d301      	bcc.n	8000608 <__clzsi2+0x18>
 8000604:	0a00      	lsrs	r0, r0, #8
 8000606:	3908      	subs	r1, #8
 8000608:	091b      	lsrs	r3, r3, #4
 800060a:	4298      	cmp	r0, r3
 800060c:	d301      	bcc.n	8000612 <__clzsi2+0x22>
 800060e:	0900      	lsrs	r0, r0, #4
 8000610:	3904      	subs	r1, #4
 8000612:	a202      	add	r2, pc, #8	; (adr r2, 800061c <__clzsi2+0x2c>)
 8000614:	5c10      	ldrb	r0, [r2, r0]
 8000616:	1840      	adds	r0, r0, r1
 8000618:	4770      	bx	lr
 800061a:	46c0      	nop			; (mov r8, r8)
 800061c:	02020304 	.word	0x02020304
 8000620:	01010101 	.word	0x01010101
	...

0800062c <__clzdi2>:
 800062c:	b510      	push	{r4, lr}
 800062e:	2900      	cmp	r1, #0
 8000630:	d103      	bne.n	800063a <__clzdi2+0xe>
 8000632:	f7ff ffdd 	bl	80005f0 <__clzsi2>
 8000636:	3020      	adds	r0, #32
 8000638:	e002      	b.n	8000640 <__clzdi2+0x14>
 800063a:	0008      	movs	r0, r1
 800063c:	f7ff ffd8 	bl	80005f0 <__clzsi2>
 8000640:	bd10      	pop	{r4, pc}
 8000642:	46c0      	nop			; (mov r8, r8)

08000644 <make_colour>:
 8000644:	8001      	strh	r1, [r0, #0]
 8000646:	8042      	strh	r2, [r0, #2]
 8000648:	8083      	strh	r3, [r0, #4]
 800064a:	4770      	bx	lr

0800064c <enableLED>:
 800064c:	b5f7      	push	{r0, r1, r2, r4, r5, r6, r7, lr}
 800064e:	2403      	movs	r4, #3
 8000650:	0005      	movs	r5, r0
 8000652:	000e      	movs	r6, r1
 8000654:	2701      	movs	r7, #1
 8000656:	1aa2      	subs	r2, r4, r2
 8000658:	4354      	muls	r4, r2
 800065a:	b2e4      	uxtb	r4, r4
 800065c:	1ce3      	adds	r3, r4, #3
 800065e:	b2db      	uxtb	r3, r3
 8000660:	9301      	str	r3, [sp, #4]
 8000662:	0039      	movs	r1, r7
 8000664:	40a1      	lsls	r1, r4
 8000666:	0032      	movs	r2, r6
 8000668:	0028      	movs	r0, r5
 800066a:	b289      	uxth	r1, r1
 800066c:	f000 fc81 	bl	8000f72 <LED12A1_ChannelEnable>
 8000670:	3401      	adds	r4, #1
 8000672:	9b01      	ldr	r3, [sp, #4]
 8000674:	b2e4      	uxtb	r4, r4
 8000676:	42a3      	cmp	r3, r4
 8000678:	d1f3      	bne.n	8000662 <enableLED+0x16>
 800067a:	bdf7      	pop	{r0, r1, r2, r4, r5, r6, r7, pc}

0800067c <setLED>:
 800067c:	b082      	sub	sp, #8
 800067e:	b5f0      	push	{r4, r5, r6, r7, lr}
 8000680:	2403      	movs	r4, #3
 8000682:	0007      	movs	r7, r0
 8000684:	2500      	movs	r5, #0
 8000686:	b087      	sub	sp, #28
 8000688:	ae04      	add	r6, sp, #16
 800068a:	1a61      	subs	r1, r4, r1
 800068c:	930d      	str	r3, [sp, #52]	; 0x34
 800068e:	8033      	strh	r3, [r6, #0]
 8000690:	434c      	muls	r4, r1
 8000692:	0c1b      	lsrs	r3, r3, #16
 8000694:	8073      	strh	r3, [r6, #2]
 8000696:	9203      	str	r2, [sp, #12]
 8000698:	ab0d      	add	r3, sp, #52	; 0x34
 800069a:	889b      	ldrh	r3, [r3, #4]
 800069c:	b2e4      	uxtb	r4, r4
 800069e:	80b3      	strh	r3, [r6, #4]
 80006a0:	9b03      	ldr	r3, [sp, #12]
 80006a2:	1962      	adds	r2, r4, r5
 80006a4:	0069      	lsls	r1, r5, #1
 80006a6:	9300      	str	r3, [sp, #0]
 80006a8:	0038      	movs	r0, r7
 80006aa:	2300      	movs	r3, #0
 80006ac:	b2d2      	uxtb	r2, r2
 80006ae:	1871      	adds	r1, r6, r1
 80006b0:	3501      	adds	r5, #1
 80006b2:	f000 fc45 	bl	8000f40 <LED12A1_DigitalDimming>
 80006b6:	2d03      	cmp	r5, #3
 80006b8:	d1f2      	bne.n	80006a0 <setLED+0x24>
 80006ba:	b007      	add	sp, #28
 80006bc:	bcf0      	pop	{r4, r5, r6, r7}
 80006be:	bc08      	pop	{r3}
 80006c0:	b002      	add	sp, #8
 80006c2:	4718      	bx	r3

080006c4 <disableAllLED>:
 80006c4:	b570      	push	{r4, r5, r6, lr}
 80006c6:	0006      	movs	r6, r0
 80006c8:	000d      	movs	r5, r1
 80006ca:	2400      	movs	r4, #0
 80006cc:	b2e2      	uxtb	r2, r4
 80006ce:	42ac      	cmp	r4, r5
 80006d0:	d100      	bne.n	80006d4 <disableAllLED+0x10>
 80006d2:	bd70      	pop	{r4, r5, r6, pc}
 80006d4:	0030      	movs	r0, r6
 80006d6:	4902      	ldr	r1, [pc, #8]	; (80006e0 <disableAllLED+0x1c>)
 80006d8:	f000 fc5d 	bl	8000f96 <LED12A1_ChannelDisable>
 80006dc:	3401      	adds	r4, #1
 80006de:	e7f5      	b.n	80006cc <disableAllLED+0x8>
 80006e0:	00000fff 	.word	0x00000fff

080006e4 <setup>:
 80006e4:	b570      	push	{r4, r5, r6, lr}
 80006e6:	2400      	movs	r4, #0
 80006e8:	2064      	movs	r0, #100	; 0x64
 80006ea:	f000 fcb5 	bl	8001058 <HAL_Delay>
 80006ee:	4b0e      	ldr	r3, [pc, #56]	; (8000728 <setup+0x44>)
 80006f0:	701c      	strb	r4, [r3, #0]
 80006f2:	f000 f8a5 	bl	8000840 <ClearBuffers>
 80006f6:	f000 fbb7 	bl	8000e68 <LED12A1_Init>
 80006fa:	4d0c      	ldr	r5, [pc, #48]	; (800072c <setup+0x48>)
 80006fc:	490c      	ldr	r1, [pc, #48]	; (8000730 <setup+0x4c>)
 80006fe:	0028      	movs	r0, r5
 8000700:	f000 fc06 	bl	8000f10 <LED12A1_ScanAvailDevice>
 8000704:	4e0b      	ldr	r6, [pc, #44]	; (8000734 <setup+0x50>)
 8000706:	7030      	strb	r0, [r6, #0]
 8000708:	7833      	ldrb	r3, [r6, #0]
 800070a:	42a3      	cmp	r3, r4
 800070c:	d800      	bhi.n	8000710 <setup+0x2c>
 800070e:	bd70      	pop	{r4, r5, r6, pc}
 8000710:	0021      	movs	r1, r4
 8000712:	0028      	movs	r0, r5
 8000714:	f000 fbda 	bl	8000ecc <LED12A1_DeviceEnable>
 8000718:	0022      	movs	r2, r4
 800071a:	0028      	movs	r0, r5
 800071c:	4906      	ldr	r1, [pc, #24]	; (8000738 <setup+0x54>)
 800071e:	3401      	adds	r4, #1
 8000720:	f000 fc39 	bl	8000f96 <LED12A1_ChannelDisable>
 8000724:	b2e4      	uxtb	r4, r4
 8000726:	e7ef      	b.n	8000708 <setup+0x24>
 8000728:	200000b3 	.word	0x200000b3
 800072c:	20000238 	.word	0x20000238
 8000730:	20000028 	.word	0x20000028
 8000734:	20000032 	.word	0x20000032
 8000738:	00000fff 	.word	0x00000fff

0800073c <task2>:
 800073c:	b5f0      	push	{r4, r5, r6, r7, lr}
 800073e:	4b3b      	ldr	r3, [pc, #236]	; (800082c <task2+0xf0>)
 8000740:	b0a9      	sub	sp, #164	; 0xa4
 8000742:	7819      	ldrb	r1, [r3, #0]
 8000744:	483a      	ldr	r0, [pc, #232]	; (8000830 <task2+0xf4>)
 8000746:	f7ff ffbd 	bl	80006c4 <disableAllLED>
 800074a:	226c      	movs	r2, #108	; 0x6c
 800074c:	4939      	ldr	r1, [pc, #228]	; (8000834 <task2+0xf8>)
 800074e:	a80d      	add	r0, sp, #52	; 0x34
 8000750:	f002 fb56 	bl	8002e00 <memcpy>
 8000754:	2332      	movs	r3, #50	; 0x32
 8000756:	a809      	add	r0, sp, #36	; 0x24
 8000758:	001a      	movs	r2, r3
 800075a:	0019      	movs	r1, r3
 800075c:	f7ff ff72 	bl	8000644 <make_colour>
 8000760:	2300      	movs	r3, #0
 8000762:	2403      	movs	r4, #3
 8000764:	9306      	str	r3, [sp, #24]
 8000766:	b2e3      	uxtb	r3, r4
 8000768:	9307      	str	r3, [sp, #28]
 800076a:	2300      	movs	r3, #0
 800076c:	9303      	str	r3, [sp, #12]
 800076e:	e025      	b.n	80007bc <task2+0x80>
 8000770:	9b07      	ldr	r3, [sp, #28]
 8000772:	1b5e      	subs	r6, r3, r5
 8000774:	9b06      	ldr	r3, [sp, #24]
 8000776:	b2f6      	uxtb	r6, r6
 8000778:	2b00      	cmp	r3, #0
 800077a:	d104      	bne.n	8000786 <task2+0x4a>
 800077c:	0032      	movs	r2, r6
 800077e:	9904      	ldr	r1, [sp, #16]
 8000780:	482b      	ldr	r0, [pc, #172]	; (8000830 <task2+0xf4>)
 8000782:	f7ff ff63 	bl	800064c <enableLED>
 8000786:	aa0d      	add	r2, sp, #52	; 0x34
 8000788:	00ab      	lsls	r3, r5, #2
 800078a:	589b      	ldr	r3, [r3, r2]
 800078c:	9f05      	ldr	r7, [sp, #20]
 800078e:	9a05      	ldr	r2, [sp, #20]
 8000790:	401f      	ands	r7, r3
 8000792:	4213      	tst	r3, r2
 8000794:	d01b      	beq.n	80007ce <task2+0x92>
 8000796:	466b      	mov	r3, sp
 8000798:	aa09      	add	r2, sp, #36	; 0x24
 800079a:	8892      	ldrh	r2, [r2, #4]
 800079c:	801a      	strh	r2, [r3, #0]
 800079e:	9b09      	ldr	r3, [sp, #36]	; 0x24
 80007a0:	0032      	movs	r2, r6
 80007a2:	9904      	ldr	r1, [sp, #16]
 80007a4:	4822      	ldr	r0, [pc, #136]	; (8000830 <task2+0xf4>)
 80007a6:	f7ff ff69 	bl	800067c <setLED>
 80007aa:	3d01      	subs	r5, #1
 80007ac:	1f23      	subs	r3, r4, #4
 80007ae:	429d      	cmp	r5, r3
 80007b0:	d1de      	bne.n	8000770 <task2+0x34>
 80007b2:	9b03      	ldr	r3, [sp, #12]
 80007b4:	3301      	adds	r3, #1
 80007b6:	9303      	str	r3, [sp, #12]
 80007b8:	2b04      	cmp	r3, #4
 80007ba:	d02d      	beq.n	8000818 <task2+0xdc>
 80007bc:	466b      	mov	r3, sp
 80007be:	7b1b      	ldrb	r3, [r3, #12]
 80007c0:	9a03      	ldr	r2, [sp, #12]
 80007c2:	9304      	str	r3, [sp, #16]
 80007c4:	2301      	movs	r3, #1
 80007c6:	4093      	lsls	r3, r2
 80007c8:	0025      	movs	r5, r4
 80007ca:	9305      	str	r3, [sp, #20]
 80007cc:	e7d0      	b.n	8000770 <task2+0x34>
 80007ce:	2118      	movs	r1, #24
 80007d0:	0028      	movs	r0, r5
 80007d2:	f7ff fe1b 	bl	800040c <__aeabi_idivmod>
 80007d6:	b28a      	uxth	r2, r1
 80007d8:	2907      	cmp	r1, #7
 80007da:	dc0c      	bgt.n	80007f6 <task2+0xba>
 80007dc:	2308      	movs	r3, #8
 80007de:	1a99      	subs	r1, r3, r2
 80007e0:	003b      	movs	r3, r7
 80007e2:	b289      	uxth	r1, r1
 80007e4:	a80b      	add	r0, sp, #44	; 0x2c
 80007e6:	f7ff ff2d 	bl	8000644 <make_colour>
 80007ea:	466b      	mov	r3, sp
 80007ec:	aa0b      	add	r2, sp, #44	; 0x2c
 80007ee:	8892      	ldrh	r2, [r2, #4]
 80007f0:	801a      	strh	r2, [r3, #0]
 80007f2:	9b0b      	ldr	r3, [sp, #44]	; 0x2c
 80007f4:	e7d4      	b.n	80007a0 <task2+0x64>
 80007f6:	290f      	cmp	r1, #15
 80007f8:	dc07      	bgt.n	800080a <task2+0xce>
 80007fa:	0013      	movs	r3, r2
 80007fc:	2110      	movs	r1, #16
 80007fe:	3b08      	subs	r3, #8
 8000800:	1a8a      	subs	r2, r1, r2
 8000802:	b29b      	uxth	r3, r3
 8000804:	0039      	movs	r1, r7
 8000806:	b292      	uxth	r2, r2
 8000808:	e7ec      	b.n	80007e4 <task2+0xa8>
 800080a:	2318      	movs	r3, #24
 800080c:	1a9b      	subs	r3, r3, r2
 800080e:	3a10      	subs	r2, #16
 8000810:	b291      	uxth	r1, r2
 8000812:	b29b      	uxth	r3, r3
 8000814:	003a      	movs	r2, r7
 8000816:	e7e5      	b.n	80007e4 <task2+0xa8>
 8000818:	20c8      	movs	r0, #200	; 0xc8
 800081a:	f000 fc1d 	bl	8001058 <HAL_Delay>
 800081e:	2301      	movs	r3, #1
 8000820:	3401      	adds	r4, #1
 8000822:	9306      	str	r3, [sp, #24]
 8000824:	2c1b      	cmp	r4, #27
 8000826:	d19e      	bne.n	8000766 <task2+0x2a>
 8000828:	e79b      	b.n	8000762 <task2+0x26>
 800082a:	46c0      	nop			; (mov r8, r8)
 800082c:	20000032 	.word	0x20000032
 8000830:	20000238 	.word	0x20000238
 8000834:	08002fbc 	.word	0x08002fbc

08000838 <mainLoop>:
 8000838:	b510      	push	{r4, lr}
 800083a:	f7ff ff7f 	bl	800073c <task2>
	...

08000840 <ClearBuffers>:
 8000840:	b510      	push	{r4, lr}
 8000842:	2440      	movs	r4, #64	; 0x40
 8000844:	0022      	movs	r2, r4
 8000846:	2100      	movs	r1, #0
 8000848:	4804      	ldr	r0, [pc, #16]	; (800085c <ClearBuffers+0x1c>)
 800084a:	f002 fae2 	bl	8002e12 <memset>
 800084e:	0022      	movs	r2, r4
 8000850:	2100      	movs	r1, #0
 8000852:	4803      	ldr	r0, [pc, #12]	; (8000860 <ClearBuffers+0x20>)
 8000854:	f002 fadd 	bl	8002e12 <memset>
 8000858:	bd10      	pop	{r4, pc}
 800085a:	46c0      	nop			; (mov r8, r8)
 800085c:	20000033 	.word	0x20000033
 8000860:	20000073 	.word	0x20000073

08000864 <SystemClock_Config>:
 8000864:	b500      	push	{lr}
 8000866:	b095      	sub	sp, #84	; 0x54
 8000868:	223c      	movs	r2, #60	; 0x3c
 800086a:	2100      	movs	r1, #0
 800086c:	a805      	add	r0, sp, #20
 800086e:	f002 fad0 	bl	8002e12 <memset>
 8000872:	2100      	movs	r1, #0
 8000874:	2210      	movs	r2, #16
 8000876:	a801      	add	r0, sp, #4
 8000878:	f002 facb 	bl	8002e12 <memset>
 800087c:	2080      	movs	r0, #128	; 0x80
 800087e:	0080      	lsls	r0, r0, #2
 8000880:	f001 f918 	bl	8001ab4 <HAL_PWREx_ControlVoltageScaling>
 8000884:	2302      	movs	r3, #2
 8000886:	9305      	str	r3, [sp, #20]
 8000888:	33fe      	adds	r3, #254	; 0xfe
 800088a:	2240      	movs	r2, #64	; 0x40
 800088c:	9308      	str	r3, [sp, #32]
 800088e:	2300      	movs	r3, #0
 8000890:	a805      	add	r0, sp, #20
 8000892:	9309      	str	r3, [sp, #36]	; 0x24
 8000894:	920a      	str	r2, [sp, #40]	; 0x28
 8000896:	930d      	str	r3, [sp, #52]	; 0x34
 8000898:	f001 f938 	bl	8001b0c <HAL_RCC_OscConfig>
 800089c:	1e01      	subs	r1, r0, #0
 800089e:	d001      	beq.n	80008a4 <SystemClock_Config+0x40>
 80008a0:	b672      	cpsid	i
 80008a2:	e7fe      	b.n	80008a2 <SystemClock_Config+0x3e>
 80008a4:	2307      	movs	r3, #7
 80008a6:	9002      	str	r0, [sp, #8]
 80008a8:	9003      	str	r0, [sp, #12]
 80008aa:	9004      	str	r0, [sp, #16]
 80008ac:	a801      	add	r0, sp, #4
 80008ae:	9301      	str	r3, [sp, #4]
 80008b0:	f001 fbc8 	bl	8002044 <HAL_RCC_ClockConfig>
 80008b4:	2800      	cmp	r0, #0
 80008b6:	d001      	beq.n	80008bc <SystemClock_Config+0x58>
 80008b8:	b672      	cpsid	i
 80008ba:	e7fe      	b.n	80008ba <SystemClock_Config+0x56>
 80008bc:	b015      	add	sp, #84	; 0x54
 80008be:	bd00      	pop	{pc}

080008c0 <MX_I2C1_Init>:
 80008c0:	b510      	push	{r4, lr}
 80008c2:	4b12      	ldr	r3, [pc, #72]	; (800090c <MX_I2C1_Init+0x4c>)
 80008c4:	4c12      	ldr	r4, [pc, #72]	; (8000910 <MX_I2C1_Init+0x50>)
 80008c6:	2201      	movs	r2, #1
 80008c8:	6023      	str	r3, [r4, #0]
 80008ca:	4b12      	ldr	r3, [pc, #72]	; (8000914 <MX_I2C1_Init+0x54>)
 80008cc:	0020      	movs	r0, r4
 80008ce:	6063      	str	r3, [r4, #4]
 80008d0:	2300      	movs	r3, #0
 80008d2:	60e2      	str	r2, [r4, #12]
 80008d4:	60a3      	str	r3, [r4, #8]
 80008d6:	6123      	str	r3, [r4, #16]
 80008d8:	6163      	str	r3, [r4, #20]
 80008da:	61a3      	str	r3, [r4, #24]
 80008dc:	61e3      	str	r3, [r4, #28]
 80008de:	6223      	str	r3, [r4, #32]
 80008e0:	f000 fe6e 	bl	80015c0 <HAL_I2C_Init>
 80008e4:	1e01      	subs	r1, r0, #0
 80008e6:	d001      	beq.n	80008ec <MX_I2C1_Init+0x2c>
 80008e8:	b672      	cpsid	i
 80008ea:	e7fe      	b.n	80008ea <MX_I2C1_Init+0x2a>
 80008ec:	0020      	movs	r0, r4
 80008ee:	f001 f897 	bl	8001a20 <HAL_I2CEx_ConfigAnalogFilter>
 80008f2:	1e01      	subs	r1, r0, #0
 80008f4:	d001      	beq.n	80008fa <MX_I2C1_Init+0x3a>
 80008f6:	b672      	cpsid	i
 80008f8:	e7fe      	b.n	80008f8 <MX_I2C1_Init+0x38>
 80008fa:	0020      	movs	r0, r4
 80008fc:	f001 f8b6 	bl	8001a6c <HAL_I2CEx_ConfigDigitalFilter>
 8000900:	2800      	cmp	r0, #0
 8000902:	d001      	beq.n	8000908 <MX_I2C1_Init+0x48>
 8000904:	b672      	cpsid	i
 8000906:	e7fe      	b.n	8000906 <MX_I2C1_Init+0x46>
 8000908:	bd10      	pop	{r4, pc}
 800090a:	46c0      	nop			; (mov r8, r8)
 800090c:	40005400 	.word	0x40005400
 8000910:	200000b4 	.word	0x200000b4
 8000914:	00303d5b 	.word	0x00303d5b

08000918 <main>:
 8000918:	b5f0      	push	{r4, r5, r6, r7, lr}
 800091a:	b08d      	sub	sp, #52	; 0x34
 800091c:	f000 fb76 	bl	800100c <HAL_Init>
 8000920:	f7ff ffa0 	bl	8000864 <SystemClock_Config>
 8000924:	2214      	movs	r2, #20
 8000926:	2100      	movs	r1, #0
 8000928:	a807      	add	r0, sp, #28
 800092a:	f002 fa72 	bl	8002e12 <memset>
 800092e:	2004      	movs	r0, #4
 8000930:	2420      	movs	r4, #32
 8000932:	2501      	movs	r5, #1
 8000934:	4b62      	ldr	r3, [pc, #392]	; (8000ac0 <main+0x1a8>)
 8000936:	2602      	movs	r6, #2
 8000938:	6b59      	ldr	r1, [r3, #52]	; 0x34
 800093a:	4301      	orrs	r1, r0
 800093c:	6359      	str	r1, [r3, #52]	; 0x34
 800093e:	6b5a      	ldr	r2, [r3, #52]	; 0x34
 8000940:	0021      	movs	r1, r4
 8000942:	4002      	ands	r2, r0
 8000944:	20a0      	movs	r0, #160	; 0xa0
 8000946:	9200      	str	r2, [sp, #0]
 8000948:	9a00      	ldr	r2, [sp, #0]
 800094a:	6b5a      	ldr	r2, [r3, #52]	; 0x34
 800094c:	05c0      	lsls	r0, r0, #23
 800094e:	4322      	orrs	r2, r4
 8000950:	635a      	str	r2, [r3, #52]	; 0x34
 8000952:	6b5a      	ldr	r2, [r3, #52]	; 0x34
 8000954:	4022      	ands	r2, r4
 8000956:	9201      	str	r2, [sp, #4]
 8000958:	9a01      	ldr	r2, [sp, #4]
 800095a:	6b5a      	ldr	r2, [r3, #52]	; 0x34
 800095c:	432a      	orrs	r2, r5
 800095e:	635a      	str	r2, [r3, #52]	; 0x34
 8000960:	6b5a      	ldr	r2, [r3, #52]	; 0x34
 8000962:	402a      	ands	r2, r5
 8000964:	9202      	str	r2, [sp, #8]
 8000966:	9a02      	ldr	r2, [sp, #8]
 8000968:	6b5a      	ldr	r2, [r3, #52]	; 0x34
 800096a:	4332      	orrs	r2, r6
 800096c:	635a      	str	r2, [r3, #52]	; 0x34
 800096e:	6b5b      	ldr	r3, [r3, #52]	; 0x34
 8000970:	2200      	movs	r2, #0
 8000972:	4033      	ands	r3, r6
 8000974:	9303      	str	r3, [sp, #12]
 8000976:	9b03      	ldr	r3, [sp, #12]
 8000978:	f000 fcfa 	bl	8001370 <HAL_GPIO_WritePin>
 800097c:	20a0      	movs	r0, #160	; 0xa0
 800097e:	9508      	str	r5, [sp, #32]
 8000980:	2500      	movs	r5, #0
 8000982:	a907      	add	r1, sp, #28
 8000984:	05c0      	lsls	r0, r0, #23
 8000986:	9407      	str	r4, [sp, #28]
 8000988:	960a      	str	r6, [sp, #40]	; 0x28
 800098a:	9509      	str	r5, [sp, #36]	; 0x24
 800098c:	f000 fbba 	bl	8001104 <HAL_GPIO_Init>
 8000990:	4c4c      	ldr	r4, [pc, #304]	; (8000ac4 <main+0x1ac>)
 8000992:	4b4d      	ldr	r3, [pc, #308]	; (8000ac8 <main+0x1b0>)
 8000994:	0020      	movs	r0, r4
 8000996:	6023      	str	r3, [r4, #0]
 8000998:	23e1      	movs	r3, #225	; 0xe1
 800099a:	360a      	adds	r6, #10
 800099c:	025b      	lsls	r3, r3, #9
 800099e:	6063      	str	r3, [r4, #4]
 80009a0:	60a5      	str	r5, [r4, #8]
 80009a2:	60e5      	str	r5, [r4, #12]
 80009a4:	6125      	str	r5, [r4, #16]
 80009a6:	6166      	str	r6, [r4, #20]
 80009a8:	61a5      	str	r5, [r4, #24]
 80009aa:	61e5      	str	r5, [r4, #28]
 80009ac:	6225      	str	r5, [r4, #32]
 80009ae:	6265      	str	r5, [r4, #36]	; 0x24
 80009b0:	62a5      	str	r5, [r4, #40]	; 0x28
 80009b2:	f002 f93f 	bl	8002c34 <HAL_UART_Init>
 80009b6:	0001      	movs	r1, r0
 80009b8:	42a8      	cmp	r0, r5
 80009ba:	d001      	beq.n	80009c0 <main+0xa8>
 80009bc:	b672      	cpsid	i
 80009be:	e7fe      	b.n	80009be <main+0xa6>
 80009c0:	0020      	movs	r0, r4
 80009c2:	f002 f9af 	bl	8002d24 <HAL_UARTEx_SetTxFifoThreshold>
 80009c6:	1e01      	subs	r1, r0, #0
 80009c8:	d001      	beq.n	80009ce <main+0xb6>
 80009ca:	b672      	cpsid	i
 80009cc:	e7fe      	b.n	80009cc <main+0xb4>
 80009ce:	0020      	movs	r0, r4
 80009d0:	f002 f9cc 	bl	8002d6c <HAL_UARTEx_SetRxFifoThreshold>
 80009d4:	2800      	cmp	r0, #0
 80009d6:	d001      	beq.n	80009dc <main+0xc4>
 80009d8:	b672      	cpsid	i
 80009da:	e7fe      	b.n	80009da <main+0xc2>
 80009dc:	0020      	movs	r0, r4
 80009de:	f002 f983 	bl	8002ce8 <HAL_UARTEx_DisableFifoMode>
 80009e2:	1e05      	subs	r5, r0, #0
 80009e4:	d001      	beq.n	80009ea <main+0xd2>
 80009e6:	b672      	cpsid	i
 80009e8:	e7fe      	b.n	80009e8 <main+0xd0>
 80009ea:	0001      	movs	r1, r0
 80009ec:	2210      	movs	r2, #16
 80009ee:	a807      	add	r0, sp, #28
 80009f0:	f002 fa0f 	bl	8002e12 <memset>
 80009f4:	0032      	movs	r2, r6
 80009f6:	0029      	movs	r1, r5
 80009f8:	a804      	add	r0, sp, #16
 80009fa:	f002 fa0a 	bl	8002e12 <memset>
 80009fe:	2380      	movs	r3, #128	; 0x80
 8000a00:	4c32      	ldr	r4, [pc, #200]	; (8000acc <main+0x1b4>)
 8000a02:	05db      	lsls	r3, r3, #23
 8000a04:	6023      	str	r3, [r4, #0]
 8000a06:	2301      	movs	r3, #1
 8000a08:	0020      	movs	r0, r4
 8000a0a:	425b      	negs	r3, r3
 8000a0c:	6065      	str	r5, [r4, #4]
 8000a0e:	60a5      	str	r5, [r4, #8]
 8000a10:	60e3      	str	r3, [r4, #12]
 8000a12:	6125      	str	r5, [r4, #16]
 8000a14:	61a5      	str	r5, [r4, #24]
 8000a16:	f001 fd81 	bl	800251c <HAL_TIM_Base_Init>
 8000a1a:	2800      	cmp	r0, #0
 8000a1c:	d001      	beq.n	8000a22 <main+0x10a>
 8000a1e:	b672      	cpsid	i
 8000a20:	e7fe      	b.n	8000a20 <main+0x108>
 8000a22:	2780      	movs	r7, #128	; 0x80
 8000a24:	0020      	movs	r0, r4
 8000a26:	017f      	lsls	r7, r7, #5
 8000a28:	a907      	add	r1, sp, #28
 8000a2a:	9707      	str	r7, [sp, #28]
 8000a2c:	f001 fdac 	bl	8002588 <HAL_TIM_ConfigClockSource>
 8000a30:	2800      	cmp	r0, #0
 8000a32:	d001      	beq.n	8000a38 <main+0x120>
 8000a34:	b672      	cpsid	i
 8000a36:	e7fe      	b.n	8000a36 <main+0x11e>
 8000a38:	9004      	str	r0, [sp, #16]
 8000a3a:	9006      	str	r0, [sp, #24]
 8000a3c:	a904      	add	r1, sp, #16
 8000a3e:	0020      	movs	r0, r4
 8000a40:	f001 fe46 	bl	80026d0 <HAL_TIMEx_MasterConfigSynchronization>
 8000a44:	1e05      	subs	r5, r0, #0
 8000a46:	d001      	beq.n	8000a4c <main+0x134>
 8000a48:	b672      	cpsid	i
 8000a4a:	e7fe      	b.n	8000a4a <main+0x132>
 8000a4c:	0001      	movs	r1, r0
 8000a4e:	2210      	movs	r2, #16
 8000a50:	a807      	add	r0, sp, #28
 8000a52:	f002 f9de 	bl	8002e12 <memset>
 8000a56:	0032      	movs	r2, r6
 8000a58:	0029      	movs	r1, r5
 8000a5a:	a804      	add	r0, sp, #16
 8000a5c:	f002 f9d9 	bl	8002e12 <memset>
 8000a60:	4e1b      	ldr	r6, [pc, #108]	; (8000ad0 <main+0x1b8>)
 8000a62:	4b1c      	ldr	r3, [pc, #112]	; (8000ad4 <main+0x1bc>)
 8000a64:	0030      	movs	r0, r6
 8000a66:	6033      	str	r3, [r6, #0]
 8000a68:	4b1b      	ldr	r3, [pc, #108]	; (8000ad8 <main+0x1c0>)
 8000a6a:	6075      	str	r5, [r6, #4]
 8000a6c:	60b5      	str	r5, [r6, #8]
 8000a6e:	60f3      	str	r3, [r6, #12]
 8000a70:	6135      	str	r5, [r6, #16]
 8000a72:	61b5      	str	r5, [r6, #24]
 8000a74:	f001 fd52 	bl	800251c <HAL_TIM_Base_Init>
 8000a78:	2800      	cmp	r0, #0
 8000a7a:	d001      	beq.n	8000a80 <main+0x168>
 8000a7c:	b672      	cpsid	i
 8000a7e:	e7fe      	b.n	8000a7e <main+0x166>
 8000a80:	0030      	movs	r0, r6
 8000a82:	a907      	add	r1, sp, #28
 8000a84:	9707      	str	r7, [sp, #28]
 8000a86:	f001 fd7f 	bl	8002588 <HAL_TIM_ConfigClockSource>
 8000a8a:	2800      	cmp	r0, #0
 8000a8c:	d001      	beq.n	8000a92 <main+0x17a>
 8000a8e:	b672      	cpsid	i
 8000a90:	e7fe      	b.n	8000a90 <main+0x178>
 8000a92:	9004      	str	r0, [sp, #16]
 8000a94:	9006      	str	r0, [sp, #24]
 8000a96:	a904      	add	r1, sp, #16
 8000a98:	0030      	movs	r0, r6
 8000a9a:	f001 fe19 	bl	80026d0 <HAL_TIMEx_MasterConfigSynchronization>
 8000a9e:	2800      	cmp	r0, #0
 8000aa0:	d001      	beq.n	8000aa6 <main+0x18e>
 8000aa2:	b672      	cpsid	i
 8000aa4:	e7fe      	b.n	8000aa4 <main+0x18c>
 8000aa6:	f7ff ff0b 	bl	80008c0 <MX_I2C1_Init>
 8000aaa:	2302      	movs	r3, #2
 8000aac:	6822      	ldr	r2, [r4, #0]
 8000aae:	425b      	negs	r3, r3
 8000ab0:	6113      	str	r3, [r2, #16]
 8000ab2:	6832      	ldr	r2, [r6, #0]
 8000ab4:	6113      	str	r3, [r2, #16]
 8000ab6:	f7ff fe15 	bl	80006e4 <setup>
 8000aba:	f7ff febd 	bl	8000838 <mainLoop>
 8000abe:	e7fc      	b.n	8000aba <main+0x1a2>
 8000ac0:	40021000 	.word	0x40021000
 8000ac4:	200001a0 	.word	0x200001a0
 8000ac8:	40004400 	.word	0x40004400
 8000acc:	20000108 	.word	0x20000108
 8000ad0:	20000154 	.word	0x20000154
 8000ad4:	40000400 	.word	0x40000400
 8000ad8:	0000ffff 	.word	0x0000ffff

08000adc <Error_Handler>:
 8000adc:	b672      	cpsid	i
 8000ade:	e7fe      	b.n	8000ade <Error_Handler+0x2>

08000ae0 <HAL_MspInit>:
 8000ae0:	2001      	movs	r0, #1
 8000ae2:	4b0a      	ldr	r3, [pc, #40]	; (8000b0c <HAL_MspInit+0x2c>)
 8000ae4:	b082      	sub	sp, #8
 8000ae6:	6c19      	ldr	r1, [r3, #64]	; 0x40
 8000ae8:	4301      	orrs	r1, r0
 8000aea:	6419      	str	r1, [r3, #64]	; 0x40
 8000aec:	2180      	movs	r1, #128	; 0x80
 8000aee:	6c1a      	ldr	r2, [r3, #64]	; 0x40
 8000af0:	0549      	lsls	r1, r1, #21
 8000af2:	4002      	ands	r2, r0
 8000af4:	9200      	str	r2, [sp, #0]
 8000af6:	9a00      	ldr	r2, [sp, #0]
 8000af8:	6bda      	ldr	r2, [r3, #60]	; 0x3c
 8000afa:	430a      	orrs	r2, r1
 8000afc:	63da      	str	r2, [r3, #60]	; 0x3c
 8000afe:	6bdb      	ldr	r3, [r3, #60]	; 0x3c
 8000b00:	400b      	ands	r3, r1
 8000b02:	9301      	str	r3, [sp, #4]
 8000b04:	9b01      	ldr	r3, [sp, #4]
 8000b06:	b002      	add	sp, #8
 8000b08:	4770      	bx	lr
 8000b0a:	46c0      	nop			; (mov r8, r8)
 8000b0c:	40021000 	.word	0x40021000

08000b10 <HAL_I2C_MspInit>:
 8000b10:	b510      	push	{r4, lr}
 8000b12:	0004      	movs	r4, r0
 8000b14:	b09a      	sub	sp, #104	; 0x68
 8000b16:	2214      	movs	r2, #20
 8000b18:	2100      	movs	r1, #0
 8000b1a:	a802      	add	r0, sp, #8
 8000b1c:	f002 f979 	bl	8002e12 <memset>
 8000b20:	224c      	movs	r2, #76	; 0x4c
 8000b22:	2100      	movs	r1, #0
 8000b24:	a807      	add	r0, sp, #28
 8000b26:	f002 f974 	bl	8002e12 <memset>
 8000b2a:	4b17      	ldr	r3, [pc, #92]	; (8000b88 <HAL_I2C_MspInit+0x78>)
 8000b2c:	6822      	ldr	r2, [r4, #0]
 8000b2e:	429a      	cmp	r2, r3
 8000b30:	d128      	bne.n	8000b84 <HAL_I2C_MspInit+0x74>
 8000b32:	2320      	movs	r3, #32
 8000b34:	a807      	add	r0, sp, #28
 8000b36:	9307      	str	r3, [sp, #28]
 8000b38:	f001 fb46 	bl	80021c8 <HAL_RCCEx_PeriphCLKConfig>
 8000b3c:	2800      	cmp	r0, #0
 8000b3e:	d001      	beq.n	8000b44 <HAL_I2C_MspInit+0x34>
 8000b40:	f7ff ffcc 	bl	8000adc <Error_Handler>
 8000b44:	2102      	movs	r1, #2
 8000b46:	4c11      	ldr	r4, [pc, #68]	; (8000b8c <HAL_I2C_MspInit+0x7c>)
 8000b48:	4811      	ldr	r0, [pc, #68]	; (8000b90 <HAL_I2C_MspInit+0x80>)
 8000b4a:	6b62      	ldr	r2, [r4, #52]	; 0x34
 8000b4c:	430a      	orrs	r2, r1
 8000b4e:	6362      	str	r2, [r4, #52]	; 0x34
 8000b50:	6b63      	ldr	r3, [r4, #52]	; 0x34
 8000b52:	400b      	ands	r3, r1
 8000b54:	9300      	str	r3, [sp, #0]
 8000b56:	9b00      	ldr	r3, [sp, #0]
 8000b58:	23c0      	movs	r3, #192	; 0xc0
 8000b5a:	009b      	lsls	r3, r3, #2
 8000b5c:	9302      	str	r3, [sp, #8]
 8000b5e:	2312      	movs	r3, #18
 8000b60:	9303      	str	r3, [sp, #12]
 8000b62:	2300      	movs	r3, #0
 8000b64:	a902      	add	r1, sp, #8
 8000b66:	9304      	str	r3, [sp, #16]
 8000b68:	9305      	str	r3, [sp, #20]
 8000b6a:	3306      	adds	r3, #6
 8000b6c:	9306      	str	r3, [sp, #24]
 8000b6e:	f000 fac9 	bl	8001104 <HAL_GPIO_Init>
 8000b72:	2180      	movs	r1, #128	; 0x80
 8000b74:	6be2      	ldr	r2, [r4, #60]	; 0x3c
 8000b76:	0389      	lsls	r1, r1, #14
 8000b78:	430a      	orrs	r2, r1
 8000b7a:	63e2      	str	r2, [r4, #60]	; 0x3c
 8000b7c:	6be3      	ldr	r3, [r4, #60]	; 0x3c
 8000b7e:	400b      	ands	r3, r1
 8000b80:	9301      	str	r3, [sp, #4]
 8000b82:	9b01      	ldr	r3, [sp, #4]
 8000b84:	b01a      	add	sp, #104	; 0x68
 8000b86:	bd10      	pop	{r4, pc}
 8000b88:	40005400 	.word	0x40005400
 8000b8c:	40021000 	.word	0x40021000
 8000b90:	50000400 	.word	0x50000400

08000b94 <HAL_I2C_MspDeInit>:
 8000b94:	4b0a      	ldr	r3, [pc, #40]	; (8000bc0 <HAL_I2C_MspDeInit+0x2c>)
 8000b96:	6802      	ldr	r2, [r0, #0]
 8000b98:	b510      	push	{r4, lr}
 8000b9a:	429a      	cmp	r2, r3
 8000b9c:	d10e      	bne.n	8000bbc <HAL_I2C_MspDeInit+0x28>
 8000b9e:	4a09      	ldr	r2, [pc, #36]	; (8000bc4 <HAL_I2C_MspDeInit+0x30>)
 8000ba0:	4909      	ldr	r1, [pc, #36]	; (8000bc8 <HAL_I2C_MspDeInit+0x34>)
 8000ba2:	6bd3      	ldr	r3, [r2, #60]	; 0x3c
 8000ba4:	4809      	ldr	r0, [pc, #36]	; (8000bcc <HAL_I2C_MspDeInit+0x38>)
 8000ba6:	400b      	ands	r3, r1
 8000ba8:	2180      	movs	r1, #128	; 0x80
 8000baa:	63d3      	str	r3, [r2, #60]	; 0x3c
 8000bac:	0049      	lsls	r1, r1, #1
 8000bae:	f000 fb61 	bl	8001274 <HAL_GPIO_DeInit>
 8000bb2:	2180      	movs	r1, #128	; 0x80
 8000bb4:	4805      	ldr	r0, [pc, #20]	; (8000bcc <HAL_I2C_MspDeInit+0x38>)
 8000bb6:	0089      	lsls	r1, r1, #2
 8000bb8:	f000 fb5c 	bl	8001274 <HAL_GPIO_DeInit>
 8000bbc:	bd10      	pop	{r4, pc}
 8000bbe:	46c0      	nop			; (mov r8, r8)
 8000bc0:	40005400 	.word	0x40005400
 8000bc4:	40021000 	.word	0x40021000
 8000bc8:	ffdfffff 	.word	0xffdfffff
 8000bcc:	50000400 	.word	0x50000400

08000bd0 <HAL_TIM_Base_MspInit>:
 8000bd0:	2280      	movs	r2, #128	; 0x80
 8000bd2:	6803      	ldr	r3, [r0, #0]
 8000bd4:	b082      	sub	sp, #8
 8000bd6:	05d2      	lsls	r2, r2, #23
 8000bd8:	4293      	cmp	r3, r2
 8000bda:	d10a      	bne.n	8000bf2 <HAL_TIM_Base_MspInit+0x22>
 8000bdc:	2001      	movs	r0, #1
 8000bde:	4a0b      	ldr	r2, [pc, #44]	; (8000c0c <HAL_TIM_Base_MspInit+0x3c>)
 8000be0:	6bd1      	ldr	r1, [r2, #60]	; 0x3c
 8000be2:	4301      	orrs	r1, r0
 8000be4:	63d1      	str	r1, [r2, #60]	; 0x3c
 8000be6:	6bd3      	ldr	r3, [r2, #60]	; 0x3c
 8000be8:	4003      	ands	r3, r0
 8000bea:	9300      	str	r3, [sp, #0]
 8000bec:	9b00      	ldr	r3, [sp, #0]
 8000bee:	b002      	add	sp, #8
 8000bf0:	4770      	bx	lr
 8000bf2:	4a07      	ldr	r2, [pc, #28]	; (8000c10 <HAL_TIM_Base_MspInit+0x40>)
 8000bf4:	4293      	cmp	r3, r2
 8000bf6:	d1fa      	bne.n	8000bee <HAL_TIM_Base_MspInit+0x1e>
 8000bf8:	2002      	movs	r0, #2
 8000bfa:	4a04      	ldr	r2, [pc, #16]	; (8000c0c <HAL_TIM_Base_MspInit+0x3c>)
 8000bfc:	6bd1      	ldr	r1, [r2, #60]	; 0x3c
 8000bfe:	4301      	orrs	r1, r0
 8000c00:	63d1      	str	r1, [r2, #60]	; 0x3c
 8000c02:	6bd3      	ldr	r3, [r2, #60]	; 0x3c
 8000c04:	4003      	ands	r3, r0
 8000c06:	9301      	str	r3, [sp, #4]
 8000c08:	9b01      	ldr	r3, [sp, #4]
 8000c0a:	e7f0      	b.n	8000bee <HAL_TIM_Base_MspInit+0x1e>
 8000c0c:	40021000 	.word	0x40021000
 8000c10:	40000400 	.word	0x40000400

08000c14 <HAL_UART_MspInit>:
 8000c14:	b510      	push	{r4, lr}
 8000c16:	0004      	movs	r4, r0
 8000c18:	b09a      	sub	sp, #104	; 0x68
 8000c1a:	2214      	movs	r2, #20
 8000c1c:	2100      	movs	r1, #0
 8000c1e:	a802      	add	r0, sp, #8
 8000c20:	f002 f8f7 	bl	8002e12 <memset>
 8000c24:	224c      	movs	r2, #76	; 0x4c
 8000c26:	2100      	movs	r1, #0
 8000c28:	a807      	add	r0, sp, #28
 8000c2a:	f002 f8f2 	bl	8002e12 <memset>
 8000c2e:	4b17      	ldr	r3, [pc, #92]	; (8000c8c <HAL_UART_MspInit+0x78>)
 8000c30:	6822      	ldr	r2, [r4, #0]
 8000c32:	429a      	cmp	r2, r3
 8000c34:	d127      	bne.n	8000c86 <HAL_UART_MspInit+0x72>
 8000c36:	2302      	movs	r3, #2
 8000c38:	a807      	add	r0, sp, #28
 8000c3a:	9307      	str	r3, [sp, #28]
 8000c3c:	f001 fac4 	bl	80021c8 <HAL_RCCEx_PeriphCLKConfig>
 8000c40:	2800      	cmp	r0, #0
 8000c42:	d001      	beq.n	8000c48 <HAL_UART_MspInit+0x34>
 8000c44:	f7ff ff4a 	bl	8000adc <Error_Handler>
 8000c48:	2080      	movs	r0, #128	; 0x80
 8000c4a:	4b11      	ldr	r3, [pc, #68]	; (8000c90 <HAL_UART_MspInit+0x7c>)
 8000c4c:	0280      	lsls	r0, r0, #10
 8000c4e:	6bd9      	ldr	r1, [r3, #60]	; 0x3c
 8000c50:	4301      	orrs	r1, r0
 8000c52:	63d9      	str	r1, [r3, #60]	; 0x3c
 8000c54:	6bda      	ldr	r2, [r3, #60]	; 0x3c
 8000c56:	4002      	ands	r2, r0
 8000c58:	9200      	str	r2, [sp, #0]
 8000c5a:	9a00      	ldr	r2, [sp, #0]
 8000c5c:	2201      	movs	r2, #1
 8000c5e:	6b59      	ldr	r1, [r3, #52]	; 0x34
 8000c60:	20a0      	movs	r0, #160	; 0xa0
 8000c62:	4311      	orrs	r1, r2
 8000c64:	6359      	str	r1, [r3, #52]	; 0x34
 8000c66:	6b5b      	ldr	r3, [r3, #52]	; 0x34
 8000c68:	a902      	add	r1, sp, #8
 8000c6a:	4013      	ands	r3, r2
 8000c6c:	9301      	str	r3, [sp, #4]
 8000c6e:	9b01      	ldr	r3, [sp, #4]
 8000c70:	230c      	movs	r3, #12
 8000c72:	9302      	str	r3, [sp, #8]
 8000c74:	3b0a      	subs	r3, #10
 8000c76:	9303      	str	r3, [sp, #12]
 8000c78:	2300      	movs	r3, #0
 8000c7a:	05c0      	lsls	r0, r0, #23
 8000c7c:	9304      	str	r3, [sp, #16]
 8000c7e:	9305      	str	r3, [sp, #20]
 8000c80:	9206      	str	r2, [sp, #24]
 8000c82:	f000 fa3f 	bl	8001104 <HAL_GPIO_Init>
 8000c86:	b01a      	add	sp, #104	; 0x68
 8000c88:	bd10      	pop	{r4, pc}
 8000c8a:	46c0      	nop			; (mov r8, r8)
 8000c8c:	40004400 	.word	0x40004400
 8000c90:	40021000 	.word	0x40021000

08000c94 <NMI_Handler>:
 8000c94:	e7fe      	b.n	8000c94 <NMI_Handler>

08000c96 <HardFault_Handler>:
 8000c96:	e7fe      	b.n	8000c96 <HardFault_Handler>

08000c98 <SVC_Handler>:
 8000c98:	4770      	bx	lr

08000c9a <PendSV_Handler>:
 8000c9a:	4770      	bx	lr

08000c9c <SysTick_Handler>:
 8000c9c:	b510      	push	{r4, lr}
 8000c9e:	f000 f9c9 	bl	8001034 <HAL_IncTick>
 8000ca2:	bd10      	pop	{r4, pc}

08000ca4 <SystemInit>:
 8000ca4:	4770      	bx	lr
	...

08000ca8 <Reset_Handler>:
 8000ca8:	480d      	ldr	r0, [pc, #52]	; (8000ce0 <LoopForever+0x2>)
 8000caa:	4685      	mov	sp, r0
 8000cac:	f7ff fffa 	bl	8000ca4 <SystemInit>
 8000cb0:	480c      	ldr	r0, [pc, #48]	; (8000ce4 <LoopForever+0x6>)
 8000cb2:	490d      	ldr	r1, [pc, #52]	; (8000ce8 <LoopForever+0xa>)
 8000cb4:	4a0d      	ldr	r2, [pc, #52]	; (8000cec <LoopForever+0xe>)
 8000cb6:	2300      	movs	r3, #0
 8000cb8:	e002      	b.n	8000cc0 <LoopCopyDataInit>

08000cba <CopyDataInit>:
 8000cba:	58d4      	ldr	r4, [r2, r3]
 8000cbc:	50c4      	str	r4, [r0, r3]
 8000cbe:	3304      	adds	r3, #4

08000cc0 <LoopCopyDataInit>:
 8000cc0:	18c4      	adds	r4, r0, r3
 8000cc2:	428c      	cmp	r4, r1
 8000cc4:	d3f9      	bcc.n	8000cba <CopyDataInit>
 8000cc6:	4a0a      	ldr	r2, [pc, #40]	; (8000cf0 <LoopForever+0x12>)
 8000cc8:	4c0a      	ldr	r4, [pc, #40]	; (8000cf4 <LoopForever+0x16>)
 8000cca:	2300      	movs	r3, #0
 8000ccc:	e001      	b.n	8000cd2 <LoopFillZerobss>

08000cce <FillZerobss>:
 8000cce:	6013      	str	r3, [r2, #0]
 8000cd0:	3204      	adds	r2, #4

08000cd2 <LoopFillZerobss>:
 8000cd2:	42a2      	cmp	r2, r4
 8000cd4:	d3fb      	bcc.n	8000cce <FillZerobss>
 8000cd6:	f002 f86f 	bl	8002db8 <__libc_init_array>
 8000cda:	f7ff fe1d 	bl	8000918 <main>

08000cde <LoopForever>:
 8000cde:	e7fe      	b.n	8000cde <LoopForever>
 8000ce0:	20024000 	.word	0x20024000
 8000ce4:	20000000 	.word	0x20000000
 8000ce8:	2000000c 	.word	0x2000000c
 8000cec:	080030d0 	.word	0x080030d0
 8000cf0:	2000000c 	.word	0x2000000c
 8000cf4:	20000268 	.word	0x20000268

08000cf8 <ADC1_COMP_IRQHandler>:
 8000cf8:	e7fe      	b.n	8000cf8 <ADC1_COMP_IRQHandler>
	...

08000cfc <LED1202_RegisterBusIO>:
 8000cfc:	b510      	push	{r4, lr}
 8000cfe:	2800      	cmp	r0, #0
 8000d00:	d017      	beq.n	8000d32 <LED1202_RegisterBusIO+0x36>
 8000d02:	680b      	ldr	r3, [r1, #0]
 8000d04:	6003      	str	r3, [r0, #0]
 8000d06:	790b      	ldrb	r3, [r1, #4]
 8000d08:	7103      	strb	r3, [r0, #4]
 8000d0a:	68ca      	ldr	r2, [r1, #12]
 8000d0c:	688b      	ldr	r3, [r1, #8]
 8000d0e:	60c2      	str	r2, [r0, #12]
 8000d10:	690a      	ldr	r2, [r1, #16]
 8000d12:	6083      	str	r3, [r0, #8]
 8000d14:	6102      	str	r2, [r0, #16]
 8000d16:	694a      	ldr	r2, [r1, #20]
 8000d18:	6142      	str	r2, [r0, #20]
 8000d1a:	698a      	ldr	r2, [r1, #24]
 8000d1c:	6240      	str	r0, [r0, #36]	; 0x24
 8000d1e:	6182      	str	r2, [r0, #24]
 8000d20:	4a05      	ldr	r2, [pc, #20]	; (8000d38 <LED1202_RegisterBusIO+0x3c>)
 8000d22:	6202      	str	r2, [r0, #32]
 8000d24:	4a05      	ldr	r2, [pc, #20]	; (8000d3c <LED1202_RegisterBusIO+0x40>)
 8000d26:	61c2      	str	r2, [r0, #28]
 8000d28:	2b00      	cmp	r3, #0
 8000d2a:	d002      	beq.n	8000d32 <LED1202_RegisterBusIO+0x36>
 8000d2c:	4798      	blx	r3
 8000d2e:	2800      	cmp	r0, #0
 8000d30:	d000      	beq.n	8000d34 <LED1202_RegisterBusIO+0x38>
 8000d32:	2003      	movs	r0, #3
 8000d34:	bd10      	pop	{r4, pc}
 8000d36:	46c0      	nop			; (mov r8, r8)
 8000d38:	08000eb5 	.word	0x08000eb5
 8000d3c:	08000ec1 	.word	0x08000ec1

08000d40 <LED1202_ReadID>:
 8000d40:	0052      	lsls	r2, r2, #1
 8000d42:	b510      	push	{r4, lr}
 8000d44:	2301      	movs	r3, #1
 8000d46:	7102      	strb	r2, [r0, #4]
 8000d48:	000c      	movs	r4, r1
 8000d4a:	000a      	movs	r2, r1
 8000d4c:	301c      	adds	r0, #28
 8000d4e:	2100      	movs	r1, #0
 8000d50:	f000 f846 	bl	8000de0 <LED1202_ReadReg>
 8000d54:	4b03      	ldr	r3, [pc, #12]	; (8000d64 <LED1202_ReadID+0x24>)
 8000d56:	6018      	str	r0, [r3, #0]
 8000d58:	7823      	ldrb	r3, [r4, #0]
 8000d5a:	2000      	movs	r0, #0
 8000d5c:	2b12      	cmp	r3, #18
 8000d5e:	d000      	beq.n	8000d62 <LED1202_ReadID+0x22>
 8000d60:	3003      	adds	r0, #3
 8000d62:	bd10      	pop	{r4, pc}
 8000d64:	20000234 	.word	0x20000234

08000d68 <LED1202_SetChannelState>:
 8000d68:	005b      	lsls	r3, r3, #1
 8000d6a:	b573      	push	{r0, r1, r4, r5, r6, lr}
 8000d6c:	7103      	strb	r3, [r0, #4]
 8000d6e:	2302      	movs	r3, #2
 8000d70:	301c      	adds	r0, #28
 8000d72:	000e      	movs	r6, r1
 8000d74:	0015      	movs	r5, r2
 8000d76:	0019      	movs	r1, r3
 8000d78:	466a      	mov	r2, sp
 8000d7a:	0004      	movs	r4, r0
 8000d7c:	f000 f830 	bl	8000de0 <LED1202_ReadReg>
 8000d80:	466b      	mov	r3, sp
 8000d82:	9001      	str	r0, [sp, #4]
 8000d84:	8819      	ldrh	r1, [r3, #0]
 8000d86:	2d00      	cmp	r5, #0
 8000d88:	d10b      	bne.n	8000da2 <LED1202_SetChannelState+0x3a>
 8000d8a:	4331      	orrs	r1, r6
 8000d8c:	8059      	strh	r1, [r3, #2]
 8000d8e:	466a      	mov	r2, sp
 8000d90:	2302      	movs	r3, #2
 8000d92:	0020      	movs	r0, r4
 8000d94:	0019      	movs	r1, r3
 8000d96:	18d2      	adds	r2, r2, r3
 8000d98:	f000 f828 	bl	8000dec <LED1202_WriteReg>
 8000d9c:	9001      	str	r0, [sp, #4]
 8000d9e:	9801      	ldr	r0, [sp, #4]
 8000da0:	bd76      	pop	{r1, r2, r4, r5, r6, pc}
 8000da2:	466b      	mov	r3, sp
 8000da4:	43b1      	bics	r1, r6
 8000da6:	e7f1      	b.n	8000d8c <LED1202_SetChannelState+0x24>

08000da8 <LED1202_WritePatternPWMConfig>:
 8000da8:	b570      	push	{r4, r5, r6, lr}
 8000daa:	000d      	movs	r5, r1
 8000dac:	0019      	movs	r1, r3
 8000dae:	ab04      	add	r3, sp, #16
 8000db0:	781b      	ldrb	r3, [r3, #0]
 8000db2:	0004      	movs	r4, r0
 8000db4:	005b      	lsls	r3, r3, #1
 8000db6:	7103      	strb	r3, [r0, #4]
 8000db8:	2380      	movs	r3, #128	; 0x80
 8000dba:	882e      	ldrh	r6, [r5, #0]
 8000dbc:	2000      	movs	r0, #0
 8000dbe:	015b      	lsls	r3, r3, #5
 8000dc0:	429e      	cmp	r6, r3
 8000dc2:	d20c      	bcs.n	8000dde <LED1202_WritePatternPWMConfig+0x36>
 8000dc4:	230c      	movs	r3, #12
 8000dc6:	0020      	movs	r0, r4
 8000dc8:	434b      	muls	r3, r1
 8000dca:	189b      	adds	r3, r3, r2
 8000dcc:	005b      	lsls	r3, r3, #1
 8000dce:	331e      	adds	r3, #30
 8000dd0:	b2db      	uxtb	r3, r3
 8000dd2:	b299      	uxth	r1, r3
 8000dd4:	002a      	movs	r2, r5
 8000dd6:	2302      	movs	r3, #2
 8000dd8:	301c      	adds	r0, #28
 8000dda:	f000 f807 	bl	8000dec <LED1202_WriteReg>
 8000dde:	bd70      	pop	{r4, r5, r6, pc}

08000de0 <LED1202_ReadReg>:
 8000de0:	b510      	push	{r4, lr}
 8000de2:	b2c9      	uxtb	r1, r1
 8000de4:	6844      	ldr	r4, [r0, #4]
 8000de6:	6880      	ldr	r0, [r0, #8]
 8000de8:	47a0      	blx	r4
 8000dea:	bd10      	pop	{r4, pc}

08000dec <LED1202_WriteReg>:
 8000dec:	b510      	push	{r4, lr}
 8000dee:	b2c9      	uxtb	r1, r1
 8000df0:	6804      	ldr	r4, [r0, #0]
 8000df2:	6880      	ldr	r0, [r0, #8]
 8000df4:	47a0      	blx	r4
 8000df6:	bd10      	pop	{r4, pc}

08000df8 <BSP_I2C_Init>:
 8000df8:	b510      	push	{r4, lr}
 8000dfa:	f7ff fd61 	bl	80008c0 <MX_I2C1_Init>
 8000dfe:	2000      	movs	r0, #0
 8000e00:	bd10      	pop	{r4, pc}
	...

08000e04 <BSP_I2C_DeInit>:
 8000e04:	b510      	push	{r4, lr}
 8000e06:	4802      	ldr	r0, [pc, #8]	; (8000e10 <BSP_I2C_DeInit+0xc>)
 8000e08:	f000 fc30 	bl	800166c <HAL_I2C_DeInit>
 8000e0c:	bd10      	pop	{r4, pc}
 8000e0e:	46c0      	nop			; (mov r8, r8)
 8000e10:	200000b4 	.word	0x200000b4

08000e14 <BSP_I2C_Write>:
 8000e14:	b51f      	push	{r0, r1, r2, r3, r4, lr}
 8000e16:	000c      	movs	r4, r1
 8000e18:	b2c1      	uxtb	r1, r0
 8000e1a:	20fa      	movs	r0, #250	; 0xfa
 8000e1c:	0080      	lsls	r0, r0, #2
 8000e1e:	9002      	str	r0, [sp, #8]
 8000e20:	9301      	str	r3, [sp, #4]
 8000e22:	9200      	str	r2, [sp, #0]
 8000e24:	2301      	movs	r3, #1
 8000e26:	0022      	movs	r2, r4
 8000e28:	4804      	ldr	r0, [pc, #16]	; (8000e3c <BSP_I2C_Write+0x28>)
 8000e2a:	f000 fc39 	bl	80016a0 <HAL_I2C_Mem_Write>
 8000e2e:	2800      	cmp	r0, #0
 8000e30:	d001      	beq.n	8000e36 <BSP_I2C_Write+0x22>
 8000e32:	2008      	movs	r0, #8
 8000e34:	4240      	negs	r0, r0
 8000e36:	b004      	add	sp, #16
 8000e38:	bd10      	pop	{r4, pc}
 8000e3a:	46c0      	nop			; (mov r8, r8)
 8000e3c:	200000b4 	.word	0x200000b4

08000e40 <BSP_I2C_Read>:
 8000e40:	b51f      	push	{r0, r1, r2, r3, r4, lr}
 8000e42:	24fa      	movs	r4, #250	; 0xfa
 8000e44:	00a4      	lsls	r4, r4, #2
 8000e46:	9301      	str	r3, [sp, #4]
 8000e48:	9200      	str	r2, [sp, #0]
 8000e4a:	2301      	movs	r3, #1
 8000e4c:	000a      	movs	r2, r1
 8000e4e:	9402      	str	r4, [sp, #8]
 8000e50:	0001      	movs	r1, r0
 8000e52:	4804      	ldr	r0, [pc, #16]	; (8000e64 <BSP_I2C_Read+0x24>)
 8000e54:	f000 fd02 	bl	800185c <HAL_I2C_Mem_Read>
 8000e58:	2800      	cmp	r0, #0
 8000e5a:	d001      	beq.n	8000e60 <BSP_I2C_Read+0x20>
 8000e5c:	2008      	movs	r0, #8
 8000e5e:	4240      	negs	r0, r0
 8000e60:	b004      	add	sp, #16
 8000e62:	bd10      	pop	{r4, pc}
 8000e64:	200000b4 	.word	0x200000b4

08000e68 <LED12A1_Init>:
 8000e68:	2300      	movs	r3, #0
 8000e6a:	b500      	push	{lr}
 8000e6c:	b089      	sub	sp, #36	; 0x24
 8000e6e:	a901      	add	r1, sp, #4
 8000e70:	9300      	str	r3, [sp, #0]
 8000e72:	9301      	str	r3, [sp, #4]
 8000e74:	335c      	adds	r3, #92	; 0x5c
 8000e76:	710b      	strb	r3, [r1, #4]
 8000e78:	4b08      	ldr	r3, [pc, #32]	; (8000e9c <LED12A1_Init+0x34>)
 8000e7a:	4809      	ldr	r0, [pc, #36]	; (8000ea0 <LED12A1_Init+0x38>)
 8000e7c:	608b      	str	r3, [r1, #8]
 8000e7e:	4b09      	ldr	r3, [pc, #36]	; (8000ea4 <LED12A1_Init+0x3c>)
 8000e80:	60cb      	str	r3, [r1, #12]
 8000e82:	4b09      	ldr	r3, [pc, #36]	; (8000ea8 <LED12A1_Init+0x40>)
 8000e84:	610b      	str	r3, [r1, #16]
 8000e86:	4b09      	ldr	r3, [pc, #36]	; (8000eac <LED12A1_Init+0x44>)
 8000e88:	614b      	str	r3, [r1, #20]
 8000e8a:	4b09      	ldr	r3, [pc, #36]	; (8000eb0 <LED12A1_Init+0x48>)
 8000e8c:	618b      	str	r3, [r1, #24]
 8000e8e:	f7ff ff35 	bl	8000cfc <LED1202_RegisterBusIO>
 8000e92:	9000      	str	r0, [sp, #0]
 8000e94:	9800      	ldr	r0, [sp, #0]
 8000e96:	b009      	add	sp, #36	; 0x24
 8000e98:	bd00      	pop	{pc}
 8000e9a:	46c0      	nop			; (mov r8, r8)
 8000e9c:	08000df9 	.word	0x08000df9
 8000ea0:	20000238 	.word	0x20000238
 8000ea4:	08000e05 	.word	0x08000e05
 8000ea8:	08000e15 	.word	0x08000e15
 8000eac:	08000e41 	.word	0x08000e41
 8000eb0:	08001059 	.word	0x08001059

08000eb4 <ReadRegWrap>:
 8000eb4:	b510      	push	{r4, lr}
 8000eb6:	0004      	movs	r4, r0
 8000eb8:	6964      	ldr	r4, [r4, #20]
 8000eba:	7900      	ldrb	r0, [r0, #4]
 8000ebc:	47a0      	blx	r4
 8000ebe:	bd10      	pop	{r4, pc}

08000ec0 <WriteRegWrap>:
 8000ec0:	b510      	push	{r4, lr}
 8000ec2:	0004      	movs	r4, r0
 8000ec4:	6924      	ldr	r4, [r4, #16]
 8000ec6:	7900      	ldrb	r0, [r0, #4]
 8000ec8:	47a0      	blx	r4
 8000eca:	bd10      	pop	{r4, pc}

08000ecc <LED12A1_DeviceEnable>:
 8000ecc:	2300      	movs	r3, #0
 8000ece:	b507      	push	{r0, r1, r2, lr}
 8000ed0:	9301      	str	r3, [sp, #4]
 8000ed2:	466b      	mov	r3, sp
 8000ed4:	1cda      	adds	r2, r3, #3
 8000ed6:	2301      	movs	r3, #1
 8000ed8:	7013      	strb	r3, [r2, #0]
 8000eda:	335b      	adds	r3, #91	; 0x5b
 8000edc:	2904      	cmp	r1, #4
 8000ede:	d801      	bhi.n	8000ee4 <LED12A1_DeviceEnable+0x18>
 8000ee0:	3158      	adds	r1, #88	; 0x58
 8000ee2:	b2cb      	uxtb	r3, r1
 8000ee4:	005b      	lsls	r3, r3, #1
 8000ee6:	7103      	strb	r3, [r0, #4]
 8000ee8:	2301      	movs	r3, #1
 8000eea:	0019      	movs	r1, r3
 8000eec:	301c      	adds	r0, #28
 8000eee:	f7ff ff7d 	bl	8000dec <LED1202_WriteReg>
 8000ef2:	9001      	str	r0, [sp, #4]
 8000ef4:	9801      	ldr	r0, [sp, #4]
 8000ef6:	bd0e      	pop	{r1, r2, r3, pc}

08000ef8 <LED12A1_SetDeviceAddr>:
 8000ef8:	2300      	movs	r3, #0
 8000efa:	b082      	sub	sp, #8
 8000efc:	9301      	str	r3, [sp, #4]
 8000efe:	335c      	adds	r3, #92	; 0x5c
 8000f00:	2904      	cmp	r1, #4
 8000f02:	d801      	bhi.n	8000f08 <LED12A1_SetDeviceAddr+0x10>
 8000f04:	3158      	adds	r1, #88	; 0x58
 8000f06:	b2cb      	uxtb	r3, r1
 8000f08:	7103      	strb	r3, [r0, #4]
 8000f0a:	9801      	ldr	r0, [sp, #4]
 8000f0c:	b002      	add	sp, #8
 8000f0e:	4770      	bx	lr

08000f10 <LED12A1_ScanAvailDevice>:
 8000f10:	b5f7      	push	{r0, r1, r2, r4, r5, r6, r7, lr}
 8000f12:	0007      	movs	r7, r0
 8000f14:	000d      	movs	r5, r1
 8000f16:	2600      	movs	r6, #0
 8000f18:	2458      	movs	r4, #88	; 0x58
 8000f1a:	466b      	mov	r3, sp
 8000f1c:	1dd9      	adds	r1, r3, #7
 8000f1e:	2300      	movs	r3, #0
 8000f20:	0022      	movs	r2, r4
 8000f22:	0038      	movs	r0, r7
 8000f24:	700b      	strb	r3, [r1, #0]
 8000f26:	f7ff ff0b 	bl	8000d40 <LED1202_ReadID>
 8000f2a:	2800      	cmp	r0, #0
 8000f2c:	d102      	bne.n	8000f34 <LED12A1_ScanAvailDevice+0x24>
 8000f2e:	702c      	strb	r4, [r5, #0]
 8000f30:	3601      	adds	r6, #1
 8000f32:	3501      	adds	r5, #1
 8000f34:	3401      	adds	r4, #1
 8000f36:	b2e4      	uxtb	r4, r4
 8000f38:	2c61      	cmp	r4, #97	; 0x61
 8000f3a:	d1ee      	bne.n	8000f1a <LED12A1_ScanAvailDevice+0xa>
 8000f3c:	0030      	movs	r0, r6
 8000f3e:	bdfe      	pop	{r1, r2, r3, r4, r5, r6, r7, pc}

08000f40 <LED12A1_DigitalDimming>:
 8000f40:	b5f0      	push	{r4, r5, r6, r7, lr}
 8000f42:	b085      	sub	sp, #20
 8000f44:	001f      	movs	r7, r3
 8000f46:	ab0a      	add	r3, sp, #40	; 0x28
 8000f48:	000d      	movs	r5, r1
 8000f4a:	7819      	ldrb	r1, [r3, #0]
 8000f4c:	2300      	movs	r3, #0
 8000f4e:	0004      	movs	r4, r0
 8000f50:	0016      	movs	r6, r2
 8000f52:	9303      	str	r3, [sp, #12]
 8000f54:	f7ff ffd0 	bl	8000ef8 <LED12A1_SetDeviceAddr>
 8000f58:	7923      	ldrb	r3, [r4, #4]
 8000f5a:	9003      	str	r0, [sp, #12]
 8000f5c:	9300      	str	r3, [sp, #0]
 8000f5e:	0032      	movs	r2, r6
 8000f60:	003b      	movs	r3, r7
 8000f62:	0029      	movs	r1, r5
 8000f64:	0020      	movs	r0, r4
 8000f66:	f7ff ff1f 	bl	8000da8 <LED1202_WritePatternPWMConfig>
 8000f6a:	9003      	str	r0, [sp, #12]
 8000f6c:	9803      	ldr	r0, [sp, #12]
 8000f6e:	b005      	add	sp, #20
 8000f70:	bdf0      	pop	{r4, r5, r6, r7, pc}

08000f72 <LED12A1_ChannelEnable>:
 8000f72:	b573      	push	{r0, r1, r4, r5, r6, lr}
 8000f74:	2600      	movs	r6, #0
 8000f76:	000d      	movs	r5, r1
 8000f78:	0011      	movs	r1, r2
 8000f7a:	0004      	movs	r4, r0
 8000f7c:	9601      	str	r6, [sp, #4]
 8000f7e:	f7ff ffbb 	bl	8000ef8 <LED12A1_SetDeviceAddr>
 8000f82:	0032      	movs	r2, r6
 8000f84:	0029      	movs	r1, r5
 8000f86:	9001      	str	r0, [sp, #4]
 8000f88:	7923      	ldrb	r3, [r4, #4]
 8000f8a:	0020      	movs	r0, r4
 8000f8c:	f7ff feec 	bl	8000d68 <LED1202_SetChannelState>
 8000f90:	9001      	str	r0, [sp, #4]
 8000f92:	9801      	ldr	r0, [sp, #4]
 8000f94:	bd76      	pop	{r1, r2, r4, r5, r6, pc}

08000f96 <LED12A1_ChannelDisable>:
 8000f96:	2300      	movs	r3, #0
 8000f98:	b537      	push	{r0, r1, r2, r4, r5, lr}
 8000f9a:	000d      	movs	r5, r1
 8000f9c:	0011      	movs	r1, r2
 8000f9e:	0004      	movs	r4, r0
 8000fa0:	9301      	str	r3, [sp, #4]
 8000fa2:	f7ff ffa9 	bl	8000ef8 <LED12A1_SetDeviceAddr>
 8000fa6:	0029      	movs	r1, r5
 8000fa8:	9001      	str	r0, [sp, #4]
 8000faa:	2201      	movs	r2, #1
 8000fac:	0020      	movs	r0, r4
 8000fae:	7923      	ldrb	r3, [r4, #4]
 8000fb0:	f7ff feda 	bl	8000d68 <LED1202_SetChannelState>
 8000fb4:	9001      	str	r0, [sp, #4]
 8000fb6:	9801      	ldr	r0, [sp, #4]
 8000fb8:	bd3e      	pop	{r1, r2, r3, r4, r5, pc}
	...

08000fbc <HAL_InitTick>:
 8000fbc:	b570      	push	{r4, r5, r6, lr}
 8000fbe:	4b10      	ldr	r3, [pc, #64]	; (8001000 <HAL_InitTick+0x44>)
 8000fc0:	0005      	movs	r5, r0
 8000fc2:	7819      	ldrb	r1, [r3, #0]
 8000fc4:	2900      	cmp	r1, #0
 8000fc6:	d101      	bne.n	8000fcc <HAL_InitTick+0x10>
 8000fc8:	2001      	movs	r0, #1
 8000fca:	bd70      	pop	{r4, r5, r6, pc}
 8000fcc:	20fa      	movs	r0, #250	; 0xfa
 8000fce:	0080      	lsls	r0, r0, #2
 8000fd0:	f7ff f8ac 	bl	800012c <__udivsi3>
 8000fd4:	4b0b      	ldr	r3, [pc, #44]	; (8001004 <HAL_InitTick+0x48>)
 8000fd6:	0001      	movs	r1, r0
 8000fd8:	6818      	ldr	r0, [r3, #0]
 8000fda:	f7ff f8a7 	bl	800012c <__udivsi3>
 8000fde:	f000 f877 	bl	80010d0 <HAL_SYSTICK_Config>
 8000fe2:	1e04      	subs	r4, r0, #0
 8000fe4:	d1f0      	bne.n	8000fc8 <HAL_InitTick+0xc>
 8000fe6:	2d03      	cmp	r5, #3
 8000fe8:	d8ee      	bhi.n	8000fc8 <HAL_InitTick+0xc>
 8000fea:	0002      	movs	r2, r0
 8000fec:	2001      	movs	r0, #1
 8000fee:	0029      	movs	r1, r5
 8000ff0:	4240      	negs	r0, r0
 8000ff2:	f000 f843 	bl	800107c <HAL_NVIC_SetPriority>
 8000ff6:	4b04      	ldr	r3, [pc, #16]	; (8001008 <HAL_InitTick+0x4c>)
 8000ff8:	0020      	movs	r0, r4
 8000ffa:	601d      	str	r5, [r3, #0]
 8000ffc:	e7e5      	b.n	8000fca <HAL_InitTick+0xe>
 8000ffe:	46c0      	nop			; (mov r8, r8)
 8001000:	20000004 	.word	0x20000004
 8001004:	20000000 	.word	0x20000000
 8001008:	20000008 	.word	0x20000008

0800100c <HAL_Init>:
 800100c:	2380      	movs	r3, #128	; 0x80
 800100e:	4a08      	ldr	r2, [pc, #32]	; (8001030 <HAL_Init+0x24>)
 8001010:	005b      	lsls	r3, r3, #1
 8001012:	6811      	ldr	r1, [r2, #0]
 8001014:	b510      	push	{r4, lr}
 8001016:	430b      	orrs	r3, r1
 8001018:	2000      	movs	r0, #0
 800101a:	6013      	str	r3, [r2, #0]
 800101c:	f7ff ffce 	bl	8000fbc <HAL_InitTick>
 8001020:	1e04      	subs	r4, r0, #0
 8001022:	d103      	bne.n	800102c <HAL_Init+0x20>
 8001024:	f7ff fd5c 	bl	8000ae0 <HAL_MspInit>
 8001028:	0020      	movs	r0, r4
 800102a:	bd10      	pop	{r4, pc}
 800102c:	2401      	movs	r4, #1
 800102e:	e7fb      	b.n	8001028 <HAL_Init+0x1c>
 8001030:	40022000 	.word	0x40022000

08001034 <HAL_IncTick>:
 8001034:	4a03      	ldr	r2, [pc, #12]	; (8001044 <HAL_IncTick+0x10>)
 8001036:	4b04      	ldr	r3, [pc, #16]	; (8001048 <HAL_IncTick+0x14>)
 8001038:	6811      	ldr	r1, [r2, #0]
 800103a:	781b      	ldrb	r3, [r3, #0]
 800103c:	185b      	adds	r3, r3, r1
 800103e:	6013      	str	r3, [r2, #0]
 8001040:	4770      	bx	lr
 8001042:	46c0      	nop			; (mov r8, r8)
 8001044:	20000264 	.word	0x20000264
 8001048:	20000004 	.word	0x20000004

0800104c <HAL_GetTick>:
 800104c:	4b01      	ldr	r3, [pc, #4]	; (8001054 <HAL_GetTick+0x8>)
 800104e:	6818      	ldr	r0, [r3, #0]
 8001050:	4770      	bx	lr
 8001052:	46c0      	nop			; (mov r8, r8)
 8001054:	20000264 	.word	0x20000264

08001058 <HAL_Delay>:
 8001058:	b570      	push	{r4, r5, r6, lr}
 800105a:	0004      	movs	r4, r0
 800105c:	f7ff fff6 	bl	800104c <HAL_GetTick>
 8001060:	0005      	movs	r5, r0
 8001062:	1c63      	adds	r3, r4, #1
 8001064:	d002      	beq.n	800106c <HAL_Delay+0x14>
 8001066:	4b04      	ldr	r3, [pc, #16]	; (8001078 <HAL_Delay+0x20>)
 8001068:	781b      	ldrb	r3, [r3, #0]
 800106a:	18e4      	adds	r4, r4, r3
 800106c:	f7ff ffee 	bl	800104c <HAL_GetTick>
 8001070:	1b40      	subs	r0, r0, r5
 8001072:	42a0      	cmp	r0, r4
 8001074:	d3fa      	bcc.n	800106c <HAL_Delay+0x14>
 8001076:	bd70      	pop	{r4, r5, r6, pc}
 8001078:	20000004 	.word	0x20000004

0800107c <HAL_NVIC_SetPriority>:
 800107c:	b530      	push	{r4, r5, lr}
 800107e:	25ff      	movs	r5, #255	; 0xff
 8001080:	2403      	movs	r4, #3
 8001082:	002a      	movs	r2, r5
 8001084:	4004      	ands	r4, r0
 8001086:	00e4      	lsls	r4, r4, #3
 8001088:	40a2      	lsls	r2, r4
 800108a:	0189      	lsls	r1, r1, #6
 800108c:	4029      	ands	r1, r5
 800108e:	43d2      	mvns	r2, r2
 8001090:	40a1      	lsls	r1, r4
 8001092:	b2c3      	uxtb	r3, r0
 8001094:	2800      	cmp	r0, #0
 8001096:	db0a      	blt.n	80010ae <HAL_NVIC_SetPriority+0x32>
 8001098:	24c0      	movs	r4, #192	; 0xc0
 800109a:	4b0b      	ldr	r3, [pc, #44]	; (80010c8 <HAL_NVIC_SetPriority+0x4c>)
 800109c:	0880      	lsrs	r0, r0, #2
 800109e:	0080      	lsls	r0, r0, #2
 80010a0:	18c0      	adds	r0, r0, r3
 80010a2:	00a4      	lsls	r4, r4, #2
 80010a4:	5903      	ldr	r3, [r0, r4]
 80010a6:	401a      	ands	r2, r3
 80010a8:	4311      	orrs	r1, r2
 80010aa:	5101      	str	r1, [r0, r4]
 80010ac:	bd30      	pop	{r4, r5, pc}
 80010ae:	200f      	movs	r0, #15
 80010b0:	4003      	ands	r3, r0
 80010b2:	3b08      	subs	r3, #8
 80010b4:	4805      	ldr	r0, [pc, #20]	; (80010cc <HAL_NVIC_SetPriority+0x50>)
 80010b6:	089b      	lsrs	r3, r3, #2
 80010b8:	009b      	lsls	r3, r3, #2
 80010ba:	181b      	adds	r3, r3, r0
 80010bc:	69d8      	ldr	r0, [r3, #28]
 80010be:	4002      	ands	r2, r0
 80010c0:	4311      	orrs	r1, r2
 80010c2:	61d9      	str	r1, [r3, #28]
 80010c4:	e7f2      	b.n	80010ac <HAL_NVIC_SetPriority+0x30>
 80010c6:	46c0      	nop			; (mov r8, r8)
 80010c8:	e000e100 	.word	0xe000e100
 80010cc:	e000ed00 	.word	0xe000ed00

080010d0 <HAL_SYSTICK_Config>:
 80010d0:	2280      	movs	r2, #128	; 0x80
 80010d2:	1e43      	subs	r3, r0, #1
 80010d4:	0452      	lsls	r2, r2, #17
 80010d6:	2001      	movs	r0, #1
 80010d8:	4293      	cmp	r3, r2
 80010da:	d20d      	bcs.n	80010f8 <HAL_SYSTICK_Config+0x28>
 80010dc:	21c0      	movs	r1, #192	; 0xc0
 80010de:	4a07      	ldr	r2, [pc, #28]	; (80010fc <HAL_SYSTICK_Config+0x2c>)
 80010e0:	4807      	ldr	r0, [pc, #28]	; (8001100 <HAL_SYSTICK_Config+0x30>)
 80010e2:	6053      	str	r3, [r2, #4]
 80010e4:	6a03      	ldr	r3, [r0, #32]
 80010e6:	0609      	lsls	r1, r1, #24
 80010e8:	021b      	lsls	r3, r3, #8
 80010ea:	0a1b      	lsrs	r3, r3, #8
 80010ec:	430b      	orrs	r3, r1
 80010ee:	6203      	str	r3, [r0, #32]
 80010f0:	2000      	movs	r0, #0
 80010f2:	2307      	movs	r3, #7
 80010f4:	6090      	str	r0, [r2, #8]
 80010f6:	6013      	str	r3, [r2, #0]
 80010f8:	4770      	bx	lr
 80010fa:	46c0      	nop			; (mov r8, r8)
 80010fc:	e000e010 	.word	0xe000e010
 8001100:	e000ed00 	.word	0xe000ed00

08001104 <HAL_GPIO_Init>:
 8001104:	4a54      	ldr	r2, [pc, #336]	; (8001258 <HAL_GPIO_Init+0x154>)
 8001106:	b5f0      	push	{r4, r5, r6, r7, lr}
 8001108:	1882      	adds	r2, r0, r2
 800110a:	1e54      	subs	r4, r2, #1
 800110c:	41a2      	sbcs	r2, r4
 800110e:	2300      	movs	r3, #0
 8001110:	b087      	sub	sp, #28
 8001112:	3204      	adds	r2, #4
 8001114:	9205      	str	r2, [sp, #20]
 8001116:	680a      	ldr	r2, [r1, #0]
 8001118:	0014      	movs	r4, r2
 800111a:	40dc      	lsrs	r4, r3
 800111c:	d101      	bne.n	8001122 <HAL_GPIO_Init+0x1e>
 800111e:	b007      	add	sp, #28
 8001120:	bdf0      	pop	{r4, r5, r6, r7, pc}
 8001122:	2401      	movs	r4, #1
 8001124:	0025      	movs	r5, r4
 8001126:	46a4      	mov	ip, r4
 8001128:	409d      	lsls	r5, r3
 800112a:	0014      	movs	r4, r2
 800112c:	402c      	ands	r4, r5
 800112e:	9402      	str	r4, [sp, #8]
 8001130:	422a      	tst	r2, r5
 8001132:	d100      	bne.n	8001136 <HAL_GPIO_Init+0x32>
 8001134:	e08e      	b.n	8001254 <HAL_GPIO_Init+0x150>
 8001136:	2403      	movs	r4, #3
 8001138:	684a      	ldr	r2, [r1, #4]
 800113a:	005e      	lsls	r6, r3, #1
 800113c:	9201      	str	r2, [sp, #4]
 800113e:	4022      	ands	r2, r4
 8001140:	40b4      	lsls	r4, r6
 8001142:	43e4      	mvns	r4, r4
 8001144:	9403      	str	r4, [sp, #12]
 8001146:	1e54      	subs	r4, r2, #1
 8001148:	4564      	cmp	r4, ip
 800114a:	d82a      	bhi.n	80011a2 <HAL_GPIO_Init+0x9e>
 800114c:	6887      	ldr	r7, [r0, #8]
 800114e:	9c03      	ldr	r4, [sp, #12]
 8001150:	4027      	ands	r7, r4
 8001152:	68cc      	ldr	r4, [r1, #12]
 8001154:	40b4      	lsls	r4, r6
 8001156:	433c      	orrs	r4, r7
 8001158:	4667      	mov	r7, ip
 800115a:	6084      	str	r4, [r0, #8]
 800115c:	6844      	ldr	r4, [r0, #4]
 800115e:	43ac      	bics	r4, r5
 8001160:	0025      	movs	r5, r4
 8001162:	9c01      	ldr	r4, [sp, #4]
 8001164:	0924      	lsrs	r4, r4, #4
 8001166:	403c      	ands	r4, r7
 8001168:	409c      	lsls	r4, r3
 800116a:	432c      	orrs	r4, r5
 800116c:	6044      	str	r4, [r0, #4]
 800116e:	68c5      	ldr	r5, [r0, #12]
 8001170:	9c03      	ldr	r4, [sp, #12]
 8001172:	4025      	ands	r5, r4
 8001174:	688c      	ldr	r4, [r1, #8]
 8001176:	40b4      	lsls	r4, r6
 8001178:	432c      	orrs	r4, r5
 800117a:	60c4      	str	r4, [r0, #12]
 800117c:	2a02      	cmp	r2, #2
 800117e:	d112      	bne.n	80011a6 <HAL_GPIO_Init+0xa2>
 8001180:	08dc      	lsrs	r4, r3, #3
 8001182:	2507      	movs	r5, #7
 8001184:	00a4      	lsls	r4, r4, #2
 8001186:	1904      	adds	r4, r0, r4
 8001188:	6a27      	ldr	r7, [r4, #32]
 800118a:	9404      	str	r4, [sp, #16]
 800118c:	240f      	movs	r4, #15
 800118e:	401d      	ands	r5, r3
 8001190:	00ad      	lsls	r5, r5, #2
 8001192:	40ac      	lsls	r4, r5
 8001194:	43a7      	bics	r7, r4
 8001196:	690c      	ldr	r4, [r1, #16]
 8001198:	40ac      	lsls	r4, r5
 800119a:	4327      	orrs	r7, r4
 800119c:	9c04      	ldr	r4, [sp, #16]
 800119e:	6227      	str	r7, [r4, #32]
 80011a0:	e001      	b.n	80011a6 <HAL_GPIO_Init+0xa2>
 80011a2:	2a03      	cmp	r2, #3
 80011a4:	d1e3      	bne.n	800116e <HAL_GPIO_Init+0x6a>
 80011a6:	40b2      	lsls	r2, r6
 80011a8:	6804      	ldr	r4, [r0, #0]
 80011aa:	9d03      	ldr	r5, [sp, #12]
 80011ac:	4025      	ands	r5, r4
 80011ae:	432a      	orrs	r2, r5
 80011b0:	6002      	str	r2, [r0, #0]
 80011b2:	22c0      	movs	r2, #192	; 0xc0
 80011b4:	9c01      	ldr	r4, [sp, #4]
 80011b6:	0292      	lsls	r2, r2, #10
 80011b8:	4214      	tst	r4, r2
 80011ba:	d04b      	beq.n	8001254 <HAL_GPIO_Init+0x150>
 80011bc:	2603      	movs	r6, #3
 80011be:	001d      	movs	r5, r3
 80011c0:	4a26      	ldr	r2, [pc, #152]	; (800125c <HAL_GPIO_Init+0x158>)
 80011c2:	089c      	lsrs	r4, r3, #2
 80011c4:	00a4      	lsls	r4, r4, #2
 80011c6:	4035      	ands	r5, r6
 80011c8:	18a4      	adds	r4, r4, r2
 80011ca:	40b5      	lsls	r5, r6
 80011cc:	220f      	movs	r2, #15
 80011ce:	40aa      	lsls	r2, r5
 80011d0:	6e27      	ldr	r7, [r4, #96]	; 0x60
 80011d2:	4397      	bics	r7, r2
 80011d4:	46bc      	mov	ip, r7
 80011d6:	27a0      	movs	r7, #160	; 0xa0
 80011d8:	2200      	movs	r2, #0
 80011da:	05ff      	lsls	r7, r7, #23
 80011dc:	42b8      	cmp	r0, r7
 80011de:	d00c      	beq.n	80011fa <HAL_GPIO_Init+0xf6>
 80011e0:	4f1f      	ldr	r7, [pc, #124]	; (8001260 <HAL_GPIO_Init+0x15c>)
 80011e2:	3201      	adds	r2, #1
 80011e4:	42b8      	cmp	r0, r7
 80011e6:	d008      	beq.n	80011fa <HAL_GPIO_Init+0xf6>
 80011e8:	4f1e      	ldr	r7, [pc, #120]	; (8001264 <HAL_GPIO_Init+0x160>)
 80011ea:	3201      	adds	r2, #1
 80011ec:	42b8      	cmp	r0, r7
 80011ee:	d004      	beq.n	80011fa <HAL_GPIO_Init+0xf6>
 80011f0:	4f1d      	ldr	r7, [pc, #116]	; (8001268 <HAL_GPIO_Init+0x164>)
 80011f2:	0032      	movs	r2, r6
 80011f4:	42b8      	cmp	r0, r7
 80011f6:	d000      	beq.n	80011fa <HAL_GPIO_Init+0xf6>
 80011f8:	9a05      	ldr	r2, [sp, #20]
 80011fa:	40aa      	lsls	r2, r5
 80011fc:	4665      	mov	r5, ip
 80011fe:	432a      	orrs	r2, r5
 8001200:	6622      	str	r2, [r4, #96]	; 0x60
 8001202:	4c16      	ldr	r4, [pc, #88]	; (800125c <HAL_GPIO_Init+0x158>)
 8001204:	9a02      	ldr	r2, [sp, #8]
 8001206:	6826      	ldr	r6, [r4, #0]
 8001208:	9d02      	ldr	r5, [sp, #8]
 800120a:	9f01      	ldr	r7, [sp, #4]
 800120c:	43d2      	mvns	r2, r2
 800120e:	4335      	orrs	r5, r6
 8001210:	02ff      	lsls	r7, r7, #11
 8001212:	d401      	bmi.n	8001218 <HAL_GPIO_Init+0x114>
 8001214:	0035      	movs	r5, r6
 8001216:	4015      	ands	r5, r2
 8001218:	6025      	str	r5, [r4, #0]
 800121a:	6866      	ldr	r6, [r4, #4]
 800121c:	9d02      	ldr	r5, [sp, #8]
 800121e:	9f01      	ldr	r7, [sp, #4]
 8001220:	4335      	orrs	r5, r6
 8001222:	02bf      	lsls	r7, r7, #10
 8001224:	d401      	bmi.n	800122a <HAL_GPIO_Init+0x126>
 8001226:	0035      	movs	r5, r6
 8001228:	4015      	ands	r5, r2
 800122a:	6065      	str	r5, [r4, #4]
 800122c:	4c0f      	ldr	r4, [pc, #60]	; (800126c <HAL_GPIO_Init+0x168>)
 800122e:	9d02      	ldr	r5, [sp, #8]
 8001230:	6fe6      	ldr	r6, [r4, #124]	; 0x7c
 8001232:	9f01      	ldr	r7, [sp, #4]
 8001234:	4335      	orrs	r5, r6
 8001236:	03bf      	lsls	r7, r7, #14
 8001238:	d401      	bmi.n	800123e <HAL_GPIO_Init+0x13a>
 800123a:	0035      	movs	r5, r6
 800123c:	4015      	ands	r5, r2
 800123e:	67e5      	str	r5, [r4, #124]	; 0x7c
 8001240:	4c0b      	ldr	r4, [pc, #44]	; (8001270 <HAL_GPIO_Init+0x16c>)
 8001242:	9e02      	ldr	r6, [sp, #8]
 8001244:	6fe5      	ldr	r5, [r4, #124]	; 0x7c
 8001246:	9f01      	ldr	r7, [sp, #4]
 8001248:	432e      	orrs	r6, r5
 800124a:	03ff      	lsls	r7, r7, #15
 800124c:	d401      	bmi.n	8001252 <HAL_GPIO_Init+0x14e>
 800124e:	4015      	ands	r5, r2
 8001250:	002e      	movs	r6, r5
 8001252:	67e6      	str	r6, [r4, #124]	; 0x7c
 8001254:	3301      	adds	r3, #1
 8001256:	e75e      	b.n	8001116 <HAL_GPIO_Init+0x12>
 8001258:	affff000 	.word	0xaffff000
 800125c:	40021800 	.word	0x40021800
 8001260:	50000400 	.word	0x50000400
 8001264:	50000800 	.word	0x50000800
 8001268:	50000c00 	.word	0x50000c00
 800126c:	40021808 	.word	0x40021808
 8001270:	40021804 	.word	0x40021804

08001274 <HAL_GPIO_DeInit>:
 8001274:	b5f0      	push	{r4, r5, r6, r7, lr}
 8001276:	4a37      	ldr	r2, [pc, #220]	; (8001354 <HAL_GPIO_DeInit+0xe0>)
 8001278:	b085      	sub	sp, #20
 800127a:	1882      	adds	r2, r0, r2
 800127c:	9101      	str	r1, [sp, #4]
 800127e:	1e51      	subs	r1, r2, #1
 8001280:	418a      	sbcs	r2, r1
 8001282:	2300      	movs	r3, #0
 8001284:	3204      	adds	r2, #4
 8001286:	9203      	str	r2, [sp, #12]
 8001288:	9a01      	ldr	r2, [sp, #4]
 800128a:	40da      	lsrs	r2, r3
 800128c:	d101      	bne.n	8001292 <HAL_GPIO_DeInit+0x1e>
 800128e:	b005      	add	sp, #20
 8001290:	bdf0      	pop	{r4, r5, r6, r7, pc}
 8001292:	2701      	movs	r7, #1
 8001294:	003a      	movs	r2, r7
 8001296:	409a      	lsls	r2, r3
 8001298:	9c01      	ldr	r4, [sp, #4]
 800129a:	9200      	str	r2, [sp, #0]
 800129c:	4014      	ands	r4, r2
 800129e:	9900      	ldr	r1, [sp, #0]
 80012a0:	9a01      	ldr	r2, [sp, #4]
 80012a2:	420a      	tst	r2, r1
 80012a4:	d053      	beq.n	800134e <HAL_GPIO_DeInit+0xda>
 80012a6:	492c      	ldr	r1, [pc, #176]	; (8001358 <HAL_GPIO_DeInit+0xe4>)
 80012a8:	089a      	lsrs	r2, r3, #2
 80012aa:	0092      	lsls	r2, r2, #2
 80012ac:	1852      	adds	r2, r2, r1
 80012ae:	6e11      	ldr	r1, [r2, #96]	; 0x60
 80012b0:	001d      	movs	r5, r3
 80012b2:	000e      	movs	r6, r1
 80012b4:	2103      	movs	r1, #3
 80012b6:	400d      	ands	r5, r1
 80012b8:	408d      	lsls	r5, r1
 80012ba:	310c      	adds	r1, #12
 80012bc:	40a9      	lsls	r1, r5
 80012be:	9102      	str	r1, [sp, #8]
 80012c0:	4031      	ands	r1, r6
 80012c2:	000e      	movs	r6, r1
 80012c4:	21a0      	movs	r1, #160	; 0xa0
 80012c6:	05c9      	lsls	r1, r1, #23
 80012c8:	468c      	mov	ip, r1
 80012ca:	2100      	movs	r1, #0
 80012cc:	4560      	cmp	r0, ip
 80012ce:	d00d      	beq.n	80012ec <HAL_GPIO_DeInit+0x78>
 80012d0:	4922      	ldr	r1, [pc, #136]	; (800135c <HAL_GPIO_DeInit+0xe8>)
 80012d2:	468c      	mov	ip, r1
 80012d4:	0039      	movs	r1, r7
 80012d6:	4560      	cmp	r0, ip
 80012d8:	d008      	beq.n	80012ec <HAL_GPIO_DeInit+0x78>
 80012da:	4f21      	ldr	r7, [pc, #132]	; (8001360 <HAL_GPIO_DeInit+0xec>)
 80012dc:	1849      	adds	r1, r1, r1
 80012de:	42b8      	cmp	r0, r7
 80012e0:	d004      	beq.n	80012ec <HAL_GPIO_DeInit+0x78>
 80012e2:	4f20      	ldr	r7, [pc, #128]	; (8001364 <HAL_GPIO_DeInit+0xf0>)
 80012e4:	3101      	adds	r1, #1
 80012e6:	42b8      	cmp	r0, r7
 80012e8:	d000      	beq.n	80012ec <HAL_GPIO_DeInit+0x78>
 80012ea:	9903      	ldr	r1, [sp, #12]
 80012ec:	40a9      	lsls	r1, r5
 80012ee:	42b1      	cmp	r1, r6
 80012f0:	d112      	bne.n	8001318 <HAL_GPIO_DeInit+0xa4>
 80012f2:	4e1d      	ldr	r6, [pc, #116]	; (8001368 <HAL_GPIO_DeInit+0xf4>)
 80012f4:	4918      	ldr	r1, [pc, #96]	; (8001358 <HAL_GPIO_DeInit+0xe4>)
 80012f6:	6ff5      	ldr	r5, [r6, #124]	; 0x7c
 80012f8:	43a5      	bics	r5, r4
 80012fa:	67f5      	str	r5, [r6, #124]	; 0x7c
 80012fc:	4e1b      	ldr	r6, [pc, #108]	; (800136c <HAL_GPIO_DeInit+0xf8>)
 80012fe:	6ff5      	ldr	r5, [r6, #124]	; 0x7c
 8001300:	43a5      	bics	r5, r4
 8001302:	67f5      	str	r5, [r6, #124]	; 0x7c
 8001304:	684d      	ldr	r5, [r1, #4]
 8001306:	43a5      	bics	r5, r4
 8001308:	604d      	str	r5, [r1, #4]
 800130a:	680d      	ldr	r5, [r1, #0]
 800130c:	43a5      	bics	r5, r4
 800130e:	600d      	str	r5, [r1, #0]
 8001310:	6e11      	ldr	r1, [r2, #96]	; 0x60
 8001312:	9c02      	ldr	r4, [sp, #8]
 8001314:	43a1      	bics	r1, r4
 8001316:	6611      	str	r1, [r2, #96]	; 0x60
 8001318:	2103      	movs	r1, #3
 800131a:	005c      	lsls	r4, r3, #1
 800131c:	40a1      	lsls	r1, r4
 800131e:	2407      	movs	r4, #7
 8001320:	260f      	movs	r6, #15
 8001322:	401c      	ands	r4, r3
 8001324:	00a4      	lsls	r4, r4, #2
 8001326:	40a6      	lsls	r6, r4
 8001328:	6802      	ldr	r2, [r0, #0]
 800132a:	9c00      	ldr	r4, [sp, #0]
 800132c:	430a      	orrs	r2, r1
 800132e:	6002      	str	r2, [r0, #0]
 8001330:	08da      	lsrs	r2, r3, #3
 8001332:	0092      	lsls	r2, r2, #2
 8001334:	1882      	adds	r2, r0, r2
 8001336:	6a15      	ldr	r5, [r2, #32]
 8001338:	43b5      	bics	r5, r6
 800133a:	6215      	str	r5, [r2, #32]
 800133c:	6882      	ldr	r2, [r0, #8]
 800133e:	438a      	bics	r2, r1
 8001340:	6082      	str	r2, [r0, #8]
 8001342:	6842      	ldr	r2, [r0, #4]
 8001344:	43a2      	bics	r2, r4
 8001346:	6042      	str	r2, [r0, #4]
 8001348:	68c2      	ldr	r2, [r0, #12]
 800134a:	438a      	bics	r2, r1
 800134c:	60c2      	str	r2, [r0, #12]
 800134e:	3301      	adds	r3, #1
 8001350:	e79a      	b.n	8001288 <HAL_GPIO_DeInit+0x14>
 8001352:	46c0      	nop			; (mov r8, r8)
 8001354:	affff000 	.word	0xaffff000
 8001358:	40021800 	.word	0x40021800
 800135c:	50000400 	.word	0x50000400
 8001360:	50000800 	.word	0x50000800
 8001364:	50000c00 	.word	0x50000c00
 8001368:	40021804 	.word	0x40021804
 800136c:	40021808 	.word	0x40021808

08001370 <HAL_GPIO_WritePin>:
 8001370:	2a00      	cmp	r2, #0
 8001372:	d001      	beq.n	8001378 <HAL_GPIO_WritePin+0x8>
 8001374:	6181      	str	r1, [r0, #24]
 8001376:	4770      	bx	lr
 8001378:	6281      	str	r1, [r0, #40]	; 0x28
 800137a:	e7fc      	b.n	8001376 <HAL_GPIO_WritePin+0x6>

0800137c <I2C_Flush_TXDR>:
 800137c:	6803      	ldr	r3, [r0, #0]
 800137e:	699a      	ldr	r2, [r3, #24]
 8001380:	0792      	lsls	r2, r2, #30
 8001382:	d501      	bpl.n	8001388 <I2C_Flush_TXDR+0xc>
 8001384:	2200      	movs	r2, #0
 8001386:	629a      	str	r2, [r3, #40]	; 0x28
 8001388:	2201      	movs	r2, #1
 800138a:	6999      	ldr	r1, [r3, #24]
 800138c:	4211      	tst	r1, r2
 800138e:	d102      	bne.n	8001396 <I2C_Flush_TXDR+0x1a>
 8001390:	6999      	ldr	r1, [r3, #24]
 8001392:	430a      	orrs	r2, r1
 8001394:	619a      	str	r2, [r3, #24]
 8001396:	4770      	bx	lr

08001398 <I2C_TransferConfig>:
 8001398:	b530      	push	{r4, r5, lr}
 800139a:	9c03      	ldr	r4, [sp, #12]
 800139c:	6800      	ldr	r0, [r0, #0]
 800139e:	4323      	orrs	r3, r4
 80013a0:	0412      	lsls	r2, r2, #16
 80013a2:	0589      	lsls	r1, r1, #22
 80013a4:	431a      	orrs	r2, r3
 80013a6:	0d89      	lsrs	r1, r1, #22
 80013a8:	4b05      	ldr	r3, [pc, #20]	; (80013c0 <I2C_TransferConfig+0x28>)
 80013aa:	6845      	ldr	r5, [r0, #4]
 80013ac:	430a      	orrs	r2, r1
 80013ae:	0d64      	lsrs	r4, r4, #21
 80013b0:	431c      	orrs	r4, r3
 80013b2:	0052      	lsls	r2, r2, #1
 80013b4:	43a5      	bics	r5, r4
 80013b6:	0852      	lsrs	r2, r2, #1
 80013b8:	432a      	orrs	r2, r5
 80013ba:	6042      	str	r2, [r0, #4]
 80013bc:	bd30      	pop	{r4, r5, pc}
 80013be:	46c0      	nop			; (mov r8, r8)
 80013c0:	03ff63ff 	.word	0x03ff63ff

080013c4 <I2C_IsErrorOccurred>:
 80013c4:	b5f7      	push	{r0, r1, r2, r4, r5, r6, r7, lr}
 80013c6:	0015      	movs	r5, r2
 80013c8:	6802      	ldr	r2, [r0, #0]
 80013ca:	000e      	movs	r6, r1
 80013cc:	6991      	ldr	r1, [r2, #24]
 80013ce:	2310      	movs	r3, #16
 80013d0:	000f      	movs	r7, r1
 80013d2:	0004      	movs	r4, r0
 80013d4:	401f      	ands	r7, r3
 80013d6:	2000      	movs	r0, #0
 80013d8:	4219      	tst	r1, r3
 80013da:	d00e      	beq.n	80013fa <I2C_IsErrorOccurred+0x36>
 80013dc:	2720      	movs	r7, #32
 80013de:	61d3      	str	r3, [r2, #28]
 80013e0:	9000      	str	r0, [sp, #0]
 80013e2:	9001      	str	r0, [sp, #4]
 80013e4:	6823      	ldr	r3, [r4, #0]
 80013e6:	699a      	ldr	r2, [r3, #24]
 80013e8:	423a      	tst	r2, r7
 80013ea:	d164      	bne.n	80014b6 <I2C_IsErrorOccurred+0xf2>
 80013ec:	9a01      	ldr	r2, [sp, #4]
 80013ee:	2a00      	cmp	r2, #0
 80013f0:	d032      	beq.n	8001458 <I2C_IsErrorOccurred+0x94>
 80013f2:	2704      	movs	r7, #4
 80013f4:	2001      	movs	r0, #1
 80013f6:	9b00      	ldr	r3, [sp, #0]
 80013f8:	431f      	orrs	r7, r3
 80013fa:	2180      	movs	r1, #128	; 0x80
 80013fc:	6823      	ldr	r3, [r4, #0]
 80013fe:	0049      	lsls	r1, r1, #1
 8001400:	699a      	ldr	r2, [r3, #24]
 8001402:	420a      	tst	r2, r1
 8001404:	d002      	beq.n	800140c <I2C_IsErrorOccurred+0x48>
 8001406:	2001      	movs	r0, #1
 8001408:	61d9      	str	r1, [r3, #28]
 800140a:	4307      	orrs	r7, r0
 800140c:	2180      	movs	r1, #128	; 0x80
 800140e:	00c9      	lsls	r1, r1, #3
 8001410:	420a      	tst	r2, r1
 8001412:	d003      	beq.n	800141c <I2C_IsErrorOccurred+0x58>
 8001414:	2008      	movs	r0, #8
 8001416:	61d9      	str	r1, [r3, #28]
 8001418:	4307      	orrs	r7, r0
 800141a:	3807      	subs	r0, #7
 800141c:	2180      	movs	r1, #128	; 0x80
 800141e:	0089      	lsls	r1, r1, #2
 8001420:	420a      	tst	r2, r1
 8001422:	d04d      	beq.n	80014c0 <I2C_IsErrorOccurred+0xfc>
 8001424:	2202      	movs	r2, #2
 8001426:	61d9      	str	r1, [r3, #28]
 8001428:	4317      	orrs	r7, r2
 800142a:	0020      	movs	r0, r4
 800142c:	f7ff ffa6 	bl	800137c <I2C_Flush_TXDR>
 8001430:	6822      	ldr	r2, [r4, #0]
 8001432:	4925      	ldr	r1, [pc, #148]	; (80014c8 <I2C_IsErrorOccurred+0x104>)
 8001434:	6853      	ldr	r3, [r2, #4]
 8001436:	400b      	ands	r3, r1
 8001438:	6053      	str	r3, [r2, #4]
 800143a:	0023      	movs	r3, r4
 800143c:	2220      	movs	r2, #32
 800143e:	6c60      	ldr	r0, [r4, #68]	; 0x44
 8001440:	3341      	adds	r3, #65	; 0x41
 8001442:	4307      	orrs	r7, r0
 8001444:	6467      	str	r7, [r4, #68]	; 0x44
 8001446:	701a      	strb	r2, [r3, #0]
 8001448:	0022      	movs	r2, r4
 800144a:	2300      	movs	r3, #0
 800144c:	3242      	adds	r2, #66	; 0x42
 800144e:	3440      	adds	r4, #64	; 0x40
 8001450:	7013      	strb	r3, [r2, #0]
 8001452:	2001      	movs	r0, #1
 8001454:	7023      	strb	r3, [r4, #0]
 8001456:	e035      	b.n	80014c4 <I2C_IsErrorOccurred+0x100>
 8001458:	1c72      	adds	r2, r6, #1
 800145a:	d0c4      	beq.n	80013e6 <I2C_IsErrorOccurred+0x22>
 800145c:	f7ff fdf6 	bl	800104c <HAL_GetTick>
 8001460:	1b40      	subs	r0, r0, r5
 8001462:	42b0      	cmp	r0, r6
 8001464:	d801      	bhi.n	800146a <I2C_IsErrorOccurred+0xa6>
 8001466:	2e00      	cmp	r6, #0
 8001468:	d1bc      	bne.n	80013e4 <I2C_IsErrorOccurred+0x20>
 800146a:	0022      	movs	r2, r4
 800146c:	6823      	ldr	r3, [r4, #0]
 800146e:	3242      	adds	r2, #66	; 0x42
 8001470:	6858      	ldr	r0, [r3, #4]
 8001472:	7811      	ldrb	r1, [r2, #0]
 8001474:	b2ca      	uxtb	r2, r1
 8001476:	2180      	movs	r1, #128	; 0x80
 8001478:	4694      	mov	ip, r2
 800147a:	699a      	ldr	r2, [r3, #24]
 800147c:	0209      	lsls	r1, r1, #8
 800147e:	420a      	tst	r2, r1
 8001480:	d00c      	beq.n	800149c <I2C_IsErrorOccurred+0xd8>
 8001482:	2280      	movs	r2, #128	; 0x80
 8001484:	01d2      	lsls	r2, r2, #7
 8001486:	4210      	tst	r0, r2
 8001488:	d108      	bne.n	800149c <I2C_IsErrorOccurred+0xd8>
 800148a:	4661      	mov	r1, ip
 800148c:	2920      	cmp	r1, #32
 800148e:	d005      	beq.n	800149c <I2C_IsErrorOccurred+0xd8>
 8001490:	6859      	ldr	r1, [r3, #4]
 8001492:	430a      	orrs	r2, r1
 8001494:	605a      	str	r2, [r3, #4]
 8001496:	f7ff fdd9 	bl	800104c <HAL_GetTick>
 800149a:	0005      	movs	r5, r0
 800149c:	6823      	ldr	r3, [r4, #0]
 800149e:	699b      	ldr	r3, [r3, #24]
 80014a0:	423b      	tst	r3, r7
 80014a2:	d19f      	bne.n	80013e4 <I2C_IsErrorOccurred+0x20>
 80014a4:	f7ff fdd2 	bl	800104c <HAL_GetTick>
 80014a8:	1b40      	subs	r0, r0, r5
 80014aa:	2819      	cmp	r0, #25
 80014ac:	d9f6      	bls.n	800149c <I2C_IsErrorOccurred+0xd8>
 80014ae:	2301      	movs	r3, #1
 80014b0:	9700      	str	r7, [sp, #0]
 80014b2:	9301      	str	r3, [sp, #4]
 80014b4:	e796      	b.n	80013e4 <I2C_IsErrorOccurred+0x20>
 80014b6:	9a01      	ldr	r2, [sp, #4]
 80014b8:	2a00      	cmp	r2, #0
 80014ba:	d19a      	bne.n	80013f2 <I2C_IsErrorOccurred+0x2e>
 80014bc:	61df      	str	r7, [r3, #28]
 80014be:	e798      	b.n	80013f2 <I2C_IsErrorOccurred+0x2e>
 80014c0:	2800      	cmp	r0, #0
 80014c2:	d1b2      	bne.n	800142a <I2C_IsErrorOccurred+0x66>
 80014c4:	bdfe      	pop	{r1, r2, r3, r4, r5, r6, r7, pc}
 80014c6:	46c0      	nop			; (mov r8, r8)
 80014c8:	fe00e800 	.word	0xfe00e800

080014cc <I2C_WaitOnTXISFlagUntilTimeout>:
 80014cc:	b5f8      	push	{r3, r4, r5, r6, r7, lr}
 80014ce:	0004      	movs	r4, r0
 80014d0:	000d      	movs	r5, r1
 80014d2:	0016      	movs	r6, r2
 80014d4:	2702      	movs	r7, #2
 80014d6:	6823      	ldr	r3, [r4, #0]
 80014d8:	699b      	ldr	r3, [r3, #24]
 80014da:	423b      	tst	r3, r7
 80014dc:	d001      	beq.n	80014e2 <I2C_WaitOnTXISFlagUntilTimeout+0x16>
 80014de:	2000      	movs	r0, #0
 80014e0:	bdf8      	pop	{r3, r4, r5, r6, r7, pc}
 80014e2:	0032      	movs	r2, r6
 80014e4:	0029      	movs	r1, r5
 80014e6:	0020      	movs	r0, r4
 80014e8:	f7ff ff6c 	bl	80013c4 <I2C_IsErrorOccurred>
 80014ec:	2800      	cmp	r0, #0
 80014ee:	d115      	bne.n	800151c <I2C_WaitOnTXISFlagUntilTimeout+0x50>
 80014f0:	1c6b      	adds	r3, r5, #1
 80014f2:	d0f0      	beq.n	80014d6 <I2C_WaitOnTXISFlagUntilTimeout+0xa>
 80014f4:	f7ff fdaa 	bl	800104c <HAL_GetTick>
 80014f8:	1b80      	subs	r0, r0, r6
 80014fa:	42a8      	cmp	r0, r5
 80014fc:	d801      	bhi.n	8001502 <I2C_WaitOnTXISFlagUntilTimeout+0x36>
 80014fe:	2d00      	cmp	r5, #0
 8001500:	d1e9      	bne.n	80014d6 <I2C_WaitOnTXISFlagUntilTimeout+0xa>
 8001502:	2220      	movs	r2, #32
 8001504:	6c63      	ldr	r3, [r4, #68]	; 0x44
 8001506:	4313      	orrs	r3, r2
 8001508:	6463      	str	r3, [r4, #68]	; 0x44
 800150a:	0023      	movs	r3, r4
 800150c:	3341      	adds	r3, #65	; 0x41
 800150e:	701a      	strb	r2, [r3, #0]
 8001510:	0022      	movs	r2, r4
 8001512:	2300      	movs	r3, #0
 8001514:	3242      	adds	r2, #66	; 0x42
 8001516:	3440      	adds	r4, #64	; 0x40
 8001518:	7013      	strb	r3, [r2, #0]
 800151a:	7023      	strb	r3, [r4, #0]
 800151c:	2001      	movs	r0, #1
 800151e:	e7df      	b.n	80014e0 <I2C_WaitOnTXISFlagUntilTimeout+0x14>

08001520 <I2C_WaitOnFlagUntilTimeout>:
 8001520:	b5f8      	push	{r3, r4, r5, r6, r7, lr}
 8001522:	0004      	movs	r4, r0
 8001524:	000e      	movs	r6, r1
 8001526:	0017      	movs	r7, r2
 8001528:	001d      	movs	r5, r3
 800152a:	6822      	ldr	r2, [r4, #0]
 800152c:	6993      	ldr	r3, [r2, #24]
 800152e:	4033      	ands	r3, r6
 8001530:	1b9b      	subs	r3, r3, r6
 8001532:	4259      	negs	r1, r3
 8001534:	414b      	adcs	r3, r1
 8001536:	42bb      	cmp	r3, r7
 8001538:	d001      	beq.n	800153e <I2C_WaitOnFlagUntilTimeout+0x1e>
 800153a:	2000      	movs	r0, #0
 800153c:	e017      	b.n	800156e <I2C_WaitOnFlagUntilTimeout+0x4e>
 800153e:	1c6b      	adds	r3, r5, #1
 8001540:	d0f4      	beq.n	800152c <I2C_WaitOnFlagUntilTimeout+0xc>
 8001542:	f7ff fd83 	bl	800104c <HAL_GetTick>
 8001546:	9b06      	ldr	r3, [sp, #24]
 8001548:	1ac0      	subs	r0, r0, r3
 800154a:	42a8      	cmp	r0, r5
 800154c:	d801      	bhi.n	8001552 <I2C_WaitOnFlagUntilTimeout+0x32>
 800154e:	2d00      	cmp	r5, #0
 8001550:	d1eb      	bne.n	800152a <I2C_WaitOnFlagUntilTimeout+0xa>
 8001552:	2220      	movs	r2, #32
 8001554:	6c63      	ldr	r3, [r4, #68]	; 0x44
 8001556:	2001      	movs	r0, #1
 8001558:	4313      	orrs	r3, r2
 800155a:	6463      	str	r3, [r4, #68]	; 0x44
 800155c:	0023      	movs	r3, r4
 800155e:	3341      	adds	r3, #65	; 0x41
 8001560:	701a      	strb	r2, [r3, #0]
 8001562:	0022      	movs	r2, r4
 8001564:	2300      	movs	r3, #0
 8001566:	3242      	adds	r2, #66	; 0x42
 8001568:	3440      	adds	r4, #64	; 0x40
 800156a:	7013      	strb	r3, [r2, #0]
 800156c:	7023      	strb	r3, [r4, #0]
 800156e:	bdf8      	pop	{r3, r4, r5, r6, r7, pc}

08001570 <I2C_WaitOnSTOPFlagUntilTimeout>:
 8001570:	b5f8      	push	{r3, r4, r5, r6, r7, lr}
 8001572:	0004      	movs	r4, r0
 8001574:	000d      	movs	r5, r1
 8001576:	0016      	movs	r6, r2
 8001578:	2720      	movs	r7, #32
 800157a:	6823      	ldr	r3, [r4, #0]
 800157c:	699b      	ldr	r3, [r3, #24]
 800157e:	423b      	tst	r3, r7
 8001580:	d001      	beq.n	8001586 <I2C_WaitOnSTOPFlagUntilTimeout+0x16>
 8001582:	2000      	movs	r0, #0
 8001584:	bdf8      	pop	{r3, r4, r5, r6, r7, pc}
 8001586:	0032      	movs	r2, r6
 8001588:	0029      	movs	r1, r5
 800158a:	0020      	movs	r0, r4
 800158c:	f7ff ff1a 	bl	80013c4 <I2C_IsErrorOccurred>
 8001590:	2800      	cmp	r0, #0
 8001592:	d113      	bne.n	80015bc <I2C_WaitOnSTOPFlagUntilTimeout+0x4c>
 8001594:	f7ff fd5a 	bl	800104c <HAL_GetTick>
 8001598:	1b80      	subs	r0, r0, r6
 800159a:	42a8      	cmp	r0, r5
 800159c:	d801      	bhi.n	80015a2 <I2C_WaitOnSTOPFlagUntilTimeout+0x32>
 800159e:	2d00      	cmp	r5, #0
 80015a0:	d1eb      	bne.n	800157a <I2C_WaitOnSTOPFlagUntilTimeout+0xa>
 80015a2:	2220      	movs	r2, #32
 80015a4:	6c63      	ldr	r3, [r4, #68]	; 0x44
 80015a6:	4313      	orrs	r3, r2
 80015a8:	6463      	str	r3, [r4, #68]	; 0x44
 80015aa:	0023      	movs	r3, r4
 80015ac:	3341      	adds	r3, #65	; 0x41
 80015ae:	701a      	strb	r2, [r3, #0]
 80015b0:	0022      	movs	r2, r4
 80015b2:	2300      	movs	r3, #0
 80015b4:	3242      	adds	r2, #66	; 0x42
 80015b6:	3440      	adds	r4, #64	; 0x40
 80015b8:	7013      	strb	r3, [r2, #0]
 80015ba:	7023      	strb	r3, [r4, #0]
 80015bc:	2001      	movs	r0, #1
 80015be:	e7e1      	b.n	8001584 <I2C_WaitOnSTOPFlagUntilTimeout+0x14>

080015c0 <HAL_I2C_Init>:
 80015c0:	b570      	push	{r4, r5, r6, lr}
 80015c2:	0004      	movs	r4, r0
 80015c4:	2001      	movs	r0, #1
 80015c6:	2c00      	cmp	r4, #0
 80015c8:	d03f      	beq.n	800164a <HAL_I2C_Init+0x8a>
 80015ca:	0025      	movs	r5, r4
 80015cc:	3541      	adds	r5, #65	; 0x41
 80015ce:	782b      	ldrb	r3, [r5, #0]
 80015d0:	b2da      	uxtb	r2, r3
 80015d2:	2b00      	cmp	r3, #0
 80015d4:	d105      	bne.n	80015e2 <HAL_I2C_Init+0x22>
 80015d6:	0023      	movs	r3, r4
 80015d8:	3340      	adds	r3, #64	; 0x40
 80015da:	0020      	movs	r0, r4
 80015dc:	701a      	strb	r2, [r3, #0]
 80015de:	f7ff fa97 	bl	8000b10 <HAL_I2C_MspInit>
 80015e2:	2324      	movs	r3, #36	; 0x24
 80015e4:	2101      	movs	r1, #1
 80015e6:	702b      	strb	r3, [r5, #0]
 80015e8:	6823      	ldr	r3, [r4, #0]
 80015ea:	481d      	ldr	r0, [pc, #116]	; (8001660 <HAL_I2C_Init+0xa0>)
 80015ec:	681a      	ldr	r2, [r3, #0]
 80015ee:	68a6      	ldr	r6, [r4, #8]
 80015f0:	438a      	bics	r2, r1
 80015f2:	601a      	str	r2, [r3, #0]
 80015f4:	6861      	ldr	r1, [r4, #4]
 80015f6:	4a1b      	ldr	r2, [pc, #108]	; (8001664 <HAL_I2C_Init+0xa4>)
 80015f8:	400a      	ands	r2, r1
 80015fa:	611a      	str	r2, [r3, #16]
 80015fc:	689a      	ldr	r2, [r3, #8]
 80015fe:	4002      	ands	r2, r0
 8001600:	609a      	str	r2, [r3, #8]
 8001602:	68e2      	ldr	r2, [r4, #12]
 8001604:	2a01      	cmp	r2, #1
 8001606:	d121      	bne.n	800164c <HAL_I2C_Init+0x8c>
 8001608:	2180      	movs	r1, #128	; 0x80
 800160a:	0209      	lsls	r1, r1, #8
 800160c:	4331      	orrs	r1, r6
 800160e:	6099      	str	r1, [r3, #8]
 8001610:	685a      	ldr	r2, [r3, #4]
 8001612:	4915      	ldr	r1, [pc, #84]	; (8001668 <HAL_I2C_Init+0xa8>)
 8001614:	4311      	orrs	r1, r2
 8001616:	6059      	str	r1, [r3, #4]
 8001618:	68da      	ldr	r2, [r3, #12]
 800161a:	6961      	ldr	r1, [r4, #20]
 800161c:	4002      	ands	r2, r0
 800161e:	60da      	str	r2, [r3, #12]
 8001620:	6922      	ldr	r2, [r4, #16]
 8001622:	2000      	movs	r0, #0
 8001624:	430a      	orrs	r2, r1
 8001626:	69a1      	ldr	r1, [r4, #24]
 8001628:	0209      	lsls	r1, r1, #8
 800162a:	430a      	orrs	r2, r1
 800162c:	60da      	str	r2, [r3, #12]
 800162e:	6a21      	ldr	r1, [r4, #32]
 8001630:	69e2      	ldr	r2, [r4, #28]
 8001632:	430a      	orrs	r2, r1
 8001634:	601a      	str	r2, [r3, #0]
 8001636:	2201      	movs	r2, #1
 8001638:	6819      	ldr	r1, [r3, #0]
 800163a:	430a      	orrs	r2, r1
 800163c:	601a      	str	r2, [r3, #0]
 800163e:	2320      	movs	r3, #32
 8001640:	6460      	str	r0, [r4, #68]	; 0x44
 8001642:	702b      	strb	r3, [r5, #0]
 8001644:	6320      	str	r0, [r4, #48]	; 0x30
 8001646:	3442      	adds	r4, #66	; 0x42
 8001648:	7020      	strb	r0, [r4, #0]
 800164a:	bd70      	pop	{r4, r5, r6, pc}
 800164c:	2184      	movs	r1, #132	; 0x84
 800164e:	0209      	lsls	r1, r1, #8
 8001650:	4331      	orrs	r1, r6
 8001652:	6099      	str	r1, [r3, #8]
 8001654:	2a02      	cmp	r2, #2
 8001656:	d1db      	bne.n	8001610 <HAL_I2C_Init+0x50>
 8001658:	2280      	movs	r2, #128	; 0x80
 800165a:	0112      	lsls	r2, r2, #4
 800165c:	605a      	str	r2, [r3, #4]
 800165e:	e7d7      	b.n	8001610 <HAL_I2C_Init+0x50>
 8001660:	ffff7fff 	.word	0xffff7fff
 8001664:	f0ffffff 	.word	0xf0ffffff
 8001668:	02008000 	.word	0x02008000

0800166c <HAL_I2C_DeInit>:
 800166c:	b570      	push	{r4, r5, r6, lr}
 800166e:	0004      	movs	r4, r0
 8001670:	2001      	movs	r0, #1
 8001672:	2c00      	cmp	r4, #0
 8001674:	d013      	beq.n	800169e <HAL_I2C_DeInit+0x32>
 8001676:	0025      	movs	r5, r4
 8001678:	2324      	movs	r3, #36	; 0x24
 800167a:	3541      	adds	r5, #65	; 0x41
 800167c:	702b      	strb	r3, [r5, #0]
 800167e:	6822      	ldr	r2, [r4, #0]
 8001680:	6813      	ldr	r3, [r2, #0]
 8001682:	4383      	bics	r3, r0
 8001684:	6013      	str	r3, [r2, #0]
 8001686:	0020      	movs	r0, r4
 8001688:	f7ff fa84 	bl	8000b94 <HAL_I2C_MspDeInit>
 800168c:	2000      	movs	r0, #0
 800168e:	0023      	movs	r3, r4
 8001690:	6460      	str	r0, [r4, #68]	; 0x44
 8001692:	3342      	adds	r3, #66	; 0x42
 8001694:	7028      	strb	r0, [r5, #0]
 8001696:	6320      	str	r0, [r4, #48]	; 0x30
 8001698:	3440      	adds	r4, #64	; 0x40
 800169a:	7018      	strb	r0, [r3, #0]
 800169c:	7020      	strb	r0, [r4, #0]
 800169e:	bd70      	pop	{r4, r5, r6, pc}

080016a0 <HAL_I2C_Mem_Write>:
 80016a0:	b5f0      	push	{r4, r5, r6, r7, lr}
 80016a2:	b089      	sub	sp, #36	; 0x24
 80016a4:	9304      	str	r3, [sp, #16]
 80016a6:	ab0e      	add	r3, sp, #56	; 0x38
 80016a8:	9203      	str	r2, [sp, #12]
 80016aa:	cb04      	ldmia	r3!, {r2}
 80016ac:	0004      	movs	r4, r0
 80016ae:	881b      	ldrh	r3, [r3, #0]
 80016b0:	9205      	str	r2, [sp, #20]
 80016b2:	9306      	str	r3, [sp, #24]
 80016b4:	0003      	movs	r3, r0
 80016b6:	3341      	adds	r3, #65	; 0x41
 80016b8:	9307      	str	r3, [sp, #28]
 80016ba:	781b      	ldrb	r3, [r3, #0]
 80016bc:	000f      	movs	r7, r1
 80016be:	2002      	movs	r0, #2
 80016c0:	9e10      	ldr	r6, [sp, #64]	; 0x40
 80016c2:	2b20      	cmp	r3, #32
 80016c4:	d108      	bne.n	80016d8 <HAL_I2C_Mem_Write+0x38>
 80016c6:	2a00      	cmp	r2, #0
 80016c8:	d002      	beq.n	80016d0 <HAL_I2C_Mem_Write+0x30>
 80016ca:	9b06      	ldr	r3, [sp, #24]
 80016cc:	2b00      	cmp	r3, #0
 80016ce:	d105      	bne.n	80016dc <HAL_I2C_Mem_Write+0x3c>
 80016d0:	2380      	movs	r3, #128	; 0x80
 80016d2:	009b      	lsls	r3, r3, #2
 80016d4:	6463      	str	r3, [r4, #68]	; 0x44
 80016d6:	2001      	movs	r0, #1
 80016d8:	b009      	add	sp, #36	; 0x24
 80016da:	bdf0      	pop	{r4, r5, r6, r7, pc}
 80016dc:	0023      	movs	r3, r4
 80016de:	3340      	adds	r3, #64	; 0x40
 80016e0:	781a      	ldrb	r2, [r3, #0]
 80016e2:	2002      	movs	r0, #2
 80016e4:	2a01      	cmp	r2, #1
 80016e6:	d0f7      	beq.n	80016d8 <HAL_I2C_Mem_Write+0x38>
 80016e8:	2201      	movs	r2, #1
 80016ea:	701a      	strb	r2, [r3, #0]
 80016ec:	f7ff fcae 	bl	800104c <HAL_GetTick>
 80016f0:	2180      	movs	r1, #128	; 0x80
 80016f2:	0005      	movs	r5, r0
 80016f4:	9000      	str	r0, [sp, #0]
 80016f6:	2319      	movs	r3, #25
 80016f8:	2201      	movs	r2, #1
 80016fa:	0020      	movs	r0, r4
 80016fc:	0209      	lsls	r1, r1, #8
 80016fe:	f7ff ff0f 	bl	8001520 <I2C_WaitOnFlagUntilTimeout>
 8001702:	2800      	cmp	r0, #0
 8001704:	d1e7      	bne.n	80016d6 <HAL_I2C_Mem_Write+0x36>
 8001706:	2321      	movs	r3, #33	; 0x21
 8001708:	9a07      	ldr	r2, [sp, #28]
 800170a:	0039      	movs	r1, r7
 800170c:	7013      	strb	r3, [r2, #0]
 800170e:	0023      	movs	r3, r4
 8001710:	3342      	adds	r3, #66	; 0x42
 8001712:	9307      	str	r3, [sp, #28]
 8001714:	2340      	movs	r3, #64	; 0x40
 8001716:	9a07      	ldr	r2, [sp, #28]
 8001718:	7013      	strb	r3, [r2, #0]
 800171a:	9b05      	ldr	r3, [sp, #20]
 800171c:	6460      	str	r0, [r4, #68]	; 0x44
 800171e:	6263      	str	r3, [r4, #36]	; 0x24
 8001720:	9b06      	ldr	r3, [sp, #24]
 8001722:	6360      	str	r0, [r4, #52]	; 0x34
 8001724:	8563      	strh	r3, [r4, #42]	; 0x2a
 8001726:	466b      	mov	r3, sp
 8001728:	7c1a      	ldrb	r2, [r3, #16]
 800172a:	4b4a      	ldr	r3, [pc, #296]	; (8001854 <HAL_I2C_Mem_Write+0x1b4>)
 800172c:	0020      	movs	r0, r4
 800172e:	9300      	str	r3, [sp, #0]
 8001730:	2380      	movs	r3, #128	; 0x80
 8001732:	045b      	lsls	r3, r3, #17
 8001734:	f7ff fe30 	bl	8001398 <I2C_TransferConfig>
 8001738:	002a      	movs	r2, r5
 800173a:	0031      	movs	r1, r6
 800173c:	0020      	movs	r0, r4
 800173e:	f7ff fec5 	bl	80014cc <I2C_WaitOnTXISFlagUntilTimeout>
 8001742:	2800      	cmp	r0, #0
 8001744:	d126      	bne.n	8001794 <HAL_I2C_Mem_Write+0xf4>
 8001746:	9a04      	ldr	r2, [sp, #16]
 8001748:	6823      	ldr	r3, [r4, #0]
 800174a:	2a01      	cmp	r2, #1
 800174c:	d116      	bne.n	800177c <HAL_I2C_Mem_Write+0xdc>
 800174e:	466a      	mov	r2, sp
 8001750:	7b12      	ldrb	r2, [r2, #12]
 8001752:	2180      	movs	r1, #128	; 0x80
 8001754:	629a      	str	r2, [r3, #40]	; 0x28
 8001756:	0020      	movs	r0, r4
 8001758:	0033      	movs	r3, r6
 800175a:	2200      	movs	r2, #0
 800175c:	9500      	str	r5, [sp, #0]
 800175e:	f7ff fedf 	bl	8001520 <I2C_WaitOnFlagUntilTimeout>
 8001762:	2800      	cmp	r0, #0
 8001764:	d116      	bne.n	8001794 <HAL_I2C_Mem_Write+0xf4>
 8001766:	8d63      	ldrh	r3, [r4, #42]	; 0x2a
 8001768:	2bff      	cmp	r3, #255	; 0xff
 800176a:	d817      	bhi.n	800179c <HAL_I2C_Mem_Write+0xfc>
 800176c:	2380      	movs	r3, #128	; 0x80
 800176e:	8d62      	ldrh	r2, [r4, #42]	; 0x2a
 8001770:	049b      	lsls	r3, r3, #18
 8001772:	b292      	uxth	r2, r2
 8001774:	8522      	strh	r2, [r4, #40]	; 0x28
 8001776:	b2d2      	uxtb	r2, r2
 8001778:	9000      	str	r0, [sp, #0]
 800177a:	e014      	b.n	80017a6 <HAL_I2C_Mem_Write+0x106>
 800177c:	9a03      	ldr	r2, [sp, #12]
 800177e:	0031      	movs	r1, r6
 8001780:	0a12      	lsrs	r2, r2, #8
 8001782:	629a      	str	r2, [r3, #40]	; 0x28
 8001784:	0020      	movs	r0, r4
 8001786:	002a      	movs	r2, r5
 8001788:	f7ff fea0 	bl	80014cc <I2C_WaitOnTXISFlagUntilTimeout>
 800178c:	2800      	cmp	r0, #0
 800178e:	d101      	bne.n	8001794 <HAL_I2C_Mem_Write+0xf4>
 8001790:	6823      	ldr	r3, [r4, #0]
 8001792:	e7dc      	b.n	800174e <HAL_I2C_Mem_Write+0xae>
 8001794:	2300      	movs	r3, #0
 8001796:	3440      	adds	r4, #64	; 0x40
 8001798:	7023      	strb	r3, [r4, #0]
 800179a:	e79c      	b.n	80016d6 <HAL_I2C_Mem_Write+0x36>
 800179c:	22ff      	movs	r2, #255	; 0xff
 800179e:	2380      	movs	r3, #128	; 0x80
 80017a0:	8522      	strh	r2, [r4, #40]	; 0x28
 80017a2:	045b      	lsls	r3, r3, #17
 80017a4:	9000      	str	r0, [sp, #0]
 80017a6:	0039      	movs	r1, r7
 80017a8:	0020      	movs	r0, r4
 80017aa:	f7ff fdf5 	bl	8001398 <I2C_TransferConfig>
 80017ae:	002a      	movs	r2, r5
 80017b0:	0031      	movs	r1, r6
 80017b2:	0020      	movs	r0, r4
 80017b4:	f7ff fe8a 	bl	80014cc <I2C_WaitOnTXISFlagUntilTimeout>
 80017b8:	2800      	cmp	r0, #0
 80017ba:	d000      	beq.n	80017be <HAL_I2C_Mem_Write+0x11e>
 80017bc:	e78b      	b.n	80016d6 <HAL_I2C_Mem_Write+0x36>
 80017be:	6a63      	ldr	r3, [r4, #36]	; 0x24
 80017c0:	6822      	ldr	r2, [r4, #0]
 80017c2:	7819      	ldrb	r1, [r3, #0]
 80017c4:	3301      	adds	r3, #1
 80017c6:	6291      	str	r1, [r2, #40]	; 0x28
 80017c8:	6263      	str	r3, [r4, #36]	; 0x24
 80017ca:	8d63      	ldrh	r3, [r4, #42]	; 0x2a
 80017cc:	8d22      	ldrh	r2, [r4, #40]	; 0x28
 80017ce:	3b01      	subs	r3, #1
 80017d0:	b29b      	uxth	r3, r3
 80017d2:	8563      	strh	r3, [r4, #42]	; 0x2a
 80017d4:	3a01      	subs	r2, #1
 80017d6:	8d63      	ldrh	r3, [r4, #42]	; 0x2a
 80017d8:	b292      	uxth	r2, r2
 80017da:	8522      	strh	r2, [r4, #40]	; 0x28
 80017dc:	2b00      	cmp	r3, #0
 80017de:	d017      	beq.n	8001810 <HAL_I2C_Mem_Write+0x170>
 80017e0:	2a00      	cmp	r2, #0
 80017e2:	d115      	bne.n	8001810 <HAL_I2C_Mem_Write+0x170>
 80017e4:	0033      	movs	r3, r6
 80017e6:	2180      	movs	r1, #128	; 0x80
 80017e8:	0020      	movs	r0, r4
 80017ea:	9500      	str	r5, [sp, #0]
 80017ec:	f7ff fe98 	bl	8001520 <I2C_WaitOnFlagUntilTimeout>
 80017f0:	2800      	cmp	r0, #0
 80017f2:	d000      	beq.n	80017f6 <HAL_I2C_Mem_Write+0x156>
 80017f4:	e76f      	b.n	80016d6 <HAL_I2C_Mem_Write+0x36>
 80017f6:	8d63      	ldrh	r3, [r4, #42]	; 0x2a
 80017f8:	2bff      	cmp	r3, #255	; 0xff
 80017fa:	d923      	bls.n	8001844 <HAL_I2C_Mem_Write+0x1a4>
 80017fc:	23ff      	movs	r3, #255	; 0xff
 80017fe:	8523      	strh	r3, [r4, #40]	; 0x28
 8001800:	2380      	movs	r3, #128	; 0x80
 8001802:	22ff      	movs	r2, #255	; 0xff
 8001804:	9000      	str	r0, [sp, #0]
 8001806:	045b      	lsls	r3, r3, #17
 8001808:	0039      	movs	r1, r7
 800180a:	0020      	movs	r0, r4
 800180c:	f7ff fdc4 	bl	8001398 <I2C_TransferConfig>
 8001810:	8d63      	ldrh	r3, [r4, #42]	; 0x2a
 8001812:	2b00      	cmp	r3, #0
 8001814:	d1cb      	bne.n	80017ae <HAL_I2C_Mem_Write+0x10e>
 8001816:	002a      	movs	r2, r5
 8001818:	0031      	movs	r1, r6
 800181a:	0020      	movs	r0, r4
 800181c:	f7ff fea8 	bl	8001570 <I2C_WaitOnSTOPFlagUntilTimeout>
 8001820:	2800      	cmp	r0, #0
 8001822:	d000      	beq.n	8001826 <HAL_I2C_Mem_Write+0x186>
 8001824:	e757      	b.n	80016d6 <HAL_I2C_Mem_Write+0x36>
 8001826:	2120      	movs	r1, #32
 8001828:	6823      	ldr	r3, [r4, #0]
 800182a:	4d0b      	ldr	r5, [pc, #44]	; (8001858 <HAL_I2C_Mem_Write+0x1b8>)
 800182c:	61d9      	str	r1, [r3, #28]
 800182e:	685a      	ldr	r2, [r3, #4]
 8001830:	402a      	ands	r2, r5
 8001832:	605a      	str	r2, [r3, #4]
 8001834:	0023      	movs	r3, r4
 8001836:	3341      	adds	r3, #65	; 0x41
 8001838:	7019      	strb	r1, [r3, #0]
 800183a:	9b07      	ldr	r3, [sp, #28]
 800183c:	3440      	adds	r4, #64	; 0x40
 800183e:	7018      	strb	r0, [r3, #0]
 8001840:	7020      	strb	r0, [r4, #0]
 8001842:	e749      	b.n	80016d8 <HAL_I2C_Mem_Write+0x38>
 8001844:	2380      	movs	r3, #128	; 0x80
 8001846:	8d62      	ldrh	r2, [r4, #42]	; 0x2a
 8001848:	049b      	lsls	r3, r3, #18
 800184a:	b292      	uxth	r2, r2
 800184c:	8522      	strh	r2, [r4, #40]	; 0x28
 800184e:	b2d2      	uxtb	r2, r2
 8001850:	9000      	str	r0, [sp, #0]
 8001852:	e7d9      	b.n	8001808 <HAL_I2C_Mem_Write+0x168>
 8001854:	80002000 	.word	0x80002000
 8001858:	fe00e800 	.word	0xfe00e800

0800185c <HAL_I2C_Mem_Read>:
 800185c:	b5f0      	push	{r4, r5, r6, r7, lr}
 800185e:	b089      	sub	sp, #36	; 0x24
 8001860:	9304      	str	r3, [sp, #16]
 8001862:	ab0e      	add	r3, sp, #56	; 0x38
 8001864:	9203      	str	r2, [sp, #12]
 8001866:	cb04      	ldmia	r3!, {r2}
 8001868:	0004      	movs	r4, r0
 800186a:	881b      	ldrh	r3, [r3, #0]
 800186c:	9205      	str	r2, [sp, #20]
 800186e:	9306      	str	r3, [sp, #24]
 8001870:	0003      	movs	r3, r0
 8001872:	3341      	adds	r3, #65	; 0x41
 8001874:	9307      	str	r3, [sp, #28]
 8001876:	781b      	ldrb	r3, [r3, #0]
 8001878:	000f      	movs	r7, r1
 800187a:	2002      	movs	r0, #2
 800187c:	9e10      	ldr	r6, [sp, #64]	; 0x40
 800187e:	2b20      	cmp	r3, #32
 8001880:	d108      	bne.n	8001894 <HAL_I2C_Mem_Read+0x38>
 8001882:	2a00      	cmp	r2, #0
 8001884:	d002      	beq.n	800188c <HAL_I2C_Mem_Read+0x30>
 8001886:	9b06      	ldr	r3, [sp, #24]
 8001888:	2b00      	cmp	r3, #0
 800188a:	d105      	bne.n	8001898 <HAL_I2C_Mem_Read+0x3c>
 800188c:	2380      	movs	r3, #128	; 0x80
 800188e:	009b      	lsls	r3, r3, #2
 8001890:	6463      	str	r3, [r4, #68]	; 0x44
 8001892:	2001      	movs	r0, #1
 8001894:	b009      	add	sp, #36	; 0x24
 8001896:	bdf0      	pop	{r4, r5, r6, r7, pc}
 8001898:	0023      	movs	r3, r4
 800189a:	3340      	adds	r3, #64	; 0x40
 800189c:	781a      	ldrb	r2, [r3, #0]
 800189e:	2002      	movs	r0, #2
 80018a0:	2a01      	cmp	r2, #1
 80018a2:	d0f7      	beq.n	8001894 <HAL_I2C_Mem_Read+0x38>
 80018a4:	2201      	movs	r2, #1
 80018a6:	701a      	strb	r2, [r3, #0]
 80018a8:	f7ff fbd0 	bl	800104c <HAL_GetTick>
 80018ac:	2180      	movs	r1, #128	; 0x80
 80018ae:	2319      	movs	r3, #25
 80018b0:	9000      	str	r0, [sp, #0]
 80018b2:	0005      	movs	r5, r0
 80018b4:	2201      	movs	r2, #1
 80018b6:	0020      	movs	r0, r4
 80018b8:	0209      	lsls	r1, r1, #8
 80018ba:	f7ff fe31 	bl	8001520 <I2C_WaitOnFlagUntilTimeout>
 80018be:	1e03      	subs	r3, r0, #0
 80018c0:	d1e7      	bne.n	8001892 <HAL_I2C_Mem_Read+0x36>
 80018c2:	2222      	movs	r2, #34	; 0x22
 80018c4:	9907      	ldr	r1, [sp, #28]
 80018c6:	700a      	strb	r2, [r1, #0]
 80018c8:	0022      	movs	r2, r4
 80018ca:	3242      	adds	r2, #66	; 0x42
 80018cc:	9207      	str	r2, [sp, #28]
 80018ce:	2240      	movs	r2, #64	; 0x40
 80018d0:	9907      	ldr	r1, [sp, #28]
 80018d2:	700a      	strb	r2, [r1, #0]
 80018d4:	9a05      	ldr	r2, [sp, #20]
 80018d6:	6460      	str	r0, [r4, #68]	; 0x44
 80018d8:	6262      	str	r2, [r4, #36]	; 0x24
 80018da:	9a06      	ldr	r2, [sp, #24]
 80018dc:	494d      	ldr	r1, [pc, #308]	; (8001a14 <HAL_I2C_Mem_Read+0x1b8>)
 80018de:	8562      	strh	r2, [r4, #42]	; 0x2a
 80018e0:	466a      	mov	r2, sp
 80018e2:	6360      	str	r0, [r4, #52]	; 0x34
 80018e4:	7c12      	ldrb	r2, [r2, #16]
 80018e6:	0020      	movs	r0, r4
 80018e8:	9100      	str	r1, [sp, #0]
 80018ea:	0039      	movs	r1, r7
 80018ec:	f7ff fd54 	bl	8001398 <I2C_TransferConfig>
 80018f0:	002a      	movs	r2, r5
 80018f2:	0031      	movs	r1, r6
 80018f4:	0020      	movs	r0, r4
 80018f6:	f7ff fde9 	bl	80014cc <I2C_WaitOnTXISFlagUntilTimeout>
 80018fa:	2800      	cmp	r0, #0
 80018fc:	d127      	bne.n	800194e <HAL_I2C_Mem_Read+0xf2>
 80018fe:	9a04      	ldr	r2, [sp, #16]
 8001900:	6823      	ldr	r3, [r4, #0]
 8001902:	2a01      	cmp	r2, #1
 8001904:	d117      	bne.n	8001936 <HAL_I2C_Mem_Read+0xda>
 8001906:	466a      	mov	r2, sp
 8001908:	7b12      	ldrb	r2, [r2, #12]
 800190a:	2140      	movs	r1, #64	; 0x40
 800190c:	629a      	str	r2, [r3, #40]	; 0x28
 800190e:	0020      	movs	r0, r4
 8001910:	0033      	movs	r3, r6
 8001912:	2200      	movs	r2, #0
 8001914:	9500      	str	r5, [sp, #0]
 8001916:	f7ff fe03 	bl	8001520 <I2C_WaitOnFlagUntilTimeout>
 800191a:	2800      	cmp	r0, #0
 800191c:	d117      	bne.n	800194e <HAL_I2C_Mem_Read+0xf2>
 800191e:	8d62      	ldrh	r2, [r4, #42]	; 0x2a
 8001920:	4b3d      	ldr	r3, [pc, #244]	; (8001a18 <HAL_I2C_Mem_Read+0x1bc>)
 8001922:	2aff      	cmp	r2, #255	; 0xff
 8001924:	d817      	bhi.n	8001956 <HAL_I2C_Mem_Read+0xfa>
 8001926:	8d62      	ldrh	r2, [r4, #42]	; 0x2a
 8001928:	b292      	uxth	r2, r2
 800192a:	8522      	strh	r2, [r4, #40]	; 0x28
 800192c:	9300      	str	r3, [sp, #0]
 800192e:	2380      	movs	r3, #128	; 0x80
 8001930:	b2d2      	uxtb	r2, r2
 8001932:	049b      	lsls	r3, r3, #18
 8001934:	e014      	b.n	8001960 <HAL_I2C_Mem_Read+0x104>
 8001936:	9a03      	ldr	r2, [sp, #12]
 8001938:	0031      	movs	r1, r6
 800193a:	0a12      	lsrs	r2, r2, #8
 800193c:	629a      	str	r2, [r3, #40]	; 0x28
 800193e:	0020      	movs	r0, r4
 8001940:	002a      	movs	r2, r5
 8001942:	f7ff fdc3 	bl	80014cc <I2C_WaitOnTXISFlagUntilTimeout>
 8001946:	2800      	cmp	r0, #0
 8001948:	d101      	bne.n	800194e <HAL_I2C_Mem_Read+0xf2>
 800194a:	6823      	ldr	r3, [r4, #0]
 800194c:	e7db      	b.n	8001906 <HAL_I2C_Mem_Read+0xaa>
 800194e:	2300      	movs	r3, #0
 8001950:	3440      	adds	r4, #64	; 0x40
 8001952:	7023      	strb	r3, [r4, #0]
 8001954:	e79d      	b.n	8001892 <HAL_I2C_Mem_Read+0x36>
 8001956:	22ff      	movs	r2, #255	; 0xff
 8001958:	8522      	strh	r2, [r4, #40]	; 0x28
 800195a:	9300      	str	r3, [sp, #0]
 800195c:	2380      	movs	r3, #128	; 0x80
 800195e:	045b      	lsls	r3, r3, #17
 8001960:	0039      	movs	r1, r7
 8001962:	0020      	movs	r0, r4
 8001964:	f7ff fd18 	bl	8001398 <I2C_TransferConfig>
 8001968:	0033      	movs	r3, r6
 800196a:	2200      	movs	r2, #0
 800196c:	2104      	movs	r1, #4
 800196e:	0020      	movs	r0, r4
 8001970:	9500      	str	r5, [sp, #0]
 8001972:	f7ff fdd5 	bl	8001520 <I2C_WaitOnFlagUntilTimeout>
 8001976:	2800      	cmp	r0, #0
 8001978:	d000      	beq.n	800197c <HAL_I2C_Mem_Read+0x120>
 800197a:	e78a      	b.n	8001892 <HAL_I2C_Mem_Read+0x36>
 800197c:	6823      	ldr	r3, [r4, #0]
 800197e:	6a62      	ldr	r2, [r4, #36]	; 0x24
 8001980:	6a5b      	ldr	r3, [r3, #36]	; 0x24
 8001982:	7013      	strb	r3, [r2, #0]
 8001984:	6a63      	ldr	r3, [r4, #36]	; 0x24
 8001986:	8d22      	ldrh	r2, [r4, #40]	; 0x28
 8001988:	3301      	adds	r3, #1
 800198a:	6263      	str	r3, [r4, #36]	; 0x24
 800198c:	8d63      	ldrh	r3, [r4, #42]	; 0x2a
 800198e:	3a01      	subs	r2, #1
 8001990:	3b01      	subs	r3, #1
 8001992:	b29b      	uxth	r3, r3
 8001994:	8563      	strh	r3, [r4, #42]	; 0x2a
 8001996:	8d63      	ldrh	r3, [r4, #42]	; 0x2a
 8001998:	b292      	uxth	r2, r2
 800199a:	8522      	strh	r2, [r4, #40]	; 0x28
 800199c:	2b00      	cmp	r3, #0
 800199e:	d017      	beq.n	80019d0 <HAL_I2C_Mem_Read+0x174>
 80019a0:	2a00      	cmp	r2, #0
 80019a2:	d115      	bne.n	80019d0 <HAL_I2C_Mem_Read+0x174>
 80019a4:	0033      	movs	r3, r6
 80019a6:	2180      	movs	r1, #128	; 0x80
 80019a8:	0020      	movs	r0, r4
 80019aa:	9500      	str	r5, [sp, #0]
 80019ac:	f7ff fdb8 	bl	8001520 <I2C_WaitOnFlagUntilTimeout>
 80019b0:	2800      	cmp	r0, #0
 80019b2:	d000      	beq.n	80019b6 <HAL_I2C_Mem_Read+0x15a>
 80019b4:	e76d      	b.n	8001892 <HAL_I2C_Mem_Read+0x36>
 80019b6:	8d63      	ldrh	r3, [r4, #42]	; 0x2a
 80019b8:	2bff      	cmp	r3, #255	; 0xff
 80019ba:	d923      	bls.n	8001a04 <HAL_I2C_Mem_Read+0x1a8>
 80019bc:	23ff      	movs	r3, #255	; 0xff
 80019be:	8523      	strh	r3, [r4, #40]	; 0x28
 80019c0:	2380      	movs	r3, #128	; 0x80
 80019c2:	22ff      	movs	r2, #255	; 0xff
 80019c4:	9000      	str	r0, [sp, #0]
 80019c6:	045b      	lsls	r3, r3, #17
 80019c8:	0039      	movs	r1, r7
 80019ca:	0020      	movs	r0, r4
 80019cc:	f7ff fce4 	bl	8001398 <I2C_TransferConfig>
 80019d0:	8d63      	ldrh	r3, [r4, #42]	; 0x2a
 80019d2:	2b00      	cmp	r3, #0
 80019d4:	d1c8      	bne.n	8001968 <HAL_I2C_Mem_Read+0x10c>
 80019d6:	002a      	movs	r2, r5
 80019d8:	0031      	movs	r1, r6
 80019da:	0020      	movs	r0, r4
 80019dc:	f7ff fdc8 	bl	8001570 <I2C_WaitOnSTOPFlagUntilTimeout>
 80019e0:	2800      	cmp	r0, #0
 80019e2:	d000      	beq.n	80019e6 <HAL_I2C_Mem_Read+0x18a>
 80019e4:	e755      	b.n	8001892 <HAL_I2C_Mem_Read+0x36>
 80019e6:	2120      	movs	r1, #32
 80019e8:	6823      	ldr	r3, [r4, #0]
 80019ea:	4d0c      	ldr	r5, [pc, #48]	; (8001a1c <HAL_I2C_Mem_Read+0x1c0>)
 80019ec:	61d9      	str	r1, [r3, #28]
 80019ee:	685a      	ldr	r2, [r3, #4]
 80019f0:	402a      	ands	r2, r5
 80019f2:	605a      	str	r2, [r3, #4]
 80019f4:	0023      	movs	r3, r4
 80019f6:	3341      	adds	r3, #65	; 0x41
 80019f8:	7019      	strb	r1, [r3, #0]
 80019fa:	9b07      	ldr	r3, [sp, #28]
 80019fc:	3440      	adds	r4, #64	; 0x40
 80019fe:	7018      	strb	r0, [r3, #0]
 8001a00:	7020      	strb	r0, [r4, #0]
 8001a02:	e747      	b.n	8001894 <HAL_I2C_Mem_Read+0x38>
 8001a04:	2380      	movs	r3, #128	; 0x80
 8001a06:	8d62      	ldrh	r2, [r4, #42]	; 0x2a
 8001a08:	049b      	lsls	r3, r3, #18
 8001a0a:	b292      	uxth	r2, r2
 8001a0c:	8522      	strh	r2, [r4, #40]	; 0x28
 8001a0e:	b2d2      	uxtb	r2, r2
 8001a10:	9000      	str	r0, [sp, #0]
 8001a12:	e7d9      	b.n	80019c8 <HAL_I2C_Mem_Read+0x16c>
 8001a14:	80002000 	.word	0x80002000
 8001a18:	80002400 	.word	0x80002400
 8001a1c:	fe00e800 	.word	0xfe00e800

08001a20 <HAL_I2CEx_ConfigAnalogFilter>:
 8001a20:	b5f0      	push	{r4, r5, r6, r7, lr}
 8001a22:	0004      	movs	r4, r0
 8001a24:	3441      	adds	r4, #65	; 0x41
 8001a26:	7822      	ldrb	r2, [r4, #0]
 8001a28:	0003      	movs	r3, r0
 8001a2a:	000f      	movs	r7, r1
 8001a2c:	2002      	movs	r0, #2
 8001a2e:	b2d6      	uxtb	r6, r2
 8001a30:	2a20      	cmp	r2, #32
 8001a32:	d118      	bne.n	8001a66 <HAL_I2CEx_ConfigAnalogFilter+0x46>
 8001a34:	001d      	movs	r5, r3
 8001a36:	3540      	adds	r5, #64	; 0x40
 8001a38:	782a      	ldrb	r2, [r5, #0]
 8001a3a:	2a01      	cmp	r2, #1
 8001a3c:	d013      	beq.n	8001a66 <HAL_I2CEx_ConfigAnalogFilter+0x46>
 8001a3e:	2224      	movs	r2, #36	; 0x24
 8001a40:	7022      	strb	r2, [r4, #0]
 8001a42:	681b      	ldr	r3, [r3, #0]
 8001a44:	3a23      	subs	r2, #35	; 0x23
 8001a46:	6819      	ldr	r1, [r3, #0]
 8001a48:	4807      	ldr	r0, [pc, #28]	; (8001a68 <HAL_I2CEx_ConfigAnalogFilter+0x48>)
 8001a4a:	4391      	bics	r1, r2
 8001a4c:	6019      	str	r1, [r3, #0]
 8001a4e:	6819      	ldr	r1, [r3, #0]
 8001a50:	4001      	ands	r1, r0
 8001a52:	2000      	movs	r0, #0
 8001a54:	6019      	str	r1, [r3, #0]
 8001a56:	6819      	ldr	r1, [r3, #0]
 8001a58:	4339      	orrs	r1, r7
 8001a5a:	6019      	str	r1, [r3, #0]
 8001a5c:	6819      	ldr	r1, [r3, #0]
 8001a5e:	430a      	orrs	r2, r1
 8001a60:	601a      	str	r2, [r3, #0]
 8001a62:	7026      	strb	r6, [r4, #0]
 8001a64:	7028      	strb	r0, [r5, #0]
 8001a66:	bdf0      	pop	{r4, r5, r6, r7, pc}
 8001a68:	ffffefff 	.word	0xffffefff

08001a6c <HAL_I2CEx_ConfigDigitalFilter>:
 8001a6c:	0002      	movs	r2, r0
 8001a6e:	b5f0      	push	{r4, r5, r6, r7, lr}
 8001a70:	3241      	adds	r2, #65	; 0x41
 8001a72:	7814      	ldrb	r4, [r2, #0]
 8001a74:	0003      	movs	r3, r0
 8001a76:	b2e5      	uxtb	r5, r4
 8001a78:	2002      	movs	r0, #2
 8001a7a:	2c20      	cmp	r4, #32
 8001a7c:	d117      	bne.n	8001aae <HAL_I2CEx_ConfigDigitalFilter+0x42>
 8001a7e:	001c      	movs	r4, r3
 8001a80:	3440      	adds	r4, #64	; 0x40
 8001a82:	7826      	ldrb	r6, [r4, #0]
 8001a84:	2e01      	cmp	r6, #1
 8001a86:	d012      	beq.n	8001aae <HAL_I2CEx_ConfigDigitalFilter+0x42>
 8001a88:	3022      	adds	r0, #34	; 0x22
 8001a8a:	7010      	strb	r0, [r2, #0]
 8001a8c:	681b      	ldr	r3, [r3, #0]
 8001a8e:	3823      	subs	r0, #35	; 0x23
 8001a90:	681e      	ldr	r6, [r3, #0]
 8001a92:	4f07      	ldr	r7, [pc, #28]	; (8001ab0 <HAL_I2CEx_ConfigDigitalFilter+0x44>)
 8001a94:	4386      	bics	r6, r0
 8001a96:	601e      	str	r6, [r3, #0]
 8001a98:	681e      	ldr	r6, [r3, #0]
 8001a9a:	0209      	lsls	r1, r1, #8
 8001a9c:	403e      	ands	r6, r7
 8001a9e:	4331      	orrs	r1, r6
 8001aa0:	6019      	str	r1, [r3, #0]
 8001aa2:	6819      	ldr	r1, [r3, #0]
 8001aa4:	4308      	orrs	r0, r1
 8001aa6:	6018      	str	r0, [r3, #0]
 8001aa8:	2000      	movs	r0, #0
 8001aaa:	7015      	strb	r5, [r2, #0]
 8001aac:	7020      	strb	r0, [r4, #0]
 8001aae:	bdf0      	pop	{r4, r5, r6, r7, pc}
 8001ab0:	fffff0ff 	.word	0xfffff0ff

08001ab4 <HAL_PWREx_ControlVoltageScaling>:
 8001ab4:	b510      	push	{r4, lr}
 8001ab6:	4c11      	ldr	r4, [pc, #68]	; (8001afc <HAL_PWREx_ControlVoltageScaling+0x48>)
 8001ab8:	4911      	ldr	r1, [pc, #68]	; (8001b00 <HAL_PWREx_ControlVoltageScaling+0x4c>)
 8001aba:	6823      	ldr	r3, [r4, #0]
 8001abc:	0002      	movs	r2, r0
 8001abe:	400b      	ands	r3, r1
 8001ac0:	4303      	orrs	r3, r0
 8001ac2:	6023      	str	r3, [r4, #0]
 8001ac4:	2380      	movs	r3, #128	; 0x80
 8001ac6:	2000      	movs	r0, #0
 8001ac8:	009b      	lsls	r3, r3, #2
 8001aca:	429a      	cmp	r2, r3
 8001acc:	d10e      	bne.n	8001aec <HAL_PWREx_ControlVoltageScaling+0x38>
 8001ace:	4b0d      	ldr	r3, [pc, #52]	; (8001b04 <HAL_PWREx_ControlVoltageScaling+0x50>)
 8001ad0:	490d      	ldr	r1, [pc, #52]	; (8001b08 <HAL_PWREx_ControlVoltageScaling+0x54>)
 8001ad2:	6818      	ldr	r0, [r3, #0]
 8001ad4:	2306      	movs	r3, #6
 8001ad6:	4358      	muls	r0, r3
 8001ad8:	f7fe fb28 	bl	800012c <__udivsi3>
 8001adc:	2280      	movs	r2, #128	; 0x80
 8001ade:	1c43      	adds	r3, r0, #1
 8001ae0:	00d2      	lsls	r2, r2, #3
 8001ae2:	6961      	ldr	r1, [r4, #20]
 8001ae4:	0008      	movs	r0, r1
 8001ae6:	4010      	ands	r0, r2
 8001ae8:	4211      	tst	r1, r2
 8001aea:	d100      	bne.n	8001aee <HAL_PWREx_ControlVoltageScaling+0x3a>
 8001aec:	bd10      	pop	{r4, pc}
 8001aee:	2b00      	cmp	r3, #0
 8001af0:	d001      	beq.n	8001af6 <HAL_PWREx_ControlVoltageScaling+0x42>
 8001af2:	3b01      	subs	r3, #1
 8001af4:	e7f5      	b.n	8001ae2 <HAL_PWREx_ControlVoltageScaling+0x2e>
 8001af6:	2003      	movs	r0, #3
 8001af8:	e7f8      	b.n	8001aec <HAL_PWREx_ControlVoltageScaling+0x38>
 8001afa:	46c0      	nop			; (mov r8, r8)
 8001afc:	40007000 	.word	0x40007000
 8001b00:	fffff9ff 	.word	0xfffff9ff
 8001b04:	20000000 	.word	0x20000000
 8001b08:	000f4240 	.word	0x000f4240

08001b0c <HAL_RCC_OscConfig>:
 8001b0c:	b5f0      	push	{r4, r5, r6, r7, lr}
 8001b0e:	0004      	movs	r4, r0
 8001b10:	b085      	sub	sp, #20
 8001b12:	2800      	cmp	r0, #0
 8001b14:	d027      	beq.n	8001b66 <HAL_RCC_OscConfig+0x5a>
 8001b16:	6803      	ldr	r3, [r0, #0]
 8001b18:	07db      	lsls	r3, r3, #31
 8001b1a:	d414      	bmi.n	8001b46 <HAL_RCC_OscConfig+0x3a>
 8001b1c:	6823      	ldr	r3, [r4, #0]
 8001b1e:	079b      	lsls	r3, r3, #30
 8001b20:	d462      	bmi.n	8001be8 <HAL_RCC_OscConfig+0xdc>
 8001b22:	6823      	ldr	r3, [r4, #0]
 8001b24:	071b      	lsls	r3, r3, #28
 8001b26:	d500      	bpl.n	8001b2a <HAL_RCC_OscConfig+0x1e>
 8001b28:	e0c7      	b.n	8001cba <HAL_RCC_OscConfig+0x1ae>
 8001b2a:	6823      	ldr	r3, [r4, #0]
 8001b2c:	075b      	lsls	r3, r3, #29
 8001b2e:	d500      	bpl.n	8001b32 <HAL_RCC_OscConfig+0x26>
 8001b30:	e0f8      	b.n	8001d24 <HAL_RCC_OscConfig+0x218>
 8001b32:	6823      	ldr	r3, [r4, #0]
 8001b34:	069b      	lsls	r3, r3, #26
 8001b36:	d500      	bpl.n	8001b3a <HAL_RCC_OscConfig+0x2e>
 8001b38:	e166      	b.n	8001e08 <HAL_RCC_OscConfig+0x2fc>
 8001b3a:	6a23      	ldr	r3, [r4, #32]
 8001b3c:	2b00      	cmp	r3, #0
 8001b3e:	d000      	beq.n	8001b42 <HAL_RCC_OscConfig+0x36>
 8001b40:	e1a5      	b.n	8001e8e <HAL_RCC_OscConfig+0x382>
 8001b42:	2000      	movs	r0, #0
 8001b44:	e029      	b.n	8001b9a <HAL_RCC_OscConfig+0x8e>
 8001b46:	2238      	movs	r2, #56	; 0x38
 8001b48:	4dbb      	ldr	r5, [pc, #748]	; (8001e38 <HAL_RCC_OscConfig+0x32c>)
 8001b4a:	68ab      	ldr	r3, [r5, #8]
 8001b4c:	4013      	ands	r3, r2
 8001b4e:	68ea      	ldr	r2, [r5, #12]
 8001b50:	2b10      	cmp	r3, #16
 8001b52:	d10a      	bne.n	8001b6a <HAL_RCC_OscConfig+0x5e>
 8001b54:	43d2      	mvns	r2, r2
 8001b56:	0793      	lsls	r3, r2, #30
 8001b58:	d109      	bne.n	8001b6e <HAL_RCC_OscConfig+0x62>
 8001b5a:	682b      	ldr	r3, [r5, #0]
 8001b5c:	039b      	lsls	r3, r3, #14
 8001b5e:	d5dd      	bpl.n	8001b1c <HAL_RCC_OscConfig+0x10>
 8001b60:	6863      	ldr	r3, [r4, #4]
 8001b62:	2b00      	cmp	r3, #0
 8001b64:	d1da      	bne.n	8001b1c <HAL_RCC_OscConfig+0x10>
 8001b66:	2001      	movs	r0, #1
 8001b68:	e017      	b.n	8001b9a <HAL_RCC_OscConfig+0x8e>
 8001b6a:	2b08      	cmp	r3, #8
 8001b6c:	d0f5      	beq.n	8001b5a <HAL_RCC_OscConfig+0x4e>
 8001b6e:	2280      	movs	r2, #128	; 0x80
 8001b70:	6863      	ldr	r3, [r4, #4]
 8001b72:	0252      	lsls	r2, r2, #9
 8001b74:	4293      	cmp	r3, r2
 8001b76:	d112      	bne.n	8001b9e <HAL_RCC_OscConfig+0x92>
 8001b78:	682a      	ldr	r2, [r5, #0]
 8001b7a:	4313      	orrs	r3, r2
 8001b7c:	602b      	str	r3, [r5, #0]
 8001b7e:	f7ff fa65 	bl	800104c <HAL_GetTick>
 8001b82:	2780      	movs	r7, #128	; 0x80
 8001b84:	0006      	movs	r6, r0
 8001b86:	02bf      	lsls	r7, r7, #10
 8001b88:	682b      	ldr	r3, [r5, #0]
 8001b8a:	423b      	tst	r3, r7
 8001b8c:	d1c6      	bne.n	8001b1c <HAL_RCC_OscConfig+0x10>
 8001b8e:	f7ff fa5d 	bl	800104c <HAL_GetTick>
 8001b92:	1b80      	subs	r0, r0, r6
 8001b94:	2864      	cmp	r0, #100	; 0x64
 8001b96:	d9f7      	bls.n	8001b88 <HAL_RCC_OscConfig+0x7c>
 8001b98:	2003      	movs	r0, #3
 8001b9a:	b005      	add	sp, #20
 8001b9c:	bdf0      	pop	{r4, r5, r6, r7, pc}
 8001b9e:	21a0      	movs	r1, #160	; 0xa0
 8001ba0:	02c9      	lsls	r1, r1, #11
 8001ba2:	428b      	cmp	r3, r1
 8001ba4:	d108      	bne.n	8001bb8 <HAL_RCC_OscConfig+0xac>
 8001ba6:	2380      	movs	r3, #128	; 0x80
 8001ba8:	6829      	ldr	r1, [r5, #0]
 8001baa:	02db      	lsls	r3, r3, #11
 8001bac:	430b      	orrs	r3, r1
 8001bae:	602b      	str	r3, [r5, #0]
 8001bb0:	682b      	ldr	r3, [r5, #0]
 8001bb2:	431a      	orrs	r2, r3
 8001bb4:	602a      	str	r2, [r5, #0]
 8001bb6:	e7e2      	b.n	8001b7e <HAL_RCC_OscConfig+0x72>
 8001bb8:	682a      	ldr	r2, [r5, #0]
 8001bba:	49a0      	ldr	r1, [pc, #640]	; (8001e3c <HAL_RCC_OscConfig+0x330>)
 8001bbc:	400a      	ands	r2, r1
 8001bbe:	602a      	str	r2, [r5, #0]
 8001bc0:	682a      	ldr	r2, [r5, #0]
 8001bc2:	499f      	ldr	r1, [pc, #636]	; (8001e40 <HAL_RCC_OscConfig+0x334>)
 8001bc4:	400a      	ands	r2, r1
 8001bc6:	602a      	str	r2, [r5, #0]
 8001bc8:	2b00      	cmp	r3, #0
 8001bca:	d1d8      	bne.n	8001b7e <HAL_RCC_OscConfig+0x72>
 8001bcc:	f7ff fa3e 	bl	800104c <HAL_GetTick>
 8001bd0:	2780      	movs	r7, #128	; 0x80
 8001bd2:	0006      	movs	r6, r0
 8001bd4:	02bf      	lsls	r7, r7, #10
 8001bd6:	682b      	ldr	r3, [r5, #0]
 8001bd8:	423b      	tst	r3, r7
 8001bda:	d09f      	beq.n	8001b1c <HAL_RCC_OscConfig+0x10>
 8001bdc:	f7ff fa36 	bl	800104c <HAL_GetTick>
 8001be0:	1b80      	subs	r0, r0, r6
 8001be2:	2864      	cmp	r0, #100	; 0x64
 8001be4:	d9f7      	bls.n	8001bd6 <HAL_RCC_OscConfig+0xca>
 8001be6:	e7d7      	b.n	8001b98 <HAL_RCC_OscConfig+0x8c>
 8001be8:	2338      	movs	r3, #56	; 0x38
 8001bea:	4d93      	ldr	r5, [pc, #588]	; (8001e38 <HAL_RCC_OscConfig+0x32c>)
 8001bec:	68aa      	ldr	r2, [r5, #8]
 8001bee:	4013      	ands	r3, r2
 8001bf0:	68ea      	ldr	r2, [r5, #12]
 8001bf2:	2b10      	cmp	r3, #16
 8001bf4:	d128      	bne.n	8001c48 <HAL_RCC_OscConfig+0x13c>
 8001bf6:	2103      	movs	r1, #3
 8001bf8:	400a      	ands	r2, r1
 8001bfa:	2a02      	cmp	r2, #2
 8001bfc:	d126      	bne.n	8001c4c <HAL_RCC_OscConfig+0x140>
 8001bfe:	682a      	ldr	r2, [r5, #0]
 8001c00:	0552      	lsls	r2, r2, #21
 8001c02:	d502      	bpl.n	8001c0a <HAL_RCC_OscConfig+0xfe>
 8001c04:	68e2      	ldr	r2, [r4, #12]
 8001c06:	2a00      	cmp	r2, #0
 8001c08:	d0ad      	beq.n	8001b66 <HAL_RCC_OscConfig+0x5a>
 8001c0a:	6869      	ldr	r1, [r5, #4]
 8001c0c:	6962      	ldr	r2, [r4, #20]
 8001c0e:	488d      	ldr	r0, [pc, #564]	; (8001e44 <HAL_RCC_OscConfig+0x338>)
 8001c10:	0212      	lsls	r2, r2, #8
 8001c12:	4001      	ands	r1, r0
 8001c14:	430a      	orrs	r2, r1
 8001c16:	606a      	str	r2, [r5, #4]
 8001c18:	2b00      	cmp	r3, #0
 8001c1a:	d10d      	bne.n	8001c38 <HAL_RCC_OscConfig+0x12c>
 8001c1c:	682b      	ldr	r3, [r5, #0]
 8001c1e:	4a8a      	ldr	r2, [pc, #552]	; (8001e48 <HAL_RCC_OscConfig+0x33c>)
 8001c20:	4013      	ands	r3, r2
 8001c22:	6922      	ldr	r2, [r4, #16]
 8001c24:	4313      	orrs	r3, r2
 8001c26:	602b      	str	r3, [r5, #0]
 8001c28:	682b      	ldr	r3, [r5, #0]
 8001c2a:	4a88      	ldr	r2, [pc, #544]	; (8001e4c <HAL_RCC_OscConfig+0x340>)
 8001c2c:	049b      	lsls	r3, r3, #18
 8001c2e:	0f5b      	lsrs	r3, r3, #29
 8001c30:	40da      	lsrs	r2, r3
 8001c32:	0013      	movs	r3, r2
 8001c34:	4a86      	ldr	r2, [pc, #536]	; (8001e50 <HAL_RCC_OscConfig+0x344>)
 8001c36:	6013      	str	r3, [r2, #0]
 8001c38:	4b86      	ldr	r3, [pc, #536]	; (8001e54 <HAL_RCC_OscConfig+0x348>)
 8001c3a:	6818      	ldr	r0, [r3, #0]
 8001c3c:	f7ff f9be 	bl	8000fbc <HAL_InitTick>
 8001c40:	2800      	cmp	r0, #0
 8001c42:	d100      	bne.n	8001c46 <HAL_RCC_OscConfig+0x13a>
 8001c44:	e76d      	b.n	8001b22 <HAL_RCC_OscConfig+0x16>
 8001c46:	e78e      	b.n	8001b66 <HAL_RCC_OscConfig+0x5a>
 8001c48:	2b00      	cmp	r3, #0
 8001c4a:	d0d8      	beq.n	8001bfe <HAL_RCC_OscConfig+0xf2>
 8001c4c:	68e3      	ldr	r3, [r4, #12]
 8001c4e:	2b00      	cmp	r3, #0
 8001c50:	d020      	beq.n	8001c94 <HAL_RCC_OscConfig+0x188>
 8001c52:	682b      	ldr	r3, [r5, #0]
 8001c54:	4a7c      	ldr	r2, [pc, #496]	; (8001e48 <HAL_RCC_OscConfig+0x33c>)
 8001c56:	2780      	movs	r7, #128	; 0x80
 8001c58:	4013      	ands	r3, r2
 8001c5a:	6922      	ldr	r2, [r4, #16]
 8001c5c:	00ff      	lsls	r7, r7, #3
 8001c5e:	4313      	orrs	r3, r2
 8001c60:	602b      	str	r3, [r5, #0]
 8001c62:	2380      	movs	r3, #128	; 0x80
 8001c64:	682a      	ldr	r2, [r5, #0]
 8001c66:	005b      	lsls	r3, r3, #1
 8001c68:	4313      	orrs	r3, r2
 8001c6a:	602b      	str	r3, [r5, #0]
 8001c6c:	f7ff f9ee 	bl	800104c <HAL_GetTick>
 8001c70:	0006      	movs	r6, r0
 8001c72:	682b      	ldr	r3, [r5, #0]
 8001c74:	423b      	tst	r3, r7
 8001c76:	d007      	beq.n	8001c88 <HAL_RCC_OscConfig+0x17c>
 8001c78:	686a      	ldr	r2, [r5, #4]
 8001c7a:	6963      	ldr	r3, [r4, #20]
 8001c7c:	4971      	ldr	r1, [pc, #452]	; (8001e44 <HAL_RCC_OscConfig+0x338>)
 8001c7e:	021b      	lsls	r3, r3, #8
 8001c80:	400a      	ands	r2, r1
 8001c82:	4313      	orrs	r3, r2
 8001c84:	606b      	str	r3, [r5, #4]
 8001c86:	e74c      	b.n	8001b22 <HAL_RCC_OscConfig+0x16>
 8001c88:	f7ff f9e0 	bl	800104c <HAL_GetTick>
 8001c8c:	1b80      	subs	r0, r0, r6
 8001c8e:	2802      	cmp	r0, #2
 8001c90:	d9ef      	bls.n	8001c72 <HAL_RCC_OscConfig+0x166>
 8001c92:	e781      	b.n	8001b98 <HAL_RCC_OscConfig+0x8c>
 8001c94:	682b      	ldr	r3, [r5, #0]
 8001c96:	4a70      	ldr	r2, [pc, #448]	; (8001e58 <HAL_RCC_OscConfig+0x34c>)
 8001c98:	2780      	movs	r7, #128	; 0x80
 8001c9a:	4013      	ands	r3, r2
 8001c9c:	602b      	str	r3, [r5, #0]
 8001c9e:	f7ff f9d5 	bl	800104c <HAL_GetTick>
 8001ca2:	0006      	movs	r6, r0
 8001ca4:	00ff      	lsls	r7, r7, #3
 8001ca6:	682b      	ldr	r3, [r5, #0]
 8001ca8:	423b      	tst	r3, r7
 8001caa:	d100      	bne.n	8001cae <HAL_RCC_OscConfig+0x1a2>
 8001cac:	e739      	b.n	8001b22 <HAL_RCC_OscConfig+0x16>
 8001cae:	f7ff f9cd 	bl	800104c <HAL_GetTick>
 8001cb2:	1b80      	subs	r0, r0, r6
 8001cb4:	2802      	cmp	r0, #2
 8001cb6:	d9f6      	bls.n	8001ca6 <HAL_RCC_OscConfig+0x19a>
 8001cb8:	e76e      	b.n	8001b98 <HAL_RCC_OscConfig+0x8c>
 8001cba:	2238      	movs	r2, #56	; 0x38
 8001cbc:	4d5e      	ldr	r5, [pc, #376]	; (8001e38 <HAL_RCC_OscConfig+0x32c>)
 8001cbe:	68ab      	ldr	r3, [r5, #8]
 8001cc0:	4013      	ands	r3, r2
 8001cc2:	2b18      	cmp	r3, #24
 8001cc4:	d108      	bne.n	8001cd8 <HAL_RCC_OscConfig+0x1cc>
 8001cc6:	6e2b      	ldr	r3, [r5, #96]	; 0x60
 8001cc8:	079b      	lsls	r3, r3, #30
 8001cca:	d400      	bmi.n	8001cce <HAL_RCC_OscConfig+0x1c2>
 8001ccc:	e72d      	b.n	8001b2a <HAL_RCC_OscConfig+0x1e>
 8001cce:	69a3      	ldr	r3, [r4, #24]
 8001cd0:	2b00      	cmp	r3, #0
 8001cd2:	d000      	beq.n	8001cd6 <HAL_RCC_OscConfig+0x1ca>
 8001cd4:	e729      	b.n	8001b2a <HAL_RCC_OscConfig+0x1e>
 8001cd6:	e746      	b.n	8001b66 <HAL_RCC_OscConfig+0x5a>
 8001cd8:	69a2      	ldr	r2, [r4, #24]
 8001cda:	2301      	movs	r3, #1
 8001cdc:	2a00      	cmp	r2, #0
 8001cde:	d010      	beq.n	8001d02 <HAL_RCC_OscConfig+0x1f6>
 8001ce0:	6e2a      	ldr	r2, [r5, #96]	; 0x60
 8001ce2:	2702      	movs	r7, #2
 8001ce4:	4313      	orrs	r3, r2
 8001ce6:	662b      	str	r3, [r5, #96]	; 0x60
 8001ce8:	f7ff f9b0 	bl	800104c <HAL_GetTick>
 8001cec:	0006      	movs	r6, r0
 8001cee:	6e2b      	ldr	r3, [r5, #96]	; 0x60
 8001cf0:	423b      	tst	r3, r7
 8001cf2:	d000      	beq.n	8001cf6 <HAL_RCC_OscConfig+0x1ea>
 8001cf4:	e719      	b.n	8001b2a <HAL_RCC_OscConfig+0x1e>
 8001cf6:	f7ff f9a9 	bl	800104c <HAL_GetTick>
 8001cfa:	1b80      	subs	r0, r0, r6
 8001cfc:	2802      	cmp	r0, #2
 8001cfe:	d9f6      	bls.n	8001cee <HAL_RCC_OscConfig+0x1e2>
 8001d00:	e74a      	b.n	8001b98 <HAL_RCC_OscConfig+0x8c>
 8001d02:	6e2a      	ldr	r2, [r5, #96]	; 0x60
 8001d04:	2702      	movs	r7, #2
 8001d06:	439a      	bics	r2, r3
 8001d08:	662a      	str	r2, [r5, #96]	; 0x60
 8001d0a:	f7ff f99f 	bl	800104c <HAL_GetTick>
 8001d0e:	0006      	movs	r6, r0
 8001d10:	6e2b      	ldr	r3, [r5, #96]	; 0x60
 8001d12:	423b      	tst	r3, r7
 8001d14:	d100      	bne.n	8001d18 <HAL_RCC_OscConfig+0x20c>
 8001d16:	e708      	b.n	8001b2a <HAL_RCC_OscConfig+0x1e>
 8001d18:	f7ff f998 	bl	800104c <HAL_GetTick>
 8001d1c:	1b80      	subs	r0, r0, r6
 8001d1e:	2802      	cmp	r0, #2
 8001d20:	d9f6      	bls.n	8001d10 <HAL_RCC_OscConfig+0x204>
 8001d22:	e739      	b.n	8001b98 <HAL_RCC_OscConfig+0x8c>
 8001d24:	2238      	movs	r2, #56	; 0x38
 8001d26:	4d44      	ldr	r5, [pc, #272]	; (8001e38 <HAL_RCC_OscConfig+0x32c>)
 8001d28:	68ab      	ldr	r3, [r5, #8]
 8001d2a:	4013      	ands	r3, r2
 8001d2c:	2b20      	cmp	r3, #32
 8001d2e:	d108      	bne.n	8001d42 <HAL_RCC_OscConfig+0x236>
 8001d30:	6deb      	ldr	r3, [r5, #92]	; 0x5c
 8001d32:	079b      	lsls	r3, r3, #30
 8001d34:	d400      	bmi.n	8001d38 <HAL_RCC_OscConfig+0x22c>
 8001d36:	e6fc      	b.n	8001b32 <HAL_RCC_OscConfig+0x26>
 8001d38:	68a3      	ldr	r3, [r4, #8]
 8001d3a:	2b00      	cmp	r3, #0
 8001d3c:	d000      	beq.n	8001d40 <HAL_RCC_OscConfig+0x234>
 8001d3e:	e6f8      	b.n	8001b32 <HAL_RCC_OscConfig+0x26>
 8001d40:	e711      	b.n	8001b66 <HAL_RCC_OscConfig+0x5a>
 8001d42:	2280      	movs	r2, #128	; 0x80
 8001d44:	2100      	movs	r1, #0
 8001d46:	6beb      	ldr	r3, [r5, #60]	; 0x3c
 8001d48:	0552      	lsls	r2, r2, #21
 8001d4a:	9100      	str	r1, [sp, #0]
 8001d4c:	4213      	tst	r3, r2
 8001d4e:	d108      	bne.n	8001d62 <HAL_RCC_OscConfig+0x256>
 8001d50:	6beb      	ldr	r3, [r5, #60]	; 0x3c
 8001d52:	4313      	orrs	r3, r2
 8001d54:	63eb      	str	r3, [r5, #60]	; 0x3c
 8001d56:	6beb      	ldr	r3, [r5, #60]	; 0x3c
 8001d58:	4013      	ands	r3, r2
 8001d5a:	9303      	str	r3, [sp, #12]
 8001d5c:	9b03      	ldr	r3, [sp, #12]
 8001d5e:	2301      	movs	r3, #1
 8001d60:	9300      	str	r3, [sp, #0]
 8001d62:	2780      	movs	r7, #128	; 0x80
 8001d64:	4e3d      	ldr	r6, [pc, #244]	; (8001e5c <HAL_RCC_OscConfig+0x350>)
 8001d66:	007f      	lsls	r7, r7, #1
 8001d68:	6833      	ldr	r3, [r6, #0]
 8001d6a:	423b      	tst	r3, r7
 8001d6c:	d015      	beq.n	8001d9a <HAL_RCC_OscConfig+0x28e>
 8001d6e:	68a3      	ldr	r3, [r4, #8]
 8001d70:	2b01      	cmp	r3, #1
 8001d72:	d122      	bne.n	8001dba <HAL_RCC_OscConfig+0x2ae>
 8001d74:	6dea      	ldr	r2, [r5, #92]	; 0x5c
 8001d76:	4313      	orrs	r3, r2
 8001d78:	65eb      	str	r3, [r5, #92]	; 0x5c
 8001d7a:	f7ff f967 	bl	800104c <HAL_GetTick>
 8001d7e:	2702      	movs	r7, #2
 8001d80:	0006      	movs	r6, r0
 8001d82:	6deb      	ldr	r3, [r5, #92]	; 0x5c
 8001d84:	423b      	tst	r3, r7
 8001d86:	d038      	beq.n	8001dfa <HAL_RCC_OscConfig+0x2ee>
 8001d88:	9b00      	ldr	r3, [sp, #0]
 8001d8a:	2b01      	cmp	r3, #1
 8001d8c:	d000      	beq.n	8001d90 <HAL_RCC_OscConfig+0x284>
 8001d8e:	e6d0      	b.n	8001b32 <HAL_RCC_OscConfig+0x26>
 8001d90:	6beb      	ldr	r3, [r5, #60]	; 0x3c
 8001d92:	4a33      	ldr	r2, [pc, #204]	; (8001e60 <HAL_RCC_OscConfig+0x354>)
 8001d94:	4013      	ands	r3, r2
 8001d96:	63eb      	str	r3, [r5, #60]	; 0x3c
 8001d98:	e6cb      	b.n	8001b32 <HAL_RCC_OscConfig+0x26>
 8001d9a:	6833      	ldr	r3, [r6, #0]
 8001d9c:	433b      	orrs	r3, r7
 8001d9e:	6033      	str	r3, [r6, #0]
 8001da0:	f7ff f954 	bl	800104c <HAL_GetTick>
 8001da4:	9001      	str	r0, [sp, #4]
 8001da6:	6833      	ldr	r3, [r6, #0]
 8001da8:	423b      	tst	r3, r7
 8001daa:	d1e0      	bne.n	8001d6e <HAL_RCC_OscConfig+0x262>
 8001dac:	f7ff f94e 	bl	800104c <HAL_GetTick>
 8001db0:	9b01      	ldr	r3, [sp, #4]
 8001db2:	1ac0      	subs	r0, r0, r3
 8001db4:	2802      	cmp	r0, #2
 8001db6:	d9f6      	bls.n	8001da6 <HAL_RCC_OscConfig+0x29a>
 8001db8:	e6ee      	b.n	8001b98 <HAL_RCC_OscConfig+0x8c>
 8001dba:	6dea      	ldr	r2, [r5, #92]	; 0x5c
 8001dbc:	2b05      	cmp	r3, #5
 8001dbe:	d105      	bne.n	8001dcc <HAL_RCC_OscConfig+0x2c0>
 8001dc0:	3b01      	subs	r3, #1
 8001dc2:	4313      	orrs	r3, r2
 8001dc4:	65eb      	str	r3, [r5, #92]	; 0x5c
 8001dc6:	6dea      	ldr	r2, [r5, #92]	; 0x5c
 8001dc8:	2301      	movs	r3, #1
 8001dca:	e7d4      	b.n	8001d76 <HAL_RCC_OscConfig+0x26a>
 8001dcc:	2101      	movs	r1, #1
 8001dce:	438a      	bics	r2, r1
 8001dd0:	65ea      	str	r2, [r5, #92]	; 0x5c
 8001dd2:	6dea      	ldr	r2, [r5, #92]	; 0x5c
 8001dd4:	3103      	adds	r1, #3
 8001dd6:	438a      	bics	r2, r1
 8001dd8:	65ea      	str	r2, [r5, #92]	; 0x5c
 8001dda:	2b00      	cmp	r3, #0
 8001ddc:	d1cd      	bne.n	8001d7a <HAL_RCC_OscConfig+0x26e>
 8001dde:	f7ff f935 	bl	800104c <HAL_GetTick>
 8001de2:	2702      	movs	r7, #2
 8001de4:	0006      	movs	r6, r0
 8001de6:	6deb      	ldr	r3, [r5, #92]	; 0x5c
 8001de8:	423b      	tst	r3, r7
 8001dea:	d0cd      	beq.n	8001d88 <HAL_RCC_OscConfig+0x27c>
 8001dec:	f7ff f92e 	bl	800104c <HAL_GetTick>
 8001df0:	4b1c      	ldr	r3, [pc, #112]	; (8001e64 <HAL_RCC_OscConfig+0x358>)
 8001df2:	1b80      	subs	r0, r0, r6
 8001df4:	4298      	cmp	r0, r3
 8001df6:	d9f6      	bls.n	8001de6 <HAL_RCC_OscConfig+0x2da>
 8001df8:	e6ce      	b.n	8001b98 <HAL_RCC_OscConfig+0x8c>
 8001dfa:	f7ff f927 	bl	800104c <HAL_GetTick>
 8001dfe:	4b19      	ldr	r3, [pc, #100]	; (8001e64 <HAL_RCC_OscConfig+0x358>)
 8001e00:	1b80      	subs	r0, r0, r6
 8001e02:	4298      	cmp	r0, r3
 8001e04:	d9bd      	bls.n	8001d82 <HAL_RCC_OscConfig+0x276>
 8001e06:	e6c7      	b.n	8001b98 <HAL_RCC_OscConfig+0x8c>
 8001e08:	69e3      	ldr	r3, [r4, #28]
 8001e0a:	4d0b      	ldr	r5, [pc, #44]	; (8001e38 <HAL_RCC_OscConfig+0x32c>)
 8001e0c:	2b00      	cmp	r3, #0
 8001e0e:	d02b      	beq.n	8001e68 <HAL_RCC_OscConfig+0x35c>
 8001e10:	2380      	movs	r3, #128	; 0x80
 8001e12:	682a      	ldr	r2, [r5, #0]
 8001e14:	03db      	lsls	r3, r3, #15
 8001e16:	4313      	orrs	r3, r2
 8001e18:	602b      	str	r3, [r5, #0]
 8001e1a:	f7ff f917 	bl	800104c <HAL_GetTick>
 8001e1e:	2780      	movs	r7, #128	; 0x80
 8001e20:	0006      	movs	r6, r0
 8001e22:	043f      	lsls	r7, r7, #16
 8001e24:	682b      	ldr	r3, [r5, #0]
 8001e26:	423b      	tst	r3, r7
 8001e28:	d000      	beq.n	8001e2c <HAL_RCC_OscConfig+0x320>
 8001e2a:	e686      	b.n	8001b3a <HAL_RCC_OscConfig+0x2e>
 8001e2c:	f7ff f90e 	bl	800104c <HAL_GetTick>
 8001e30:	1b80      	subs	r0, r0, r6
 8001e32:	2802      	cmp	r0, #2
 8001e34:	d9f6      	bls.n	8001e24 <HAL_RCC_OscConfig+0x318>
 8001e36:	e6af      	b.n	8001b98 <HAL_RCC_OscConfig+0x8c>
 8001e38:	40021000 	.word	0x40021000
 8001e3c:	fffeffff 	.word	0xfffeffff
 8001e40:	fffbffff 	.word	0xfffbffff
 8001e44:	ffff80ff 	.word	0xffff80ff
 8001e48:	ffffc7ff 	.word	0xffffc7ff
 8001e4c:	00f42400 	.word	0x00f42400
 8001e50:	20000000 	.word	0x20000000
 8001e54:	20000008 	.word	0x20000008
 8001e58:	fffffeff 	.word	0xfffffeff
 8001e5c:	40007000 	.word	0x40007000
 8001e60:	efffffff 	.word	0xefffffff
 8001e64:	00001388 	.word	0x00001388
 8001e68:	682b      	ldr	r3, [r5, #0]
 8001e6a:	4a4e      	ldr	r2, [pc, #312]	; (8001fa4 <HAL_RCC_OscConfig+0x498>)
 8001e6c:	2780      	movs	r7, #128	; 0x80
 8001e6e:	4013      	ands	r3, r2
 8001e70:	602b      	str	r3, [r5, #0]
 8001e72:	f7ff f8eb 	bl	800104c <HAL_GetTick>
 8001e76:	0006      	movs	r6, r0
 8001e78:	043f      	lsls	r7, r7, #16
 8001e7a:	682b      	ldr	r3, [r5, #0]
 8001e7c:	423b      	tst	r3, r7
 8001e7e:	d100      	bne.n	8001e82 <HAL_RCC_OscConfig+0x376>
 8001e80:	e65b      	b.n	8001b3a <HAL_RCC_OscConfig+0x2e>
 8001e82:	f7ff f8e3 	bl	800104c <HAL_GetTick>
 8001e86:	1b80      	subs	r0, r0, r6
 8001e88:	2802      	cmp	r0, #2
 8001e8a:	d9f6      	bls.n	8001e7a <HAL_RCC_OscConfig+0x36e>
 8001e8c:	e684      	b.n	8001b98 <HAL_RCC_OscConfig+0x8c>
 8001e8e:	2138      	movs	r1, #56	; 0x38
 8001e90:	4d45      	ldr	r5, [pc, #276]	; (8001fa8 <HAL_RCC_OscConfig+0x49c>)
 8001e92:	68aa      	ldr	r2, [r5, #8]
 8001e94:	400a      	ands	r2, r1
 8001e96:	2a10      	cmp	r2, #16
 8001e98:	d055      	beq.n	8001f46 <HAL_RCC_OscConfig+0x43a>
 8001e9a:	4a44      	ldr	r2, [pc, #272]	; (8001fac <HAL_RCC_OscConfig+0x4a0>)
 8001e9c:	2b02      	cmp	r3, #2
 8001e9e:	d13a      	bne.n	8001f16 <HAL_RCC_OscConfig+0x40a>
 8001ea0:	682b      	ldr	r3, [r5, #0]
 8001ea2:	2780      	movs	r7, #128	; 0x80
 8001ea4:	4013      	ands	r3, r2
 8001ea6:	602b      	str	r3, [r5, #0]
 8001ea8:	f7ff f8d0 	bl	800104c <HAL_GetTick>
 8001eac:	0006      	movs	r6, r0
 8001eae:	04bf      	lsls	r7, r7, #18
 8001eb0:	682b      	ldr	r3, [r5, #0]
 8001eb2:	423b      	tst	r3, r7
 8001eb4:	d129      	bne.n	8001f0a <HAL_RCC_OscConfig+0x3fe>
 8001eb6:	6aa1      	ldr	r1, [r4, #40]	; 0x28
 8001eb8:	6a63      	ldr	r3, [r4, #36]	; 0x24
 8001eba:	68ea      	ldr	r2, [r5, #12]
 8001ebc:	430b      	orrs	r3, r1
 8001ebe:	493c      	ldr	r1, [pc, #240]	; (8001fb0 <HAL_RCC_OscConfig+0x4a4>)
 8001ec0:	2680      	movs	r6, #128	; 0x80
 8001ec2:	400a      	ands	r2, r1
 8001ec4:	4313      	orrs	r3, r2
 8001ec6:	6b22      	ldr	r2, [r4, #48]	; 0x30
 8001ec8:	04b6      	lsls	r6, r6, #18
 8001eca:	4313      	orrs	r3, r2
 8001ecc:	6b62      	ldr	r2, [r4, #52]	; 0x34
 8001ece:	4313      	orrs	r3, r2
 8001ed0:	6ba2      	ldr	r2, [r4, #56]	; 0x38
 8001ed2:	4313      	orrs	r3, r2
 8001ed4:	6ae2      	ldr	r2, [r4, #44]	; 0x2c
 8001ed6:	0212      	lsls	r2, r2, #8
 8001ed8:	4313      	orrs	r3, r2
 8001eda:	60eb      	str	r3, [r5, #12]
 8001edc:	2380      	movs	r3, #128	; 0x80
 8001ede:	682a      	ldr	r2, [r5, #0]
 8001ee0:	045b      	lsls	r3, r3, #17
 8001ee2:	4313      	orrs	r3, r2
 8001ee4:	602b      	str	r3, [r5, #0]
 8001ee6:	2380      	movs	r3, #128	; 0x80
 8001ee8:	68ea      	ldr	r2, [r5, #12]
 8001eea:	055b      	lsls	r3, r3, #21
 8001eec:	4313      	orrs	r3, r2
 8001eee:	60eb      	str	r3, [r5, #12]
 8001ef0:	f7ff f8ac 	bl	800104c <HAL_GetTick>
 8001ef4:	0004      	movs	r4, r0
 8001ef6:	682b      	ldr	r3, [r5, #0]
 8001ef8:	4233      	tst	r3, r6
 8001efa:	d000      	beq.n	8001efe <HAL_RCC_OscConfig+0x3f2>
 8001efc:	e621      	b.n	8001b42 <HAL_RCC_OscConfig+0x36>
 8001efe:	f7ff f8a5 	bl	800104c <HAL_GetTick>
 8001f02:	1b00      	subs	r0, r0, r4
 8001f04:	2802      	cmp	r0, #2
 8001f06:	d9f6      	bls.n	8001ef6 <HAL_RCC_OscConfig+0x3ea>
 8001f08:	e646      	b.n	8001b98 <HAL_RCC_OscConfig+0x8c>
 8001f0a:	f7ff f89f 	bl	800104c <HAL_GetTick>
 8001f0e:	1b80      	subs	r0, r0, r6
 8001f10:	2802      	cmp	r0, #2
 8001f12:	d9cd      	bls.n	8001eb0 <HAL_RCC_OscConfig+0x3a4>
 8001f14:	e640      	b.n	8001b98 <HAL_RCC_OscConfig+0x8c>
 8001f16:	682b      	ldr	r3, [r5, #0]
 8001f18:	2680      	movs	r6, #128	; 0x80
 8001f1a:	4013      	ands	r3, r2
 8001f1c:	602b      	str	r3, [r5, #0]
 8001f1e:	f7ff f895 	bl	800104c <HAL_GetTick>
 8001f22:	0004      	movs	r4, r0
 8001f24:	04b6      	lsls	r6, r6, #18
 8001f26:	682b      	ldr	r3, [r5, #0]
 8001f28:	0018      	movs	r0, r3
 8001f2a:	4030      	ands	r0, r6
 8001f2c:	4233      	tst	r3, r6
 8001f2e:	d104      	bne.n	8001f3a <HAL_RCC_OscConfig+0x42e>
 8001f30:	68eb      	ldr	r3, [r5, #12]
 8001f32:	4a20      	ldr	r2, [pc, #128]	; (8001fb4 <HAL_RCC_OscConfig+0x4a8>)
 8001f34:	4013      	ands	r3, r2
 8001f36:	60eb      	str	r3, [r5, #12]
 8001f38:	e62f      	b.n	8001b9a <HAL_RCC_OscConfig+0x8e>
 8001f3a:	f7ff f887 	bl	800104c <HAL_GetTick>
 8001f3e:	1b00      	subs	r0, r0, r4
 8001f40:	2802      	cmp	r0, #2
 8001f42:	d9f0      	bls.n	8001f26 <HAL_RCC_OscConfig+0x41a>
 8001f44:	e628      	b.n	8001b98 <HAL_RCC_OscConfig+0x8c>
 8001f46:	0018      	movs	r0, r3
 8001f48:	2b01      	cmp	r3, #1
 8001f4a:	d100      	bne.n	8001f4e <HAL_RCC_OscConfig+0x442>
 8001f4c:	e625      	b.n	8001b9a <HAL_RCC_OscConfig+0x8e>
 8001f4e:	2203      	movs	r2, #3
 8001f50:	68eb      	ldr	r3, [r5, #12]
 8001f52:	6a61      	ldr	r1, [r4, #36]	; 0x24
 8001f54:	401a      	ands	r2, r3
 8001f56:	428a      	cmp	r2, r1
 8001f58:	d000      	beq.n	8001f5c <HAL_RCC_OscConfig+0x450>
 8001f5a:	e604      	b.n	8001b66 <HAL_RCC_OscConfig+0x5a>
 8001f5c:	2270      	movs	r2, #112	; 0x70
 8001f5e:	6aa1      	ldr	r1, [r4, #40]	; 0x28
 8001f60:	401a      	ands	r2, r3
 8001f62:	428a      	cmp	r2, r1
 8001f64:	d000      	beq.n	8001f68 <HAL_RCC_OscConfig+0x45c>
 8001f66:	e5fe      	b.n	8001b66 <HAL_RCC_OscConfig+0x5a>
 8001f68:	21fe      	movs	r1, #254	; 0xfe
 8001f6a:	6ae2      	ldr	r2, [r4, #44]	; 0x2c
 8001f6c:	01c9      	lsls	r1, r1, #7
 8001f6e:	4019      	ands	r1, r3
 8001f70:	0212      	lsls	r2, r2, #8
 8001f72:	4291      	cmp	r1, r2
 8001f74:	d000      	beq.n	8001f78 <HAL_RCC_OscConfig+0x46c>
 8001f76:	e5f6      	b.n	8001b66 <HAL_RCC_OscConfig+0x5a>
 8001f78:	22f8      	movs	r2, #248	; 0xf8
 8001f7a:	6b21      	ldr	r1, [r4, #48]	; 0x30
 8001f7c:	0392      	lsls	r2, r2, #14
 8001f7e:	401a      	ands	r2, r3
 8001f80:	428a      	cmp	r2, r1
 8001f82:	d000      	beq.n	8001f86 <HAL_RCC_OscConfig+0x47a>
 8001f84:	e5ef      	b.n	8001b66 <HAL_RCC_OscConfig+0x5a>
 8001f86:	22e0      	movs	r2, #224	; 0xe0
 8001f88:	6b61      	ldr	r1, [r4, #52]	; 0x34
 8001f8a:	0512      	lsls	r2, r2, #20
 8001f8c:	401a      	ands	r2, r3
 8001f8e:	428a      	cmp	r2, r1
 8001f90:	d000      	beq.n	8001f94 <HAL_RCC_OscConfig+0x488>
 8001f92:	e5e8      	b.n	8001b66 <HAL_RCC_OscConfig+0x5a>
 8001f94:	6ba2      	ldr	r2, [r4, #56]	; 0x38
 8001f96:	0f5b      	lsrs	r3, r3, #29
 8001f98:	075b      	lsls	r3, r3, #29
 8001f9a:	4293      	cmp	r3, r2
 8001f9c:	d100      	bne.n	8001fa0 <HAL_RCC_OscConfig+0x494>
 8001f9e:	e5d0      	b.n	8001b42 <HAL_RCC_OscConfig+0x36>
 8001fa0:	e5e1      	b.n	8001b66 <HAL_RCC_OscConfig+0x5a>
 8001fa2:	46c0      	nop			; (mov r8, r8)
 8001fa4:	ffbfffff 	.word	0xffbfffff
 8001fa8:	40021000 	.word	0x40021000
 8001fac:	feffffff 	.word	0xfeffffff
 8001fb0:	11c1808c 	.word	0x11c1808c
 8001fb4:	eefefffc 	.word	0xeefefffc

08001fb8 <HAL_RCC_GetSysClockFreq>:
 8001fb8:	2338      	movs	r3, #56	; 0x38
 8001fba:	b570      	push	{r4, r5, r6, lr}
 8001fbc:	4c1e      	ldr	r4, [pc, #120]	; (8002038 <HAL_RCC_GetSysClockFreq+0x80>)
 8001fbe:	68a2      	ldr	r2, [r4, #8]
 8001fc0:	421a      	tst	r2, r3
 8001fc2:	d105      	bne.n	8001fd0 <HAL_RCC_GetSysClockFreq+0x18>
 8001fc4:	6823      	ldr	r3, [r4, #0]
 8001fc6:	481d      	ldr	r0, [pc, #116]	; (800203c <HAL_RCC_GetSysClockFreq+0x84>)
 8001fc8:	049b      	lsls	r3, r3, #18
 8001fca:	0f5b      	lsrs	r3, r3, #29
 8001fcc:	40d8      	lsrs	r0, r3
 8001fce:	bd70      	pop	{r4, r5, r6, pc}
 8001fd0:	68a2      	ldr	r2, [r4, #8]
 8001fd2:	401a      	ands	r2, r3
 8001fd4:	2a08      	cmp	r2, #8
 8001fd6:	d02a      	beq.n	800202e <HAL_RCC_GetSysClockFreq+0x76>
 8001fd8:	68a2      	ldr	r2, [r4, #8]
 8001fda:	401a      	ands	r2, r3
 8001fdc:	2a10      	cmp	r2, #16
 8001fde:	d11a      	bne.n	8002016 <HAL_RCC_GetSysClockFreq+0x5e>
 8001fe0:	68e3      	ldr	r3, [r4, #12]
 8001fe2:	68e1      	ldr	r1, [r4, #12]
 8001fe4:	43db      	mvns	r3, r3
 8001fe6:	0649      	lsls	r1, r1, #25
 8001fe8:	0f49      	lsrs	r1, r1, #29
 8001fea:	257f      	movs	r5, #127	; 0x7f
 8001fec:	3101      	adds	r1, #1
 8001fee:	079b      	lsls	r3, r3, #30
 8001ff0:	d10c      	bne.n	800200c <HAL_RCC_GetSysClockFreq+0x54>
 8001ff2:	68e3      	ldr	r3, [r4, #12]
 8001ff4:	4812      	ldr	r0, [pc, #72]	; (8002040 <HAL_RCC_GetSysClockFreq+0x88>)
 8001ff6:	0a1b      	lsrs	r3, r3, #8
 8001ff8:	401d      	ands	r5, r3
 8001ffa:	f7fe f897 	bl	800012c <__udivsi3>
 8001ffe:	68e1      	ldr	r1, [r4, #12]
 8002000:	4368      	muls	r0, r5
 8002002:	0f49      	lsrs	r1, r1, #29
 8002004:	3101      	adds	r1, #1
 8002006:	f7fe f891 	bl	800012c <__udivsi3>
 800200a:	e7e0      	b.n	8001fce <HAL_RCC_GetSysClockFreq+0x16>
 800200c:	68e3      	ldr	r3, [r4, #12]
 800200e:	480b      	ldr	r0, [pc, #44]	; (800203c <HAL_RCC_GetSysClockFreq+0x84>)
 8002010:	0a1b      	lsrs	r3, r3, #8
 8002012:	401d      	ands	r5, r3
 8002014:	e7f1      	b.n	8001ffa <HAL_RCC_GetSysClockFreq+0x42>
 8002016:	68a2      	ldr	r2, [r4, #8]
 8002018:	401a      	ands	r2, r3
 800201a:	2a20      	cmp	r2, #32
 800201c:	d009      	beq.n	8002032 <HAL_RCC_GetSysClockFreq+0x7a>
 800201e:	68a2      	ldr	r2, [r4, #8]
 8002020:	2000      	movs	r0, #0
 8002022:	4013      	ands	r3, r2
 8002024:	2b18      	cmp	r3, #24
 8002026:	d1d2      	bne.n	8001fce <HAL_RCC_GetSysClockFreq+0x16>
 8002028:	20fa      	movs	r0, #250	; 0xfa
 800202a:	01c0      	lsls	r0, r0, #7
 800202c:	e7cf      	b.n	8001fce <HAL_RCC_GetSysClockFreq+0x16>
 800202e:	4804      	ldr	r0, [pc, #16]	; (8002040 <HAL_RCC_GetSysClockFreq+0x88>)
 8002030:	e7cd      	b.n	8001fce <HAL_RCC_GetSysClockFreq+0x16>
 8002032:	2080      	movs	r0, #128	; 0x80
 8002034:	0200      	lsls	r0, r0, #8
 8002036:	e7ca      	b.n	8001fce <HAL_RCC_GetSysClockFreq+0x16>
 8002038:	40021000 	.word	0x40021000
 800203c:	00f42400 	.word	0x00f42400
 8002040:	007a1200 	.word	0x007a1200

08002044 <HAL_RCC_ClockConfig>:
 8002044:	b5f7      	push	{r0, r1, r2, r4, r5, r6, r7, lr}
 8002046:	0004      	movs	r4, r0
 8002048:	000d      	movs	r5, r1
 800204a:	2800      	cmp	r0, #0
 800204c:	d101      	bne.n	8002052 <HAL_RCC_ClockConfig+0xe>
 800204e:	2001      	movs	r0, #1
 8002050:	bdfe      	pop	{r1, r2, r3, r4, r5, r6, r7, pc}
 8002052:	2707      	movs	r7, #7
 8002054:	4e4a      	ldr	r6, [pc, #296]	; (8002180 <HAL_RCC_ClockConfig+0x13c>)
 8002056:	6833      	ldr	r3, [r6, #0]
 8002058:	403b      	ands	r3, r7
 800205a:	428b      	cmp	r3, r1
 800205c:	d32a      	bcc.n	80020b4 <HAL_RCC_ClockConfig+0x70>
 800205e:	6821      	ldr	r1, [r4, #0]
 8002060:	078b      	lsls	r3, r1, #30
 8002062:	d43b      	bmi.n	80020dc <HAL_RCC_ClockConfig+0x98>
 8002064:	07cb      	lsls	r3, r1, #31
 8002066:	d448      	bmi.n	80020fa <HAL_RCC_ClockConfig+0xb6>
 8002068:	2707      	movs	r7, #7
 800206a:	6833      	ldr	r3, [r6, #0]
 800206c:	403b      	ands	r3, r7
 800206e:	42ab      	cmp	r3, r5
 8002070:	d90a      	bls.n	8002088 <HAL_RCC_ClockConfig+0x44>
 8002072:	6833      	ldr	r3, [r6, #0]
 8002074:	43bb      	bics	r3, r7
 8002076:	432b      	orrs	r3, r5
 8002078:	6033      	str	r3, [r6, #0]
 800207a:	f7fe ffe7 	bl	800104c <HAL_GetTick>
 800207e:	9001      	str	r0, [sp, #4]
 8002080:	6833      	ldr	r3, [r6, #0]
 8002082:	403b      	ands	r3, r7
 8002084:	42ab      	cmp	r3, r5
 8002086:	d16b      	bne.n	8002160 <HAL_RCC_ClockConfig+0x11c>
 8002088:	6823      	ldr	r3, [r4, #0]
 800208a:	4d3e      	ldr	r5, [pc, #248]	; (8002184 <HAL_RCC_ClockConfig+0x140>)
 800208c:	075b      	lsls	r3, r3, #29
 800208e:	d46f      	bmi.n	8002170 <HAL_RCC_ClockConfig+0x12c>
 8002090:	f7ff ff92 	bl	8001fb8 <HAL_RCC_GetSysClockFreq>
 8002094:	68ab      	ldr	r3, [r5, #8]
 8002096:	4a3c      	ldr	r2, [pc, #240]	; (8002188 <HAL_RCC_ClockConfig+0x144>)
 8002098:	051b      	lsls	r3, r3, #20
 800209a:	0f1b      	lsrs	r3, r3, #28
 800209c:	009b      	lsls	r3, r3, #2
 800209e:	589b      	ldr	r3, [r3, r2]
 80020a0:	221f      	movs	r2, #31
 80020a2:	4013      	ands	r3, r2
 80020a4:	40d8      	lsrs	r0, r3
 80020a6:	4b39      	ldr	r3, [pc, #228]	; (800218c <HAL_RCC_ClockConfig+0x148>)
 80020a8:	6018      	str	r0, [r3, #0]
 80020aa:	4b39      	ldr	r3, [pc, #228]	; (8002190 <HAL_RCC_ClockConfig+0x14c>)
 80020ac:	6818      	ldr	r0, [r3, #0]
 80020ae:	f7fe ff85 	bl	8000fbc <HAL_InitTick>
 80020b2:	e7cd      	b.n	8002050 <HAL_RCC_ClockConfig+0xc>
 80020b4:	6833      	ldr	r3, [r6, #0]
 80020b6:	43bb      	bics	r3, r7
 80020b8:	430b      	orrs	r3, r1
 80020ba:	6033      	str	r3, [r6, #0]
 80020bc:	f7fe ffc6 	bl	800104c <HAL_GetTick>
 80020c0:	9001      	str	r0, [sp, #4]
 80020c2:	6833      	ldr	r3, [r6, #0]
 80020c4:	403b      	ands	r3, r7
 80020c6:	42ab      	cmp	r3, r5
 80020c8:	d0c9      	beq.n	800205e <HAL_RCC_ClockConfig+0x1a>
 80020ca:	f7fe ffbf 	bl	800104c <HAL_GetTick>
 80020ce:	9b01      	ldr	r3, [sp, #4]
 80020d0:	1ac0      	subs	r0, r0, r3
 80020d2:	4b30      	ldr	r3, [pc, #192]	; (8002194 <HAL_RCC_ClockConfig+0x150>)
 80020d4:	4298      	cmp	r0, r3
 80020d6:	d9f4      	bls.n	80020c2 <HAL_RCC_ClockConfig+0x7e>
 80020d8:	2003      	movs	r0, #3
 80020da:	e7b9      	b.n	8002050 <HAL_RCC_ClockConfig+0xc>
 80020dc:	4a29      	ldr	r2, [pc, #164]	; (8002184 <HAL_RCC_ClockConfig+0x140>)
 80020de:	074b      	lsls	r3, r1, #29
 80020e0:	d504      	bpl.n	80020ec <HAL_RCC_ClockConfig+0xa8>
 80020e2:	23e0      	movs	r3, #224	; 0xe0
 80020e4:	6890      	ldr	r0, [r2, #8]
 80020e6:	01db      	lsls	r3, r3, #7
 80020e8:	4303      	orrs	r3, r0
 80020ea:	6093      	str	r3, [r2, #8]
 80020ec:	6893      	ldr	r3, [r2, #8]
 80020ee:	482a      	ldr	r0, [pc, #168]	; (8002198 <HAL_RCC_ClockConfig+0x154>)
 80020f0:	4003      	ands	r3, r0
 80020f2:	68a0      	ldr	r0, [r4, #8]
 80020f4:	4303      	orrs	r3, r0
 80020f6:	6093      	str	r3, [r2, #8]
 80020f8:	e7b4      	b.n	8002064 <HAL_RCC_ClockConfig+0x20>
 80020fa:	6862      	ldr	r2, [r4, #4]
 80020fc:	4f21      	ldr	r7, [pc, #132]	; (8002184 <HAL_RCC_ClockConfig+0x140>)
 80020fe:	2a01      	cmp	r2, #1
 8002100:	d119      	bne.n	8002136 <HAL_RCC_ClockConfig+0xf2>
 8002102:	683b      	ldr	r3, [r7, #0]
 8002104:	039b      	lsls	r3, r3, #14
 8002106:	d5a2      	bpl.n	800204e <HAL_RCC_ClockConfig+0xa>
 8002108:	2107      	movs	r1, #7
 800210a:	68bb      	ldr	r3, [r7, #8]
 800210c:	438b      	bics	r3, r1
 800210e:	4313      	orrs	r3, r2
 8002110:	60bb      	str	r3, [r7, #8]
 8002112:	f7fe ff9b 	bl	800104c <HAL_GetTick>
 8002116:	9001      	str	r0, [sp, #4]
 8002118:	2338      	movs	r3, #56	; 0x38
 800211a:	68ba      	ldr	r2, [r7, #8]
 800211c:	401a      	ands	r2, r3
 800211e:	6863      	ldr	r3, [r4, #4]
 8002120:	00db      	lsls	r3, r3, #3
 8002122:	429a      	cmp	r2, r3
 8002124:	d0a0      	beq.n	8002068 <HAL_RCC_ClockConfig+0x24>
 8002126:	f7fe ff91 	bl	800104c <HAL_GetTick>
 800212a:	9b01      	ldr	r3, [sp, #4]
 800212c:	1ac0      	subs	r0, r0, r3
 800212e:	4b19      	ldr	r3, [pc, #100]	; (8002194 <HAL_RCC_ClockConfig+0x150>)
 8002130:	4298      	cmp	r0, r3
 8002132:	d9f1      	bls.n	8002118 <HAL_RCC_ClockConfig+0xd4>
 8002134:	e7d0      	b.n	80020d8 <HAL_RCC_ClockConfig+0x94>
 8002136:	2a02      	cmp	r2, #2
 8002138:	d103      	bne.n	8002142 <HAL_RCC_ClockConfig+0xfe>
 800213a:	683b      	ldr	r3, [r7, #0]
 800213c:	019b      	lsls	r3, r3, #6
 800213e:	d4e3      	bmi.n	8002108 <HAL_RCC_ClockConfig+0xc4>
 8002140:	e785      	b.n	800204e <HAL_RCC_ClockConfig+0xa>
 8002142:	2a00      	cmp	r2, #0
 8002144:	d103      	bne.n	800214e <HAL_RCC_ClockConfig+0x10a>
 8002146:	683b      	ldr	r3, [r7, #0]
 8002148:	055b      	lsls	r3, r3, #21
 800214a:	d4dd      	bmi.n	8002108 <HAL_RCC_ClockConfig+0xc4>
 800214c:	e77f      	b.n	800204e <HAL_RCC_ClockConfig+0xa>
 800214e:	2302      	movs	r3, #2
 8002150:	2a03      	cmp	r2, #3
 8002152:	d103      	bne.n	800215c <HAL_RCC_ClockConfig+0x118>
 8002154:	6e39      	ldr	r1, [r7, #96]	; 0x60
 8002156:	4219      	tst	r1, r3
 8002158:	d1d6      	bne.n	8002108 <HAL_RCC_ClockConfig+0xc4>
 800215a:	e778      	b.n	800204e <HAL_RCC_ClockConfig+0xa>
 800215c:	6df9      	ldr	r1, [r7, #92]	; 0x5c
 800215e:	e7fa      	b.n	8002156 <HAL_RCC_ClockConfig+0x112>
 8002160:	f7fe ff74 	bl	800104c <HAL_GetTick>
 8002164:	9b01      	ldr	r3, [sp, #4]
 8002166:	1ac0      	subs	r0, r0, r3
 8002168:	4b0a      	ldr	r3, [pc, #40]	; (8002194 <HAL_RCC_ClockConfig+0x150>)
 800216a:	4298      	cmp	r0, r3
 800216c:	d988      	bls.n	8002080 <HAL_RCC_ClockConfig+0x3c>
 800216e:	e7b3      	b.n	80020d8 <HAL_RCC_ClockConfig+0x94>
 8002170:	68ab      	ldr	r3, [r5, #8]
 8002172:	4a0a      	ldr	r2, [pc, #40]	; (800219c <HAL_RCC_ClockConfig+0x158>)
 8002174:	4013      	ands	r3, r2
 8002176:	68e2      	ldr	r2, [r4, #12]
 8002178:	4313      	orrs	r3, r2
 800217a:	60ab      	str	r3, [r5, #8]
 800217c:	e788      	b.n	8002090 <HAL_RCC_ClockConfig+0x4c>
 800217e:	46c0      	nop			; (mov r8, r8)
 8002180:	40022000 	.word	0x40022000
 8002184:	40021000 	.word	0x40021000
 8002188:	08003028 	.word	0x08003028
 800218c:	20000000 	.word	0x20000000
 8002190:	20000008 	.word	0x20000008
 8002194:	00001388 	.word	0x00001388
 8002198:	fffff0ff 	.word	0xfffff0ff
 800219c:	ffff8fff 	.word	0xffff8fff

080021a0 <HAL_RCC_GetPCLK1Freq>:
 80021a0:	4b06      	ldr	r3, [pc, #24]	; (80021bc <HAL_RCC_GetPCLK1Freq+0x1c>)
 80021a2:	4a07      	ldr	r2, [pc, #28]	; (80021c0 <HAL_RCC_GetPCLK1Freq+0x20>)
 80021a4:	689b      	ldr	r3, [r3, #8]
 80021a6:	045b      	lsls	r3, r3, #17
 80021a8:	0f5b      	lsrs	r3, r3, #29
 80021aa:	009b      	lsls	r3, r3, #2
 80021ac:	589b      	ldr	r3, [r3, r2]
 80021ae:	221f      	movs	r2, #31
 80021b0:	4013      	ands	r3, r2
 80021b2:	4a04      	ldr	r2, [pc, #16]	; (80021c4 <HAL_RCC_GetPCLK1Freq+0x24>)
 80021b4:	6810      	ldr	r0, [r2, #0]
 80021b6:	40d8      	lsrs	r0, r3
 80021b8:	4770      	bx	lr
 80021ba:	46c0      	nop			; (mov r8, r8)
 80021bc:	40021000 	.word	0x40021000
 80021c0:	08003068 	.word	0x08003068
 80021c4:	20000000 	.word	0x20000000

080021c8 <HAL_RCCEx_PeriphCLKConfig>:
 80021c8:	b5f0      	push	{r4, r5, r6, r7, lr}
 80021ca:	0004      	movs	r4, r0
 80021cc:	6823      	ldr	r3, [r4, #0]
 80021ce:	2000      	movs	r0, #0
 80021d0:	b085      	sub	sp, #20
 80021d2:	039b      	lsls	r3, r3, #14
 80021d4:	d53c      	bpl.n	8002250 <HAL_RCCEx_PeriphCLKConfig+0x88>
 80021d6:	2280      	movs	r2, #128	; 0x80
 80021d8:	4d97      	ldr	r5, [pc, #604]	; (8002438 <HAL_RCCEx_PeriphCLKConfig+0x270>)
 80021da:	0552      	lsls	r2, r2, #21
 80021dc:	6beb      	ldr	r3, [r5, #60]	; 0x3c
 80021de:	9000      	str	r0, [sp, #0]
 80021e0:	4213      	tst	r3, r2
 80021e2:	d108      	bne.n	80021f6 <HAL_RCCEx_PeriphCLKConfig+0x2e>
 80021e4:	6beb      	ldr	r3, [r5, #60]	; 0x3c
 80021e6:	4313      	orrs	r3, r2
 80021e8:	63eb      	str	r3, [r5, #60]	; 0x3c
 80021ea:	6beb      	ldr	r3, [r5, #60]	; 0x3c
 80021ec:	4013      	ands	r3, r2
 80021ee:	9303      	str	r3, [sp, #12]
 80021f0:	9b03      	ldr	r3, [sp, #12]
 80021f2:	2301      	movs	r3, #1
 80021f4:	9300      	str	r3, [sp, #0]
 80021f6:	2780      	movs	r7, #128	; 0x80
 80021f8:	4e90      	ldr	r6, [pc, #576]	; (800243c <HAL_RCCEx_PeriphCLKConfig+0x274>)
 80021fa:	007f      	lsls	r7, r7, #1
 80021fc:	6833      	ldr	r3, [r6, #0]
 80021fe:	433b      	orrs	r3, r7
 8002200:	6033      	str	r3, [r6, #0]
 8002202:	f7fe ff23 	bl	800104c <HAL_GetTick>
 8002206:	9001      	str	r0, [sp, #4]
 8002208:	6833      	ldr	r3, [r6, #0]
 800220a:	423b      	tst	r3, r7
 800220c:	d012      	beq.n	8002234 <HAL_RCCEx_PeriphCLKConfig+0x6c>
 800220e:	6dea      	ldr	r2, [r5, #92]	; 0x5c
 8002210:	23c0      	movs	r3, #192	; 0xc0
 8002212:	0011      	movs	r1, r2
 8002214:	009b      	lsls	r3, r3, #2
 8002216:	4e8a      	ldr	r6, [pc, #552]	; (8002440 <HAL_RCCEx_PeriphCLKConfig+0x278>)
 8002218:	4019      	ands	r1, r3
 800221a:	421a      	tst	r2, r3
 800221c:	d003      	beq.n	8002226 <HAL_RCCEx_PeriphCLKConfig+0x5e>
 800221e:	6c23      	ldr	r3, [r4, #64]	; 0x40
 8002220:	4299      	cmp	r1, r3
 8002222:	d000      	beq.n	8002226 <HAL_RCCEx_PeriphCLKConfig+0x5e>
 8002224:	e0e9      	b.n	80023fa <HAL_RCCEx_PeriphCLKConfig+0x232>
 8002226:	6deb      	ldr	r3, [r5, #92]	; 0x5c
 8002228:	2000      	movs	r0, #0
 800222a:	401e      	ands	r6, r3
 800222c:	6c23      	ldr	r3, [r4, #64]	; 0x40
 800222e:	431e      	orrs	r6, r3
 8002230:	65ee      	str	r6, [r5, #92]	; 0x5c
 8002232:	e006      	b.n	8002242 <HAL_RCCEx_PeriphCLKConfig+0x7a>
 8002234:	f7fe ff0a 	bl	800104c <HAL_GetTick>
 8002238:	9b01      	ldr	r3, [sp, #4]
 800223a:	1ac0      	subs	r0, r0, r3
 800223c:	2802      	cmp	r0, #2
 800223e:	d9e3      	bls.n	8002208 <HAL_RCCEx_PeriphCLKConfig+0x40>
 8002240:	2003      	movs	r0, #3
 8002242:	9b00      	ldr	r3, [sp, #0]
 8002244:	2b01      	cmp	r3, #1
 8002246:	d103      	bne.n	8002250 <HAL_RCCEx_PeriphCLKConfig+0x88>
 8002248:	6beb      	ldr	r3, [r5, #60]	; 0x3c
 800224a:	4a7e      	ldr	r2, [pc, #504]	; (8002444 <HAL_RCCEx_PeriphCLKConfig+0x27c>)
 800224c:	4013      	ands	r3, r2
 800224e:	63eb      	str	r3, [r5, #60]	; 0x3c
 8002250:	6823      	ldr	r3, [r4, #0]
 8002252:	07da      	lsls	r2, r3, #31
 8002254:	d506      	bpl.n	8002264 <HAL_RCCEx_PeriphCLKConfig+0x9c>
 8002256:	2503      	movs	r5, #3
 8002258:	4977      	ldr	r1, [pc, #476]	; (8002438 <HAL_RCCEx_PeriphCLKConfig+0x270>)
 800225a:	6d4a      	ldr	r2, [r1, #84]	; 0x54
 800225c:	43aa      	bics	r2, r5
 800225e:	6865      	ldr	r5, [r4, #4]
 8002260:	432a      	orrs	r2, r5
 8002262:	654a      	str	r2, [r1, #84]	; 0x54
 8002264:	079a      	lsls	r2, r3, #30
 8002266:	d506      	bpl.n	8002276 <HAL_RCCEx_PeriphCLKConfig+0xae>
 8002268:	250c      	movs	r5, #12
 800226a:	4973      	ldr	r1, [pc, #460]	; (8002438 <HAL_RCCEx_PeriphCLKConfig+0x270>)
 800226c:	6d4a      	ldr	r2, [r1, #84]	; 0x54
 800226e:	43aa      	bics	r2, r5
 8002270:	68a5      	ldr	r5, [r4, #8]
 8002272:	432a      	orrs	r2, r5
 8002274:	654a      	str	r2, [r1, #84]	; 0x54
 8002276:	075a      	lsls	r2, r3, #29
 8002278:	d506      	bpl.n	8002288 <HAL_RCCEx_PeriphCLKConfig+0xc0>
 800227a:	2530      	movs	r5, #48	; 0x30
 800227c:	496e      	ldr	r1, [pc, #440]	; (8002438 <HAL_RCCEx_PeriphCLKConfig+0x270>)
 800227e:	6d4a      	ldr	r2, [r1, #84]	; 0x54
 8002280:	43aa      	bics	r2, r5
 8002282:	68e5      	ldr	r5, [r4, #12]
 8002284:	432a      	orrs	r2, r5
 8002286:	654a      	str	r2, [r1, #84]	; 0x54
 8002288:	06da      	lsls	r2, r3, #27
 800228a:	d506      	bpl.n	800229a <HAL_RCCEx_PeriphCLKConfig+0xd2>
 800228c:	496a      	ldr	r1, [pc, #424]	; (8002438 <HAL_RCCEx_PeriphCLKConfig+0x270>)
 800228e:	4d6e      	ldr	r5, [pc, #440]	; (8002448 <HAL_RCCEx_PeriphCLKConfig+0x280>)
 8002290:	6d4a      	ldr	r2, [r1, #84]	; 0x54
 8002292:	402a      	ands	r2, r5
 8002294:	6925      	ldr	r5, [r4, #16]
 8002296:	432a      	orrs	r2, r5
 8002298:	654a      	str	r2, [r1, #84]	; 0x54
 800229a:	04da      	lsls	r2, r3, #19
 800229c:	d506      	bpl.n	80022ac <HAL_RCCEx_PeriphCLKConfig+0xe4>
 800229e:	4966      	ldr	r1, [pc, #408]	; (8002438 <HAL_RCCEx_PeriphCLKConfig+0x270>)
 80022a0:	4d67      	ldr	r5, [pc, #412]	; (8002440 <HAL_RCCEx_PeriphCLKConfig+0x278>)
 80022a2:	6d4a      	ldr	r2, [r1, #84]	; 0x54
 80022a4:	402a      	ands	r2, r5
 80022a6:	6965      	ldr	r5, [r4, #20]
 80022a8:	432a      	orrs	r2, r5
 80022aa:	654a      	str	r2, [r1, #84]	; 0x54
 80022ac:	059a      	lsls	r2, r3, #22
 80022ae:	d506      	bpl.n	80022be <HAL_RCCEx_PeriphCLKConfig+0xf6>
 80022b0:	4961      	ldr	r1, [pc, #388]	; (8002438 <HAL_RCCEx_PeriphCLKConfig+0x270>)
 80022b2:	4d66      	ldr	r5, [pc, #408]	; (800244c <HAL_RCCEx_PeriphCLKConfig+0x284>)
 80022b4:	6d4a      	ldr	r2, [r1, #84]	; 0x54
 80022b6:	402a      	ands	r2, r5
 80022b8:	6aa5      	ldr	r5, [r4, #40]	; 0x28
 80022ba:	432a      	orrs	r2, r5
 80022bc:	654a      	str	r2, [r1, #84]	; 0x54
 80022be:	055a      	lsls	r2, r3, #21
 80022c0:	d506      	bpl.n	80022d0 <HAL_RCCEx_PeriphCLKConfig+0x108>
 80022c2:	495d      	ldr	r1, [pc, #372]	; (8002438 <HAL_RCCEx_PeriphCLKConfig+0x270>)
 80022c4:	4d62      	ldr	r5, [pc, #392]	; (8002450 <HAL_RCCEx_PeriphCLKConfig+0x288>)
 80022c6:	6d4a      	ldr	r2, [r1, #84]	; 0x54
 80022c8:	402a      	ands	r2, r5
 80022ca:	6ae5      	ldr	r5, [r4, #44]	; 0x2c
 80022cc:	432a      	orrs	r2, r5
 80022ce:	654a      	str	r2, [r1, #84]	; 0x54
 80022d0:	069a      	lsls	r2, r3, #26
 80022d2:	d506      	bpl.n	80022e2 <HAL_RCCEx_PeriphCLKConfig+0x11a>
 80022d4:	4958      	ldr	r1, [pc, #352]	; (8002438 <HAL_RCCEx_PeriphCLKConfig+0x270>)
 80022d6:	4d5f      	ldr	r5, [pc, #380]	; (8002454 <HAL_RCCEx_PeriphCLKConfig+0x28c>)
 80022d8:	6d4a      	ldr	r2, [r1, #84]	; 0x54
 80022da:	402a      	ands	r2, r5
 80022dc:	69a5      	ldr	r5, [r4, #24]
 80022de:	432a      	orrs	r2, r5
 80022e0:	654a      	str	r2, [r1, #84]	; 0x54
 80022e2:	065a      	lsls	r2, r3, #25
 80022e4:	d506      	bpl.n	80022f4 <HAL_RCCEx_PeriphCLKConfig+0x12c>
 80022e6:	4954      	ldr	r1, [pc, #336]	; (8002438 <HAL_RCCEx_PeriphCLKConfig+0x270>)
 80022e8:	4d5b      	ldr	r5, [pc, #364]	; (8002458 <HAL_RCCEx_PeriphCLKConfig+0x290>)
 80022ea:	6d4a      	ldr	r2, [r1, #84]	; 0x54
 80022ec:	402a      	ands	r2, r5
 80022ee:	69e5      	ldr	r5, [r4, #28]
 80022f0:	432a      	orrs	r2, r5
 80022f2:	654a      	str	r2, [r1, #84]	; 0x54
 80022f4:	045a      	lsls	r2, r3, #17
 80022f6:	d50f      	bpl.n	8002318 <HAL_RCCEx_PeriphCLKConfig+0x150>
 80022f8:	494f      	ldr	r1, [pc, #316]	; (8002438 <HAL_RCCEx_PeriphCLKConfig+0x270>)
 80022fa:	6b25      	ldr	r5, [r4, #48]	; 0x30
 80022fc:	6d4a      	ldr	r2, [r1, #84]	; 0x54
 80022fe:	0092      	lsls	r2, r2, #2
 8002300:	0892      	lsrs	r2, r2, #2
 8002302:	432a      	orrs	r2, r5
 8002304:	654a      	str	r2, [r1, #84]	; 0x54
 8002306:	2280      	movs	r2, #128	; 0x80
 8002308:	05d2      	lsls	r2, r2, #23
 800230a:	4295      	cmp	r5, r2
 800230c:	d104      	bne.n	8002318 <HAL_RCCEx_PeriphCLKConfig+0x150>
 800230e:	2280      	movs	r2, #128	; 0x80
 8002310:	68cd      	ldr	r5, [r1, #12]
 8002312:	0252      	lsls	r2, r2, #9
 8002314:	432a      	orrs	r2, r5
 8002316:	60ca      	str	r2, [r1, #12]
 8002318:	031a      	lsls	r2, r3, #12
 800231a:	d506      	bpl.n	800232a <HAL_RCCEx_PeriphCLKConfig+0x162>
 800231c:	2540      	movs	r5, #64	; 0x40
 800231e:	4946      	ldr	r1, [pc, #280]	; (8002438 <HAL_RCCEx_PeriphCLKConfig+0x270>)
 8002320:	6d4a      	ldr	r2, [r1, #84]	; 0x54
 8002322:	43aa      	bics	r2, r5
 8002324:	6b65      	ldr	r5, [r4, #52]	; 0x34
 8002326:	432a      	orrs	r2, r5
 8002328:	654a      	str	r2, [r1, #84]	; 0x54
 800232a:	029a      	lsls	r2, r3, #10
 800232c:	d50f      	bpl.n	800234e <HAL_RCCEx_PeriphCLKConfig+0x186>
 800232e:	4942      	ldr	r1, [pc, #264]	; (8002438 <HAL_RCCEx_PeriphCLKConfig+0x270>)
 8002330:	4e4a      	ldr	r6, [pc, #296]	; (800245c <HAL_RCCEx_PeriphCLKConfig+0x294>)
 8002332:	6d4a      	ldr	r2, [r1, #84]	; 0x54
 8002334:	6ba5      	ldr	r5, [r4, #56]	; 0x38
 8002336:	4032      	ands	r2, r6
 8002338:	432a      	orrs	r2, r5
 800233a:	654a      	str	r2, [r1, #84]	; 0x54
 800233c:	2280      	movs	r2, #128	; 0x80
 800233e:	03d2      	lsls	r2, r2, #15
 8002340:	4295      	cmp	r5, r2
 8002342:	d104      	bne.n	800234e <HAL_RCCEx_PeriphCLKConfig+0x186>
 8002344:	2280      	movs	r2, #128	; 0x80
 8002346:	68cd      	ldr	r5, [r1, #12]
 8002348:	0452      	lsls	r2, r2, #17
 800234a:	432a      	orrs	r2, r5
 800234c:	60ca      	str	r2, [r1, #12]
 800234e:	025a      	lsls	r2, r3, #9
 8002350:	d50d      	bpl.n	800236e <HAL_RCCEx_PeriphCLKConfig+0x1a6>
 8002352:	4d39      	ldr	r5, [pc, #228]	; (8002438 <HAL_RCCEx_PeriphCLKConfig+0x270>)
 8002354:	4e42      	ldr	r6, [pc, #264]	; (8002460 <HAL_RCCEx_PeriphCLKConfig+0x298>)
 8002356:	6d69      	ldr	r1, [r5, #84]	; 0x54
 8002358:	6be2      	ldr	r2, [r4, #60]	; 0x3c
 800235a:	4031      	ands	r1, r6
 800235c:	4311      	orrs	r1, r2
 800235e:	6569      	str	r1, [r5, #84]	; 0x54
 8002360:	2180      	movs	r1, #128	; 0x80
 8002362:	0449      	lsls	r1, r1, #17
 8002364:	428a      	cmp	r2, r1
 8002366:	d102      	bne.n	800236e <HAL_RCCEx_PeriphCLKConfig+0x1a6>
 8002368:	68e9      	ldr	r1, [r5, #12]
 800236a:	430a      	orrs	r2, r1
 800236c:	60ea      	str	r2, [r5, #12]
 800236e:	051a      	lsls	r2, r3, #20
 8002370:	d50d      	bpl.n	800238e <HAL_RCCEx_PeriphCLKConfig+0x1c6>
 8002372:	2603      	movs	r6, #3
 8002374:	4930      	ldr	r1, [pc, #192]	; (8002438 <HAL_RCCEx_PeriphCLKConfig+0x270>)
 8002376:	6a25      	ldr	r5, [r4, #32]
 8002378:	6d8a      	ldr	r2, [r1, #88]	; 0x58
 800237a:	43b2      	bics	r2, r6
 800237c:	432a      	orrs	r2, r5
 800237e:	658a      	str	r2, [r1, #88]	; 0x58
 8002380:	2d01      	cmp	r5, #1
 8002382:	d104      	bne.n	800238e <HAL_RCCEx_PeriphCLKConfig+0x1c6>
 8002384:	2280      	movs	r2, #128	; 0x80
 8002386:	68cd      	ldr	r5, [r1, #12]
 8002388:	0252      	lsls	r2, r2, #9
 800238a:	432a      	orrs	r2, r5
 800238c:	60ca      	str	r2, [r1, #12]
 800238e:	049a      	lsls	r2, r3, #18
 8002390:	d50d      	bpl.n	80023ae <HAL_RCCEx_PeriphCLKConfig+0x1e6>
 8002392:	260c      	movs	r6, #12
 8002394:	4928      	ldr	r1, [pc, #160]	; (8002438 <HAL_RCCEx_PeriphCLKConfig+0x270>)
 8002396:	6a65      	ldr	r5, [r4, #36]	; 0x24
 8002398:	6d8a      	ldr	r2, [r1, #88]	; 0x58
 800239a:	43b2      	bics	r2, r6
 800239c:	432a      	orrs	r2, r5
 800239e:	658a      	str	r2, [r1, #88]	; 0x58
 80023a0:	2d04      	cmp	r5, #4
 80023a2:	d104      	bne.n	80023ae <HAL_RCCEx_PeriphCLKConfig+0x1e6>
 80023a4:	2280      	movs	r2, #128	; 0x80
 80023a6:	68cd      	ldr	r5, [r1, #12]
 80023a8:	0252      	lsls	r2, r2, #9
 80023aa:	432a      	orrs	r2, r5
 80023ac:	60ca      	str	r2, [r1, #12]
 80023ae:	2580      	movs	r5, #128	; 0x80
 80023b0:	046d      	lsls	r5, r5, #17
 80023b2:	422b      	tst	r3, r5
 80023b4:	d00d      	beq.n	80023d2 <HAL_RCCEx_PeriphCLKConfig+0x20a>
 80023b6:	4920      	ldr	r1, [pc, #128]	; (8002438 <HAL_RCCEx_PeriphCLKConfig+0x270>)
 80023b8:	4f26      	ldr	r7, [pc, #152]	; (8002454 <HAL_RCCEx_PeriphCLKConfig+0x28c>)
 80023ba:	6d8a      	ldr	r2, [r1, #88]	; 0x58
 80023bc:	6c66      	ldr	r6, [r4, #68]	; 0x44
 80023be:	403a      	ands	r2, r7
 80023c0:	4332      	orrs	r2, r6
 80023c2:	658a      	str	r2, [r1, #88]	; 0x58
 80023c4:	2280      	movs	r2, #128	; 0x80
 80023c6:	0192      	lsls	r2, r2, #6
 80023c8:	4296      	cmp	r6, r2
 80023ca:	d102      	bne.n	80023d2 <HAL_RCCEx_PeriphCLKConfig+0x20a>
 80023cc:	68ca      	ldr	r2, [r1, #12]
 80023ce:	4315      	orrs	r5, r2
 80023d0:	60cd      	str	r5, [r1, #12]
 80023d2:	019b      	lsls	r3, r3, #6
 80023d4:	d50f      	bpl.n	80023f6 <HAL_RCCEx_PeriphCLKConfig+0x22e>
 80023d6:	4a18      	ldr	r2, [pc, #96]	; (8002438 <HAL_RCCEx_PeriphCLKConfig+0x270>)
 80023d8:	6ca1      	ldr	r1, [r4, #72]	; 0x48
 80023da:	6d93      	ldr	r3, [r2, #88]	; 0x58
 80023dc:	4c18      	ldr	r4, [pc, #96]	; (8002440 <HAL_RCCEx_PeriphCLKConfig+0x278>)
 80023de:	4023      	ands	r3, r4
 80023e0:	430b      	orrs	r3, r1
 80023e2:	6593      	str	r3, [r2, #88]	; 0x58
 80023e4:	2380      	movs	r3, #128	; 0x80
 80023e6:	005b      	lsls	r3, r3, #1
 80023e8:	4299      	cmp	r1, r3
 80023ea:	d104      	bne.n	80023f6 <HAL_RCCEx_PeriphCLKConfig+0x22e>
 80023ec:	2380      	movs	r3, #128	; 0x80
 80023ee:	68d1      	ldr	r1, [r2, #12]
 80023f0:	045b      	lsls	r3, r3, #17
 80023f2:	430b      	orrs	r3, r1
 80023f4:	60d3      	str	r3, [r2, #12]
 80023f6:	b005      	add	sp, #20
 80023f8:	bdf0      	pop	{r4, r5, r6, r7, pc}
 80023fa:	2380      	movs	r3, #128	; 0x80
 80023fc:	6dea      	ldr	r2, [r5, #92]	; 0x5c
 80023fe:	6de8      	ldr	r0, [r5, #92]	; 0x5c
 8002400:	0011      	movs	r1, r2
 8002402:	025b      	lsls	r3, r3, #9
 8002404:	4303      	orrs	r3, r0
 8002406:	65eb      	str	r3, [r5, #92]	; 0x5c
 8002408:	6deb      	ldr	r3, [r5, #92]	; 0x5c
 800240a:	4816      	ldr	r0, [pc, #88]	; (8002464 <HAL_RCCEx_PeriphCLKConfig+0x29c>)
 800240c:	4031      	ands	r1, r6
 800240e:	4003      	ands	r3, r0
 8002410:	65eb      	str	r3, [r5, #92]	; 0x5c
 8002412:	65e9      	str	r1, [r5, #92]	; 0x5c
 8002414:	07d3      	lsls	r3, r2, #31
 8002416:	d400      	bmi.n	800241a <HAL_RCCEx_PeriphCLKConfig+0x252>
 8002418:	e705      	b.n	8002226 <HAL_RCCEx_PeriphCLKConfig+0x5e>
 800241a:	f7fe fe17 	bl	800104c <HAL_GetTick>
 800241e:	0007      	movs	r7, r0
 8002420:	2202      	movs	r2, #2
 8002422:	6deb      	ldr	r3, [r5, #92]	; 0x5c
 8002424:	4213      	tst	r3, r2
 8002426:	d000      	beq.n	800242a <HAL_RCCEx_PeriphCLKConfig+0x262>
 8002428:	e6fd      	b.n	8002226 <HAL_RCCEx_PeriphCLKConfig+0x5e>
 800242a:	f7fe fe0f 	bl	800104c <HAL_GetTick>
 800242e:	4b0e      	ldr	r3, [pc, #56]	; (8002468 <HAL_RCCEx_PeriphCLKConfig+0x2a0>)
 8002430:	1bc0      	subs	r0, r0, r7
 8002432:	4298      	cmp	r0, r3
 8002434:	d9f4      	bls.n	8002420 <HAL_RCCEx_PeriphCLKConfig+0x258>
 8002436:	e703      	b.n	8002240 <HAL_RCCEx_PeriphCLKConfig+0x78>
 8002438:	40021000 	.word	0x40021000
 800243c:	40007000 	.word	0x40007000
 8002440:	fffffcff 	.word	0xfffffcff
 8002444:	efffffff 	.word	0xefffffff
 8002448:	fffff3ff 	.word	0xfffff3ff
 800244c:	fff3ffff 	.word	0xfff3ffff
 8002450:	ffcfffff 	.word	0xffcfffff
 8002454:	ffffcfff 	.word	0xffffcfff
 8002458:	ffff3fff 	.word	0xffff3fff
 800245c:	ffbfffff 	.word	0xffbfffff
 8002460:	feffffff 	.word	0xfeffffff
 8002464:	fffeffff 	.word	0xfffeffff
 8002468:	00001388 	.word	0x00001388

0800246c <TIM_Base_SetConfig>:
 800246c:	4a23      	ldr	r2, [pc, #140]	; (80024fc <TIM_Base_SetConfig+0x90>)
 800246e:	b510      	push	{r4, lr}
 8002470:	6803      	ldr	r3, [r0, #0]
 8002472:	4290      	cmp	r0, r2
 8002474:	d009      	beq.n	800248a <TIM_Base_SetConfig+0x1e>
 8002476:	2480      	movs	r4, #128	; 0x80
 8002478:	05e4      	lsls	r4, r4, #23
 800247a:	42a0      	cmp	r0, r4
 800247c:	d005      	beq.n	800248a <TIM_Base_SetConfig+0x1e>
 800247e:	4c20      	ldr	r4, [pc, #128]	; (8002500 <TIM_Base_SetConfig+0x94>)
 8002480:	42a0      	cmp	r0, r4
 8002482:	d002      	beq.n	800248a <TIM_Base_SetConfig+0x1e>
 8002484:	4c1f      	ldr	r4, [pc, #124]	; (8002504 <TIM_Base_SetConfig+0x98>)
 8002486:	42a0      	cmp	r0, r4
 8002488:	d10f      	bne.n	80024aa <TIM_Base_SetConfig+0x3e>
 800248a:	2470      	movs	r4, #112	; 0x70
 800248c:	43a3      	bics	r3, r4
 800248e:	684c      	ldr	r4, [r1, #4]
 8002490:	4323      	orrs	r3, r4
 8002492:	4290      	cmp	r0, r2
 8002494:	d015      	beq.n	80024c2 <TIM_Base_SetConfig+0x56>
 8002496:	2480      	movs	r4, #128	; 0x80
 8002498:	05e4      	lsls	r4, r4, #23
 800249a:	42a0      	cmp	r0, r4
 800249c:	d011      	beq.n	80024c2 <TIM_Base_SetConfig+0x56>
 800249e:	4c18      	ldr	r4, [pc, #96]	; (8002500 <TIM_Base_SetConfig+0x94>)
 80024a0:	42a0      	cmp	r0, r4
 80024a2:	d00e      	beq.n	80024c2 <TIM_Base_SetConfig+0x56>
 80024a4:	4c17      	ldr	r4, [pc, #92]	; (8002504 <TIM_Base_SetConfig+0x98>)
 80024a6:	42a0      	cmp	r0, r4
 80024a8:	d00b      	beq.n	80024c2 <TIM_Base_SetConfig+0x56>
 80024aa:	4c17      	ldr	r4, [pc, #92]	; (8002508 <TIM_Base_SetConfig+0x9c>)
 80024ac:	42a0      	cmp	r0, r4
 80024ae:	d008      	beq.n	80024c2 <TIM_Base_SetConfig+0x56>
 80024b0:	4c16      	ldr	r4, [pc, #88]	; (800250c <TIM_Base_SetConfig+0xa0>)
 80024b2:	42a0      	cmp	r0, r4
 80024b4:	d005      	beq.n	80024c2 <TIM_Base_SetConfig+0x56>
 80024b6:	4c16      	ldr	r4, [pc, #88]	; (8002510 <TIM_Base_SetConfig+0xa4>)
 80024b8:	42a0      	cmp	r0, r4
 80024ba:	d002      	beq.n	80024c2 <TIM_Base_SetConfig+0x56>
 80024bc:	4c15      	ldr	r4, [pc, #84]	; (8002514 <TIM_Base_SetConfig+0xa8>)
 80024be:	42a0      	cmp	r0, r4
 80024c0:	d103      	bne.n	80024ca <TIM_Base_SetConfig+0x5e>
 80024c2:	4c15      	ldr	r4, [pc, #84]	; (8002518 <TIM_Base_SetConfig+0xac>)
 80024c4:	4023      	ands	r3, r4
 80024c6:	68cc      	ldr	r4, [r1, #12]
 80024c8:	4323      	orrs	r3, r4
 80024ca:	2480      	movs	r4, #128	; 0x80
 80024cc:	43a3      	bics	r3, r4
 80024ce:	694c      	ldr	r4, [r1, #20]
 80024d0:	4323      	orrs	r3, r4
 80024d2:	6003      	str	r3, [r0, #0]
 80024d4:	688b      	ldr	r3, [r1, #8]
 80024d6:	62c3      	str	r3, [r0, #44]	; 0x2c
 80024d8:	680b      	ldr	r3, [r1, #0]
 80024da:	6283      	str	r3, [r0, #40]	; 0x28
 80024dc:	4290      	cmp	r0, r2
 80024de:	d008      	beq.n	80024f2 <TIM_Base_SetConfig+0x86>
 80024e0:	4b0a      	ldr	r3, [pc, #40]	; (800250c <TIM_Base_SetConfig+0xa0>)
 80024e2:	4298      	cmp	r0, r3
 80024e4:	d005      	beq.n	80024f2 <TIM_Base_SetConfig+0x86>
 80024e6:	4b0a      	ldr	r3, [pc, #40]	; (8002510 <TIM_Base_SetConfig+0xa4>)
 80024e8:	4298      	cmp	r0, r3
 80024ea:	d002      	beq.n	80024f2 <TIM_Base_SetConfig+0x86>
 80024ec:	4b09      	ldr	r3, [pc, #36]	; (8002514 <TIM_Base_SetConfig+0xa8>)
 80024ee:	4298      	cmp	r0, r3
 80024f0:	d101      	bne.n	80024f6 <TIM_Base_SetConfig+0x8a>
 80024f2:	690b      	ldr	r3, [r1, #16]
 80024f4:	6303      	str	r3, [r0, #48]	; 0x30
 80024f6:	2301      	movs	r3, #1
 80024f8:	6143      	str	r3, [r0, #20]
 80024fa:	bd10      	pop	{r4, pc}
 80024fc:	40012c00 	.word	0x40012c00
 8002500:	40000400 	.word	0x40000400
 8002504:	40000800 	.word	0x40000800
 8002508:	40002000 	.word	0x40002000
 800250c:	40014000 	.word	0x40014000
 8002510:	40014400 	.word	0x40014400
 8002514:	40014800 	.word	0x40014800
 8002518:	fffffcff 	.word	0xfffffcff

0800251c <HAL_TIM_Base_Init>:
 800251c:	b570      	push	{r4, r5, r6, lr}
 800251e:	0004      	movs	r4, r0
 8002520:	2001      	movs	r0, #1
 8002522:	2c00      	cmp	r4, #0
 8002524:	d023      	beq.n	800256e <HAL_TIM_Base_Init+0x52>
 8002526:	0025      	movs	r5, r4
 8002528:	353d      	adds	r5, #61	; 0x3d
 800252a:	782b      	ldrb	r3, [r5, #0]
 800252c:	b2da      	uxtb	r2, r3
 800252e:	2b00      	cmp	r3, #0
 8002530:	d105      	bne.n	800253e <HAL_TIM_Base_Init+0x22>
 8002532:	0023      	movs	r3, r4
 8002534:	333c      	adds	r3, #60	; 0x3c
 8002536:	0020      	movs	r0, r4
 8002538:	701a      	strb	r2, [r3, #0]
 800253a:	f7fe fb49 	bl	8000bd0 <HAL_TIM_Base_MspInit>
 800253e:	2302      	movs	r3, #2
 8002540:	702b      	strb	r3, [r5, #0]
 8002542:	6820      	ldr	r0, [r4, #0]
 8002544:	1d21      	adds	r1, r4, #4
 8002546:	f7ff ff91 	bl	800246c <TIM_Base_SetConfig>
 800254a:	0022      	movs	r2, r4
 800254c:	2301      	movs	r3, #1
 800254e:	2000      	movs	r0, #0
 8002550:	3248      	adds	r2, #72	; 0x48
 8002552:	7013      	strb	r3, [r2, #0]
 8002554:	3447      	adds	r4, #71	; 0x47
 8002556:	3a0a      	subs	r2, #10
 8002558:	7013      	strb	r3, [r2, #0]
 800255a:	7053      	strb	r3, [r2, #1]
 800255c:	7093      	strb	r3, [r2, #2]
 800255e:	70d3      	strb	r3, [r2, #3]
 8002560:	7113      	strb	r3, [r2, #4]
 8002562:	7153      	strb	r3, [r2, #5]
 8002564:	7193      	strb	r3, [r2, #6]
 8002566:	71d3      	strb	r3, [r2, #7]
 8002568:	7213      	strb	r3, [r2, #8]
 800256a:	7023      	strb	r3, [r4, #0]
 800256c:	702b      	strb	r3, [r5, #0]
 800256e:	bd70      	pop	{r4, r5, r6, pc}

08002570 <TIM_ETR_SetConfig>:
 8002570:	b530      	push	{r4, r5, lr}
 8002572:	6884      	ldr	r4, [r0, #8]
 8002574:	4d03      	ldr	r5, [pc, #12]	; (8002584 <TIM_ETR_SetConfig+0x14>)
 8002576:	430a      	orrs	r2, r1
 8002578:	021b      	lsls	r3, r3, #8
 800257a:	402c      	ands	r4, r5
 800257c:	4313      	orrs	r3, r2
 800257e:	4323      	orrs	r3, r4
 8002580:	6083      	str	r3, [r0, #8]
 8002582:	bd30      	pop	{r4, r5, pc}
 8002584:	ffff00ff 	.word	0xffff00ff

08002588 <HAL_TIM_ConfigClockSource>:
 8002588:	b5f8      	push	{r3, r4, r5, r6, r7, lr}
 800258a:	0005      	movs	r5, r0
 800258c:	2302      	movs	r3, #2
 800258e:	353c      	adds	r5, #60	; 0x3c
 8002590:	0004      	movs	r4, r0
 8002592:	7828      	ldrb	r0, [r5, #0]
 8002594:	001a      	movs	r2, r3
 8002596:	2801      	cmp	r0, #1
 8002598:	d01d      	beq.n	80025d6 <HAL_TIM_ConfigClockSource+0x4e>
 800259a:	0026      	movs	r6, r4
 800259c:	2701      	movs	r7, #1
 800259e:	363d      	adds	r6, #61	; 0x3d
 80025a0:	702f      	strb	r7, [r5, #0]
 80025a2:	7033      	strb	r3, [r6, #0]
 80025a4:	6820      	ldr	r0, [r4, #0]
 80025a6:	4a47      	ldr	r2, [pc, #284]	; (80026c4 <HAL_TIM_ConfigClockSource+0x13c>)
 80025a8:	6883      	ldr	r3, [r0, #8]
 80025aa:	4013      	ands	r3, r2
 80025ac:	6083      	str	r3, [r0, #8]
 80025ae:	680b      	ldr	r3, [r1, #0]
 80025b0:	2b60      	cmp	r3, #96	; 0x60
 80025b2:	d058      	beq.n	8002666 <HAL_TIM_ConfigClockSource+0xde>
 80025b4:	d834      	bhi.n	8002620 <HAL_TIM_ConfigClockSource+0x98>
 80025b6:	2b40      	cmp	r3, #64	; 0x40
 80025b8:	d100      	bne.n	80025bc <HAL_TIM_ConfigClockSource+0x34>
 80025ba:	e06c      	b.n	8002696 <HAL_TIM_ConfigClockSource+0x10e>
 80025bc:	d815      	bhi.n	80025ea <HAL_TIM_ConfigClockSource+0x62>
 80025be:	2b20      	cmp	r3, #32
 80025c0:	d00d      	beq.n	80025de <HAL_TIM_ConfigClockSource+0x56>
 80025c2:	d80a      	bhi.n	80025da <HAL_TIM_ConfigClockSource+0x52>
 80025c4:	2210      	movs	r2, #16
 80025c6:	0019      	movs	r1, r3
 80025c8:	4391      	bics	r1, r2
 80025ca:	d008      	beq.n	80025de <HAL_TIM_ConfigClockSource+0x56>
 80025cc:	003a      	movs	r2, r7
 80025ce:	2301      	movs	r3, #1
 80025d0:	7033      	strb	r3, [r6, #0]
 80025d2:	2300      	movs	r3, #0
 80025d4:	702b      	strb	r3, [r5, #0]
 80025d6:	0010      	movs	r0, r2
 80025d8:	bdf8      	pop	{r3, r4, r5, r6, r7, pc}
 80025da:	2b30      	cmp	r3, #48	; 0x30
 80025dc:	d1f6      	bne.n	80025cc <HAL_TIM_ConfigClockSource+0x44>
 80025de:	6882      	ldr	r2, [r0, #8]
 80025e0:	4939      	ldr	r1, [pc, #228]	; (80026c8 <HAL_TIM_ConfigClockSource+0x140>)
 80025e2:	400a      	ands	r2, r1
 80025e4:	4313      	orrs	r3, r2
 80025e6:	2207      	movs	r2, #7
 80025e8:	e017      	b.n	800261a <HAL_TIM_ConfigClockSource+0x92>
 80025ea:	2b50      	cmp	r3, #80	; 0x50
 80025ec:	d1ee      	bne.n	80025cc <HAL_TIM_ConfigClockSource+0x44>
 80025ee:	68ca      	ldr	r2, [r1, #12]
 80025f0:	684c      	ldr	r4, [r1, #4]
 80025f2:	6a01      	ldr	r1, [r0, #32]
 80025f4:	6a03      	ldr	r3, [r0, #32]
 80025f6:	43bb      	bics	r3, r7
 80025f8:	27f0      	movs	r7, #240	; 0xf0
 80025fa:	6203      	str	r3, [r0, #32]
 80025fc:	6983      	ldr	r3, [r0, #24]
 80025fe:	43bb      	bics	r3, r7
 8002600:	001f      	movs	r7, r3
 8002602:	0113      	lsls	r3, r2, #4
 8002604:	220a      	movs	r2, #10
 8002606:	4391      	bics	r1, r2
 8002608:	000a      	movs	r2, r1
 800260a:	433b      	orrs	r3, r7
 800260c:	4322      	orrs	r2, r4
 800260e:	6183      	str	r3, [r0, #24]
 8002610:	6202      	str	r2, [r0, #32]
 8002612:	6883      	ldr	r3, [r0, #8]
 8002614:	4a2c      	ldr	r2, [pc, #176]	; (80026c8 <HAL_TIM_ConfigClockSource+0x140>)
 8002616:	401a      	ands	r2, r3
 8002618:	2357      	movs	r3, #87	; 0x57
 800261a:	4313      	orrs	r3, r2
 800261c:	6083      	str	r3, [r0, #8]
 800261e:	e016      	b.n	800264e <HAL_TIM_ConfigClockSource+0xc6>
 8002620:	2280      	movs	r2, #128	; 0x80
 8002622:	0152      	lsls	r2, r2, #5
 8002624:	4694      	mov	ip, r2
 8002626:	2200      	movs	r2, #0
 8002628:	4563      	cmp	r3, ip
 800262a:	d0d0      	beq.n	80025ce <HAL_TIM_ConfigClockSource+0x46>
 800262c:	2280      	movs	r2, #128	; 0x80
 800262e:	0192      	lsls	r2, r2, #6
 8002630:	4293      	cmp	r3, r2
 8002632:	d00e      	beq.n	8002652 <HAL_TIM_ConfigClockSource+0xca>
 8002634:	003a      	movs	r2, r7
 8002636:	2b70      	cmp	r3, #112	; 0x70
 8002638:	d1c9      	bne.n	80025ce <HAL_TIM_ConfigClockSource+0x46>
 800263a:	68cb      	ldr	r3, [r1, #12]
 800263c:	684a      	ldr	r2, [r1, #4]
 800263e:	6889      	ldr	r1, [r1, #8]
 8002640:	f7ff ff96 	bl	8002570 <TIM_ETR_SetConfig>
 8002644:	2377      	movs	r3, #119	; 0x77
 8002646:	6822      	ldr	r2, [r4, #0]
 8002648:	6891      	ldr	r1, [r2, #8]
 800264a:	430b      	orrs	r3, r1
 800264c:	6093      	str	r3, [r2, #8]
 800264e:	2200      	movs	r2, #0
 8002650:	e7bd      	b.n	80025ce <HAL_TIM_ConfigClockSource+0x46>
 8002652:	68cb      	ldr	r3, [r1, #12]
 8002654:	684a      	ldr	r2, [r1, #4]
 8002656:	6889      	ldr	r1, [r1, #8]
 8002658:	f7ff ff8a 	bl	8002570 <TIM_ETR_SetConfig>
 800265c:	2380      	movs	r3, #128	; 0x80
 800265e:	6822      	ldr	r2, [r4, #0]
 8002660:	01db      	lsls	r3, r3, #7
 8002662:	6891      	ldr	r1, [r2, #8]
 8002664:	e7f1      	b.n	800264a <HAL_TIM_ConfigClockSource+0xc2>
 8002666:	684a      	ldr	r2, [r1, #4]
 8002668:	68cf      	ldr	r7, [r1, #12]
 800266a:	2110      	movs	r1, #16
 800266c:	6a03      	ldr	r3, [r0, #32]
 800266e:	4c17      	ldr	r4, [pc, #92]	; (80026cc <HAL_TIM_ConfigClockSource+0x144>)
 8002670:	438b      	bics	r3, r1
 8002672:	6203      	str	r3, [r0, #32]
 8002674:	6981      	ldr	r1, [r0, #24]
 8002676:	6a03      	ldr	r3, [r0, #32]
 8002678:	4021      	ands	r1, r4
 800267a:	24a0      	movs	r4, #160	; 0xa0
 800267c:	43a3      	bics	r3, r4
 800267e:	001c      	movs	r4, r3
 8002680:	033f      	lsls	r7, r7, #12
 8002682:	0113      	lsls	r3, r2, #4
 8002684:	4323      	orrs	r3, r4
 8002686:	4339      	orrs	r1, r7
 8002688:	6181      	str	r1, [r0, #24]
 800268a:	6203      	str	r3, [r0, #32]
 800268c:	6883      	ldr	r3, [r0, #8]
 800268e:	4a0e      	ldr	r2, [pc, #56]	; (80026c8 <HAL_TIM_ConfigClockSource+0x140>)
 8002690:	401a      	ands	r2, r3
 8002692:	2367      	movs	r3, #103	; 0x67
 8002694:	e7c1      	b.n	800261a <HAL_TIM_ConfigClockSource+0x92>
 8002696:	68ca      	ldr	r2, [r1, #12]
 8002698:	684c      	ldr	r4, [r1, #4]
 800269a:	6a01      	ldr	r1, [r0, #32]
 800269c:	6a03      	ldr	r3, [r0, #32]
 800269e:	43bb      	bics	r3, r7
 80026a0:	27f0      	movs	r7, #240	; 0xf0
 80026a2:	6203      	str	r3, [r0, #32]
 80026a4:	6983      	ldr	r3, [r0, #24]
 80026a6:	43bb      	bics	r3, r7
 80026a8:	001f      	movs	r7, r3
 80026aa:	0113      	lsls	r3, r2, #4
 80026ac:	220a      	movs	r2, #10
 80026ae:	4391      	bics	r1, r2
 80026b0:	000a      	movs	r2, r1
 80026b2:	433b      	orrs	r3, r7
 80026b4:	4322      	orrs	r2, r4
 80026b6:	6183      	str	r3, [r0, #24]
 80026b8:	6202      	str	r2, [r0, #32]
 80026ba:	6883      	ldr	r3, [r0, #8]
 80026bc:	4a02      	ldr	r2, [pc, #8]	; (80026c8 <HAL_TIM_ConfigClockSource+0x140>)
 80026be:	401a      	ands	r2, r3
 80026c0:	2347      	movs	r3, #71	; 0x47
 80026c2:	e7aa      	b.n	800261a <HAL_TIM_ConfigClockSource+0x92>
 80026c4:	ffce0088 	.word	0xffce0088
 80026c8:	ffcfff8f 	.word	0xffcfff8f
 80026cc:	ffff0fff 	.word	0xffff0fff

080026d0 <HAL_TIMEx_MasterConfigSynchronization>:
 80026d0:	b5f0      	push	{r4, r5, r6, r7, lr}
 80026d2:	0004      	movs	r4, r0
 80026d4:	2202      	movs	r2, #2
 80026d6:	343c      	adds	r4, #60	; 0x3c
 80026d8:	7825      	ldrb	r5, [r4, #0]
 80026da:	0003      	movs	r3, r0
 80026dc:	0010      	movs	r0, r2
 80026de:	2d01      	cmp	r5, #1
 80026e0:	d029      	beq.n	8002736 <HAL_TIMEx_MasterConfigSynchronization+0x66>
 80026e2:	001d      	movs	r5, r3
 80026e4:	353d      	adds	r5, #61	; 0x3d
 80026e6:	702a      	strb	r2, [r5, #0]
 80026e8:	681b      	ldr	r3, [r3, #0]
 80026ea:	4e13      	ldr	r6, [pc, #76]	; (8002738 <HAL_TIMEx_MasterConfigSynchronization+0x68>)
 80026ec:	685a      	ldr	r2, [r3, #4]
 80026ee:	6898      	ldr	r0, [r3, #8]
 80026f0:	42b3      	cmp	r3, r6
 80026f2:	d103      	bne.n	80026fc <HAL_TIMEx_MasterConfigSynchronization+0x2c>
 80026f4:	4f11      	ldr	r7, [pc, #68]	; (800273c <HAL_TIMEx_MasterConfigSynchronization+0x6c>)
 80026f6:	403a      	ands	r2, r7
 80026f8:	684f      	ldr	r7, [r1, #4]
 80026fa:	433a      	orrs	r2, r7
 80026fc:	2770      	movs	r7, #112	; 0x70
 80026fe:	43ba      	bics	r2, r7
 8002700:	680f      	ldr	r7, [r1, #0]
 8002702:	433a      	orrs	r2, r7
 8002704:	605a      	str	r2, [r3, #4]
 8002706:	42b3      	cmp	r3, r6
 8002708:	d00c      	beq.n	8002724 <HAL_TIMEx_MasterConfigSynchronization+0x54>
 800270a:	2280      	movs	r2, #128	; 0x80
 800270c:	05d2      	lsls	r2, r2, #23
 800270e:	4293      	cmp	r3, r2
 8002710:	d008      	beq.n	8002724 <HAL_TIMEx_MasterConfigSynchronization+0x54>
 8002712:	4a0b      	ldr	r2, [pc, #44]	; (8002740 <HAL_TIMEx_MasterConfigSynchronization+0x70>)
 8002714:	4293      	cmp	r3, r2
 8002716:	d005      	beq.n	8002724 <HAL_TIMEx_MasterConfigSynchronization+0x54>
 8002718:	4a0a      	ldr	r2, [pc, #40]	; (8002744 <HAL_TIMEx_MasterConfigSynchronization+0x74>)
 800271a:	4293      	cmp	r3, r2
 800271c:	d002      	beq.n	8002724 <HAL_TIMEx_MasterConfigSynchronization+0x54>
 800271e:	4a0a      	ldr	r2, [pc, #40]	; (8002748 <HAL_TIMEx_MasterConfigSynchronization+0x78>)
 8002720:	4293      	cmp	r3, r2
 8002722:	d104      	bne.n	800272e <HAL_TIMEx_MasterConfigSynchronization+0x5e>
 8002724:	2280      	movs	r2, #128	; 0x80
 8002726:	4390      	bics	r0, r2
 8002728:	688a      	ldr	r2, [r1, #8]
 800272a:	4310      	orrs	r0, r2
 800272c:	6098      	str	r0, [r3, #8]
 800272e:	2301      	movs	r3, #1
 8002730:	2000      	movs	r0, #0
 8002732:	702b      	strb	r3, [r5, #0]
 8002734:	7020      	strb	r0, [r4, #0]
 8002736:	bdf0      	pop	{r4, r5, r6, r7, pc}
 8002738:	40012c00 	.word	0x40012c00
 800273c:	ff0fffff 	.word	0xff0fffff
 8002740:	40000400 	.word	0x40000400
 8002744:	40000800 	.word	0x40000800
 8002748:	40014000 	.word	0x40014000

0800274c <UART_SetConfig>:
 800274c:	b5f8      	push	{r3, r4, r5, r6, r7, lr}
 800274e:	0004      	movs	r4, r0
 8002750:	6925      	ldr	r5, [r4, #16]
 8002752:	68a1      	ldr	r1, [r4, #8]
 8002754:	6803      	ldr	r3, [r0, #0]
 8002756:	4329      	orrs	r1, r5
 8002758:	6965      	ldr	r5, [r4, #20]
 800275a:	69c2      	ldr	r2, [r0, #28]
 800275c:	4329      	orrs	r1, r5
 800275e:	6818      	ldr	r0, [r3, #0]
 8002760:	4d9e      	ldr	r5, [pc, #632]	; (80029dc <UART_SetConfig+0x290>)
 8002762:	4311      	orrs	r1, r2
 8002764:	4028      	ands	r0, r5
 8002766:	4301      	orrs	r1, r0
 8002768:	6019      	str	r1, [r3, #0]
 800276a:	6859      	ldr	r1, [r3, #4]
 800276c:	489c      	ldr	r0, [pc, #624]	; (80029e0 <UART_SetConfig+0x294>)
 800276e:	69a5      	ldr	r5, [r4, #24]
 8002770:	4001      	ands	r1, r0
 8002772:	68e0      	ldr	r0, [r4, #12]
 8002774:	4301      	orrs	r1, r0
 8002776:	489b      	ldr	r0, [pc, #620]	; (80029e4 <UART_SetConfig+0x298>)
 8002778:	6059      	str	r1, [r3, #4]
 800277a:	4283      	cmp	r3, r0
 800277c:	d004      	beq.n	8002788 <UART_SetConfig+0x3c>
 800277e:	499a      	ldr	r1, [pc, #616]	; (80029e8 <UART_SetConfig+0x29c>)
 8002780:	428b      	cmp	r3, r1
 8002782:	d001      	beq.n	8002788 <UART_SetConfig+0x3c>
 8002784:	6a21      	ldr	r1, [r4, #32]
 8002786:	430d      	orrs	r5, r1
 8002788:	6899      	ldr	r1, [r3, #8]
 800278a:	4e98      	ldr	r6, [pc, #608]	; (80029ec <UART_SetConfig+0x2a0>)
 800278c:	4031      	ands	r1, r6
 800278e:	4329      	orrs	r1, r5
 8002790:	250f      	movs	r5, #15
 8002792:	6099      	str	r1, [r3, #8]
 8002794:	6ad9      	ldr	r1, [r3, #44]	; 0x2c
 8002796:	43a9      	bics	r1, r5
 8002798:	6a65      	ldr	r5, [r4, #36]	; 0x24
 800279a:	4329      	orrs	r1, r5
 800279c:	62d9      	str	r1, [r3, #44]	; 0x2c
 800279e:	4994      	ldr	r1, [pc, #592]	; (80029f0 <UART_SetConfig+0x2a4>)
 80027a0:	428b      	cmp	r3, r1
 80027a2:	d116      	bne.n	80027d2 <UART_SetConfig+0x86>
 80027a4:	2103      	movs	r1, #3
 80027a6:	4b93      	ldr	r3, [pc, #588]	; (80029f4 <UART_SetConfig+0x2a8>)
 80027a8:	2000      	movs	r0, #0
 80027aa:	6d5b      	ldr	r3, [r3, #84]	; 0x54
 80027ac:	400b      	ands	r3, r1
 80027ae:	3b01      	subs	r3, #1
 80027b0:	4991      	ldr	r1, [pc, #580]	; (80029f8 <UART_SetConfig+0x2ac>)
 80027b2:	2b02      	cmp	r3, #2
 80027b4:	d915      	bls.n	80027e2 <UART_SetConfig+0x96>
 80027b6:	2380      	movs	r3, #128	; 0x80
 80027b8:	021b      	lsls	r3, r3, #8
 80027ba:	429a      	cmp	r2, r3
 80027bc:	d000      	beq.n	80027c0 <UART_SetConfig+0x74>
 80027be:	e0a7      	b.n	8002910 <UART_SetConfig+0x1c4>
 80027c0:	2808      	cmp	r0, #8
 80027c2:	d821      	bhi.n	8002808 <UART_SetConfig+0xbc>
 80027c4:	f7fd fc9e 	bl	8000104 <__gnu_thumb1_case_uqi>
 80027c8:	20a220dd 	.word	0x20a220dd
 80027cc:	202020d0 	.word	0x202020d0
 80027d0:	e2          	.byte	0xe2
 80027d1:	00          	.byte	0x00
 80027d2:	498a      	ldr	r1, [pc, #552]	; (80029fc <UART_SetConfig+0x2b0>)
 80027d4:	428b      	cmp	r3, r1
 80027d6:	d106      	bne.n	80027e6 <UART_SetConfig+0x9a>
 80027d8:	210c      	movs	r1, #12
 80027da:	4b86      	ldr	r3, [pc, #536]	; (80029f4 <UART_SetConfig+0x2a8>)
 80027dc:	6d5b      	ldr	r3, [r3, #84]	; 0x54
 80027de:	400b      	ands	r3, r1
 80027e0:	4987      	ldr	r1, [pc, #540]	; (8002a00 <UART_SetConfig+0x2b4>)
 80027e2:	5cc8      	ldrb	r0, [r1, r3]
 80027e4:	e7e7      	b.n	80027b6 <UART_SetConfig+0x6a>
 80027e6:	4987      	ldr	r1, [pc, #540]	; (8002a04 <UART_SetConfig+0x2b8>)
 80027e8:	428b      	cmp	r3, r1
 80027ea:	d117      	bne.n	800281c <UART_SetConfig+0xd0>
 80027ec:	2030      	movs	r0, #48	; 0x30
 80027ee:	4981      	ldr	r1, [pc, #516]	; (80029f4 <UART_SetConfig+0x2a8>)
 80027f0:	6d49      	ldr	r1, [r1, #84]	; 0x54
 80027f2:	4001      	ands	r1, r0
 80027f4:	2920      	cmp	r1, #32
 80027f6:	d100      	bne.n	80027fa <UART_SetConfig+0xae>
 80027f8:	e0b9      	b.n	800296e <UART_SetConfig+0x222>
 80027fa:	d807      	bhi.n	800280c <UART_SetConfig+0xc0>
 80027fc:	2900      	cmp	r1, #0
 80027fe:	d100      	bne.n	8002802 <UART_SetConfig+0xb6>
 8002800:	e0e2      	b.n	80029c8 <UART_SetConfig+0x27c>
 8002802:	2910      	cmp	r1, #16
 8002804:	d100      	bne.n	8002808 <UART_SetConfig+0xbc>
 8002806:	e0ab      	b.n	8002960 <UART_SetConfig+0x214>
 8002808:	2001      	movs	r0, #1
 800280a:	e04b      	b.n	80028a4 <UART_SetConfig+0x158>
 800280c:	2930      	cmp	r1, #48	; 0x30
 800280e:	d1fb      	bne.n	8002808 <UART_SetConfig+0xbc>
 8002810:	2080      	movs	r0, #128	; 0x80
 8002812:	0200      	lsls	r0, r0, #8
 8002814:	4282      	cmp	r2, r0
 8002816:	d000      	beq.n	800281a <UART_SetConfig+0xce>
 8002818:	e08a      	b.n	8002930 <UART_SetConfig+0x1e4>
 800281a:	e0b7      	b.n	800298c <UART_SetConfig+0x240>
 800281c:	497a      	ldr	r1, [pc, #488]	; (8002a08 <UART_SetConfig+0x2bc>)
 800281e:	428b      	cmp	r3, r1
 8002820:	d100      	bne.n	8002824 <UART_SetConfig+0xd8>
 8002822:	e0aa      	b.n	800297a <UART_SetConfig+0x22e>
 8002824:	4979      	ldr	r1, [pc, #484]	; (8002a0c <UART_SetConfig+0x2c0>)
 8002826:	428b      	cmp	r3, r1
 8002828:	d100      	bne.n	800282c <UART_SetConfig+0xe0>
 800282a:	e0a6      	b.n	800297a <UART_SetConfig+0x22e>
 800282c:	4978      	ldr	r1, [pc, #480]	; (8002a10 <UART_SetConfig+0x2c4>)
 800282e:	428b      	cmp	r3, r1
 8002830:	d100      	bne.n	8002834 <UART_SetConfig+0xe8>
 8002832:	e0a2      	b.n	800297a <UART_SetConfig+0x22e>
 8002834:	4283      	cmp	r3, r0
 8002836:	d117      	bne.n	8002868 <UART_SetConfig+0x11c>
 8002838:	22c0      	movs	r2, #192	; 0xc0
 800283a:	2180      	movs	r1, #128	; 0x80
 800283c:	4b6d      	ldr	r3, [pc, #436]	; (80029f4 <UART_SetConfig+0x2a8>)
 800283e:	0112      	lsls	r2, r2, #4
 8002840:	6d5b      	ldr	r3, [r3, #84]	; 0x54
 8002842:	0109      	lsls	r1, r1, #4
 8002844:	4013      	ands	r3, r2
 8002846:	428b      	cmp	r3, r1
 8002848:	d032      	beq.n	80028b0 <UART_SetConfig+0x164>
 800284a:	d808      	bhi.n	800285e <UART_SetConfig+0x112>
 800284c:	2b00      	cmp	r3, #0
 800284e:	d024      	beq.n	800289a <UART_SetConfig+0x14e>
 8002850:	2280      	movs	r2, #128	; 0x80
 8002852:	00d2      	lsls	r2, r2, #3
 8002854:	4293      	cmp	r3, r2
 8002856:	d1d7      	bne.n	8002808 <UART_SetConfig+0xbc>
 8002858:	f7ff fbae 	bl	8001fb8 <HAL_RCC_GetSysClockFreq>
 800285c:	e01f      	b.n	800289e <UART_SetConfig+0x152>
 800285e:	4293      	cmp	r3, r2
 8002860:	d1d2      	bne.n	8002808 <UART_SetConfig+0xbc>
 8002862:	2680      	movs	r6, #128	; 0x80
 8002864:	0236      	lsls	r6, r6, #8
 8002866:	e024      	b.n	80028b2 <UART_SetConfig+0x166>
 8002868:	495f      	ldr	r1, [pc, #380]	; (80029e8 <UART_SetConfig+0x29c>)
 800286a:	2001      	movs	r0, #1
 800286c:	428b      	cmp	r3, r1
 800286e:	d119      	bne.n	80028a4 <UART_SetConfig+0x158>
 8002870:	20c0      	movs	r0, #192	; 0xc0
 8002872:	2580      	movs	r5, #128	; 0x80
 8002874:	495f      	ldr	r1, [pc, #380]	; (80029f4 <UART_SetConfig+0x2a8>)
 8002876:	0080      	lsls	r0, r0, #2
 8002878:	6d49      	ldr	r1, [r1, #84]	; 0x54
 800287a:	00ad      	lsls	r5, r5, #2
 800287c:	4001      	ands	r1, r0
 800287e:	42a9      	cmp	r1, r5
 8002880:	d016      	beq.n	80028b0 <UART_SetConfig+0x164>
 8002882:	d807      	bhi.n	8002894 <UART_SetConfig+0x148>
 8002884:	2900      	cmp	r1, #0
 8002886:	d100      	bne.n	800288a <UART_SetConfig+0x13e>
 8002888:	e09e      	b.n	80029c8 <UART_SetConfig+0x27c>
 800288a:	2380      	movs	r3, #128	; 0x80
 800288c:	005b      	lsls	r3, r3, #1
 800288e:	4299      	cmp	r1, r3
 8002890:	d0e2      	beq.n	8002858 <UART_SetConfig+0x10c>
 8002892:	e7b9      	b.n	8002808 <UART_SetConfig+0xbc>
 8002894:	4281      	cmp	r1, r0
 8002896:	d0e4      	beq.n	8002862 <UART_SetConfig+0x116>
 8002898:	e7b6      	b.n	8002808 <UART_SetConfig+0xbc>
 800289a:	f7ff fc81 	bl	80021a0 <HAL_RCC_GetPCLK1Freq>
 800289e:	1e06      	subs	r6, r0, #0
 80028a0:	d107      	bne.n	80028b2 <UART_SetConfig+0x166>
 80028a2:	2000      	movs	r0, #0
 80028a4:	4b5b      	ldr	r3, [pc, #364]	; (8002a14 <UART_SetConfig+0x2c8>)
 80028a6:	66a3      	str	r3, [r4, #104]	; 0x68
 80028a8:	2300      	movs	r3, #0
 80028aa:	6763      	str	r3, [r4, #116]	; 0x74
 80028ac:	67a3      	str	r3, [r4, #120]	; 0x78
 80028ae:	bdf8      	pop	{r3, r4, r5, r6, r7, pc}
 80028b0:	4e59      	ldr	r6, [pc, #356]	; (8002a18 <UART_SetConfig+0x2cc>)
 80028b2:	6a63      	ldr	r3, [r4, #36]	; 0x24
 80028b4:	4a59      	ldr	r2, [pc, #356]	; (8002a1c <UART_SetConfig+0x2d0>)
 80028b6:	005b      	lsls	r3, r3, #1
 80028b8:	5a9f      	ldrh	r7, [r3, r2]
 80028ba:	0030      	movs	r0, r6
 80028bc:	0039      	movs	r1, r7
 80028be:	f7fd fc35 	bl	800012c <__udivsi3>
 80028c2:	2303      	movs	r3, #3
 80028c4:	6865      	ldr	r5, [r4, #4]
 80028c6:	436b      	muls	r3, r5
 80028c8:	4283      	cmp	r3, r0
 80028ca:	d89d      	bhi.n	8002808 <UART_SetConfig+0xbc>
 80028cc:	032b      	lsls	r3, r5, #12
 80028ce:	4283      	cmp	r3, r0
 80028d0:	d39a      	bcc.n	8002808 <UART_SetConfig+0xbc>
 80028d2:	2300      	movs	r3, #0
 80028d4:	003a      	movs	r2, r7
 80028d6:	0030      	movs	r0, r6
 80028d8:	0019      	movs	r1, r3
 80028da:	f7fd fd9d 	bl	8000418 <__aeabi_uldivmod>
 80028de:	2700      	movs	r7, #0
 80028e0:	0e06      	lsrs	r6, r0, #24
 80028e2:	020b      	lsls	r3, r1, #8
 80028e4:	4333      	orrs	r3, r6
 80028e6:	0202      	lsls	r2, r0, #8
 80028e8:	086e      	lsrs	r6, r5, #1
 80028ea:	1992      	adds	r2, r2, r6
 80028ec:	417b      	adcs	r3, r7
 80028ee:	0010      	movs	r0, r2
 80028f0:	0019      	movs	r1, r3
 80028f2:	002a      	movs	r2, r5
 80028f4:	003b      	movs	r3, r7
 80028f6:	f7fd fd8f 	bl	8000418 <__aeabi_uldivmod>
 80028fa:	4b49      	ldr	r3, [pc, #292]	; (8002a20 <UART_SetConfig+0x2d4>)
 80028fc:	18c2      	adds	r2, r0, r3
 80028fe:	4b49      	ldr	r3, [pc, #292]	; (8002a24 <UART_SetConfig+0x2d8>)
 8002900:	429a      	cmp	r2, r3
 8002902:	d900      	bls.n	8002906 <UART_SetConfig+0x1ba>
 8002904:	e780      	b.n	8002808 <UART_SetConfig+0xbc>
 8002906:	6823      	ldr	r3, [r4, #0]
 8002908:	60d8      	str	r0, [r3, #12]
 800290a:	e7ca      	b.n	80028a2 <UART_SetConfig+0x156>
 800290c:	4a42      	ldr	r2, [pc, #264]	; (8002a18 <UART_SetConfig+0x2cc>)
 800290e:	e03d      	b.n	800298c <UART_SetConfig+0x240>
 8002910:	2808      	cmp	r0, #8
 8002912:	d900      	bls.n	8002916 <UART_SetConfig+0x1ca>
 8002914:	e778      	b.n	8002808 <UART_SetConfig+0xbc>
 8002916:	f7fd fbff 	bl	8000118 <__gnu_thumb1_case_shi>
 800291a:	001b      	.short	0x001b
 800291c:	002eff77 	.word	0x002eff77
 8002920:	0020ff77 	.word	0x0020ff77
 8002924:	ff77ff77 	.word	0xff77ff77
 8002928:	0009ff77 	.word	0x0009ff77
 800292c:	2080      	movs	r0, #128	; 0x80
 800292e:	0200      	lsls	r0, r0, #8
 8002930:	6a63      	ldr	r3, [r4, #36]	; 0x24
 8002932:	4a3a      	ldr	r2, [pc, #232]	; (8002a1c <UART_SetConfig+0x2d0>)
 8002934:	005b      	lsls	r3, r3, #1
 8002936:	5a99      	ldrh	r1, [r3, r2]
 8002938:	f7fd fbf8 	bl	800012c <__udivsi3>
 800293c:	6865      	ldr	r5, [r4, #4]
 800293e:	086b      	lsrs	r3, r5, #1
 8002940:	18c0      	adds	r0, r0, r3
 8002942:	0029      	movs	r1, r5
 8002944:	f7fd fbf2 	bl	800012c <__udivsi3>
 8002948:	0002      	movs	r2, r0
 800294a:	4b37      	ldr	r3, [pc, #220]	; (8002a28 <UART_SetConfig+0x2dc>)
 800294c:	3a10      	subs	r2, #16
 800294e:	e7d7      	b.n	8002900 <UART_SetConfig+0x1b4>
 8002950:	f7ff fc26 	bl	80021a0 <HAL_RCC_GetPCLK1Freq>
 8002954:	2800      	cmp	r0, #0
 8002956:	d0a4      	beq.n	80028a2 <UART_SetConfig+0x156>
 8002958:	e7ea      	b.n	8002930 <UART_SetConfig+0x1e4>
 800295a:	f7ff fb2d 	bl	8001fb8 <HAL_RCC_GetSysClockFreq>
 800295e:	e7f9      	b.n	8002954 <UART_SetConfig+0x208>
 8002960:	2380      	movs	r3, #128	; 0x80
 8002962:	021b      	lsls	r3, r3, #8
 8002964:	429a      	cmp	r2, r3
 8002966:	d1f8      	bne.n	800295a <UART_SetConfig+0x20e>
 8002968:	f7ff fb26 	bl	8001fb8 <HAL_RCC_GetSysClockFreq>
 800296c:	e00b      	b.n	8002986 <UART_SetConfig+0x23a>
 800296e:	2380      	movs	r3, #128	; 0x80
 8002970:	021b      	lsls	r3, r3, #8
 8002972:	429a      	cmp	r2, r3
 8002974:	d0ca      	beq.n	800290c <UART_SetConfig+0x1c0>
 8002976:	4828      	ldr	r0, [pc, #160]	; (8002a18 <UART_SetConfig+0x2cc>)
 8002978:	e7da      	b.n	8002930 <UART_SetConfig+0x1e4>
 800297a:	2380      	movs	r3, #128	; 0x80
 800297c:	021b      	lsls	r3, r3, #8
 800297e:	429a      	cmp	r2, r3
 8002980:	d1e6      	bne.n	8002950 <UART_SetConfig+0x204>
 8002982:	f7ff fc0d 	bl	80021a0 <HAL_RCC_GetPCLK1Freq>
 8002986:	1e02      	subs	r2, r0, #0
 8002988:	d100      	bne.n	800298c <UART_SetConfig+0x240>
 800298a:	e78a      	b.n	80028a2 <UART_SetConfig+0x156>
 800298c:	6a63      	ldr	r3, [r4, #36]	; 0x24
 800298e:	4923      	ldr	r1, [pc, #140]	; (8002a1c <UART_SetConfig+0x2d0>)
 8002990:	005b      	lsls	r3, r3, #1
 8002992:	0010      	movs	r0, r2
 8002994:	5a59      	ldrh	r1, [r3, r1]
 8002996:	f7fd fbc9 	bl	800012c <__udivsi3>
 800299a:	6865      	ldr	r5, [r4, #4]
 800299c:	0040      	lsls	r0, r0, #1
 800299e:	086b      	lsrs	r3, r5, #1
 80029a0:	18c0      	adds	r0, r0, r3
 80029a2:	0029      	movs	r1, r5
 80029a4:	f7fd fbc2 	bl	800012c <__udivsi3>
 80029a8:	0002      	movs	r2, r0
 80029aa:	4b1f      	ldr	r3, [pc, #124]	; (8002a28 <UART_SetConfig+0x2dc>)
 80029ac:	3a10      	subs	r2, #16
 80029ae:	429a      	cmp	r2, r3
 80029b0:	d900      	bls.n	80029b4 <UART_SetConfig+0x268>
 80029b2:	e729      	b.n	8002808 <UART_SetConfig+0xbc>
 80029b4:	230f      	movs	r3, #15
 80029b6:	0002      	movs	r2, r0
 80029b8:	0700      	lsls	r0, r0, #28
 80029ba:	439a      	bics	r2, r3
 80029bc:	b293      	uxth	r3, r2
 80029be:	0f40      	lsrs	r0, r0, #29
 80029c0:	6822      	ldr	r2, [r4, #0]
 80029c2:	4318      	orrs	r0, r3
 80029c4:	60d0      	str	r0, [r2, #12]
 80029c6:	e76c      	b.n	80028a2 <UART_SetConfig+0x156>
 80029c8:	4907      	ldr	r1, [pc, #28]	; (80029e8 <UART_SetConfig+0x29c>)
 80029ca:	428b      	cmp	r3, r1
 80029cc:	d100      	bne.n	80029d0 <UART_SetConfig+0x284>
 80029ce:	e764      	b.n	800289a <UART_SetConfig+0x14e>
 80029d0:	2380      	movs	r3, #128	; 0x80
 80029d2:	2000      	movs	r0, #0
 80029d4:	021b      	lsls	r3, r3, #8
 80029d6:	429a      	cmp	r2, r3
 80029d8:	d19d      	bne.n	8002916 <UART_SetConfig+0x1ca>
 80029da:	e7d2      	b.n	8002982 <UART_SetConfig+0x236>
 80029dc:	cfff69f3 	.word	0xcfff69f3
 80029e0:	ffffcfff 	.word	0xffffcfff
 80029e4:	40008000 	.word	0x40008000
 80029e8:	40008400 	.word	0x40008400
 80029ec:	11fff4ff 	.word	0x11fff4ff
 80029f0:	40013800 	.word	0x40013800
 80029f4:	40021000 	.word	0x40021000
 80029f8:	08003088 	.word	0x08003088
 80029fc:	40004400 	.word	0x40004400
 8002a00:	0800308b 	.word	0x0800308b
 8002a04:	40004800 	.word	0x40004800
 8002a08:	40004c00 	.word	0x40004c00
 8002a0c:	40005000 	.word	0x40005000
 8002a10:	40013c00 	.word	0x40013c00
 8002a14:	00010001 	.word	0x00010001
 8002a18:	00f42400 	.word	0x00f42400
 8002a1c:	08003098 	.word	0x08003098
 8002a20:	fffffd00 	.word	0xfffffd00
 8002a24:	000ffcff 	.word	0x000ffcff
 8002a28:	0000ffef 	.word	0x0000ffef

08002a2c <UART_AdvFeatureConfig>:
 8002a2c:	6a83      	ldr	r3, [r0, #40]	; 0x28
 8002a2e:	b530      	push	{r4, r5, lr}
 8002a30:	07da      	lsls	r2, r3, #31
 8002a32:	d506      	bpl.n	8002a42 <UART_AdvFeatureConfig+0x16>
 8002a34:	6801      	ldr	r1, [r0, #0]
 8002a36:	4c28      	ldr	r4, [pc, #160]	; (8002ad8 <UART_AdvFeatureConfig+0xac>)
 8002a38:	684a      	ldr	r2, [r1, #4]
 8002a3a:	4022      	ands	r2, r4
 8002a3c:	6ac4      	ldr	r4, [r0, #44]	; 0x2c
 8002a3e:	4322      	orrs	r2, r4
 8002a40:	604a      	str	r2, [r1, #4]
 8002a42:	079a      	lsls	r2, r3, #30
 8002a44:	d506      	bpl.n	8002a54 <UART_AdvFeatureConfig+0x28>
 8002a46:	6801      	ldr	r1, [r0, #0]
 8002a48:	4c24      	ldr	r4, [pc, #144]	; (8002adc <UART_AdvFeatureConfig+0xb0>)
 8002a4a:	684a      	ldr	r2, [r1, #4]
 8002a4c:	4022      	ands	r2, r4
 8002a4e:	6b04      	ldr	r4, [r0, #48]	; 0x30
 8002a50:	4322      	orrs	r2, r4
 8002a52:	604a      	str	r2, [r1, #4]
 8002a54:	075a      	lsls	r2, r3, #29
 8002a56:	d506      	bpl.n	8002a66 <UART_AdvFeatureConfig+0x3a>
 8002a58:	6801      	ldr	r1, [r0, #0]
 8002a5a:	4c21      	ldr	r4, [pc, #132]	; (8002ae0 <UART_AdvFeatureConfig+0xb4>)
 8002a5c:	684a      	ldr	r2, [r1, #4]
 8002a5e:	4022      	ands	r2, r4
 8002a60:	6b44      	ldr	r4, [r0, #52]	; 0x34
 8002a62:	4322      	orrs	r2, r4
 8002a64:	604a      	str	r2, [r1, #4]
 8002a66:	071a      	lsls	r2, r3, #28
 8002a68:	d506      	bpl.n	8002a78 <UART_AdvFeatureConfig+0x4c>
 8002a6a:	6801      	ldr	r1, [r0, #0]
 8002a6c:	4c1d      	ldr	r4, [pc, #116]	; (8002ae4 <UART_AdvFeatureConfig+0xb8>)
 8002a6e:	684a      	ldr	r2, [r1, #4]
 8002a70:	4022      	ands	r2, r4
 8002a72:	6b84      	ldr	r4, [r0, #56]	; 0x38
 8002a74:	4322      	orrs	r2, r4
 8002a76:	604a      	str	r2, [r1, #4]
 8002a78:	06da      	lsls	r2, r3, #27
 8002a7a:	d506      	bpl.n	8002a8a <UART_AdvFeatureConfig+0x5e>
 8002a7c:	6801      	ldr	r1, [r0, #0]
 8002a7e:	4c1a      	ldr	r4, [pc, #104]	; (8002ae8 <UART_AdvFeatureConfig+0xbc>)
 8002a80:	688a      	ldr	r2, [r1, #8]
 8002a82:	4022      	ands	r2, r4
 8002a84:	6bc4      	ldr	r4, [r0, #60]	; 0x3c
 8002a86:	4322      	orrs	r2, r4
 8002a88:	608a      	str	r2, [r1, #8]
 8002a8a:	069a      	lsls	r2, r3, #26
 8002a8c:	d506      	bpl.n	8002a9c <UART_AdvFeatureConfig+0x70>
 8002a8e:	6801      	ldr	r1, [r0, #0]
 8002a90:	4c16      	ldr	r4, [pc, #88]	; (8002aec <UART_AdvFeatureConfig+0xc0>)
 8002a92:	688a      	ldr	r2, [r1, #8]
 8002a94:	4022      	ands	r2, r4
 8002a96:	6c04      	ldr	r4, [r0, #64]	; 0x40
 8002a98:	4322      	orrs	r2, r4
 8002a9a:	608a      	str	r2, [r1, #8]
 8002a9c:	065a      	lsls	r2, r3, #25
 8002a9e:	d510      	bpl.n	8002ac2 <UART_AdvFeatureConfig+0x96>
 8002aa0:	6801      	ldr	r1, [r0, #0]
 8002aa2:	4d13      	ldr	r5, [pc, #76]	; (8002af0 <UART_AdvFeatureConfig+0xc4>)
 8002aa4:	684a      	ldr	r2, [r1, #4]
 8002aa6:	6c44      	ldr	r4, [r0, #68]	; 0x44
 8002aa8:	402a      	ands	r2, r5
 8002aaa:	4322      	orrs	r2, r4
 8002aac:	604a      	str	r2, [r1, #4]
 8002aae:	2280      	movs	r2, #128	; 0x80
 8002ab0:	0352      	lsls	r2, r2, #13
 8002ab2:	4294      	cmp	r4, r2
 8002ab4:	d105      	bne.n	8002ac2 <UART_AdvFeatureConfig+0x96>
 8002ab6:	684a      	ldr	r2, [r1, #4]
 8002ab8:	4c0e      	ldr	r4, [pc, #56]	; (8002af4 <UART_AdvFeatureConfig+0xc8>)
 8002aba:	4022      	ands	r2, r4
 8002abc:	6c84      	ldr	r4, [r0, #72]	; 0x48
 8002abe:	4322      	orrs	r2, r4
 8002ac0:	604a      	str	r2, [r1, #4]
 8002ac2:	061b      	lsls	r3, r3, #24
 8002ac4:	d506      	bpl.n	8002ad4 <UART_AdvFeatureConfig+0xa8>
 8002ac6:	6802      	ldr	r2, [r0, #0]
 8002ac8:	490b      	ldr	r1, [pc, #44]	; (8002af8 <UART_AdvFeatureConfig+0xcc>)
 8002aca:	6853      	ldr	r3, [r2, #4]
 8002acc:	400b      	ands	r3, r1
 8002ace:	6cc1      	ldr	r1, [r0, #76]	; 0x4c
 8002ad0:	430b      	orrs	r3, r1
 8002ad2:	6053      	str	r3, [r2, #4]
 8002ad4:	bd30      	pop	{r4, r5, pc}
 8002ad6:	46c0      	nop			; (mov r8, r8)
 8002ad8:	fffdffff 	.word	0xfffdffff
 8002adc:	fffeffff 	.word	0xfffeffff
 8002ae0:	fffbffff 	.word	0xfffbffff
 8002ae4:	ffff7fff 	.word	0xffff7fff
 8002ae8:	ffffefff 	.word	0xffffefff
 8002aec:	ffffdfff 	.word	0xffffdfff
 8002af0:	ffefffff 	.word	0xffefffff
 8002af4:	ff9fffff 	.word	0xff9fffff
 8002af8:	fff7ffff 	.word	0xfff7ffff

08002afc <UART_WaitOnFlagUntilTimeout>:
 8002afc:	b5f7      	push	{r0, r1, r2, r4, r5, r6, r7, lr}
 8002afe:	2780      	movs	r7, #128	; 0x80
 8002b00:	0004      	movs	r4, r0
 8002b02:	000d      	movs	r5, r1
 8002b04:	0016      	movs	r6, r2
 8002b06:	9301      	str	r3, [sp, #4]
 8002b08:	013f      	lsls	r7, r7, #4
 8002b0a:	6822      	ldr	r2, [r4, #0]
 8002b0c:	69d3      	ldr	r3, [r2, #28]
 8002b0e:	402b      	ands	r3, r5
 8002b10:	1b5b      	subs	r3, r3, r5
 8002b12:	4259      	negs	r1, r3
 8002b14:	414b      	adcs	r3, r1
 8002b16:	42b3      	cmp	r3, r6
 8002b18:	d001      	beq.n	8002b1e <UART_WaitOnFlagUntilTimeout+0x22>
 8002b1a:	2000      	movs	r0, #0
 8002b1c:	e02a      	b.n	8002b74 <UART_WaitOnFlagUntilTimeout+0x78>
 8002b1e:	9b08      	ldr	r3, [sp, #32]
 8002b20:	3301      	adds	r3, #1
 8002b22:	d0f3      	beq.n	8002b0c <UART_WaitOnFlagUntilTimeout+0x10>
 8002b24:	f7fe fa92 	bl	800104c <HAL_GetTick>
 8002b28:	9b01      	ldr	r3, [sp, #4]
 8002b2a:	1ac0      	subs	r0, r0, r3
 8002b2c:	9b08      	ldr	r3, [sp, #32]
 8002b2e:	4298      	cmp	r0, r3
 8002b30:	d801      	bhi.n	8002b36 <UART_WaitOnFlagUntilTimeout+0x3a>
 8002b32:	2b00      	cmp	r3, #0
 8002b34:	d11f      	bne.n	8002b76 <UART_WaitOnFlagUntilTimeout+0x7a>
 8002b36:	f3ef 8010 	mrs	r0, PRIMASK
 8002b3a:	2201      	movs	r2, #1
 8002b3c:	f382 8810 	msr	PRIMASK, r2
 8002b40:	6821      	ldr	r1, [r4, #0]
 8002b42:	4d20      	ldr	r5, [pc, #128]	; (8002bc4 <UART_WaitOnFlagUntilTimeout+0xc8>)
 8002b44:	680b      	ldr	r3, [r1, #0]
 8002b46:	402b      	ands	r3, r5
 8002b48:	600b      	str	r3, [r1, #0]
 8002b4a:	f380 8810 	msr	PRIMASK, r0
 8002b4e:	f3ef 8010 	mrs	r0, PRIMASK
 8002b52:	f382 8810 	msr	PRIMASK, r2
 8002b56:	6821      	ldr	r1, [r4, #0]
 8002b58:	688b      	ldr	r3, [r1, #8]
 8002b5a:	4393      	bics	r3, r2
 8002b5c:	608b      	str	r3, [r1, #8]
 8002b5e:	f380 8810 	msr	PRIMASK, r0
 8002b62:	0022      	movs	r2, r4
 8002b64:	2320      	movs	r3, #32
 8002b66:	3288      	adds	r2, #136	; 0x88
 8002b68:	6013      	str	r3, [r2, #0]
 8002b6a:	6053      	str	r3, [r2, #4]
 8002b6c:	2300      	movs	r3, #0
 8002b6e:	2003      	movs	r0, #3
 8002b70:	3484      	adds	r4, #132	; 0x84
 8002b72:	7023      	strb	r3, [r4, #0]
 8002b74:	bdfe      	pop	{r1, r2, r3, r4, r5, r6, r7, pc}
 8002b76:	2104      	movs	r1, #4
 8002b78:	6823      	ldr	r3, [r4, #0]
 8002b7a:	681a      	ldr	r2, [r3, #0]
 8002b7c:	420a      	tst	r2, r1
 8002b7e:	d0c4      	beq.n	8002b0a <UART_WaitOnFlagUntilTimeout+0xe>
 8002b80:	69da      	ldr	r2, [r3, #28]
 8002b82:	423a      	tst	r2, r7
 8002b84:	d0c1      	beq.n	8002b0a <UART_WaitOnFlagUntilTimeout+0xe>
 8002b86:	621f      	str	r7, [r3, #32]
 8002b88:	f3ef 8010 	mrs	r0, PRIMASK
 8002b8c:	2201      	movs	r2, #1
 8002b8e:	f382 8810 	msr	PRIMASK, r2
 8002b92:	6821      	ldr	r1, [r4, #0]
 8002b94:	4d0b      	ldr	r5, [pc, #44]	; (8002bc4 <UART_WaitOnFlagUntilTimeout+0xc8>)
 8002b96:	680b      	ldr	r3, [r1, #0]
 8002b98:	402b      	ands	r3, r5
 8002b9a:	600b      	str	r3, [r1, #0]
 8002b9c:	f380 8810 	msr	PRIMASK, r0
 8002ba0:	f3ef 8010 	mrs	r0, PRIMASK
 8002ba4:	f382 8810 	msr	PRIMASK, r2
 8002ba8:	6821      	ldr	r1, [r4, #0]
 8002baa:	688b      	ldr	r3, [r1, #8]
 8002bac:	4393      	bics	r3, r2
 8002bae:	608b      	str	r3, [r1, #8]
 8002bb0:	f380 8810 	msr	PRIMASK, r0
 8002bb4:	0022      	movs	r2, r4
 8002bb6:	2320      	movs	r3, #32
 8002bb8:	3288      	adds	r2, #136	; 0x88
 8002bba:	6013      	str	r3, [r2, #0]
 8002bbc:	6053      	str	r3, [r2, #4]
 8002bbe:	6093      	str	r3, [r2, #8]
 8002bc0:	e7d4      	b.n	8002b6c <UART_WaitOnFlagUntilTimeout+0x70>
 8002bc2:	46c0      	nop			; (mov r8, r8)
 8002bc4:	fffffe5f 	.word	0xfffffe5f

08002bc8 <UART_CheckIdleState>:
 8002bc8:	0003      	movs	r3, r0
 8002bca:	b573      	push	{r0, r1, r4, r5, r6, lr}
 8002bcc:	2600      	movs	r6, #0
 8002bce:	0004      	movs	r4, r0
 8002bd0:	3390      	adds	r3, #144	; 0x90
 8002bd2:	601e      	str	r6, [r3, #0]
 8002bd4:	f7fe fa3a 	bl	800104c <HAL_GetTick>
 8002bd8:	6823      	ldr	r3, [r4, #0]
 8002bda:	0005      	movs	r5, r0
 8002bdc:	681b      	ldr	r3, [r3, #0]
 8002bde:	071b      	lsls	r3, r3, #28
 8002be0:	d419      	bmi.n	8002c16 <UART_CheckIdleState+0x4e>
 8002be2:	6823      	ldr	r3, [r4, #0]
 8002be4:	681b      	ldr	r3, [r3, #0]
 8002be6:	075b      	lsls	r3, r3, #29
 8002be8:	d50a      	bpl.n	8002c00 <UART_CheckIdleState+0x38>
 8002bea:	2180      	movs	r1, #128	; 0x80
 8002bec:	4b10      	ldr	r3, [pc, #64]	; (8002c30 <UART_CheckIdleState+0x68>)
 8002bee:	2200      	movs	r2, #0
 8002bf0:	9300      	str	r3, [sp, #0]
 8002bf2:	0020      	movs	r0, r4
 8002bf4:	002b      	movs	r3, r5
 8002bf6:	03c9      	lsls	r1, r1, #15
 8002bf8:	f7ff ff80 	bl	8002afc <UART_WaitOnFlagUntilTimeout>
 8002bfc:	2800      	cmp	r0, #0
 8002bfe:	d115      	bne.n	8002c2c <UART_CheckIdleState+0x64>
 8002c00:	0022      	movs	r2, r4
 8002c02:	2000      	movs	r0, #0
 8002c04:	2320      	movs	r3, #32
 8002c06:	3288      	adds	r2, #136	; 0x88
 8002c08:	6013      	str	r3, [r2, #0]
 8002c0a:	6053      	str	r3, [r2, #4]
 8002c0c:	66e0      	str	r0, [r4, #108]	; 0x6c
 8002c0e:	6720      	str	r0, [r4, #112]	; 0x70
 8002c10:	3484      	adds	r4, #132	; 0x84
 8002c12:	7020      	strb	r0, [r4, #0]
 8002c14:	e00b      	b.n	8002c2e <UART_CheckIdleState+0x66>
 8002c16:	2180      	movs	r1, #128	; 0x80
 8002c18:	4b05      	ldr	r3, [pc, #20]	; (8002c30 <UART_CheckIdleState+0x68>)
 8002c1a:	0032      	movs	r2, r6
 8002c1c:	9300      	str	r3, [sp, #0]
 8002c1e:	0389      	lsls	r1, r1, #14
 8002c20:	0003      	movs	r3, r0
 8002c22:	0020      	movs	r0, r4
 8002c24:	f7ff ff6a 	bl	8002afc <UART_WaitOnFlagUntilTimeout>
 8002c28:	2800      	cmp	r0, #0
 8002c2a:	d0da      	beq.n	8002be2 <UART_CheckIdleState+0x1a>
 8002c2c:	2003      	movs	r0, #3
 8002c2e:	bd76      	pop	{r1, r2, r4, r5, r6, pc}
 8002c30:	01ffffff 	.word	0x01ffffff

08002c34 <HAL_UART_Init>:
 8002c34:	b570      	push	{r4, r5, r6, lr}
 8002c36:	1e04      	subs	r4, r0, #0
 8002c38:	d101      	bne.n	8002c3e <HAL_UART_Init+0xa>
 8002c3a:	2001      	movs	r0, #1
 8002c3c:	bd70      	pop	{r4, r5, r6, pc}
 8002c3e:	0005      	movs	r5, r0
 8002c40:	3588      	adds	r5, #136	; 0x88
 8002c42:	682b      	ldr	r3, [r5, #0]
 8002c44:	2b00      	cmp	r3, #0
 8002c46:	d104      	bne.n	8002c52 <HAL_UART_Init+0x1e>
 8002c48:	0002      	movs	r2, r0
 8002c4a:	3284      	adds	r2, #132	; 0x84
 8002c4c:	7013      	strb	r3, [r2, #0]
 8002c4e:	f7fd ffe1 	bl	8000c14 <HAL_UART_MspInit>
 8002c52:	2324      	movs	r3, #36	; 0x24
 8002c54:	2101      	movs	r1, #1
 8002c56:	6822      	ldr	r2, [r4, #0]
 8002c58:	602b      	str	r3, [r5, #0]
 8002c5a:	6813      	ldr	r3, [r2, #0]
 8002c5c:	0020      	movs	r0, r4
 8002c5e:	438b      	bics	r3, r1
 8002c60:	6013      	str	r3, [r2, #0]
 8002c62:	f7ff fd73 	bl	800274c <UART_SetConfig>
 8002c66:	2801      	cmp	r0, #1
 8002c68:	d0e7      	beq.n	8002c3a <HAL_UART_Init+0x6>
 8002c6a:	6aa3      	ldr	r3, [r4, #40]	; 0x28
 8002c6c:	2b00      	cmp	r3, #0
 8002c6e:	d002      	beq.n	8002c76 <HAL_UART_Init+0x42>
 8002c70:	0020      	movs	r0, r4
 8002c72:	f7ff fedb 	bl	8002a2c <UART_AdvFeatureConfig>
 8002c76:	6823      	ldr	r3, [r4, #0]
 8002c78:	4907      	ldr	r1, [pc, #28]	; (8002c98 <HAL_UART_Init+0x64>)
 8002c7a:	685a      	ldr	r2, [r3, #4]
 8002c7c:	0020      	movs	r0, r4
 8002c7e:	400a      	ands	r2, r1
 8002c80:	212a      	movs	r1, #42	; 0x2a
 8002c82:	605a      	str	r2, [r3, #4]
 8002c84:	689a      	ldr	r2, [r3, #8]
 8002c86:	438a      	bics	r2, r1
 8002c88:	609a      	str	r2, [r3, #8]
 8002c8a:	2201      	movs	r2, #1
 8002c8c:	6819      	ldr	r1, [r3, #0]
 8002c8e:	430a      	orrs	r2, r1
 8002c90:	601a      	str	r2, [r3, #0]
 8002c92:	f7ff ff99 	bl	8002bc8 <UART_CheckIdleState>
 8002c96:	e7d1      	b.n	8002c3c <HAL_UART_Init+0x8>
 8002c98:	ffffb7ff 	.word	0xffffb7ff

08002c9c <UARTEx_SetNbDataToProcess>:
 8002c9c:	b5f8      	push	{r3, r4, r5, r6, r7, lr}
 8002c9e:	6e43      	ldr	r3, [r0, #100]	; 0x64
 8002ca0:	0004      	movs	r4, r0
 8002ca2:	2b00      	cmp	r3, #0
 8002ca4:	d102      	bne.n	8002cac <UARTEx_SetNbDataToProcess+0x10>
 8002ca6:	4b0d      	ldr	r3, [pc, #52]	; (8002cdc <UARTEx_SetNbDataToProcess+0x40>)
 8002ca8:	6683      	str	r3, [r0, #104]	; 0x68
 8002caa:	bdf8      	pop	{r3, r4, r5, r6, r7, pc}
 8002cac:	6803      	ldr	r3, [r0, #0]
 8002cae:	4e0c      	ldr	r6, [pc, #48]	; (8002ce0 <UARTEx_SetNbDataToProcess+0x44>)
 8002cb0:	689f      	ldr	r7, [r3, #8]
 8002cb2:	689b      	ldr	r3, [r3, #8]
 8002cb4:	4d0b      	ldr	r5, [pc, #44]	; (8002ce4 <UARTEx_SetNbDataToProcess+0x48>)
 8002cb6:	0f5b      	lsrs	r3, r3, #29
 8002cb8:	5cf0      	ldrb	r0, [r6, r3]
 8002cba:	5ce9      	ldrb	r1, [r5, r3]
 8002cbc:	00c0      	lsls	r0, r0, #3
 8002cbe:	f7fd fabf 	bl	8000240 <__divsi3>
 8002cc2:	0023      	movs	r3, r4
 8002cc4:	336a      	adds	r3, #106	; 0x6a
 8002cc6:	8018      	strh	r0, [r3, #0]
 8002cc8:	013b      	lsls	r3, r7, #4
 8002cca:	0f5b      	lsrs	r3, r3, #29
 8002ccc:	5cf0      	ldrb	r0, [r6, r3]
 8002cce:	5ce9      	ldrb	r1, [r5, r3]
 8002cd0:	00c0      	lsls	r0, r0, #3
 8002cd2:	f7fd fab5 	bl	8000240 <__divsi3>
 8002cd6:	3468      	adds	r4, #104	; 0x68
 8002cd8:	8020      	strh	r0, [r4, #0]
 8002cda:	e7e6      	b.n	8002caa <UARTEx_SetNbDataToProcess+0xe>
 8002cdc:	00010001 	.word	0x00010001
 8002ce0:	080030b8 	.word	0x080030b8
 8002ce4:	080030b0 	.word	0x080030b0

08002ce8 <HAL_UARTEx_DisableFifoMode>:
 8002ce8:	b570      	push	{r4, r5, r6, lr}
 8002cea:	0004      	movs	r4, r0
 8002cec:	3484      	adds	r4, #132	; 0x84
 8002cee:	7822      	ldrb	r2, [r4, #0]
 8002cf0:	0003      	movs	r3, r0
 8002cf2:	2002      	movs	r0, #2
 8002cf4:	2a01      	cmp	r2, #1
 8002cf6:	d011      	beq.n	8002d1c <HAL_UARTEx_DisableFifoMode+0x34>
 8002cf8:	001d      	movs	r5, r3
 8002cfa:	2224      	movs	r2, #36	; 0x24
 8002cfc:	2601      	movs	r6, #1
 8002cfe:	3588      	adds	r5, #136	; 0x88
 8002d00:	602a      	str	r2, [r5, #0]
 8002d02:	681a      	ldr	r2, [r3, #0]
 8002d04:	6811      	ldr	r1, [r2, #0]
 8002d06:	6810      	ldr	r0, [r2, #0]
 8002d08:	43b0      	bics	r0, r6
 8002d0a:	6010      	str	r0, [r2, #0]
 8002d0c:	4804      	ldr	r0, [pc, #16]	; (8002d20 <HAL_UARTEx_DisableFifoMode+0x38>)
 8002d0e:	4001      	ands	r1, r0
 8002d10:	2000      	movs	r0, #0
 8002d12:	6658      	str	r0, [r3, #100]	; 0x64
 8002d14:	2320      	movs	r3, #32
 8002d16:	6011      	str	r1, [r2, #0]
 8002d18:	602b      	str	r3, [r5, #0]
 8002d1a:	7020      	strb	r0, [r4, #0]
 8002d1c:	bd70      	pop	{r4, r5, r6, pc}
 8002d1e:	46c0      	nop			; (mov r8, r8)
 8002d20:	dfffffff 	.word	0xdfffffff

08002d24 <HAL_UARTEx_SetTxFifoThreshold>:
 8002d24:	b5f8      	push	{r3, r4, r5, r6, r7, lr}
 8002d26:	0004      	movs	r4, r0
 8002d28:	0025      	movs	r5, r4
 8002d2a:	3584      	adds	r5, #132	; 0x84
 8002d2c:	782a      	ldrb	r2, [r5, #0]
 8002d2e:	0008      	movs	r0, r1
 8002d30:	2302      	movs	r3, #2
 8002d32:	2a01      	cmp	r2, #1
 8002d34:	d018      	beq.n	8002d68 <HAL_UARTEx_SetTxFifoThreshold+0x44>
 8002d36:	2101      	movs	r1, #1
 8002d38:	0026      	movs	r6, r4
 8002d3a:	7029      	strb	r1, [r5, #0]
 8002d3c:	6822      	ldr	r2, [r4, #0]
 8002d3e:	3688      	adds	r6, #136	; 0x88
 8002d40:	3322      	adds	r3, #34	; 0x22
 8002d42:	6033      	str	r3, [r6, #0]
 8002d44:	6817      	ldr	r7, [r2, #0]
 8002d46:	6813      	ldr	r3, [r2, #0]
 8002d48:	438b      	bics	r3, r1
 8002d4a:	6013      	str	r3, [r2, #0]
 8002d4c:	6893      	ldr	r3, [r2, #8]
 8002d4e:	00db      	lsls	r3, r3, #3
 8002d50:	08d9      	lsrs	r1, r3, #3
 8002d52:	4301      	orrs	r1, r0
 8002d54:	6091      	str	r1, [r2, #8]
 8002d56:	0020      	movs	r0, r4
 8002d58:	f7ff ffa0 	bl	8002c9c <UARTEx_SetNbDataToProcess>
 8002d5c:	6823      	ldr	r3, [r4, #0]
 8002d5e:	601f      	str	r7, [r3, #0]
 8002d60:	2320      	movs	r3, #32
 8002d62:	6033      	str	r3, [r6, #0]
 8002d64:	2300      	movs	r3, #0
 8002d66:	702b      	strb	r3, [r5, #0]
 8002d68:	0018      	movs	r0, r3
 8002d6a:	bdf8      	pop	{r3, r4, r5, r6, r7, pc}

08002d6c <HAL_UARTEx_SetRxFifoThreshold>:
 8002d6c:	b5f8      	push	{r3, r4, r5, r6, r7, lr}
 8002d6e:	0005      	movs	r5, r0
 8002d70:	3584      	adds	r5, #132	; 0x84
 8002d72:	782b      	ldrb	r3, [r5, #0]
 8002d74:	0004      	movs	r4, r0
 8002d76:	000a      	movs	r2, r1
 8002d78:	2002      	movs	r0, #2
 8002d7a:	2b01      	cmp	r3, #1
 8002d7c:	d018      	beq.n	8002db0 <HAL_UARTEx_SetRxFifoThreshold+0x44>
 8002d7e:	0026      	movs	r6, r4
 8002d80:	2324      	movs	r3, #36	; 0x24
 8002d82:	3801      	subs	r0, #1
 8002d84:	7028      	strb	r0, [r5, #0]
 8002d86:	3688      	adds	r6, #136	; 0x88
 8002d88:	6033      	str	r3, [r6, #0]
 8002d8a:	6823      	ldr	r3, [r4, #0]
 8002d8c:	681f      	ldr	r7, [r3, #0]
 8002d8e:	6819      	ldr	r1, [r3, #0]
 8002d90:	4381      	bics	r1, r0
 8002d92:	6019      	str	r1, [r3, #0]
 8002d94:	6899      	ldr	r1, [r3, #8]
 8002d96:	4807      	ldr	r0, [pc, #28]	; (8002db4 <HAL_UARTEx_SetRxFifoThreshold+0x48>)
 8002d98:	4001      	ands	r1, r0
 8002d9a:	4311      	orrs	r1, r2
 8002d9c:	0020      	movs	r0, r4
 8002d9e:	6099      	str	r1, [r3, #8]
 8002da0:	f7ff ff7c 	bl	8002c9c <UARTEx_SetNbDataToProcess>
 8002da4:	6823      	ldr	r3, [r4, #0]
 8002da6:	2000      	movs	r0, #0
 8002da8:	601f      	str	r7, [r3, #0]
 8002daa:	2320      	movs	r3, #32
 8002dac:	6033      	str	r3, [r6, #0]
 8002dae:	7028      	strb	r0, [r5, #0]
 8002db0:	bdf8      	pop	{r3, r4, r5, r6, r7, pc}
 8002db2:	46c0      	nop			; (mov r8, r8)
 8002db4:	f1ffffff 	.word	0xf1ffffff

08002db8 <__libc_init_array>:
 8002db8:	b570      	push	{r4, r5, r6, lr}
 8002dba:	2600      	movs	r6, #0
 8002dbc:	4d0c      	ldr	r5, [pc, #48]	; (8002df0 <__libc_init_array+0x38>)
 8002dbe:	4c0d      	ldr	r4, [pc, #52]	; (8002df4 <__libc_init_array+0x3c>)
 8002dc0:	1b64      	subs	r4, r4, r5
 8002dc2:	10a4      	asrs	r4, r4, #2
 8002dc4:	42a6      	cmp	r6, r4
 8002dc6:	d109      	bne.n	8002ddc <__libc_init_array+0x24>
 8002dc8:	2600      	movs	r6, #0
 8002dca:	f000 f82b 	bl	8002e24 <_init>
 8002dce:	4d0a      	ldr	r5, [pc, #40]	; (8002df8 <__libc_init_array+0x40>)
 8002dd0:	4c0a      	ldr	r4, [pc, #40]	; (8002dfc <__libc_init_array+0x44>)
 8002dd2:	1b64      	subs	r4, r4, r5
 8002dd4:	10a4      	asrs	r4, r4, #2
 8002dd6:	42a6      	cmp	r6, r4
 8002dd8:	d105      	bne.n	8002de6 <__libc_init_array+0x2e>
 8002dda:	bd70      	pop	{r4, r5, r6, pc}
 8002ddc:	00b3      	lsls	r3, r6, #2
 8002dde:	58eb      	ldr	r3, [r5, r3]
 8002de0:	4798      	blx	r3
 8002de2:	3601      	adds	r6, #1
 8002de4:	e7ee      	b.n	8002dc4 <__libc_init_array+0xc>
 8002de6:	00b3      	lsls	r3, r6, #2
 8002de8:	58eb      	ldr	r3, [r5, r3]
 8002dea:	4798      	blx	r3
 8002dec:	3601      	adds	r6, #1
 8002dee:	e7f2      	b.n	8002dd6 <__libc_init_array+0x1e>
 8002df0:	080030c8 	.word	0x080030c8
 8002df4:	080030c8 	.word	0x080030c8
 8002df8:	080030c8 	.word	0x080030c8
 8002dfc:	080030cc 	.word	0x080030cc

08002e00 <memcpy>:
 8002e00:	2300      	movs	r3, #0
 8002e02:	b510      	push	{r4, lr}
 8002e04:	429a      	cmp	r2, r3
 8002e06:	d100      	bne.n	8002e0a <memcpy+0xa>
 8002e08:	bd10      	pop	{r4, pc}
 8002e0a:	5ccc      	ldrb	r4, [r1, r3]
 8002e0c:	54c4      	strb	r4, [r0, r3]
 8002e0e:	3301      	adds	r3, #1
 8002e10:	e7f8      	b.n	8002e04 <memcpy+0x4>

08002e12 <memset>:
 8002e12:	0003      	movs	r3, r0
 8002e14:	1882      	adds	r2, r0, r2
 8002e16:	4293      	cmp	r3, r2
 8002e18:	d100      	bne.n	8002e1c <memset+0xa>
 8002e1a:	4770      	bx	lr
 8002e1c:	7019      	strb	r1, [r3, #0]
 8002e1e:	3301      	adds	r3, #1
 8002e20:	e7f9      	b.n	8002e16 <memset+0x4>
	...

08002e24 <_init>:
 8002e24:	b5f8      	push	{r3, r4, r5, r6, r7, lr}
 8002e26:	46c0      	nop			; (mov r8, r8)
 8002e28:	bcf8      	pop	{r3, r4, r5, r6, r7}
 8002e2a:	bc08      	pop	{r3}
 8002e2c:	469e      	mov	lr, r3
 8002e2e:	4770      	bx	lr

08002e30 <_fini>:
 8002e30:	b5f8      	push	{r3, r4, r5, r6, r7, lr}
 8002e32:	46c0      	nop			; (mov r8, r8)
 8002e34:	bcf8      	pop	{r3, r4, r5, r6, r7}
 8002e36:	bc08      	pop	{r3}
 8002e38:	469e      	mov	lr, r3
 8002e3a:	4770      	bx	lr
