
HackKosice2023.elf:     file format elf32-littlearm

Sections:
Idx Name          Size      VMA       LMA       File off  Algn
  0 .isr_vector   000000bc  08000000  08000000  00010000  2**0
                  CONTENTS, ALLOC, LOAD, READONLY, DATA
  1 .text         00002d78  080000bc  080000bc  000100bc  2**2
                  CONTENTS, ALLOC, LOAD, READONLY, CODE
  2 .rodata       00000098  08002e34  08002e34  00012e34  2**2
                  CONTENTS, ALLOC, LOAD, READONLY, DATA
  3 .ARM.extab    00000000  08002ecc  08002ecc  0002000c  2**0
                  CONTENTS
  4 .ARM          00000008  08002ecc  08002ecc  00012ecc  2**2
                  CONTENTS, ALLOC, LOAD, READONLY, DATA
  5 .preinit_array 00000000  08002ed4  08002ed4  0002000c  2**0
                  CONTENTS, ALLOC, LOAD, DATA
  6 .init_array   00000004  08002ed4  08002ed4  00012ed4  2**2
                  CONTENTS, ALLOC, LOAD, DATA
  7 .fini_array   00000004  08002ed8  08002ed8  00012ed8  2**2
                  CONTENTS, ALLOC, LOAD, DATA
  8 .data         0000000c  20000000  08002edc  00020000  2**2
                  CONTENTS, ALLOC, LOAD, DATA
  9 .bss          0000025c  2000000c  08002ee8  0002000c  2**2
                  ALLOC
 10 ._user_heap_stack 00000600  20000268  08002ee8  00020268  2**0
                  ALLOC
 11 .ARM.attributes 00000028  00000000  00000000  0002000c  2**0
                  CONTENTS, READONLY
 12 .comment      00000050  00000000  00000000  00020034  2**0
                  CONTENTS, READONLY
 13 .debug_frame  000000c8  00000000  00000000  00020084  2**2
                  CONTENTS, READONLY, DEBUGGING, OCTETS

Disassembly of section .text:

080000bc <__do_global_dtors_aux>:
 80000bc:	b510      	push	{r4, lr}
 80000be:	4c06      	ldr	r4, [pc, #24]	; (80000d8 <__do_global_dtors_aux+0x1c>)
 80000c0:	7823      	ldrb	r3, [r4, #0]
 80000c2:	2b00      	cmp	r3, #0
 80000c4:	d107      	bne.n	80000d6 <__do_global_dtors_aux+0x1a>
 80000c6:	4b05      	ldr	r3, [pc, #20]	; (80000dc <__do_global_dtors_aux+0x20>)
 80000c8:	2b00      	cmp	r3, #0
 80000ca:	d002      	beq.n	80000d2 <__do_global_dtors_aux+0x16>
 80000cc:	4804      	ldr	r0, [pc, #16]	; (80000e0 <__do_global_dtors_aux+0x24>)
 80000ce:	e000      	b.n	80000d2 <__do_global_dtors_aux+0x16>
 80000d0:	bf00      	nop
 80000d2:	2301      	movs	r3, #1
 80000d4:	7023      	strb	r3, [r4, #0]
 80000d6:	bd10      	pop	{r4, pc}
 80000d8:	2000000c 	.word	0x2000000c
 80000dc:	00000000 	.word	0x00000000
 80000e0:	08002e1c 	.word	0x08002e1c

080000e4 <frame_dummy>:
 80000e4:	4b04      	ldr	r3, [pc, #16]	; (80000f8 <frame_dummy+0x14>)
 80000e6:	b510      	push	{r4, lr}
 80000e8:	2b00      	cmp	r3, #0
 80000ea:	d003      	beq.n	80000f4 <frame_dummy+0x10>
 80000ec:	4903      	ldr	r1, [pc, #12]	; (80000fc <frame_dummy+0x18>)
 80000ee:	4804      	ldr	r0, [pc, #16]	; (8000100 <frame_dummy+0x1c>)
 80000f0:	e000      	b.n	80000f4 <frame_dummy+0x10>
 80000f2:	bf00      	nop
 80000f4:	bd10      	pop	{r4, pc}
 80000f6:	46c0      	nop			; (mov r8, r8)
 80000f8:	00000000 	.word	0x00000000
 80000fc:	20000010 	.word	0x20000010
 8000100:	08002e1c 	.word	0x08002e1c

08000104 <__gnu_thumb1_case_uqi>:
 8000104:	b402      	push	{r1}
 8000106:	4671      	mov	r1, lr
 8000108:	0849      	lsrs	r1, r1, #1
 800010a:	0049      	lsls	r1, r1, #1
 800010c:	5c09      	ldrb	r1, [r1, r0]
 800010e:	0049      	lsls	r1, r1, #1
 8000110:	448e      	add	lr, r1
 8000112:	bc02      	pop	{r1}
 8000114:	4770      	bx	lr
 8000116:	46c0      	nop			; (mov r8, r8)

08000118 <__gnu_thumb1_case_shi>:
 8000118:	b403      	push	{r0, r1}
 800011a:	4671      	mov	r1, lr
 800011c:	0849      	lsrs	r1, r1, #1
 800011e:	0040      	lsls	r0, r0, #1
 8000120:	0049      	lsls	r1, r1, #1
 8000122:	5e09      	ldrsh	r1, [r1, r0]
 8000124:	0049      	lsls	r1, r1, #1
 8000126:	448e      	add	lr, r1
 8000128:	bc03      	pop	{r0, r1}
 800012a:	4770      	bx	lr

0800012c <__udivsi3>:
 800012c:	2200      	movs	r2, #0
 800012e:	0843      	lsrs	r3, r0, #1
 8000130:	428b      	cmp	r3, r1
 8000132:	d374      	bcc.n	800021e <__udivsi3+0xf2>
 8000134:	0903      	lsrs	r3, r0, #4
 8000136:	428b      	cmp	r3, r1
 8000138:	d35f      	bcc.n	80001fa <__udivsi3+0xce>
 800013a:	0a03      	lsrs	r3, r0, #8
 800013c:	428b      	cmp	r3, r1
 800013e:	d344      	bcc.n	80001ca <__udivsi3+0x9e>
 8000140:	0b03      	lsrs	r3, r0, #12
 8000142:	428b      	cmp	r3, r1
 8000144:	d328      	bcc.n	8000198 <__udivsi3+0x6c>
 8000146:	0c03      	lsrs	r3, r0, #16
 8000148:	428b      	cmp	r3, r1
 800014a:	d30d      	bcc.n	8000168 <__udivsi3+0x3c>
 800014c:	22ff      	movs	r2, #255	; 0xff
 800014e:	0209      	lsls	r1, r1, #8
 8000150:	ba12      	rev	r2, r2
 8000152:	0c03      	lsrs	r3, r0, #16
 8000154:	428b      	cmp	r3, r1
 8000156:	d302      	bcc.n	800015e <__udivsi3+0x32>
 8000158:	1212      	asrs	r2, r2, #8
 800015a:	0209      	lsls	r1, r1, #8
 800015c:	d065      	beq.n	800022a <__udivsi3+0xfe>
 800015e:	0b03      	lsrs	r3, r0, #12
 8000160:	428b      	cmp	r3, r1
 8000162:	d319      	bcc.n	8000198 <__udivsi3+0x6c>
 8000164:	e000      	b.n	8000168 <__udivsi3+0x3c>
 8000166:	0a09      	lsrs	r1, r1, #8
 8000168:	0bc3      	lsrs	r3, r0, #15
 800016a:	428b      	cmp	r3, r1
 800016c:	d301      	bcc.n	8000172 <__udivsi3+0x46>
 800016e:	03cb      	lsls	r3, r1, #15
 8000170:	1ac0      	subs	r0, r0, r3
 8000172:	4152      	adcs	r2, r2
 8000174:	0b83      	lsrs	r3, r0, #14
 8000176:	428b      	cmp	r3, r1
 8000178:	d301      	bcc.n	800017e <__udivsi3+0x52>
 800017a:	038b      	lsls	r3, r1, #14
 800017c:	1ac0      	subs	r0, r0, r3
 800017e:	4152      	adcs	r2, r2
 8000180:	0b43      	lsrs	r3, r0, #13
 8000182:	428b      	cmp	r3, r1
 8000184:	d301      	bcc.n	800018a <__udivsi3+0x5e>
 8000186:	034b      	lsls	r3, r1, #13
 8000188:	1ac0      	subs	r0, r0, r3
 800018a:	4152      	adcs	r2, r2
 800018c:	0b03      	lsrs	r3, r0, #12
 800018e:	428b      	cmp	r3, r1
 8000190:	d301      	bcc.n	8000196 <__udivsi3+0x6a>
 8000192:	030b      	lsls	r3, r1, #12
 8000194:	1ac0      	subs	r0, r0, r3
 8000196:	4152      	adcs	r2, r2
 8000198:	0ac3      	lsrs	r3, r0, #11
 800019a:	428b      	cmp	r3, r1
 800019c:	d301      	bcc.n	80001a2 <__udivsi3+0x76>
 800019e:	02cb      	lsls	r3, r1, #11
 80001a0:	1ac0      	subs	r0, r0, r3
 80001a2:	4152      	adcs	r2, r2
 80001a4:	0a83      	lsrs	r3, r0, #10
 80001a6:	428b      	cmp	r3, r1
 80001a8:	d301      	bcc.n	80001ae <__udivsi3+0x82>
 80001aa:	028b      	lsls	r3, r1, #10
 80001ac:	1ac0      	subs	r0, r0, r3
 80001ae:	4152      	adcs	r2, r2
 80001b0:	0a43      	lsrs	r3, r0, #9
 80001b2:	428b      	cmp	r3, r1
 80001b4:	d301      	bcc.n	80001ba <__udivsi3+0x8e>
 80001b6:	024b      	lsls	r3, r1, #9
 80001b8:	1ac0      	subs	r0, r0, r3
 80001ba:	4152      	adcs	r2, r2
 80001bc:	0a03      	lsrs	r3, r0, #8
 80001be:	428b      	cmp	r3, r1
 80001c0:	d301      	bcc.n	80001c6 <__udivsi3+0x9a>
 80001c2:	020b      	lsls	r3, r1, #8
 80001c4:	1ac0      	subs	r0, r0, r3
 80001c6:	4152      	adcs	r2, r2
 80001c8:	d2cd      	bcs.n	8000166 <__udivsi3+0x3a>
 80001ca:	09c3      	lsrs	r3, r0, #7
 80001cc:	428b      	cmp	r3, r1
 80001ce:	d301      	bcc.n	80001d4 <__udivsi3+0xa8>
 80001d0:	01cb      	lsls	r3, r1, #7
 80001d2:	1ac0      	subs	r0, r0, r3
 80001d4:	4152      	adcs	r2, r2
 80001d6:	0983      	lsrs	r3, r0, #6
 80001d8:	428b      	cmp	r3, r1
 80001da:	d301      	bcc.n	80001e0 <__udivsi3+0xb4>
 80001dc:	018b      	lsls	r3, r1, #6
 80001de:	1ac0      	subs	r0, r0, r3
 80001e0:	4152      	adcs	r2, r2
 80001e2:	0943      	lsrs	r3, r0, #5
 80001e4:	428b      	cmp	r3, r1
 80001e6:	d301      	bcc.n	80001ec <__udivsi3+0xc0>
 80001e8:	014b      	lsls	r3, r1, #5
 80001ea:	1ac0      	subs	r0, r0, r3
 80001ec:	4152      	adcs	r2, r2
 80001ee:	0903      	lsrs	r3, r0, #4
 80001f0:	428b      	cmp	r3, r1
 80001f2:	d301      	bcc.n	80001f8 <__udivsi3+0xcc>
 80001f4:	010b      	lsls	r3, r1, #4
 80001f6:	1ac0      	subs	r0, r0, r3
 80001f8:	4152      	adcs	r2, r2
 80001fa:	08c3      	lsrs	r3, r0, #3
 80001fc:	428b      	cmp	r3, r1
 80001fe:	d301      	bcc.n	8000204 <__udivsi3+0xd8>
 8000200:	00cb      	lsls	r3, r1, #3
 8000202:	1ac0      	subs	r0, r0, r3
 8000204:	4152      	adcs	r2, r2
 8000206:	0883      	lsrs	r3, r0, #2
 8000208:	428b      	cmp	r3, r1
 800020a:	d301      	bcc.n	8000210 <__udivsi3+0xe4>
 800020c:	008b      	lsls	r3, r1, #2
 800020e:	1ac0      	subs	r0, r0, r3
 8000210:	4152      	adcs	r2, r2
 8000212:	0843      	lsrs	r3, r0, #1
 8000214:	428b      	cmp	r3, r1
 8000216:	d301      	bcc.n	800021c <__udivsi3+0xf0>
 8000218:	004b      	lsls	r3, r1, #1
 800021a:	1ac0      	subs	r0, r0, r3
 800021c:	4152      	adcs	r2, r2
 800021e:	1a41      	subs	r1, r0, r1
 8000220:	d200      	bcs.n	8000224 <__udivsi3+0xf8>
 8000222:	4601      	mov	r1, r0
 8000224:	4152      	adcs	r2, r2
 8000226:	4610      	mov	r0, r2
 8000228:	4770      	bx	lr
 800022a:	e7ff      	b.n	800022c <__udivsi3+0x100>
 800022c:	b501      	push	{r0, lr}
 800022e:	2000      	movs	r0, #0
 8000230:	f000 f8f0 	bl	8000414 <__aeabi_idiv0>
 8000234:	bd02      	pop	{r1, pc}
 8000236:	46c0      	nop			; (mov r8, r8)

08000238 <__aeabi_uidivmod>:
 8000238:	2900      	cmp	r1, #0
 800023a:	d0f7      	beq.n	800022c <__udivsi3+0x100>
 800023c:	e776      	b.n	800012c <__udivsi3>
 800023e:	4770      	bx	lr

08000240 <__divsi3>:
 8000240:	4603      	mov	r3, r0
 8000242:	430b      	orrs	r3, r1
 8000244:	d47f      	bmi.n	8000346 <__divsi3+0x106>
 8000246:	2200      	movs	r2, #0
 8000248:	0843      	lsrs	r3, r0, #1
 800024a:	428b      	cmp	r3, r1
 800024c:	d374      	bcc.n	8000338 <__divsi3+0xf8>
 800024e:	0903      	lsrs	r3, r0, #4
 8000250:	428b      	cmp	r3, r1
 8000252:	d35f      	bcc.n	8000314 <__divsi3+0xd4>
 8000254:	0a03      	lsrs	r3, r0, #8
 8000256:	428b      	cmp	r3, r1
 8000258:	d344      	bcc.n	80002e4 <__divsi3+0xa4>
 800025a:	0b03      	lsrs	r3, r0, #12
 800025c:	428b      	cmp	r3, r1
 800025e:	d328      	bcc.n	80002b2 <__divsi3+0x72>
 8000260:	0c03      	lsrs	r3, r0, #16
 8000262:	428b      	cmp	r3, r1
 8000264:	d30d      	bcc.n	8000282 <__divsi3+0x42>
 8000266:	22ff      	movs	r2, #255	; 0xff
 8000268:	0209      	lsls	r1, r1, #8
 800026a:	ba12      	rev	r2, r2
 800026c:	0c03      	lsrs	r3, r0, #16
 800026e:	428b      	cmp	r3, r1
 8000270:	d302      	bcc.n	8000278 <__divsi3+0x38>
 8000272:	1212      	asrs	r2, r2, #8
 8000274:	0209      	lsls	r1, r1, #8
 8000276:	d065      	beq.n	8000344 <__divsi3+0x104>
 8000278:	0b03      	lsrs	r3, r0, #12
 800027a:	428b      	cmp	r3, r1
 800027c:	d319      	bcc.n	80002b2 <__divsi3+0x72>
 800027e:	e000      	b.n	8000282 <__divsi3+0x42>
 8000280:	0a09      	lsrs	r1, r1, #8
 8000282:	0bc3      	lsrs	r3, r0, #15
 8000284:	428b      	cmp	r3, r1
 8000286:	d301      	bcc.n	800028c <__divsi3+0x4c>
 8000288:	03cb      	lsls	r3, r1, #15
 800028a:	1ac0      	subs	r0, r0, r3
 800028c:	4152      	adcs	r2, r2
 800028e:	0b83      	lsrs	r3, r0, #14
 8000290:	428b      	cmp	r3, r1
 8000292:	d301      	bcc.n	8000298 <__divsi3+0x58>
 8000294:	038b      	lsls	r3, r1, #14
 8000296:	1ac0      	subs	r0, r0, r3
 8000298:	4152      	adcs	r2, r2
 800029a:	0b43      	lsrs	r3, r0, #13
 800029c:	428b      	cmp	r3, r1
 800029e:	d301      	bcc.n	80002a4 <__divsi3+0x64>
 80002a0:	034b      	lsls	r3, r1, #13
 80002a2:	1ac0      	subs	r0, r0, r3
 80002a4:	4152      	adcs	r2, r2
 80002a6:	0b03      	lsrs	r3, r0, #12
 80002a8:	428b      	cmp	r3, r1
 80002aa:	d301      	bcc.n	80002b0 <__divsi3+0x70>
 80002ac:	030b      	lsls	r3, r1, #12
 80002ae:	1ac0      	subs	r0, r0, r3
 80002b0:	4152      	adcs	r2, r2
 80002b2:	0ac3      	lsrs	r3, r0, #11
 80002b4:	428b      	cmp	r3, r1
 80002b6:	d301      	bcc.n	80002bc <__divsi3+0x7c>
 80002b8:	02cb      	lsls	r3, r1, #11
 80002ba:	1ac0      	subs	r0, r0, r3
 80002bc:	4152      	adcs	r2, r2
 80002be:	0a83      	lsrs	r3, r0, #10
 80002c0:	428b      	cmp	r3, r1
 80002c2:	d301      	bcc.n	80002c8 <__divsi3+0x88>
 80002c4:	028b      	lsls	r3, r1, #10
 80002c6:	1ac0      	subs	r0, r0, r3
 80002c8:	4152      	adcs	r2, r2
 80002ca:	0a43      	lsrs	r3, r0, #9
 80002cc:	428b      	cmp	r3, r1
 80002ce:	d301      	bcc.n	80002d4 <__divsi3+0x94>
 80002d0:	024b      	lsls	r3, r1, #9
 80002d2:	1ac0      	subs	r0, r0, r3
 80002d4:	4152      	adcs	r2, r2
 80002d6:	0a03      	lsrs	r3, r0, #8
 80002d8:	428b      	cmp	r3, r1
 80002da:	d301      	bcc.n	80002e0 <__divsi3+0xa0>
 80002dc:	020b      	lsls	r3, r1, #8
 80002de:	1ac0      	subs	r0, r0, r3
 80002e0:	4152      	adcs	r2, r2
 80002e2:	d2cd      	bcs.n	8000280 <__divsi3+0x40>
 80002e4:	09c3      	lsrs	r3, r0, #7
 80002e6:	428b      	cmp	r3, r1
 80002e8:	d301      	bcc.n	80002ee <__divsi3+0xae>
 80002ea:	01cb      	lsls	r3, r1, #7
 80002ec:	1ac0      	subs	r0, r0, r3
 80002ee:	4152      	adcs	r2, r2
 80002f0:	0983      	lsrs	r3, r0, #6
 80002f2:	428b      	cmp	r3, r1
 80002f4:	d301      	bcc.n	80002fa <__divsi3+0xba>
 80002f6:	018b      	lsls	r3, r1, #6
 80002f8:	1ac0      	subs	r0, r0, r3
 80002fa:	4152      	adcs	r2, r2
 80002fc:	0943      	lsrs	r3, r0, #5
 80002fe:	428b      	cmp	r3, r1
 8000300:	d301      	bcc.n	8000306 <__divsi3+0xc6>
 8000302:	014b      	lsls	r3, r1, #5
 8000304:	1ac0      	subs	r0, r0, r3
 8000306:	4152      	adcs	r2, r2
 8000308:	0903      	lsrs	r3, r0, #4
 800030a:	428b      	cmp	r3, r1
 800030c:	d301      	bcc.n	8000312 <__divsi3+0xd2>
 800030e:	010b      	lsls	r3, r1, #4
 8000310:	1ac0      	subs	r0, r0, r3
 8000312:	4152      	adcs	r2, r2
 8000314:	08c3      	lsrs	r3, r0, #3
 8000316:	428b      	cmp	r3, r1
 8000318:	d301      	bcc.n	800031e <__divsi3+0xde>
 800031a:	00cb      	lsls	r3, r1, #3
 800031c:	1ac0      	subs	r0, r0, r3
 800031e:	4152      	adcs	r2, r2
 8000320:	0883      	lsrs	r3, r0, #2
 8000322:	428b      	cmp	r3, r1
 8000324:	d301      	bcc.n	800032a <__divsi3+0xea>
 8000326:	008b      	lsls	r3, r1, #2
 8000328:	1ac0      	subs	r0, r0, r3
 800032a:	4152      	adcs	r2, r2
 800032c:	0843      	lsrs	r3, r0, #1
 800032e:	428b      	cmp	r3, r1
 8000330:	d301      	bcc.n	8000336 <__divsi3+0xf6>
 8000332:	004b      	lsls	r3, r1, #1
 8000334:	1ac0      	subs	r0, r0, r3
 8000336:	4152      	adcs	r2, r2
 8000338:	1a41      	subs	r1, r0, r1
 800033a:	d200      	bcs.n	800033e <__divsi3+0xfe>
 800033c:	4601      	mov	r1, r0
 800033e:	4152      	adcs	r2, r2
 8000340:	4610      	mov	r0, r2
 8000342:	4770      	bx	lr
 8000344:	e05d      	b.n	8000402 <__divsi3+0x1c2>
 8000346:	0fca      	lsrs	r2, r1, #31
 8000348:	d000      	beq.n	800034c <__divsi3+0x10c>
 800034a:	4249      	negs	r1, r1
 800034c:	1003      	asrs	r3, r0, #32
 800034e:	d300      	bcc.n	8000352 <__divsi3+0x112>
 8000350:	4240      	negs	r0, r0
 8000352:	4053      	eors	r3, r2
 8000354:	2200      	movs	r2, #0
 8000356:	469c      	mov	ip, r3
 8000358:	0903      	lsrs	r3, r0, #4
 800035a:	428b      	cmp	r3, r1
 800035c:	d32d      	bcc.n	80003ba <__divsi3+0x17a>
 800035e:	0a03      	lsrs	r3, r0, #8
 8000360:	428b      	cmp	r3, r1
 8000362:	d312      	bcc.n	800038a <__divsi3+0x14a>
 8000364:	22fc      	movs	r2, #252	; 0xfc
 8000366:	0189      	lsls	r1, r1, #6
 8000368:	ba12      	rev	r2, r2
 800036a:	0a03      	lsrs	r3, r0, #8
 800036c:	428b      	cmp	r3, r1
 800036e:	d30c      	bcc.n	800038a <__divsi3+0x14a>
 8000370:	0189      	lsls	r1, r1, #6
 8000372:	1192      	asrs	r2, r2, #6
 8000374:	428b      	cmp	r3, r1
 8000376:	d308      	bcc.n	800038a <__divsi3+0x14a>
 8000378:	0189      	lsls	r1, r1, #6
 800037a:	1192      	asrs	r2, r2, #6
 800037c:	428b      	cmp	r3, r1
 800037e:	d304      	bcc.n	800038a <__divsi3+0x14a>
 8000380:	0189      	lsls	r1, r1, #6
 8000382:	d03a      	beq.n	80003fa <__divsi3+0x1ba>
 8000384:	1192      	asrs	r2, r2, #6
 8000386:	e000      	b.n	800038a <__divsi3+0x14a>
 8000388:	0989      	lsrs	r1, r1, #6
 800038a:	09c3      	lsrs	r3, r0, #7
 800038c:	428b      	cmp	r3, r1
 800038e:	d301      	bcc.n	8000394 <__divsi3+0x154>
 8000390:	01cb      	lsls	r3, r1, #7
 8000392:	1ac0      	subs	r0, r0, r3
 8000394:	4152      	adcs	r2, r2
 8000396:	0983      	lsrs	r3, r0, #6
 8000398:	428b      	cmp	r3, r1
 800039a:	d301      	bcc.n	80003a0 <__divsi3+0x160>
 800039c:	018b      	lsls	r3, r1, #6
 800039e:	1ac0      	subs	r0, r0, r3
 80003a0:	4152      	adcs	r2, r2
 80003a2:	0943      	lsrs	r3, r0, #5
 80003a4:	428b      	cmp	r3, r1
 80003a6:	d301      	bcc.n	80003ac <__divsi3+0x16c>
 80003a8:	014b      	lsls	r3, r1, #5
 80003aa:	1ac0      	subs	r0, r0, r3
 80003ac:	4152      	adcs	r2, r2
 80003ae:	0903      	lsrs	r3, r0, #4
 80003b0:	428b      	cmp	r3, r1
 80003b2:	d301      	bcc.n	80003b8 <__divsi3+0x178>
 80003b4:	010b      	lsls	r3, r1, #4
 80003b6:	1ac0      	subs	r0, r0, r3
 80003b8:	4152      	adcs	r2, r2
 80003ba:	08c3      	lsrs	r3, r0, #3
 80003bc:	428b      	cmp	r3, r1
 80003be:	d301      	bcc.n	80003c4 <__divsi3+0x184>
 80003c0:	00cb      	lsls	r3, r1, #3
 80003c2:	1ac0      	subs	r0, r0, r3
 80003c4:	4152      	adcs	r2, r2
 80003c6:	0883      	lsrs	r3, r0, #2
 80003c8:	428b      	cmp	r3, r1
 80003ca:	d301      	bcc.n	80003d0 <__divsi3+0x190>
 80003cc:	008b      	lsls	r3, r1, #2
 80003ce:	1ac0      	subs	r0, r0, r3
 80003d0:	4152      	adcs	r2, r2
 80003d2:	d2d9      	bcs.n	8000388 <__divsi3+0x148>
 80003d4:	0843      	lsrs	r3, r0, #1
 80003d6:	428b      	cmp	r3, r1
 80003d8:	d301      	bcc.n	80003de <__divsi3+0x19e>
 80003da:	004b      	lsls	r3, r1, #1
 80003dc:	1ac0      	subs	r0, r0, r3
 80003de:	4152      	adcs	r2, r2
 80003e0:	1a41      	subs	r1, r0, r1
 80003e2:	d200      	bcs.n	80003e6 <__divsi3+0x1a6>
 80003e4:	4601      	mov	r1, r0
 80003e6:	4663      	mov	r3, ip
 80003e8:	4152      	adcs	r2, r2
 80003ea:	105b      	asrs	r3, r3, #1
 80003ec:	4610      	mov	r0, r2
 80003ee:	d301      	bcc.n	80003f4 <__divsi3+0x1b4>
 80003f0:	4240      	negs	r0, r0
 80003f2:	2b00      	cmp	r3, #0
 80003f4:	d500      	bpl.n	80003f8 <__divsi3+0x1b8>
 80003f6:	4249      	negs	r1, r1
 80003f8:	4770      	bx	lr
 80003fa:	4663      	mov	r3, ip
 80003fc:	105b      	asrs	r3, r3, #1
 80003fe:	d300      	bcc.n	8000402 <__divsi3+0x1c2>
 8000400:	4240      	negs	r0, r0
 8000402:	b501      	push	{r0, lr}
 8000404:	2000      	movs	r0, #0
 8000406:	f000 f805 	bl	8000414 <__aeabi_idiv0>
 800040a:	bd02      	pop	{r1, pc}

0800040c <__aeabi_idivmod>:
 800040c:	2900      	cmp	r1, #0
 800040e:	d0f8      	beq.n	8000402 <__divsi3+0x1c2>
 8000410:	e716      	b.n	8000240 <__divsi3>
 8000412:	4770      	bx	lr

08000414 <__aeabi_idiv0>:
 8000414:	4770      	bx	lr
 8000416:	46c0      	nop			; (mov r8, r8)

08000418 <__aeabi_uldivmod>:
 8000418:	2b00      	cmp	r3, #0
 800041a:	d111      	bne.n	8000440 <__aeabi_uldivmod+0x28>
 800041c:	2a00      	cmp	r2, #0
 800041e:	d10f      	bne.n	8000440 <__aeabi_uldivmod+0x28>
 8000420:	2900      	cmp	r1, #0
 8000422:	d100      	bne.n	8000426 <__aeabi_uldivmod+0xe>
 8000424:	2800      	cmp	r0, #0
 8000426:	d002      	beq.n	800042e <__aeabi_uldivmod+0x16>
 8000428:	2100      	movs	r1, #0
 800042a:	43c9      	mvns	r1, r1
 800042c:	0008      	movs	r0, r1
 800042e:	b407      	push	{r0, r1, r2}
 8000430:	4802      	ldr	r0, [pc, #8]	; (800043c <__aeabi_uldivmod+0x24>)
 8000432:	a102      	add	r1, pc, #8	; (adr r1, 800043c <__aeabi_uldivmod+0x24>)
 8000434:	1840      	adds	r0, r0, r1
 8000436:	9002      	str	r0, [sp, #8]
 8000438:	bd03      	pop	{r0, r1, pc}
 800043a:	46c0      	nop			; (mov r8, r8)
 800043c:	ffffffd9 	.word	0xffffffd9
 8000440:	b403      	push	{r0, r1}
 8000442:	4668      	mov	r0, sp
 8000444:	b501      	push	{r0, lr}
 8000446:	9802      	ldr	r0, [sp, #8]
 8000448:	f000 f806 	bl	8000458 <__udivmoddi4>
 800044c:	9b01      	ldr	r3, [sp, #4]
 800044e:	469e      	mov	lr, r3
 8000450:	b002      	add	sp, #8
 8000452:	bc0c      	pop	{r2, r3}
 8000454:	4770      	bx	lr
 8000456:	46c0      	nop			; (mov r8, r8)

08000458 <__udivmoddi4>:
 8000458:	b5f0      	push	{r4, r5, r6, r7, lr}
 800045a:	4657      	mov	r7, sl
 800045c:	464e      	mov	r6, r9
 800045e:	4645      	mov	r5, r8
 8000460:	46de      	mov	lr, fp
 8000462:	b5e0      	push	{r5, r6, r7, lr}
 8000464:	0004      	movs	r4, r0
 8000466:	000d      	movs	r5, r1
 8000468:	4692      	mov	sl, r2
 800046a:	4699      	mov	r9, r3
 800046c:	b083      	sub	sp, #12
 800046e:	428b      	cmp	r3, r1
 8000470:	d830      	bhi.n	80004d4 <__udivmoddi4+0x7c>
 8000472:	d02d      	beq.n	80004d0 <__udivmoddi4+0x78>
 8000474:	4649      	mov	r1, r9
 8000476:	4650      	mov	r0, sl
 8000478:	f000 f8ba 	bl	80005f0 <__clzdi2>
 800047c:	0029      	movs	r1, r5
 800047e:	0006      	movs	r6, r0
 8000480:	0020      	movs	r0, r4
 8000482:	f000 f8b5 	bl	80005f0 <__clzdi2>
 8000486:	1a33      	subs	r3, r6, r0
 8000488:	4698      	mov	r8, r3
 800048a:	3b20      	subs	r3, #32
 800048c:	469b      	mov	fp, r3
 800048e:	d433      	bmi.n	80004f8 <__udivmoddi4+0xa0>
 8000490:	465a      	mov	r2, fp
 8000492:	4653      	mov	r3, sl
 8000494:	4093      	lsls	r3, r2
 8000496:	4642      	mov	r2, r8
 8000498:	001f      	movs	r7, r3
 800049a:	4653      	mov	r3, sl
 800049c:	4093      	lsls	r3, r2
 800049e:	001e      	movs	r6, r3
 80004a0:	42af      	cmp	r7, r5
 80004a2:	d83a      	bhi.n	800051a <__udivmoddi4+0xc2>
 80004a4:	42af      	cmp	r7, r5
 80004a6:	d100      	bne.n	80004aa <__udivmoddi4+0x52>
 80004a8:	e078      	b.n	800059c <__udivmoddi4+0x144>
 80004aa:	465b      	mov	r3, fp
 80004ac:	1ba4      	subs	r4, r4, r6
 80004ae:	41bd      	sbcs	r5, r7
 80004b0:	2b00      	cmp	r3, #0
 80004b2:	da00      	bge.n	80004b6 <__udivmoddi4+0x5e>
 80004b4:	e075      	b.n	80005a2 <__udivmoddi4+0x14a>
 80004b6:	2200      	movs	r2, #0
 80004b8:	2300      	movs	r3, #0
 80004ba:	9200      	str	r2, [sp, #0]
 80004bc:	9301      	str	r3, [sp, #4]
 80004be:	2301      	movs	r3, #1
 80004c0:	465a      	mov	r2, fp
 80004c2:	4093      	lsls	r3, r2
 80004c4:	9301      	str	r3, [sp, #4]
 80004c6:	2301      	movs	r3, #1
 80004c8:	4642      	mov	r2, r8
 80004ca:	4093      	lsls	r3, r2
 80004cc:	9300      	str	r3, [sp, #0]
 80004ce:	e028      	b.n	8000522 <__udivmoddi4+0xca>
 80004d0:	4282      	cmp	r2, r0
 80004d2:	d9cf      	bls.n	8000474 <__udivmoddi4+0x1c>
 80004d4:	2200      	movs	r2, #0
 80004d6:	2300      	movs	r3, #0
 80004d8:	9200      	str	r2, [sp, #0]
 80004da:	9301      	str	r3, [sp, #4]
 80004dc:	9b0c      	ldr	r3, [sp, #48]	; 0x30
 80004de:	2b00      	cmp	r3, #0
 80004e0:	d001      	beq.n	80004e6 <__udivmoddi4+0x8e>
 80004e2:	601c      	str	r4, [r3, #0]
 80004e4:	605d      	str	r5, [r3, #4]
 80004e6:	9800      	ldr	r0, [sp, #0]
 80004e8:	9901      	ldr	r1, [sp, #4]
 80004ea:	b003      	add	sp, #12
 80004ec:	bcf0      	pop	{r4, r5, r6, r7}
 80004ee:	46bb      	mov	fp, r7
 80004f0:	46b2      	mov	sl, r6
 80004f2:	46a9      	mov	r9, r5
 80004f4:	46a0      	mov	r8, r4
 80004f6:	bdf0      	pop	{r4, r5, r6, r7, pc}
 80004f8:	4642      	mov	r2, r8
 80004fa:	2320      	movs	r3, #32
 80004fc:	1a9b      	subs	r3, r3, r2
 80004fe:	4652      	mov	r2, sl
 8000500:	40da      	lsrs	r2, r3
 8000502:	4641      	mov	r1, r8
 8000504:	0013      	movs	r3, r2
 8000506:	464a      	mov	r2, r9
 8000508:	408a      	lsls	r2, r1
 800050a:	0017      	movs	r7, r2
 800050c:	4642      	mov	r2, r8
 800050e:	431f      	orrs	r7, r3
 8000510:	4653      	mov	r3, sl
 8000512:	4093      	lsls	r3, r2
 8000514:	001e      	movs	r6, r3
 8000516:	42af      	cmp	r7, r5
 8000518:	d9c4      	bls.n	80004a4 <__udivmoddi4+0x4c>
 800051a:	2200      	movs	r2, #0
 800051c:	2300      	movs	r3, #0
 800051e:	9200      	str	r2, [sp, #0]
 8000520:	9301      	str	r3, [sp, #4]
 8000522:	4643      	mov	r3, r8
 8000524:	2b00      	cmp	r3, #0
 8000526:	d0d9      	beq.n	80004dc <__udivmoddi4+0x84>
 8000528:	07fb      	lsls	r3, r7, #31
 800052a:	0872      	lsrs	r2, r6, #1
 800052c:	431a      	orrs	r2, r3
 800052e:	4646      	mov	r6, r8
 8000530:	087b      	lsrs	r3, r7, #1
 8000532:	e00e      	b.n	8000552 <__udivmoddi4+0xfa>
 8000534:	42ab      	cmp	r3, r5
 8000536:	d101      	bne.n	800053c <__udivmoddi4+0xe4>
 8000538:	42a2      	cmp	r2, r4
 800053a:	d80c      	bhi.n	8000556 <__udivmoddi4+0xfe>
 800053c:	1aa4      	subs	r4, r4, r2
 800053e:	419d      	sbcs	r5, r3
 8000540:	2001      	movs	r0, #1
 8000542:	1924      	adds	r4, r4, r4
 8000544:	416d      	adcs	r5, r5
 8000546:	2100      	movs	r1, #0
 8000548:	3e01      	subs	r6, #1
 800054a:	1824      	adds	r4, r4, r0
 800054c:	414d      	adcs	r5, r1
 800054e:	2e00      	cmp	r6, #0
 8000550:	d006      	beq.n	8000560 <__udivmoddi4+0x108>
 8000552:	42ab      	cmp	r3, r5
 8000554:	d9ee      	bls.n	8000534 <__udivmoddi4+0xdc>
 8000556:	3e01      	subs	r6, #1
 8000558:	1924      	adds	r4, r4, r4
 800055a:	416d      	adcs	r5, r5
 800055c:	2e00      	cmp	r6, #0
 800055e:	d1f8      	bne.n	8000552 <__udivmoddi4+0xfa>
 8000560:	9800      	ldr	r0, [sp, #0]
 8000562:	9901      	ldr	r1, [sp, #4]
 8000564:	465b      	mov	r3, fp
 8000566:	1900      	adds	r0, r0, r4
 8000568:	4169      	adcs	r1, r5
 800056a:	2b00      	cmp	r3, #0
 800056c:	db24      	blt.n	80005b8 <__udivmoddi4+0x160>
 800056e:	002b      	movs	r3, r5
 8000570:	465a      	mov	r2, fp
 8000572:	4644      	mov	r4, r8
 8000574:	40d3      	lsrs	r3, r2
 8000576:	002a      	movs	r2, r5
 8000578:	40e2      	lsrs	r2, r4
 800057a:	001c      	movs	r4, r3
 800057c:	465b      	mov	r3, fp
 800057e:	0015      	movs	r5, r2
 8000580:	2b00      	cmp	r3, #0
 8000582:	db2a      	blt.n	80005da <__udivmoddi4+0x182>
 8000584:	0026      	movs	r6, r4
 8000586:	409e      	lsls	r6, r3
 8000588:	0033      	movs	r3, r6
 800058a:	0026      	movs	r6, r4
 800058c:	4647      	mov	r7, r8
 800058e:	40be      	lsls	r6, r7
 8000590:	0032      	movs	r2, r6
 8000592:	1a80      	subs	r0, r0, r2
 8000594:	4199      	sbcs	r1, r3
 8000596:	9000      	str	r0, [sp, #0]
 8000598:	9101      	str	r1, [sp, #4]
 800059a:	e79f      	b.n	80004dc <__udivmoddi4+0x84>
 800059c:	42a3      	cmp	r3, r4
 800059e:	d8bc      	bhi.n	800051a <__udivmoddi4+0xc2>
 80005a0:	e783      	b.n	80004aa <__udivmoddi4+0x52>
 80005a2:	4642      	mov	r2, r8
 80005a4:	2320      	movs	r3, #32
 80005a6:	2100      	movs	r1, #0
 80005a8:	1a9b      	subs	r3, r3, r2
 80005aa:	2200      	movs	r2, #0
 80005ac:	9100      	str	r1, [sp, #0]
 80005ae:	9201      	str	r2, [sp, #4]
 80005b0:	2201      	movs	r2, #1
 80005b2:	40da      	lsrs	r2, r3
 80005b4:	9201      	str	r2, [sp, #4]
 80005b6:	e786      	b.n	80004c6 <__udivmoddi4+0x6e>
 80005b8:	4642      	mov	r2, r8
 80005ba:	2320      	movs	r3, #32
 80005bc:	1a9b      	subs	r3, r3, r2
 80005be:	002a      	movs	r2, r5
 80005c0:	4646      	mov	r6, r8
 80005c2:	409a      	lsls	r2, r3
 80005c4:	0023      	movs	r3, r4
 80005c6:	40f3      	lsrs	r3, r6
 80005c8:	4644      	mov	r4, r8
 80005ca:	4313      	orrs	r3, r2
 80005cc:	002a      	movs	r2, r5
 80005ce:	40e2      	lsrs	r2, r4
 80005d0:	001c      	movs	r4, r3
 80005d2:	465b      	mov	r3, fp
 80005d4:	0015      	movs	r5, r2
 80005d6:	2b00      	cmp	r3, #0
 80005d8:	dad4      	bge.n	8000584 <__udivmoddi4+0x12c>
 80005da:	4642      	mov	r2, r8
 80005dc:	002f      	movs	r7, r5
 80005de:	2320      	movs	r3, #32
 80005e0:	0026      	movs	r6, r4
 80005e2:	4097      	lsls	r7, r2
 80005e4:	1a9b      	subs	r3, r3, r2
 80005e6:	40de      	lsrs	r6, r3
 80005e8:	003b      	movs	r3, r7
 80005ea:	4333      	orrs	r3, r6
 80005ec:	e7cd      	b.n	800058a <__udivmoddi4+0x132>
 80005ee:	46c0      	nop			; (mov r8, r8)

080005f0 <__clzdi2>:
 80005f0:	b510      	push	{r4, lr}
 80005f2:	2900      	cmp	r1, #0
 80005f4:	d103      	bne.n	80005fe <__clzdi2+0xe>
 80005f6:	f000 f807 	bl	8000608 <__clzsi2>
 80005fa:	3020      	adds	r0, #32
 80005fc:	e002      	b.n	8000604 <__clzdi2+0x14>
 80005fe:	0008      	movs	r0, r1
 8000600:	f000 f802 	bl	8000608 <__clzsi2>
 8000604:	bd10      	pop	{r4, pc}
 8000606:	46c0      	nop			; (mov r8, r8)

08000608 <__clzsi2>:
 8000608:	211c      	movs	r1, #28
 800060a:	2301      	movs	r3, #1
 800060c:	041b      	lsls	r3, r3, #16
 800060e:	4298      	cmp	r0, r3
 8000610:	d301      	bcc.n	8000616 <__clzsi2+0xe>
 8000612:	0c00      	lsrs	r0, r0, #16
 8000614:	3910      	subs	r1, #16
 8000616:	0a1b      	lsrs	r3, r3, #8
 8000618:	4298      	cmp	r0, r3
 800061a:	d301      	bcc.n	8000620 <__clzsi2+0x18>
 800061c:	0a00      	lsrs	r0, r0, #8
 800061e:	3908      	subs	r1, #8
 8000620:	091b      	lsrs	r3, r3, #4
 8000622:	4298      	cmp	r0, r3
 8000624:	d301      	bcc.n	800062a <__clzsi2+0x22>
 8000626:	0900      	lsrs	r0, r0, #4
 8000628:	3904      	subs	r1, #4
 800062a:	a202      	add	r2, pc, #8	; (adr r2, 8000634 <__clzsi2+0x2c>)
 800062c:	5c10      	ldrb	r0, [r2, r0]
 800062e:	1840      	adds	r0, r0, r1
 8000630:	4770      	bx	lr
 8000632:	46c0      	nop			; (mov r8, r8)
 8000634:	02020304 	.word	0x02020304
 8000638:	01010101 	.word	0x01010101
	...

08000644 <ClearBuffers>:
 8000644:	b510      	push	{r4, lr}
 8000646:	2440      	movs	r4, #64	; 0x40
 8000648:	0022      	movs	r2, r4
 800064a:	2100      	movs	r1, #0
 800064c:	4804      	ldr	r0, [pc, #16]	; (8000660 <ClearBuffers+0x1c>)
 800064e:	f002 fbdd 	bl	8002e0c <memset>
 8000652:	0022      	movs	r2, r4
 8000654:	2100      	movs	r1, #0
 8000656:	4803      	ldr	r0, [pc, #12]	; (8000664 <ClearBuffers+0x20>)
 8000658:	f002 fbd8 	bl	8002e0c <memset>
 800065c:	bd10      	pop	{r4, pc}
 800065e:	46c0      	nop			; (mov r8, r8)
 8000660:	20000028 	.word	0x20000028
 8000664:	20000068 	.word	0x20000068

08000668 <SystemClock_Config>:
 8000668:	b500      	push	{lr}
 800066a:	b095      	sub	sp, #84	; 0x54
 800066c:	223c      	movs	r2, #60	; 0x3c
 800066e:	2100      	movs	r1, #0
 8000670:	a805      	add	r0, sp, #20
 8000672:	f002 fbcb 	bl	8002e0c <memset>
 8000676:	2100      	movs	r1, #0
 8000678:	2210      	movs	r2, #16
 800067a:	a801      	add	r0, sp, #4
 800067c:	f002 fbc6 	bl	8002e0c <memset>
 8000680:	2080      	movs	r0, #128	; 0x80
 8000682:	0080      	lsls	r0, r0, #2
 8000684:	f001 fa1c 	bl	8001ac0 <HAL_PWREx_ControlVoltageScaling>
 8000688:	2302      	movs	r3, #2
 800068a:	9305      	str	r3, [sp, #20]
 800068c:	33fe      	adds	r3, #254	; 0xfe
 800068e:	2240      	movs	r2, #64	; 0x40
 8000690:	9308      	str	r3, [sp, #32]
 8000692:	2300      	movs	r3, #0
 8000694:	a805      	add	r0, sp, #20
 8000696:	9309      	str	r3, [sp, #36]	; 0x24
 8000698:	920a      	str	r2, [sp, #40]	; 0x28
 800069a:	930d      	str	r3, [sp, #52]	; 0x34
 800069c:	f001 fa3c 	bl	8001b18 <HAL_RCC_OscConfig>
 80006a0:	1e01      	subs	r1, r0, #0
 80006a2:	d001      	beq.n	80006a8 <SystemClock_Config+0x40>
 80006a4:	b672      	cpsid	i
 80006a6:	e7fe      	b.n	80006a6 <SystemClock_Config+0x3e>
 80006a8:	2307      	movs	r3, #7
 80006aa:	9002      	str	r0, [sp, #8]
 80006ac:	9003      	str	r0, [sp, #12]
 80006ae:	9004      	str	r0, [sp, #16]
 80006b0:	a801      	add	r0, sp, #4
 80006b2:	9301      	str	r3, [sp, #4]
 80006b4:	f001 fccc 	bl	8002050 <HAL_RCC_ClockConfig>
 80006b8:	2800      	cmp	r0, #0
 80006ba:	d001      	beq.n	80006c0 <SystemClock_Config+0x58>
 80006bc:	b672      	cpsid	i
 80006be:	e7fe      	b.n	80006be <SystemClock_Config+0x56>
 80006c0:	b015      	add	sp, #84	; 0x54
 80006c2:	bd00      	pop	{pc}

080006c4 <MX_I2C1_Init>:
 80006c4:	b510      	push	{r4, lr}
 80006c6:	4b12      	ldr	r3, [pc, #72]	; (8000710 <MX_I2C1_Init+0x4c>)
 80006c8:	4c12      	ldr	r4, [pc, #72]	; (8000714 <MX_I2C1_Init+0x50>)
 80006ca:	2201      	movs	r2, #1
 80006cc:	6023      	str	r3, [r4, #0]
 80006ce:	4b12      	ldr	r3, [pc, #72]	; (8000718 <MX_I2C1_Init+0x54>)
 80006d0:	0020      	movs	r0, r4
 80006d2:	6063      	str	r3, [r4, #4]
 80006d4:	2300      	movs	r3, #0
 80006d6:	60e2      	str	r2, [r4, #12]
 80006d8:	60a3      	str	r3, [r4, #8]
 80006da:	6123      	str	r3, [r4, #16]
 80006dc:	6163      	str	r3, [r4, #20]
 80006de:	61a3      	str	r3, [r4, #24]
 80006e0:	61e3      	str	r3, [r4, #28]
 80006e2:	6223      	str	r3, [r4, #32]
 80006e4:	f000 ff72 	bl	80015cc <HAL_I2C_Init>
 80006e8:	1e01      	subs	r1, r0, #0
 80006ea:	d001      	beq.n	80006f0 <MX_I2C1_Init+0x2c>
 80006ec:	b672      	cpsid	i
 80006ee:	e7fe      	b.n	80006ee <MX_I2C1_Init+0x2a>
 80006f0:	0020      	movs	r0, r4
 80006f2:	f001 f99b 	bl	8001a2c <HAL_I2CEx_ConfigAnalogFilter>
 80006f6:	1e01      	subs	r1, r0, #0
 80006f8:	d001      	beq.n	80006fe <MX_I2C1_Init+0x3a>
 80006fa:	b672      	cpsid	i
 80006fc:	e7fe      	b.n	80006fc <MX_I2C1_Init+0x38>
 80006fe:	0020      	movs	r0, r4
 8000700:	f001 f9ba 	bl	8001a78 <HAL_I2CEx_ConfigDigitalFilter>
 8000704:	2800      	cmp	r0, #0
 8000706:	d001      	beq.n	800070c <MX_I2C1_Init+0x48>
 8000708:	b672      	cpsid	i
 800070a:	e7fe      	b.n	800070a <MX_I2C1_Init+0x46>
 800070c:	bd10      	pop	{r4, pc}
 800070e:	46c0      	nop			; (mov r8, r8)
 8000710:	40005400 	.word	0x40005400
 8000714:	200000b4 	.word	0x200000b4
 8000718:	00303d5b 	.word	0x00303d5b

0800071c <main>:
 800071c:	230e      	movs	r3, #14
 800071e:	b5f0      	push	{r4, r5, r6, r7, lr}
 8000720:	2500      	movs	r5, #0
 8000722:	b091      	sub	sp, #68	; 0x44
 8000724:	446b      	add	r3, sp
 8000726:	801d      	strh	r5, [r3, #0]
 8000728:	f000 fc76 	bl	8001018 <HAL_Init>
 800072c:	f7ff ff9c 	bl	8000668 <SystemClock_Config>
 8000730:	2214      	movs	r2, #20
 8000732:	0029      	movs	r1, r5
 8000734:	a80b      	add	r0, sp, #44	; 0x2c
 8000736:	f002 fb69 	bl	8002e0c <memset>
 800073a:	2004      	movs	r0, #4
 800073c:	2420      	movs	r4, #32
 800073e:	2701      	movs	r7, #1
 8000740:	4bc8      	ldr	r3, [pc, #800]	; (8000a64 <main+0x348>)
 8000742:	2602      	movs	r6, #2
 8000744:	6b59      	ldr	r1, [r3, #52]	; 0x34
 8000746:	4301      	orrs	r1, r0
 8000748:	6359      	str	r1, [r3, #52]	; 0x34
 800074a:	6b5a      	ldr	r2, [r3, #52]	; 0x34
 800074c:	0021      	movs	r1, r4
 800074e:	4002      	ands	r2, r0
 8000750:	20a0      	movs	r0, #160	; 0xa0
 8000752:	9204      	str	r2, [sp, #16]
 8000754:	9a04      	ldr	r2, [sp, #16]
 8000756:	6b5a      	ldr	r2, [r3, #52]	; 0x34
 8000758:	05c0      	lsls	r0, r0, #23
 800075a:	4322      	orrs	r2, r4
 800075c:	635a      	str	r2, [r3, #52]	; 0x34
 800075e:	6b5a      	ldr	r2, [r3, #52]	; 0x34
 8000760:	4022      	ands	r2, r4
 8000762:	9205      	str	r2, [sp, #20]
 8000764:	9a05      	ldr	r2, [sp, #20]
 8000766:	6b5a      	ldr	r2, [r3, #52]	; 0x34
 8000768:	433a      	orrs	r2, r7
 800076a:	635a      	str	r2, [r3, #52]	; 0x34
 800076c:	6b5a      	ldr	r2, [r3, #52]	; 0x34
 800076e:	403a      	ands	r2, r7
 8000770:	9206      	str	r2, [sp, #24]
 8000772:	9a06      	ldr	r2, [sp, #24]
 8000774:	6b5a      	ldr	r2, [r3, #52]	; 0x34
 8000776:	4332      	orrs	r2, r6
 8000778:	635a      	str	r2, [r3, #52]	; 0x34
 800077a:	6b5b      	ldr	r3, [r3, #52]	; 0x34
 800077c:	002a      	movs	r2, r5
 800077e:	4033      	ands	r3, r6
 8000780:	9307      	str	r3, [sp, #28]
 8000782:	9b07      	ldr	r3, [sp, #28]
 8000784:	f000 fdfa 	bl	800137c <HAL_GPIO_WritePin>
 8000788:	20a0      	movs	r0, #160	; 0xa0
 800078a:	a90b      	add	r1, sp, #44	; 0x2c
 800078c:	05c0      	lsls	r0, r0, #23
 800078e:	940b      	str	r4, [sp, #44]	; 0x2c
 8000790:	960e      	str	r6, [sp, #56]	; 0x38
 8000792:	970c      	str	r7, [sp, #48]	; 0x30
 8000794:	950d      	str	r5, [sp, #52]	; 0x34
 8000796:	f000 fcbb 	bl	8001110 <HAL_GPIO_Init>
 800079a:	4cb3      	ldr	r4, [pc, #716]	; (8000a68 <main+0x34c>)
 800079c:	4bb3      	ldr	r3, [pc, #716]	; (8000a6c <main+0x350>)
 800079e:	0020      	movs	r0, r4
 80007a0:	6023      	str	r3, [r4, #0]
 80007a2:	23e1      	movs	r3, #225	; 0xe1
 80007a4:	360a      	adds	r6, #10
 80007a6:	025b      	lsls	r3, r3, #9
 80007a8:	6063      	str	r3, [r4, #4]
 80007aa:	60a5      	str	r5, [r4, #8]
 80007ac:	60e5      	str	r5, [r4, #12]
 80007ae:	6125      	str	r5, [r4, #16]
 80007b0:	6166      	str	r6, [r4, #20]
 80007b2:	61a5      	str	r5, [r4, #24]
 80007b4:	61e5      	str	r5, [r4, #28]
 80007b6:	6225      	str	r5, [r4, #32]
 80007b8:	6265      	str	r5, [r4, #36]	; 0x24
 80007ba:	62a5      	str	r5, [r4, #40]	; 0x28
 80007bc:	f002 fa40 	bl	8002c40 <HAL_UART_Init>
 80007c0:	0001      	movs	r1, r0
 80007c2:	42a8      	cmp	r0, r5
 80007c4:	d001      	beq.n	80007ca <main+0xae>
 80007c6:	b672      	cpsid	i
 80007c8:	e7fe      	b.n	80007c8 <main+0xac>
 80007ca:	0020      	movs	r0, r4
 80007cc:	f002 fab0 	bl	8002d30 <HAL_UARTEx_SetTxFifoThreshold>
 80007d0:	1e01      	subs	r1, r0, #0
 80007d2:	d001      	beq.n	80007d8 <main+0xbc>
 80007d4:	b672      	cpsid	i
 80007d6:	e7fe      	b.n	80007d6 <main+0xba>
 80007d8:	0020      	movs	r0, r4
 80007da:	f002 facd 	bl	8002d78 <HAL_UARTEx_SetRxFifoThreshold>
 80007de:	2800      	cmp	r0, #0
 80007e0:	d001      	beq.n	80007e6 <main+0xca>
 80007e2:	b672      	cpsid	i
 80007e4:	e7fe      	b.n	80007e4 <main+0xc8>
 80007e6:	0020      	movs	r0, r4
 80007e8:	f002 fa84 	bl	8002cf4 <HAL_UARTEx_DisableFifoMode>
 80007ec:	1e05      	subs	r5, r0, #0
 80007ee:	d001      	beq.n	80007f4 <main+0xd8>
 80007f0:	b672      	cpsid	i
 80007f2:	e7fe      	b.n	80007f2 <main+0xd6>
 80007f4:	f7ff ff66 	bl	80006c4 <MX_I2C1_Init>
 80007f8:	2210      	movs	r2, #16
 80007fa:	0029      	movs	r1, r5
 80007fc:	a80b      	add	r0, sp, #44	; 0x2c
 80007fe:	f002 fb05 	bl	8002e0c <memset>
 8000802:	0032      	movs	r2, r6
 8000804:	0029      	movs	r1, r5
 8000806:	a808      	add	r0, sp, #32
 8000808:	f002 fb00 	bl	8002e0c <memset>
 800080c:	2380      	movs	r3, #128	; 0x80
 800080e:	4c98      	ldr	r4, [pc, #608]	; (8000a70 <main+0x354>)
 8000810:	05db      	lsls	r3, r3, #23
 8000812:	6023      	str	r3, [r4, #0]
 8000814:	2301      	movs	r3, #1
 8000816:	0020      	movs	r0, r4
 8000818:	425b      	negs	r3, r3
 800081a:	6065      	str	r5, [r4, #4]
 800081c:	60a5      	str	r5, [r4, #8]
 800081e:	60e3      	str	r3, [r4, #12]
 8000820:	6125      	str	r5, [r4, #16]
 8000822:	61a5      	str	r5, [r4, #24]
 8000824:	f001 fe80 	bl	8002528 <HAL_TIM_Base_Init>
 8000828:	2800      	cmp	r0, #0
 800082a:	d001      	beq.n	8000830 <main+0x114>
 800082c:	b672      	cpsid	i
 800082e:	e7fe      	b.n	800082e <main+0x112>
 8000830:	2780      	movs	r7, #128	; 0x80
 8000832:	0020      	movs	r0, r4
 8000834:	017f      	lsls	r7, r7, #5
 8000836:	a90b      	add	r1, sp, #44	; 0x2c
 8000838:	970b      	str	r7, [sp, #44]	; 0x2c
 800083a:	f001 feab 	bl	8002594 <HAL_TIM_ConfigClockSource>
 800083e:	2800      	cmp	r0, #0
 8000840:	d001      	beq.n	8000846 <main+0x12a>
 8000842:	b672      	cpsid	i
 8000844:	e7fe      	b.n	8000844 <main+0x128>
 8000846:	9008      	str	r0, [sp, #32]
 8000848:	900a      	str	r0, [sp, #40]	; 0x28
 800084a:	a908      	add	r1, sp, #32
 800084c:	0020      	movs	r0, r4
 800084e:	f001 ff45 	bl	80026dc <HAL_TIMEx_MasterConfigSynchronization>
 8000852:	1e05      	subs	r5, r0, #0
 8000854:	d001      	beq.n	800085a <main+0x13e>
 8000856:	b672      	cpsid	i
 8000858:	e7fe      	b.n	8000858 <main+0x13c>
 800085a:	0001      	movs	r1, r0
 800085c:	2210      	movs	r2, #16
 800085e:	a80b      	add	r0, sp, #44	; 0x2c
 8000860:	f002 fad4 	bl	8002e0c <memset>
 8000864:	0032      	movs	r2, r6
 8000866:	0029      	movs	r1, r5
 8000868:	a808      	add	r0, sp, #32
 800086a:	f002 facf 	bl	8002e0c <memset>
 800086e:	4e81      	ldr	r6, [pc, #516]	; (8000a74 <main+0x358>)
 8000870:	4b81      	ldr	r3, [pc, #516]	; (8000a78 <main+0x35c>)
 8000872:	0030      	movs	r0, r6
 8000874:	6033      	str	r3, [r6, #0]
 8000876:	4b81      	ldr	r3, [pc, #516]	; (8000a7c <main+0x360>)
 8000878:	6075      	str	r5, [r6, #4]
 800087a:	60b5      	str	r5, [r6, #8]
 800087c:	60f3      	str	r3, [r6, #12]
 800087e:	6135      	str	r5, [r6, #16]
 8000880:	61b5      	str	r5, [r6, #24]
 8000882:	f001 fe51 	bl	8002528 <HAL_TIM_Base_Init>
 8000886:	2800      	cmp	r0, #0
 8000888:	d001      	beq.n	800088e <main+0x172>
 800088a:	b672      	cpsid	i
 800088c:	e7fe      	b.n	800088c <main+0x170>
 800088e:	0030      	movs	r0, r6
 8000890:	a90b      	add	r1, sp, #44	; 0x2c
 8000892:	970b      	str	r7, [sp, #44]	; 0x2c
 8000894:	f001 fe7e 	bl	8002594 <HAL_TIM_ConfigClockSource>
 8000898:	2800      	cmp	r0, #0
 800089a:	d001      	beq.n	80008a0 <main+0x184>
 800089c:	b672      	cpsid	i
 800089e:	e7fe      	b.n	800089e <main+0x182>
 80008a0:	9008      	str	r0, [sp, #32]
 80008a2:	900a      	str	r0, [sp, #40]	; 0x28
 80008a4:	a908      	add	r1, sp, #32
 80008a6:	0030      	movs	r0, r6
 80008a8:	f001 ff18 	bl	80026dc <HAL_TIMEx_MasterConfigSynchronization>
 80008ac:	2800      	cmp	r0, #0
 80008ae:	d001      	beq.n	80008b4 <main+0x198>
 80008b0:	b672      	cpsid	i
 80008b2:	e7fe      	b.n	80008b2 <main+0x196>
 80008b4:	2302      	movs	r3, #2
 80008b6:	6822      	ldr	r2, [r4, #0]
 80008b8:	2400      	movs	r4, #0
 80008ba:	425b      	negs	r3, r3
 80008bc:	6113      	str	r3, [r2, #16]
 80008be:	6832      	ldr	r2, [r6, #0]
 80008c0:	2064      	movs	r0, #100	; 0x64
 80008c2:	6113      	str	r3, [r2, #16]
 80008c4:	f000 fbce 	bl	8001064 <HAL_Delay>
 80008c8:	4b6d      	ldr	r3, [pc, #436]	; (8000a80 <main+0x364>)
 80008ca:	701c      	strb	r4, [r3, #0]
 80008cc:	f7ff feba 	bl	8000644 <ClearBuffers>
 80008d0:	f000 fabe 	bl	8000e50 <LED12A1_Init>
 80008d4:	4d6b      	ldr	r5, [pc, #428]	; (8000a84 <main+0x368>)
 80008d6:	496c      	ldr	r1, [pc, #432]	; (8000a88 <main+0x36c>)
 80008d8:	0028      	movs	r0, r5
 80008da:	f000 fb0d 	bl	8000ef8 <LED12A1_ScanAvailDevice>
 80008de:	4e6b      	ldr	r6, [pc, #428]	; (8000a8c <main+0x370>)
 80008e0:	7030      	strb	r0, [r6, #0]
 80008e2:	7833      	ldrb	r3, [r6, #0]
 80008e4:	42a3      	cmp	r3, r4
 80008e6:	d80c      	bhi.n	8000902 <main+0x1e6>
 80008e8:	2400      	movs	r4, #0
 80008ea:	4b68      	ldr	r3, [pc, #416]	; (8000a8c <main+0x370>)
 80008ec:	781b      	ldrb	r3, [r3, #0]
 80008ee:	42a3      	cmp	r3, r4
 80008f0:	d813      	bhi.n	800091a <main+0x1fe>
 80008f2:	2400      	movs	r4, #0
 80008f4:	4b65      	ldr	r3, [pc, #404]	; (8000a8c <main+0x370>)
 80008f6:	781b      	ldrb	r3, [r3, #0]
 80008f8:	42a3      	cmp	r3, r4
 80008fa:	d816      	bhi.n	800092a <main+0x20e>
 80008fc:	2404      	movs	r4, #4
 80008fe:	2500      	movs	r5, #0
 8000900:	e046      	b.n	8000990 <main+0x274>
 8000902:	0021      	movs	r1, r4
 8000904:	0028      	movs	r0, r5
 8000906:	f000 fad5 	bl	8000eb4 <LED12A1_DeviceEnable>
 800090a:	0022      	movs	r2, r4
 800090c:	0028      	movs	r0, r5
 800090e:	4960      	ldr	r1, [pc, #384]	; (8000a90 <main+0x374>)
 8000910:	3401      	adds	r4, #1
 8000912:	f000 fb47 	bl	8000fa4 <LED12A1_ChannelDisable>
 8000916:	b2e4      	uxtb	r4, r4
 8000918:	e7e3      	b.n	80008e2 <main+0x1c6>
 800091a:	0022      	movs	r2, r4
 800091c:	495c      	ldr	r1, [pc, #368]	; (8000a90 <main+0x374>)
 800091e:	4859      	ldr	r0, [pc, #356]	; (8000a84 <main+0x368>)
 8000920:	3401      	adds	r4, #1
 8000922:	f000 fb3f 	bl	8000fa4 <LED12A1_ChannelDisable>
 8000926:	b2e4      	uxtb	r4, r4
 8000928:	e7df      	b.n	80008ea <main+0x1ce>
 800092a:	2700      	movs	r7, #0
 800092c:	2601      	movs	r6, #1
 800092e:	40be      	lsls	r6, r7
 8000930:	466a      	mov	r2, sp
 8000932:	4d54      	ldr	r5, [pc, #336]	; (8000a84 <main+0x368>)
 8000934:	4b56      	ldr	r3, [pc, #344]	; (8000a90 <main+0x374>)
 8000936:	b2b6      	uxth	r6, r6
 8000938:	81d3      	strh	r3, [r2, #14]
 800093a:	0031      	movs	r1, r6
 800093c:	0022      	movs	r2, r4
 800093e:	0028      	movs	r0, r5
 8000940:	f000 fb1e 	bl	8000f80 <LED12A1_ChannelEnable>
 8000944:	b2fa      	uxtb	r2, r7
 8000946:	0023      	movs	r3, r4
 8000948:	2114      	movs	r1, #20
 800094a:	0028      	movs	r0, r5
 800094c:	f000 faec 	bl	8000f28 <LED12A1_AnalogDimming>
 8000950:	210e      	movs	r1, #14
 8000952:	b2fa      	uxtb	r2, r7
 8000954:	2300      	movs	r3, #0
 8000956:	4469      	add	r1, sp
 8000958:	0028      	movs	r0, r5
 800095a:	9400      	str	r4, [sp, #0]
 800095c:	f000 faf7 	bl	8000f4e <LED12A1_DigitalDimming>
 8000960:	20c8      	movs	r0, #200	; 0xc8
 8000962:	f000 fb7f 	bl	8001064 <HAL_Delay>
 8000966:	3701      	adds	r7, #1
 8000968:	0022      	movs	r2, r4
 800096a:	0031      	movs	r1, r6
 800096c:	0028      	movs	r0, r5
 800096e:	f000 fb19 	bl	8000fa4 <LED12A1_ChannelDisable>
 8000972:	2f0c      	cmp	r7, #12
 8000974:	d1da      	bne.n	800092c <main+0x210>
 8000976:	20c8      	movs	r0, #200	; 0xc8
 8000978:	3401      	adds	r4, #1
 800097a:	f000 fb73 	bl	8001064 <HAL_Delay>
 800097e:	b2e4      	uxtb	r4, r4
 8000980:	e7b8      	b.n	80008f4 <main+0x1d8>
 8000982:	002a      	movs	r2, r5
 8000984:	4942      	ldr	r1, [pc, #264]	; (8000a90 <main+0x374>)
 8000986:	483f      	ldr	r0, [pc, #252]	; (8000a84 <main+0x368>)
 8000988:	f000 fb0c 	bl	8000fa4 <LED12A1_ChannelDisable>
 800098c:	3501      	adds	r5, #1
 800098e:	b2ed      	uxtb	r5, r5
 8000990:	4b3e      	ldr	r3, [pc, #248]	; (8000a8c <main+0x370>)
 8000992:	781b      	ldrb	r3, [r3, #0]
 8000994:	42ab      	cmp	r3, r5
 8000996:	d8f4      	bhi.n	8000982 <main+0x266>
 8000998:	2096      	movs	r0, #150	; 0x96
 800099a:	0040      	lsls	r0, r0, #1
 800099c:	f000 fb62 	bl	8001064 <HAL_Delay>
 80009a0:	2500      	movs	r5, #0
 80009a2:	4b3a      	ldr	r3, [pc, #232]	; (8000a8c <main+0x370>)
 80009a4:	781b      	ldrb	r3, [r3, #0]
 80009a6:	42ab      	cmp	r3, r5
 80009a8:	d809      	bhi.n	80009be <main+0x2a2>
 80009aa:	2096      	movs	r0, #150	; 0x96
 80009ac:	3c01      	subs	r4, #1
 80009ae:	0040      	lsls	r0, r0, #1
 80009b0:	b2e4      	uxtb	r4, r4
 80009b2:	f000 fb57 	bl	8001064 <HAL_Delay>
 80009b6:	2c00      	cmp	r4, #0
 80009b8:	d1a1      	bne.n	80008fe <main+0x1e2>
 80009ba:	0025      	movs	r5, r4
 80009bc:	e01b      	b.n	80009f6 <main+0x2da>
 80009be:	2600      	movs	r6, #0
 80009c0:	2101      	movs	r1, #1
 80009c2:	40b1      	lsls	r1, r6
 80009c4:	4f2f      	ldr	r7, [pc, #188]	; (8000a84 <main+0x368>)
 80009c6:	002a      	movs	r2, r5
 80009c8:	b289      	uxth	r1, r1
 80009ca:	0038      	movs	r0, r7
 80009cc:	f000 fad8 	bl	8000f80 <LED12A1_ChannelEnable>
 80009d0:	b2f2      	uxtb	r2, r6
 80009d2:	002b      	movs	r3, r5
 80009d4:	2114      	movs	r1, #20
 80009d6:	0038      	movs	r0, r7
 80009d8:	3601      	adds	r6, #1
 80009da:	f000 faa5 	bl	8000f28 <LED12A1_AnalogDimming>
 80009de:	2e0c      	cmp	r6, #12
 80009e0:	d1ee      	bne.n	80009c0 <main+0x2a4>
 80009e2:	3501      	adds	r5, #1
 80009e4:	b2ed      	uxtb	r5, r5
 80009e6:	e7dc      	b.n	80009a2 <main+0x286>
 80009e8:	002a      	movs	r2, r5
 80009ea:	4929      	ldr	r1, [pc, #164]	; (8000a90 <main+0x374>)
 80009ec:	4825      	ldr	r0, [pc, #148]	; (8000a84 <main+0x368>)
 80009ee:	f000 fad9 	bl	8000fa4 <LED12A1_ChannelDisable>
 80009f2:	3501      	adds	r5, #1
 80009f4:	b2ed      	uxtb	r5, r5
 80009f6:	4b25      	ldr	r3, [pc, #148]	; (8000a8c <main+0x370>)
 80009f8:	781b      	ldrb	r3, [r3, #0]
 80009fa:	42ab      	cmp	r3, r5
 80009fc:	d8f4      	bhi.n	80009e8 <main+0x2cc>
 80009fe:	4b23      	ldr	r3, [pc, #140]	; (8000a8c <main+0x370>)
 8000a00:	781b      	ldrb	r3, [r3, #0]
 8000a02:	42a3      	cmp	r3, r4
 8000a04:	d800      	bhi.n	8000a08 <main+0x2ec>
 8000a06:	e76f      	b.n	80008e8 <main+0x1cc>
 8000a08:	2600      	movs	r6, #0
 8000a0a:	2101      	movs	r1, #1
 8000a0c:	40b1      	lsls	r1, r6
 8000a0e:	4d1d      	ldr	r5, [pc, #116]	; (8000a84 <main+0x368>)
 8000a10:	0022      	movs	r2, r4
 8000a12:	0028      	movs	r0, r5
 8000a14:	b289      	uxth	r1, r1
 8000a16:	b2f7      	uxtb	r7, r6
 8000a18:	f000 fab2 	bl	8000f80 <LED12A1_ChannelEnable>
 8000a1c:	0028      	movs	r0, r5
 8000a1e:	0023      	movs	r3, r4
 8000a20:	003a      	movs	r2, r7
 8000a22:	2114      	movs	r1, #20
 8000a24:	f000 fa80 	bl	8000f28 <LED12A1_AnalogDimming>
 8000a28:	2500      	movs	r5, #0
 8000a2a:	210e      	movs	r1, #14
 8000a2c:	4469      	add	r1, sp
 8000a2e:	800d      	strh	r5, [r1, #0]
 8000a30:	2300      	movs	r3, #0
 8000a32:	003a      	movs	r2, r7
 8000a34:	4813      	ldr	r0, [pc, #76]	; (8000a84 <main+0x368>)
 8000a36:	9400      	str	r4, [sp, #0]
 8000a38:	f000 fa89 	bl	8000f4e <LED12A1_DigitalDimming>
 8000a3c:	2064      	movs	r0, #100	; 0x64
 8000a3e:	f000 fb11 	bl	8001064 <HAL_Delay>
 8000a42:	23fa      	movs	r3, #250	; 0xfa
 8000a44:	3591      	adds	r5, #145	; 0x91
 8000a46:	35ff      	adds	r5, #255	; 0xff
 8000a48:	b2ad      	uxth	r5, r5
 8000a4a:	011b      	lsls	r3, r3, #4
 8000a4c:	429d      	cmp	r5, r3
 8000a4e:	d1ec      	bne.n	8000a2a <main+0x30e>
 8000a50:	3601      	adds	r6, #1
 8000a52:	2e0c      	cmp	r6, #12
 8000a54:	d1d9      	bne.n	8000a0a <main+0x2ee>
 8000a56:	2096      	movs	r0, #150	; 0x96
 8000a58:	3401      	adds	r4, #1
 8000a5a:	0040      	lsls	r0, r0, #1
 8000a5c:	f000 fb02 	bl	8001064 <HAL_Delay>
 8000a60:	b2e4      	uxtb	r4, r4
 8000a62:	e7cc      	b.n	80009fe <main+0x2e2>
 8000a64:	40021000 	.word	0x40021000
 8000a68:	200001a0 	.word	0x200001a0
 8000a6c:	40004400 	.word	0x40004400
 8000a70:	20000108 	.word	0x20000108
 8000a74:	20000154 	.word	0x20000154
 8000a78:	40000400 	.word	0x40000400
 8000a7c:	0000ffff 	.word	0x0000ffff
 8000a80:	200000a8 	.word	0x200000a8
 8000a84:	20000238 	.word	0x20000238
 8000a88:	200000a9 	.word	0x200000a9
 8000a8c:	200000b3 	.word	0x200000b3
 8000a90:	00000fff 	.word	0x00000fff

08000a94 <Error_Handler>:
 8000a94:	b672      	cpsid	i
 8000a96:	e7fe      	b.n	8000a96 <Error_Handler+0x2>

08000a98 <HAL_MspInit>:
 8000a98:	2001      	movs	r0, #1
 8000a9a:	4b0a      	ldr	r3, [pc, #40]	; (8000ac4 <HAL_MspInit+0x2c>)
 8000a9c:	b082      	sub	sp, #8
 8000a9e:	6c19      	ldr	r1, [r3, #64]	; 0x40
 8000aa0:	4301      	orrs	r1, r0
 8000aa2:	6419      	str	r1, [r3, #64]	; 0x40
 8000aa4:	2180      	movs	r1, #128	; 0x80
 8000aa6:	6c1a      	ldr	r2, [r3, #64]	; 0x40
 8000aa8:	0549      	lsls	r1, r1, #21
 8000aaa:	4002      	ands	r2, r0
 8000aac:	9200      	str	r2, [sp, #0]
 8000aae:	9a00      	ldr	r2, [sp, #0]
 8000ab0:	6bda      	ldr	r2, [r3, #60]	; 0x3c
 8000ab2:	430a      	orrs	r2, r1
 8000ab4:	63da      	str	r2, [r3, #60]	; 0x3c
 8000ab6:	6bdb      	ldr	r3, [r3, #60]	; 0x3c
 8000ab8:	400b      	ands	r3, r1
 8000aba:	9301      	str	r3, [sp, #4]
 8000abc:	9b01      	ldr	r3, [sp, #4]
 8000abe:	b002      	add	sp, #8
 8000ac0:	4770      	bx	lr
 8000ac2:	46c0      	nop			; (mov r8, r8)
 8000ac4:	40021000 	.word	0x40021000

08000ac8 <HAL_I2C_MspInit>:
 8000ac8:	b510      	push	{r4, lr}
 8000aca:	0004      	movs	r4, r0
 8000acc:	b09a      	sub	sp, #104	; 0x68
 8000ace:	2214      	movs	r2, #20
 8000ad0:	2100      	movs	r1, #0
 8000ad2:	a802      	add	r0, sp, #8
 8000ad4:	f002 f99a 	bl	8002e0c <memset>
 8000ad8:	224c      	movs	r2, #76	; 0x4c
 8000ada:	2100      	movs	r1, #0
 8000adc:	a807      	add	r0, sp, #28
 8000ade:	f002 f995 	bl	8002e0c <memset>
 8000ae2:	4b17      	ldr	r3, [pc, #92]	; (8000b40 <HAL_I2C_MspInit+0x78>)
 8000ae4:	6822      	ldr	r2, [r4, #0]
 8000ae6:	429a      	cmp	r2, r3
 8000ae8:	d128      	bne.n	8000b3c <HAL_I2C_MspInit+0x74>
 8000aea:	2320      	movs	r3, #32
 8000aec:	a807      	add	r0, sp, #28
 8000aee:	9307      	str	r3, [sp, #28]
 8000af0:	f001 fb70 	bl	80021d4 <HAL_RCCEx_PeriphCLKConfig>
 8000af4:	2800      	cmp	r0, #0
 8000af6:	d001      	beq.n	8000afc <HAL_I2C_MspInit+0x34>
 8000af8:	f7ff ffcc 	bl	8000a94 <Error_Handler>
 8000afc:	2102      	movs	r1, #2
 8000afe:	4c11      	ldr	r4, [pc, #68]	; (8000b44 <HAL_I2C_MspInit+0x7c>)
 8000b00:	4811      	ldr	r0, [pc, #68]	; (8000b48 <HAL_I2C_MspInit+0x80>)
 8000b02:	6b62      	ldr	r2, [r4, #52]	; 0x34
 8000b04:	430a      	orrs	r2, r1
 8000b06:	6362      	str	r2, [r4, #52]	; 0x34
 8000b08:	6b63      	ldr	r3, [r4, #52]	; 0x34
 8000b0a:	400b      	ands	r3, r1
 8000b0c:	9300      	str	r3, [sp, #0]
 8000b0e:	9b00      	ldr	r3, [sp, #0]
 8000b10:	23c0      	movs	r3, #192	; 0xc0
 8000b12:	009b      	lsls	r3, r3, #2
 8000b14:	9302      	str	r3, [sp, #8]
 8000b16:	2312      	movs	r3, #18
 8000b18:	9303      	str	r3, [sp, #12]
 8000b1a:	2300      	movs	r3, #0
 8000b1c:	a902      	add	r1, sp, #8
 8000b1e:	9304      	str	r3, [sp, #16]
 8000b20:	9305      	str	r3, [sp, #20]
 8000b22:	3306      	adds	r3, #6
 8000b24:	9306      	str	r3, [sp, #24]
 8000b26:	f000 faf3 	bl	8001110 <HAL_GPIO_Init>
 8000b2a:	2180      	movs	r1, #128	; 0x80
 8000b2c:	6be2      	ldr	r2, [r4, #60]	; 0x3c
 8000b2e:	0389      	lsls	r1, r1, #14
 8000b30:	430a      	orrs	r2, r1
 8000b32:	63e2      	str	r2, [r4, #60]	; 0x3c
 8000b34:	6be3      	ldr	r3, [r4, #60]	; 0x3c
 8000b36:	400b      	ands	r3, r1
 8000b38:	9301      	str	r3, [sp, #4]
 8000b3a:	9b01      	ldr	r3, [sp, #4]
 8000b3c:	b01a      	add	sp, #104	; 0x68
 8000b3e:	bd10      	pop	{r4, pc}
 8000b40:	40005400 	.word	0x40005400
 8000b44:	40021000 	.word	0x40021000
 8000b48:	50000400 	.word	0x50000400

08000b4c <HAL_I2C_MspDeInit>:
 8000b4c:	4b0a      	ldr	r3, [pc, #40]	; (8000b78 <HAL_I2C_MspDeInit+0x2c>)
 8000b4e:	6802      	ldr	r2, [r0, #0]
 8000b50:	b510      	push	{r4, lr}
 8000b52:	429a      	cmp	r2, r3
 8000b54:	d10e      	bne.n	8000b74 <HAL_I2C_MspDeInit+0x28>
 8000b56:	4a09      	ldr	r2, [pc, #36]	; (8000b7c <HAL_I2C_MspDeInit+0x30>)
 8000b58:	4909      	ldr	r1, [pc, #36]	; (8000b80 <HAL_I2C_MspDeInit+0x34>)
 8000b5a:	6bd3      	ldr	r3, [r2, #60]	; 0x3c
 8000b5c:	4809      	ldr	r0, [pc, #36]	; (8000b84 <HAL_I2C_MspDeInit+0x38>)
 8000b5e:	400b      	ands	r3, r1
 8000b60:	2180      	movs	r1, #128	; 0x80
 8000b62:	63d3      	str	r3, [r2, #60]	; 0x3c
 8000b64:	0049      	lsls	r1, r1, #1
 8000b66:	f000 fb8b 	bl	8001280 <HAL_GPIO_DeInit>
 8000b6a:	2180      	movs	r1, #128	; 0x80
 8000b6c:	4805      	ldr	r0, [pc, #20]	; (8000b84 <HAL_I2C_MspDeInit+0x38>)
 8000b6e:	0089      	lsls	r1, r1, #2
 8000b70:	f000 fb86 	bl	8001280 <HAL_GPIO_DeInit>
 8000b74:	bd10      	pop	{r4, pc}
 8000b76:	46c0      	nop			; (mov r8, r8)
 8000b78:	40005400 	.word	0x40005400
 8000b7c:	40021000 	.word	0x40021000
 8000b80:	ffdfffff 	.word	0xffdfffff
 8000b84:	50000400 	.word	0x50000400

08000b88 <HAL_TIM_Base_MspInit>:
 8000b88:	2280      	movs	r2, #128	; 0x80
 8000b8a:	6803      	ldr	r3, [r0, #0]
 8000b8c:	b082      	sub	sp, #8
 8000b8e:	05d2      	lsls	r2, r2, #23
 8000b90:	4293      	cmp	r3, r2
 8000b92:	d10a      	bne.n	8000baa <HAL_TIM_Base_MspInit+0x22>
 8000b94:	2001      	movs	r0, #1
 8000b96:	4a0b      	ldr	r2, [pc, #44]	; (8000bc4 <HAL_TIM_Base_MspInit+0x3c>)
 8000b98:	6bd1      	ldr	r1, [r2, #60]	; 0x3c
 8000b9a:	4301      	orrs	r1, r0
 8000b9c:	63d1      	str	r1, [r2, #60]	; 0x3c
 8000b9e:	6bd3      	ldr	r3, [r2, #60]	; 0x3c
 8000ba0:	4003      	ands	r3, r0
 8000ba2:	9300      	str	r3, [sp, #0]
 8000ba4:	9b00      	ldr	r3, [sp, #0]
 8000ba6:	b002      	add	sp, #8
 8000ba8:	4770      	bx	lr
 8000baa:	4a07      	ldr	r2, [pc, #28]	; (8000bc8 <HAL_TIM_Base_MspInit+0x40>)
 8000bac:	4293      	cmp	r3, r2
 8000bae:	d1fa      	bne.n	8000ba6 <HAL_TIM_Base_MspInit+0x1e>
 8000bb0:	2002      	movs	r0, #2
 8000bb2:	4a04      	ldr	r2, [pc, #16]	; (8000bc4 <HAL_TIM_Base_MspInit+0x3c>)
 8000bb4:	6bd1      	ldr	r1, [r2, #60]	; 0x3c
 8000bb6:	4301      	orrs	r1, r0
 8000bb8:	63d1      	str	r1, [r2, #60]	; 0x3c
 8000bba:	6bd3      	ldr	r3, [r2, #60]	; 0x3c
 8000bbc:	4003      	ands	r3, r0
 8000bbe:	9301      	str	r3, [sp, #4]
 8000bc0:	9b01      	ldr	r3, [sp, #4]
 8000bc2:	e7f0      	b.n	8000ba6 <HAL_TIM_Base_MspInit+0x1e>
 8000bc4:	40021000 	.word	0x40021000
 8000bc8:	40000400 	.word	0x40000400

08000bcc <HAL_UART_MspInit>:
 8000bcc:	b510      	push	{r4, lr}
 8000bce:	0004      	movs	r4, r0
 8000bd0:	b09a      	sub	sp, #104	; 0x68
 8000bd2:	2214      	movs	r2, #20
 8000bd4:	2100      	movs	r1, #0
 8000bd6:	a802      	add	r0, sp, #8
 8000bd8:	f002 f918 	bl	8002e0c <memset>
 8000bdc:	224c      	movs	r2, #76	; 0x4c
 8000bde:	2100      	movs	r1, #0
 8000be0:	a807      	add	r0, sp, #28
 8000be2:	f002 f913 	bl	8002e0c <memset>
 8000be6:	4b17      	ldr	r3, [pc, #92]	; (8000c44 <HAL_UART_MspInit+0x78>)
 8000be8:	6822      	ldr	r2, [r4, #0]
 8000bea:	429a      	cmp	r2, r3
 8000bec:	d127      	bne.n	8000c3e <HAL_UART_MspInit+0x72>
 8000bee:	2302      	movs	r3, #2
 8000bf0:	a807      	add	r0, sp, #28
 8000bf2:	9307      	str	r3, [sp, #28]
 8000bf4:	f001 faee 	bl	80021d4 <HAL_RCCEx_PeriphCLKConfig>
 8000bf8:	2800      	cmp	r0, #0
 8000bfa:	d001      	beq.n	8000c00 <HAL_UART_MspInit+0x34>
 8000bfc:	f7ff ff4a 	bl	8000a94 <Error_Handler>
 8000c00:	2080      	movs	r0, #128	; 0x80
 8000c02:	4b11      	ldr	r3, [pc, #68]	; (8000c48 <HAL_UART_MspInit+0x7c>)
 8000c04:	0280      	lsls	r0, r0, #10
 8000c06:	6bd9      	ldr	r1, [r3, #60]	; 0x3c
 8000c08:	4301      	orrs	r1, r0
 8000c0a:	63d9      	str	r1, [r3, #60]	; 0x3c
 8000c0c:	6bda      	ldr	r2, [r3, #60]	; 0x3c
 8000c0e:	4002      	ands	r2, r0
 8000c10:	9200      	str	r2, [sp, #0]
 8000c12:	9a00      	ldr	r2, [sp, #0]
 8000c14:	2201      	movs	r2, #1
 8000c16:	6b59      	ldr	r1, [r3, #52]	; 0x34
 8000c18:	20a0      	movs	r0, #160	; 0xa0
 8000c1a:	4311      	orrs	r1, r2
 8000c1c:	6359      	str	r1, [r3, #52]	; 0x34
 8000c1e:	6b5b      	ldr	r3, [r3, #52]	; 0x34
 8000c20:	a902      	add	r1, sp, #8
 8000c22:	4013      	ands	r3, r2
 8000c24:	9301      	str	r3, [sp, #4]
 8000c26:	9b01      	ldr	r3, [sp, #4]
 8000c28:	230c      	movs	r3, #12
 8000c2a:	9302      	str	r3, [sp, #8]
 8000c2c:	3b0a      	subs	r3, #10
 8000c2e:	9303      	str	r3, [sp, #12]
 8000c30:	2300      	movs	r3, #0
 8000c32:	05c0      	lsls	r0, r0, #23
 8000c34:	9304      	str	r3, [sp, #16]
 8000c36:	9305      	str	r3, [sp, #20]
 8000c38:	9206      	str	r2, [sp, #24]
 8000c3a:	f000 fa69 	bl	8001110 <HAL_GPIO_Init>
 8000c3e:	b01a      	add	sp, #104	; 0x68
 8000c40:	bd10      	pop	{r4, pc}
 8000c42:	46c0      	nop			; (mov r8, r8)
 8000c44:	40004400 	.word	0x40004400
 8000c48:	40021000 	.word	0x40021000

08000c4c <NMI_Handler>:
 8000c4c:	e7fe      	b.n	8000c4c <NMI_Handler>

08000c4e <HardFault_Handler>:
 8000c4e:	e7fe      	b.n	8000c4e <HardFault_Handler>

08000c50 <SVC_Handler>:
 8000c50:	4770      	bx	lr

08000c52 <PendSV_Handler>:
 8000c52:	4770      	bx	lr

08000c54 <SysTick_Handler>:
 8000c54:	b510      	push	{r4, lr}
 8000c56:	f000 f9f3 	bl	8001040 <HAL_IncTick>
 8000c5a:	bd10      	pop	{r4, pc}

08000c5c <SystemInit>:
 8000c5c:	4770      	bx	lr
	...

08000c60 <Reset_Handler>:
 8000c60:	480d      	ldr	r0, [pc, #52]	; (8000c98 <LoopForever+0x2>)
 8000c62:	4685      	mov	sp, r0
 8000c64:	f7ff fffa 	bl	8000c5c <SystemInit>
 8000c68:	480c      	ldr	r0, [pc, #48]	; (8000c9c <LoopForever+0x6>)
 8000c6a:	490d      	ldr	r1, [pc, #52]	; (8000ca0 <LoopForever+0xa>)
 8000c6c:	4a0d      	ldr	r2, [pc, #52]	; (8000ca4 <LoopForever+0xe>)
 8000c6e:	2300      	movs	r3, #0
 8000c70:	e002      	b.n	8000c78 <LoopCopyDataInit>

08000c72 <CopyDataInit>:
 8000c72:	58d4      	ldr	r4, [r2, r3]
 8000c74:	50c4      	str	r4, [r0, r3]
 8000c76:	3304      	adds	r3, #4

08000c78 <LoopCopyDataInit>:
 8000c78:	18c4      	adds	r4, r0, r3
 8000c7a:	428c      	cmp	r4, r1
 8000c7c:	d3f9      	bcc.n	8000c72 <CopyDataInit>
 8000c7e:	4a0a      	ldr	r2, [pc, #40]	; (8000ca8 <LoopForever+0x12>)
 8000c80:	4c0a      	ldr	r4, [pc, #40]	; (8000cac <LoopForever+0x16>)
 8000c82:	2300      	movs	r3, #0
 8000c84:	e001      	b.n	8000c8a <LoopFillZerobss>

08000c86 <FillZerobss>:
 8000c86:	6013      	str	r3, [r2, #0]
 8000c88:	3204      	adds	r2, #4

08000c8a <LoopFillZerobss>:
 8000c8a:	42a2      	cmp	r2, r4
 8000c8c:	d3fb      	bcc.n	8000c86 <FillZerobss>
 8000c8e:	f002 f899 	bl	8002dc4 <__libc_init_array>
 8000c92:	f7ff fd43 	bl	800071c <main>

08000c96 <LoopForever>:
 8000c96:	e7fe      	b.n	8000c96 <LoopForever>
 8000c98:	20024000 	.word	0x20024000
 8000c9c:	20000000 	.word	0x20000000
 8000ca0:	2000000c 	.word	0x2000000c
 8000ca4:	08002edc 	.word	0x08002edc
 8000ca8:	2000000c 	.word	0x2000000c
 8000cac:	20000268 	.word	0x20000268

08000cb0 <ADC1_COMP_IRQHandler>:
 8000cb0:	e7fe      	b.n	8000cb0 <ADC1_COMP_IRQHandler>
	...

08000cb4 <LED1202_RegisterBusIO>:
 8000cb4:	b510      	push	{r4, lr}
 8000cb6:	2800      	cmp	r0, #0
 8000cb8:	d017      	beq.n	8000cea <LED1202_RegisterBusIO+0x36>
 8000cba:	680b      	ldr	r3, [r1, #0]
 8000cbc:	6003      	str	r3, [r0, #0]
 8000cbe:	790b      	ldrb	r3, [r1, #4]
 8000cc0:	7103      	strb	r3, [r0, #4]
 8000cc2:	68ca      	ldr	r2, [r1, #12]
 8000cc4:	688b      	ldr	r3, [r1, #8]
 8000cc6:	60c2      	str	r2, [r0, #12]
 8000cc8:	690a      	ldr	r2, [r1, #16]
 8000cca:	6083      	str	r3, [r0, #8]
 8000ccc:	6102      	str	r2, [r0, #16]
 8000cce:	694a      	ldr	r2, [r1, #20]
 8000cd0:	6142      	str	r2, [r0, #20]
 8000cd2:	698a      	ldr	r2, [r1, #24]
 8000cd4:	6240      	str	r0, [r0, #36]	; 0x24
 8000cd6:	6182      	str	r2, [r0, #24]
 8000cd8:	4a05      	ldr	r2, [pc, #20]	; (8000cf0 <LED1202_RegisterBusIO+0x3c>)
 8000cda:	6202      	str	r2, [r0, #32]
 8000cdc:	4a05      	ldr	r2, [pc, #20]	; (8000cf4 <LED1202_RegisterBusIO+0x40>)
 8000cde:	61c2      	str	r2, [r0, #28]
 8000ce0:	2b00      	cmp	r3, #0
 8000ce2:	d002      	beq.n	8000cea <LED1202_RegisterBusIO+0x36>
 8000ce4:	4798      	blx	r3
 8000ce6:	2800      	cmp	r0, #0
 8000ce8:	d000      	beq.n	8000cec <LED1202_RegisterBusIO+0x38>
 8000cea:	2003      	movs	r0, #3
 8000cec:	bd10      	pop	{r4, pc}
 8000cee:	46c0      	nop			; (mov r8, r8)
 8000cf0:	08000e9d 	.word	0x08000e9d
 8000cf4:	08000ea9 	.word	0x08000ea9

08000cf8 <LED1202_ReadID>:
 8000cf8:	0052      	lsls	r2, r2, #1
 8000cfa:	b510      	push	{r4, lr}
 8000cfc:	2301      	movs	r3, #1
 8000cfe:	7102      	strb	r2, [r0, #4]
 8000d00:	000c      	movs	r4, r1
 8000d02:	000a      	movs	r2, r1
 8000d04:	301c      	adds	r0, #28
 8000d06:	2100      	movs	r1, #0
 8000d08:	f000 f85e 	bl	8000dc8 <LED1202_ReadReg>
 8000d0c:	4b03      	ldr	r3, [pc, #12]	; (8000d1c <LED1202_ReadID+0x24>)
 8000d0e:	6018      	str	r0, [r3, #0]
 8000d10:	7823      	ldrb	r3, [r4, #0]
 8000d12:	2000      	movs	r0, #0
 8000d14:	2b12      	cmp	r3, #18
 8000d16:	d000      	beq.n	8000d1a <LED1202_ReadID+0x22>
 8000d18:	3003      	adds	r0, #3
 8000d1a:	bd10      	pop	{r4, pc}
 8000d1c:	20000234 	.word	0x20000234

08000d20 <LED1202_SetChannelState>:
 8000d20:	005b      	lsls	r3, r3, #1
 8000d22:	b573      	push	{r0, r1, r4, r5, r6, lr}
 8000d24:	7103      	strb	r3, [r0, #4]
 8000d26:	2302      	movs	r3, #2
 8000d28:	301c      	adds	r0, #28
 8000d2a:	000e      	movs	r6, r1
 8000d2c:	0015      	movs	r5, r2
 8000d2e:	0019      	movs	r1, r3
 8000d30:	466a      	mov	r2, sp
 8000d32:	0004      	movs	r4, r0
 8000d34:	f000 f848 	bl	8000dc8 <LED1202_ReadReg>
 8000d38:	466b      	mov	r3, sp
 8000d3a:	9001      	str	r0, [sp, #4]
 8000d3c:	8819      	ldrh	r1, [r3, #0]
 8000d3e:	2d00      	cmp	r5, #0
 8000d40:	d10b      	bne.n	8000d5a <LED1202_SetChannelState+0x3a>
 8000d42:	4331      	orrs	r1, r6
 8000d44:	8059      	strh	r1, [r3, #2]
 8000d46:	466a      	mov	r2, sp
 8000d48:	2302      	movs	r3, #2
 8000d4a:	0020      	movs	r0, r4
 8000d4c:	0019      	movs	r1, r3
 8000d4e:	18d2      	adds	r2, r2, r3
 8000d50:	f000 f840 	bl	8000dd4 <LED1202_WriteReg>
 8000d54:	9001      	str	r0, [sp, #4]
 8000d56:	9801      	ldr	r0, [sp, #4]
 8000d58:	bd76      	pop	{r1, r2, r4, r5, r6, pc}
 8000d5a:	466b      	mov	r3, sp
 8000d5c:	43b1      	bics	r1, r6
 8000d5e:	e7f1      	b.n	8000d44 <LED1202_SetChannelState+0x24>

08000d60 <LED1202_WriteLEDCurrentReg>:
 8000d60:	005b      	lsls	r3, r3, #1
 8000d62:	b537      	push	{r0, r1, r2, r4, r5, lr}
 8000d64:	0005      	movs	r5, r0
 8000d66:	7103      	strb	r3, [r0, #4]
 8000d68:	0014      	movs	r4, r2
 8000d6a:	20ff      	movs	r0, #255	; 0xff
 8000d6c:	2913      	cmp	r1, #19
 8000d6e:	d804      	bhi.n	8000d7a <LED1202_WriteLEDCurrentReg+0x1a>
 8000d70:	4348      	muls	r0, r1
 8000d72:	2114      	movs	r1, #20
 8000d74:	f7ff fa64 	bl	8000240 <__divsi3>
 8000d78:	b2c0      	uxtb	r0, r0
 8000d7a:	466b      	mov	r3, sp
 8000d7c:	71d8      	strb	r0, [r3, #7]
 8000d7e:	0028      	movs	r0, r5
 8000d80:	3409      	adds	r4, #9
 8000d82:	1dda      	adds	r2, r3, #7
 8000d84:	b2a1      	uxth	r1, r4
 8000d86:	2301      	movs	r3, #1
 8000d88:	301c      	adds	r0, #28
 8000d8a:	f000 f823 	bl	8000dd4 <LED1202_WriteReg>
 8000d8e:	bd3e      	pop	{r1, r2, r3, r4, r5, pc}

08000d90 <LED1202_WritePatternPWMConfig>:
 8000d90:	b570      	push	{r4, r5, r6, lr}
 8000d92:	000d      	movs	r5, r1
 8000d94:	0019      	movs	r1, r3
 8000d96:	ab04      	add	r3, sp, #16
 8000d98:	781b      	ldrb	r3, [r3, #0]
 8000d9a:	0004      	movs	r4, r0
 8000d9c:	005b      	lsls	r3, r3, #1
 8000d9e:	7103      	strb	r3, [r0, #4]
 8000da0:	2380      	movs	r3, #128	; 0x80
 8000da2:	882e      	ldrh	r6, [r5, #0]
 8000da4:	2000      	movs	r0, #0
 8000da6:	015b      	lsls	r3, r3, #5
 8000da8:	429e      	cmp	r6, r3
 8000daa:	d20c      	bcs.n	8000dc6 <LED1202_WritePatternPWMConfig+0x36>
 8000dac:	230c      	movs	r3, #12
 8000dae:	0020      	movs	r0, r4
 8000db0:	434b      	muls	r3, r1
 8000db2:	189b      	adds	r3, r3, r2
 8000db4:	005b      	lsls	r3, r3, #1
 8000db6:	331e      	adds	r3, #30
 8000db8:	b2db      	uxtb	r3, r3
 8000dba:	b299      	uxth	r1, r3
 8000dbc:	002a      	movs	r2, r5
 8000dbe:	2302      	movs	r3, #2
 8000dc0:	301c      	adds	r0, #28
 8000dc2:	f000 f807 	bl	8000dd4 <LED1202_WriteReg>
 8000dc6:	bd70      	pop	{r4, r5, r6, pc}

08000dc8 <LED1202_ReadReg>:
 8000dc8:	b510      	push	{r4, lr}
 8000dca:	b2c9      	uxtb	r1, r1
 8000dcc:	6844      	ldr	r4, [r0, #4]
 8000dce:	6880      	ldr	r0, [r0, #8]
 8000dd0:	47a0      	blx	r4
 8000dd2:	bd10      	pop	{r4, pc}

08000dd4 <LED1202_WriteReg>:
 8000dd4:	b510      	push	{r4, lr}
 8000dd6:	b2c9      	uxtb	r1, r1
 8000dd8:	6804      	ldr	r4, [r0, #0]
 8000dda:	6880      	ldr	r0, [r0, #8]
 8000ddc:	47a0      	blx	r4
 8000dde:	bd10      	pop	{r4, pc}

08000de0 <BSP_I2C_Init>:
 8000de0:	b510      	push	{r4, lr}
 8000de2:	f7ff fc6f 	bl	80006c4 <MX_I2C1_Init>
 8000de6:	2000      	movs	r0, #0
 8000de8:	bd10      	pop	{r4, pc}
	...

08000dec <BSP_I2C_DeInit>:
 8000dec:	b510      	push	{r4, lr}
 8000dee:	4802      	ldr	r0, [pc, #8]	; (8000df8 <BSP_I2C_DeInit+0xc>)
 8000df0:	f000 fc42 	bl	8001678 <HAL_I2C_DeInit>
 8000df4:	bd10      	pop	{r4, pc}
 8000df6:	46c0      	nop			; (mov r8, r8)
 8000df8:	200000b4 	.word	0x200000b4

08000dfc <BSP_I2C_Write>:
 8000dfc:	b51f      	push	{r0, r1, r2, r3, r4, lr}
 8000dfe:	000c      	movs	r4, r1
 8000e00:	b2c1      	uxtb	r1, r0
 8000e02:	20fa      	movs	r0, #250	; 0xfa
 8000e04:	0080      	lsls	r0, r0, #2
 8000e06:	9002      	str	r0, [sp, #8]
 8000e08:	9301      	str	r3, [sp, #4]
 8000e0a:	9200      	str	r2, [sp, #0]
 8000e0c:	2301      	movs	r3, #1
 8000e0e:	0022      	movs	r2, r4
 8000e10:	4804      	ldr	r0, [pc, #16]	; (8000e24 <BSP_I2C_Write+0x28>)
 8000e12:	f000 fc4b 	bl	80016ac <HAL_I2C_Mem_Write>
 8000e16:	2800      	cmp	r0, #0
 8000e18:	d001      	beq.n	8000e1e <BSP_I2C_Write+0x22>
 8000e1a:	2008      	movs	r0, #8
 8000e1c:	4240      	negs	r0, r0
 8000e1e:	b004      	add	sp, #16
 8000e20:	bd10      	pop	{r4, pc}
 8000e22:	46c0      	nop			; (mov r8, r8)
 8000e24:	200000b4 	.word	0x200000b4

08000e28 <BSP_I2C_Read>:
 8000e28:	b51f      	push	{r0, r1, r2, r3, r4, lr}
 8000e2a:	24fa      	movs	r4, #250	; 0xfa
 8000e2c:	00a4      	lsls	r4, r4, #2
 8000e2e:	9301      	str	r3, [sp, #4]
 8000e30:	9200      	str	r2, [sp, #0]
 8000e32:	2301      	movs	r3, #1
 8000e34:	000a      	movs	r2, r1
 8000e36:	9402      	str	r4, [sp, #8]
 8000e38:	0001      	movs	r1, r0
 8000e3a:	4804      	ldr	r0, [pc, #16]	; (8000e4c <BSP_I2C_Read+0x24>)
 8000e3c:	f000 fd14 	bl	8001868 <HAL_I2C_Mem_Read>
 8000e40:	2800      	cmp	r0, #0
 8000e42:	d001      	beq.n	8000e48 <BSP_I2C_Read+0x20>
 8000e44:	2008      	movs	r0, #8
 8000e46:	4240      	negs	r0, r0
 8000e48:	b004      	add	sp, #16
 8000e4a:	bd10      	pop	{r4, pc}
 8000e4c:	200000b4 	.word	0x200000b4

08000e50 <LED12A1_Init>:
 8000e50:	2300      	movs	r3, #0
 8000e52:	b500      	push	{lr}
 8000e54:	b089      	sub	sp, #36	; 0x24
 8000e56:	a901      	add	r1, sp, #4
 8000e58:	9300      	str	r3, [sp, #0]
 8000e5a:	9301      	str	r3, [sp, #4]
 8000e5c:	335c      	adds	r3, #92	; 0x5c
 8000e5e:	710b      	strb	r3, [r1, #4]
 8000e60:	4b08      	ldr	r3, [pc, #32]	; (8000e84 <LED12A1_Init+0x34>)
 8000e62:	4809      	ldr	r0, [pc, #36]	; (8000e88 <LED12A1_Init+0x38>)
 8000e64:	608b      	str	r3, [r1, #8]
 8000e66:	4b09      	ldr	r3, [pc, #36]	; (8000e8c <LED12A1_Init+0x3c>)
 8000e68:	60cb      	str	r3, [r1, #12]
 8000e6a:	4b09      	ldr	r3, [pc, #36]	; (8000e90 <LED12A1_Init+0x40>)
 8000e6c:	610b      	str	r3, [r1, #16]
 8000e6e:	4b09      	ldr	r3, [pc, #36]	; (8000e94 <LED12A1_Init+0x44>)
 8000e70:	614b      	str	r3, [r1, #20]
 8000e72:	4b09      	ldr	r3, [pc, #36]	; (8000e98 <LED12A1_Init+0x48>)
 8000e74:	618b      	str	r3, [r1, #24]
 8000e76:	f7ff ff1d 	bl	8000cb4 <LED1202_RegisterBusIO>
 8000e7a:	9000      	str	r0, [sp, #0]
 8000e7c:	9800      	ldr	r0, [sp, #0]
 8000e7e:	b009      	add	sp, #36	; 0x24
 8000e80:	bd00      	pop	{pc}
 8000e82:	46c0      	nop			; (mov r8, r8)
 8000e84:	08000de1 	.word	0x08000de1
 8000e88:	20000238 	.word	0x20000238
 8000e8c:	08000ded 	.word	0x08000ded
 8000e90:	08000dfd 	.word	0x08000dfd
 8000e94:	08000e29 	.word	0x08000e29
 8000e98:	08001065 	.word	0x08001065

08000e9c <ReadRegWrap>:
 8000e9c:	b510      	push	{r4, lr}
 8000e9e:	0004      	movs	r4, r0
 8000ea0:	6964      	ldr	r4, [r4, #20]
 8000ea2:	7900      	ldrb	r0, [r0, #4]
 8000ea4:	47a0      	blx	r4
 8000ea6:	bd10      	pop	{r4, pc}

08000ea8 <WriteRegWrap>:
 8000ea8:	b510      	push	{r4, lr}
 8000eaa:	0004      	movs	r4, r0
 8000eac:	6924      	ldr	r4, [r4, #16]
 8000eae:	7900      	ldrb	r0, [r0, #4]
 8000eb0:	47a0      	blx	r4
 8000eb2:	bd10      	pop	{r4, pc}

08000eb4 <LED12A1_DeviceEnable>:
 8000eb4:	2300      	movs	r3, #0
 8000eb6:	b507      	push	{r0, r1, r2, lr}
 8000eb8:	9301      	str	r3, [sp, #4]
 8000eba:	466b      	mov	r3, sp
 8000ebc:	1cda      	adds	r2, r3, #3
 8000ebe:	2301      	movs	r3, #1
 8000ec0:	7013      	strb	r3, [r2, #0]
 8000ec2:	335b      	adds	r3, #91	; 0x5b
 8000ec4:	2904      	cmp	r1, #4
 8000ec6:	d801      	bhi.n	8000ecc <LED12A1_DeviceEnable+0x18>
 8000ec8:	3158      	adds	r1, #88	; 0x58
 8000eca:	b2cb      	uxtb	r3, r1
 8000ecc:	005b      	lsls	r3, r3, #1
 8000ece:	7103      	strb	r3, [r0, #4]
 8000ed0:	2301      	movs	r3, #1
 8000ed2:	0019      	movs	r1, r3
 8000ed4:	301c      	adds	r0, #28
 8000ed6:	f7ff ff7d 	bl	8000dd4 <LED1202_WriteReg>
 8000eda:	9001      	str	r0, [sp, #4]
 8000edc:	9801      	ldr	r0, [sp, #4]
 8000ede:	bd0e      	pop	{r1, r2, r3, pc}

08000ee0 <LED12A1_SetDeviceAddr>:
 8000ee0:	2300      	movs	r3, #0
 8000ee2:	b082      	sub	sp, #8
 8000ee4:	9301      	str	r3, [sp, #4]
 8000ee6:	335c      	adds	r3, #92	; 0x5c
 8000ee8:	2904      	cmp	r1, #4
 8000eea:	d801      	bhi.n	8000ef0 <LED12A1_SetDeviceAddr+0x10>
 8000eec:	3158      	adds	r1, #88	; 0x58
 8000eee:	b2cb      	uxtb	r3, r1
 8000ef0:	7103      	strb	r3, [r0, #4]
 8000ef2:	9801      	ldr	r0, [sp, #4]
 8000ef4:	b002      	add	sp, #8
 8000ef6:	4770      	bx	lr

08000ef8 <LED12A1_ScanAvailDevice>:
 8000ef8:	b5f7      	push	{r0, r1, r2, r4, r5, r6, r7, lr}
 8000efa:	0007      	movs	r7, r0
 8000efc:	000d      	movs	r5, r1
 8000efe:	2600      	movs	r6, #0
 8000f00:	2458      	movs	r4, #88	; 0x58
 8000f02:	466b      	mov	r3, sp
 8000f04:	1dd9      	adds	r1, r3, #7
 8000f06:	2300      	movs	r3, #0
 8000f08:	0022      	movs	r2, r4
 8000f0a:	0038      	movs	r0, r7
 8000f0c:	700b      	strb	r3, [r1, #0]
 8000f0e:	f7ff fef3 	bl	8000cf8 <LED1202_ReadID>
 8000f12:	2800      	cmp	r0, #0
 8000f14:	d102      	bne.n	8000f1c <LED12A1_ScanAvailDevice+0x24>
 8000f16:	702c      	strb	r4, [r5, #0]
 8000f18:	3601      	adds	r6, #1
 8000f1a:	3501      	adds	r5, #1
 8000f1c:	3401      	adds	r4, #1
 8000f1e:	b2e4      	uxtb	r4, r4
 8000f20:	2c61      	cmp	r4, #97	; 0x61
 8000f22:	d1ee      	bne.n	8000f02 <LED12A1_ScanAvailDevice+0xa>
 8000f24:	0030      	movs	r0, r6
 8000f26:	bdfe      	pop	{r1, r2, r3, r4, r5, r6, r7, pc}

08000f28 <LED12A1_AnalogDimming>:
 8000f28:	b573      	push	{r0, r1, r4, r5, r6, lr}
 8000f2a:	000e      	movs	r6, r1
 8000f2c:	0019      	movs	r1, r3
 8000f2e:	2300      	movs	r3, #0
 8000f30:	0004      	movs	r4, r0
 8000f32:	0015      	movs	r5, r2
 8000f34:	9301      	str	r3, [sp, #4]
 8000f36:	f7ff ffd3 	bl	8000ee0 <LED12A1_SetDeviceAddr>
 8000f3a:	0031      	movs	r1, r6
 8000f3c:	9001      	str	r0, [sp, #4]
 8000f3e:	b2aa      	uxth	r2, r5
 8000f40:	0020      	movs	r0, r4
 8000f42:	7923      	ldrb	r3, [r4, #4]
 8000f44:	f7ff ff0c 	bl	8000d60 <LED1202_WriteLEDCurrentReg>
 8000f48:	9001      	str	r0, [sp, #4]
 8000f4a:	9801      	ldr	r0, [sp, #4]
 8000f4c:	bd76      	pop	{r1, r2, r4, r5, r6, pc}

08000f4e <LED12A1_DigitalDimming>:
 8000f4e:	b5f0      	push	{r4, r5, r6, r7, lr}
 8000f50:	b085      	sub	sp, #20
 8000f52:	001f      	movs	r7, r3
 8000f54:	ab0a      	add	r3, sp, #40	; 0x28
 8000f56:	000d      	movs	r5, r1
 8000f58:	7819      	ldrb	r1, [r3, #0]
 8000f5a:	2300      	movs	r3, #0
 8000f5c:	0004      	movs	r4, r0
 8000f5e:	0016      	movs	r6, r2
 8000f60:	9303      	str	r3, [sp, #12]
 8000f62:	f7ff ffbd 	bl	8000ee0 <LED12A1_SetDeviceAddr>
 8000f66:	7923      	ldrb	r3, [r4, #4]
 8000f68:	9003      	str	r0, [sp, #12]
 8000f6a:	9300      	str	r3, [sp, #0]
 8000f6c:	0032      	movs	r2, r6
 8000f6e:	003b      	movs	r3, r7
 8000f70:	0029      	movs	r1, r5
 8000f72:	0020      	movs	r0, r4
 8000f74:	f7ff ff0c 	bl	8000d90 <LED1202_WritePatternPWMConfig>
 8000f78:	9003      	str	r0, [sp, #12]
 8000f7a:	9803      	ldr	r0, [sp, #12]
 8000f7c:	b005      	add	sp, #20
 8000f7e:	bdf0      	pop	{r4, r5, r6, r7, pc}

08000f80 <LED12A1_ChannelEnable>:
 8000f80:	b573      	push	{r0, r1, r4, r5, r6, lr}
 8000f82:	2600      	movs	r6, #0
 8000f84:	000d      	movs	r5, r1
 8000f86:	0011      	movs	r1, r2
 8000f88:	0004      	movs	r4, r0
 8000f8a:	9601      	str	r6, [sp, #4]
 8000f8c:	f7ff ffa8 	bl	8000ee0 <LED12A1_SetDeviceAddr>
 8000f90:	0032      	movs	r2, r6
 8000f92:	0029      	movs	r1, r5
 8000f94:	9001      	str	r0, [sp, #4]
 8000f96:	7923      	ldrb	r3, [r4, #4]
 8000f98:	0020      	movs	r0, r4
 8000f9a:	f7ff fec1 	bl	8000d20 <LED1202_SetChannelState>
 8000f9e:	9001      	str	r0, [sp, #4]
 8000fa0:	9801      	ldr	r0, [sp, #4]
 8000fa2:	bd76      	pop	{r1, r2, r4, r5, r6, pc}

08000fa4 <LED12A1_ChannelDisable>:
 8000fa4:	2300      	movs	r3, #0
 8000fa6:	b537      	push	{r0, r1, r2, r4, r5, lr}
 8000fa8:	000d      	movs	r5, r1
 8000faa:	0011      	movs	r1, r2
 8000fac:	0004      	movs	r4, r0
 8000fae:	9301      	str	r3, [sp, #4]
 8000fb0:	f7ff ff96 	bl	8000ee0 <LED12A1_SetDeviceAddr>
 8000fb4:	0029      	movs	r1, r5
 8000fb6:	9001      	str	r0, [sp, #4]
 8000fb8:	2201      	movs	r2, #1
 8000fba:	0020      	movs	r0, r4
 8000fbc:	7923      	ldrb	r3, [r4, #4]
 8000fbe:	f7ff feaf 	bl	8000d20 <LED1202_SetChannelState>
 8000fc2:	9001      	str	r0, [sp, #4]
 8000fc4:	9801      	ldr	r0, [sp, #4]
 8000fc6:	bd3e      	pop	{r1, r2, r3, r4, r5, pc}

08000fc8 <HAL_InitTick>:
 8000fc8:	b570      	push	{r4, r5, r6, lr}
 8000fca:	4b10      	ldr	r3, [pc, #64]	; (800100c <HAL_InitTick+0x44>)
 8000fcc:	0005      	movs	r5, r0
 8000fce:	7819      	ldrb	r1, [r3, #0]
 8000fd0:	2900      	cmp	r1, #0
 8000fd2:	d101      	bne.n	8000fd8 <HAL_InitTick+0x10>
 8000fd4:	2001      	movs	r0, #1
 8000fd6:	bd70      	pop	{r4, r5, r6, pc}
 8000fd8:	20fa      	movs	r0, #250	; 0xfa
 8000fda:	0080      	lsls	r0, r0, #2
 8000fdc:	f7ff f8a6 	bl	800012c <__udivsi3>
 8000fe0:	4b0b      	ldr	r3, [pc, #44]	; (8001010 <HAL_InitTick+0x48>)
 8000fe2:	0001      	movs	r1, r0
 8000fe4:	6818      	ldr	r0, [r3, #0]
 8000fe6:	f7ff f8a1 	bl	800012c <__udivsi3>
 8000fea:	f000 f877 	bl	80010dc <HAL_SYSTICK_Config>
 8000fee:	1e04      	subs	r4, r0, #0
 8000ff0:	d1f0      	bne.n	8000fd4 <HAL_InitTick+0xc>
 8000ff2:	2d03      	cmp	r5, #3
 8000ff4:	d8ee      	bhi.n	8000fd4 <HAL_InitTick+0xc>
 8000ff6:	0002      	movs	r2, r0
 8000ff8:	2001      	movs	r0, #1
 8000ffa:	0029      	movs	r1, r5
 8000ffc:	4240      	negs	r0, r0
 8000ffe:	f000 f843 	bl	8001088 <HAL_NVIC_SetPriority>
 8001002:	4b04      	ldr	r3, [pc, #16]	; (8001014 <HAL_InitTick+0x4c>)
 8001004:	0020      	movs	r0, r4
 8001006:	601d      	str	r5, [r3, #0]
 8001008:	e7e5      	b.n	8000fd6 <HAL_InitTick+0xe>
 800100a:	46c0      	nop			; (mov r8, r8)
 800100c:	20000004 	.word	0x20000004
 8001010:	20000000 	.word	0x20000000
 8001014:	20000008 	.word	0x20000008

08001018 <HAL_Init>:
 8001018:	2380      	movs	r3, #128	; 0x80
 800101a:	4a08      	ldr	r2, [pc, #32]	; (800103c <HAL_Init+0x24>)
 800101c:	005b      	lsls	r3, r3, #1
 800101e:	6811      	ldr	r1, [r2, #0]
 8001020:	b510      	push	{r4, lr}
 8001022:	430b      	orrs	r3, r1
 8001024:	2000      	movs	r0, #0
 8001026:	6013      	str	r3, [r2, #0]
 8001028:	f7ff ffce 	bl	8000fc8 <HAL_InitTick>
 800102c:	1e04      	subs	r4, r0, #0
 800102e:	d103      	bne.n	8001038 <HAL_Init+0x20>
 8001030:	f7ff fd32 	bl	8000a98 <HAL_MspInit>
 8001034:	0020      	movs	r0, r4
 8001036:	bd10      	pop	{r4, pc}
 8001038:	2401      	movs	r4, #1
 800103a:	e7fb      	b.n	8001034 <HAL_Init+0x1c>
 800103c:	40022000 	.word	0x40022000

08001040 <HAL_IncTick>:
 8001040:	4a03      	ldr	r2, [pc, #12]	; (8001050 <HAL_IncTick+0x10>)
 8001042:	4b04      	ldr	r3, [pc, #16]	; (8001054 <HAL_IncTick+0x14>)
 8001044:	6811      	ldr	r1, [r2, #0]
 8001046:	781b      	ldrb	r3, [r3, #0]
 8001048:	185b      	adds	r3, r3, r1
 800104a:	6013      	str	r3, [r2, #0]
 800104c:	4770      	bx	lr
 800104e:	46c0      	nop			; (mov r8, r8)
 8001050:	20000264 	.word	0x20000264
 8001054:	20000004 	.word	0x20000004

08001058 <HAL_GetTick>:
 8001058:	4b01      	ldr	r3, [pc, #4]	; (8001060 <HAL_GetTick+0x8>)
 800105a:	6818      	ldr	r0, [r3, #0]
 800105c:	4770      	bx	lr
 800105e:	46c0      	nop			; (mov r8, r8)
 8001060:	20000264 	.word	0x20000264

08001064 <HAL_Delay>:
 8001064:	b570      	push	{r4, r5, r6, lr}
 8001066:	0004      	movs	r4, r0
 8001068:	f7ff fff6 	bl	8001058 <HAL_GetTick>
 800106c:	0005      	movs	r5, r0
 800106e:	1c63      	adds	r3, r4, #1
 8001070:	d002      	beq.n	8001078 <HAL_Delay+0x14>
 8001072:	4b04      	ldr	r3, [pc, #16]	; (8001084 <HAL_Delay+0x20>)
 8001074:	781b      	ldrb	r3, [r3, #0]
 8001076:	18e4      	adds	r4, r4, r3
 8001078:	f7ff ffee 	bl	8001058 <HAL_GetTick>
 800107c:	1b40      	subs	r0, r0, r5
 800107e:	42a0      	cmp	r0, r4
 8001080:	d3fa      	bcc.n	8001078 <HAL_Delay+0x14>
 8001082:	bd70      	pop	{r4, r5, r6, pc}
 8001084:	20000004 	.word	0x20000004

08001088 <HAL_NVIC_SetPriority>:
 8001088:	b530      	push	{r4, r5, lr}
 800108a:	25ff      	movs	r5, #255	; 0xff
 800108c:	2403      	movs	r4, #3
 800108e:	002a      	movs	r2, r5
 8001090:	4004      	ands	r4, r0
 8001092:	00e4      	lsls	r4, r4, #3
 8001094:	40a2      	lsls	r2, r4
 8001096:	0189      	lsls	r1, r1, #6
 8001098:	4029      	ands	r1, r5
 800109a:	43d2      	mvns	r2, r2
 800109c:	40a1      	lsls	r1, r4
 800109e:	b2c3      	uxtb	r3, r0
 80010a0:	2800      	cmp	r0, #0
 80010a2:	db0a      	blt.n	80010ba <HAL_NVIC_SetPriority+0x32>
 80010a4:	24c0      	movs	r4, #192	; 0xc0
 80010a6:	4b0b      	ldr	r3, [pc, #44]	; (80010d4 <HAL_NVIC_SetPriority+0x4c>)
 80010a8:	0880      	lsrs	r0, r0, #2
 80010aa:	0080      	lsls	r0, r0, #2
 80010ac:	18c0      	adds	r0, r0, r3
 80010ae:	00a4      	lsls	r4, r4, #2
 80010b0:	5903      	ldr	r3, [r0, r4]
 80010b2:	401a      	ands	r2, r3
 80010b4:	4311      	orrs	r1, r2
 80010b6:	5101      	str	r1, [r0, r4]
 80010b8:	bd30      	pop	{r4, r5, pc}
 80010ba:	200f      	movs	r0, #15
 80010bc:	4003      	ands	r3, r0
 80010be:	3b08      	subs	r3, #8
 80010c0:	4805      	ldr	r0, [pc, #20]	; (80010d8 <HAL_NVIC_SetPriority+0x50>)
 80010c2:	089b      	lsrs	r3, r3, #2
 80010c4:	009b      	lsls	r3, r3, #2
 80010c6:	181b      	adds	r3, r3, r0
 80010c8:	69d8      	ldr	r0, [r3, #28]
 80010ca:	4002      	ands	r2, r0
 80010cc:	4311      	orrs	r1, r2
 80010ce:	61d9      	str	r1, [r3, #28]
 80010d0:	e7f2      	b.n	80010b8 <HAL_NVIC_SetPriority+0x30>
 80010d2:	46c0      	nop			; (mov r8, r8)
 80010d4:	e000e100 	.word	0xe000e100
 80010d8:	e000ed00 	.word	0xe000ed00

080010dc <HAL_SYSTICK_Config>:
 80010dc:	2280      	movs	r2, #128	; 0x80
 80010de:	1e43      	subs	r3, r0, #1
 80010e0:	0452      	lsls	r2, r2, #17
 80010e2:	2001      	movs	r0, #1
 80010e4:	4293      	cmp	r3, r2
 80010e6:	d20d      	bcs.n	8001104 <HAL_SYSTICK_Config+0x28>
 80010e8:	21c0      	movs	r1, #192	; 0xc0
 80010ea:	4a07      	ldr	r2, [pc, #28]	; (8001108 <HAL_SYSTICK_Config+0x2c>)
 80010ec:	4807      	ldr	r0, [pc, #28]	; (800110c <HAL_SYSTICK_Config+0x30>)
 80010ee:	6053      	str	r3, [r2, #4]
 80010f0:	6a03      	ldr	r3, [r0, #32]
 80010f2:	0609      	lsls	r1, r1, #24
 80010f4:	021b      	lsls	r3, r3, #8
 80010f6:	0a1b      	lsrs	r3, r3, #8
 80010f8:	430b      	orrs	r3, r1
 80010fa:	6203      	str	r3, [r0, #32]
 80010fc:	2000      	movs	r0, #0
 80010fe:	2307      	movs	r3, #7
 8001100:	6090      	str	r0, [r2, #8]
 8001102:	6013      	str	r3, [r2, #0]
 8001104:	4770      	bx	lr
 8001106:	46c0      	nop			; (mov r8, r8)
 8001108:	e000e010 	.word	0xe000e010
 800110c:	e000ed00 	.word	0xe000ed00

08001110 <HAL_GPIO_Init>:
 8001110:	4a54      	ldr	r2, [pc, #336]	; (8001264 <HAL_GPIO_Init+0x154>)
 8001112:	b5f0      	push	{r4, r5, r6, r7, lr}
 8001114:	1882      	adds	r2, r0, r2
 8001116:	1e54      	subs	r4, r2, #1
 8001118:	41a2      	sbcs	r2, r4
 800111a:	2300      	movs	r3, #0
 800111c:	b087      	sub	sp, #28
 800111e:	3204      	adds	r2, #4
 8001120:	9205      	str	r2, [sp, #20]
 8001122:	680a      	ldr	r2, [r1, #0]
 8001124:	0014      	movs	r4, r2
 8001126:	40dc      	lsrs	r4, r3
 8001128:	d101      	bne.n	800112e <HAL_GPIO_Init+0x1e>
 800112a:	b007      	add	sp, #28
 800112c:	bdf0      	pop	{r4, r5, r6, r7, pc}
 800112e:	2401      	movs	r4, #1
 8001130:	0025      	movs	r5, r4
 8001132:	46a4      	mov	ip, r4
 8001134:	409d      	lsls	r5, r3
 8001136:	0014      	movs	r4, r2
 8001138:	402c      	ands	r4, r5
 800113a:	9402      	str	r4, [sp, #8]
 800113c:	422a      	tst	r2, r5
 800113e:	d100      	bne.n	8001142 <HAL_GPIO_Init+0x32>
 8001140:	e08e      	b.n	8001260 <HAL_GPIO_Init+0x150>
 8001142:	2403      	movs	r4, #3
 8001144:	684a      	ldr	r2, [r1, #4]
 8001146:	005e      	lsls	r6, r3, #1
 8001148:	9201      	str	r2, [sp, #4]
 800114a:	4022      	ands	r2, r4
 800114c:	40b4      	lsls	r4, r6
 800114e:	43e4      	mvns	r4, r4
 8001150:	9403      	str	r4, [sp, #12]
 8001152:	1e54      	subs	r4, r2, #1
 8001154:	4564      	cmp	r4, ip
 8001156:	d82a      	bhi.n	80011ae <HAL_GPIO_Init+0x9e>
 8001158:	6887      	ldr	r7, [r0, #8]
 800115a:	9c03      	ldr	r4, [sp, #12]
 800115c:	4027      	ands	r7, r4
 800115e:	68cc      	ldr	r4, [r1, #12]
 8001160:	40b4      	lsls	r4, r6
 8001162:	433c      	orrs	r4, r7
 8001164:	4667      	mov	r7, ip
 8001166:	6084      	str	r4, [r0, #8]
 8001168:	6844      	ldr	r4, [r0, #4]
 800116a:	43ac      	bics	r4, r5
 800116c:	0025      	movs	r5, r4
 800116e:	9c01      	ldr	r4, [sp, #4]
 8001170:	0924      	lsrs	r4, r4, #4
 8001172:	403c      	ands	r4, r7
 8001174:	409c      	lsls	r4, r3
 8001176:	432c      	orrs	r4, r5
 8001178:	6044      	str	r4, [r0, #4]
 800117a:	68c5      	ldr	r5, [r0, #12]
 800117c:	9c03      	ldr	r4, [sp, #12]
 800117e:	4025      	ands	r5, r4
 8001180:	688c      	ldr	r4, [r1, #8]
 8001182:	40b4      	lsls	r4, r6
 8001184:	432c      	orrs	r4, r5
 8001186:	60c4      	str	r4, [r0, #12]
 8001188:	2a02      	cmp	r2, #2
 800118a:	d112      	bne.n	80011b2 <HAL_GPIO_Init+0xa2>
 800118c:	08dc      	lsrs	r4, r3, #3
 800118e:	2507      	movs	r5, #7
 8001190:	00a4      	lsls	r4, r4, #2
 8001192:	1904      	adds	r4, r0, r4
 8001194:	6a27      	ldr	r7, [r4, #32]
 8001196:	9404      	str	r4, [sp, #16]
 8001198:	240f      	movs	r4, #15
 800119a:	401d      	ands	r5, r3
 800119c:	00ad      	lsls	r5, r5, #2
 800119e:	40ac      	lsls	r4, r5
 80011a0:	43a7      	bics	r7, r4
 80011a2:	690c      	ldr	r4, [r1, #16]
 80011a4:	40ac      	lsls	r4, r5
 80011a6:	4327      	orrs	r7, r4
 80011a8:	9c04      	ldr	r4, [sp, #16]
 80011aa:	6227      	str	r7, [r4, #32]
 80011ac:	e001      	b.n	80011b2 <HAL_GPIO_Init+0xa2>
 80011ae:	2a03      	cmp	r2, #3
 80011b0:	d1e3      	bne.n	800117a <HAL_GPIO_Init+0x6a>
 80011b2:	40b2      	lsls	r2, r6
 80011b4:	6804      	ldr	r4, [r0, #0]
 80011b6:	9d03      	ldr	r5, [sp, #12]
 80011b8:	4025      	ands	r5, r4
 80011ba:	432a      	orrs	r2, r5
 80011bc:	6002      	str	r2, [r0, #0]
 80011be:	22c0      	movs	r2, #192	; 0xc0
 80011c0:	9c01      	ldr	r4, [sp, #4]
 80011c2:	0292      	lsls	r2, r2, #10
 80011c4:	4214      	tst	r4, r2
 80011c6:	d04b      	beq.n	8001260 <HAL_GPIO_Init+0x150>
 80011c8:	2603      	movs	r6, #3
 80011ca:	001d      	movs	r5, r3
 80011cc:	4a26      	ldr	r2, [pc, #152]	; (8001268 <HAL_GPIO_Init+0x158>)
 80011ce:	089c      	lsrs	r4, r3, #2
 80011d0:	00a4      	lsls	r4, r4, #2
 80011d2:	4035      	ands	r5, r6
 80011d4:	18a4      	adds	r4, r4, r2
 80011d6:	40b5      	lsls	r5, r6
 80011d8:	220f      	movs	r2, #15
 80011da:	40aa      	lsls	r2, r5
 80011dc:	6e27      	ldr	r7, [r4, #96]	; 0x60
 80011de:	4397      	bics	r7, r2
 80011e0:	46bc      	mov	ip, r7
 80011e2:	27a0      	movs	r7, #160	; 0xa0
 80011e4:	2200      	movs	r2, #0
 80011e6:	05ff      	lsls	r7, r7, #23
 80011e8:	42b8      	cmp	r0, r7
 80011ea:	d00c      	beq.n	8001206 <HAL_GPIO_Init+0xf6>
 80011ec:	4f1f      	ldr	r7, [pc, #124]	; (800126c <HAL_GPIO_Init+0x15c>)
 80011ee:	3201      	adds	r2, #1
 80011f0:	42b8      	cmp	r0, r7
 80011f2:	d008      	beq.n	8001206 <HAL_GPIO_Init+0xf6>
 80011f4:	4f1e      	ldr	r7, [pc, #120]	; (8001270 <HAL_GPIO_Init+0x160>)
 80011f6:	3201      	adds	r2, #1
 80011f8:	42b8      	cmp	r0, r7
 80011fa:	d004      	beq.n	8001206 <HAL_GPIO_Init+0xf6>
 80011fc:	4f1d      	ldr	r7, [pc, #116]	; (8001274 <HAL_GPIO_Init+0x164>)
 80011fe:	0032      	movs	r2, r6
 8001200:	42b8      	cmp	r0, r7
 8001202:	d000      	beq.n	8001206 <HAL_GPIO_Init+0xf6>
 8001204:	9a05      	ldr	r2, [sp, #20]
 8001206:	40aa      	lsls	r2, r5
 8001208:	4665      	mov	r5, ip
 800120a:	432a      	orrs	r2, r5
 800120c:	6622      	str	r2, [r4, #96]	; 0x60
 800120e:	4c16      	ldr	r4, [pc, #88]	; (8001268 <HAL_GPIO_Init+0x158>)
 8001210:	9a02      	ldr	r2, [sp, #8]
 8001212:	6826      	ldr	r6, [r4, #0]
 8001214:	9d02      	ldr	r5, [sp, #8]
 8001216:	9f01      	ldr	r7, [sp, #4]
 8001218:	43d2      	mvns	r2, r2
 800121a:	4335      	orrs	r5, r6
 800121c:	02ff      	lsls	r7, r7, #11
 800121e:	d401      	bmi.n	8001224 <HAL_GPIO_Init+0x114>
 8001220:	0035      	movs	r5, r6
 8001222:	4015      	ands	r5, r2
 8001224:	6025      	str	r5, [r4, #0]
 8001226:	6866      	ldr	r6, [r4, #4]
 8001228:	9d02      	ldr	r5, [sp, #8]
 800122a:	9f01      	ldr	r7, [sp, #4]
 800122c:	4335      	orrs	r5, r6
 800122e:	02bf      	lsls	r7, r7, #10
 8001230:	d401      	bmi.n	8001236 <HAL_GPIO_Init+0x126>
 8001232:	0035      	movs	r5, r6
 8001234:	4015      	ands	r5, r2
 8001236:	6065      	str	r5, [r4, #4]
 8001238:	4c0f      	ldr	r4, [pc, #60]	; (8001278 <HAL_GPIO_Init+0x168>)
 800123a:	9d02      	ldr	r5, [sp, #8]
 800123c:	6fe6      	ldr	r6, [r4, #124]	; 0x7c
 800123e:	9f01      	ldr	r7, [sp, #4]
 8001240:	4335      	orrs	r5, r6
 8001242:	03bf      	lsls	r7, r7, #14
 8001244:	d401      	bmi.n	800124a <HAL_GPIO_Init+0x13a>
 8001246:	0035      	movs	r5, r6
 8001248:	4015      	ands	r5, r2
 800124a:	67e5      	str	r5, [r4, #124]	; 0x7c
 800124c:	4c0b      	ldr	r4, [pc, #44]	; (800127c <HAL_GPIO_Init+0x16c>)
 800124e:	9e02      	ldr	r6, [sp, #8]
 8001250:	6fe5      	ldr	r5, [r4, #124]	; 0x7c
 8001252:	9f01      	ldr	r7, [sp, #4]
 8001254:	432e      	orrs	r6, r5
 8001256:	03ff      	lsls	r7, r7, #15
 8001258:	d401      	bmi.n	800125e <HAL_GPIO_Init+0x14e>
 800125a:	4015      	ands	r5, r2
 800125c:	002e      	movs	r6, r5
 800125e:	67e6      	str	r6, [r4, #124]	; 0x7c
 8001260:	3301      	adds	r3, #1
 8001262:	e75e      	b.n	8001122 <HAL_GPIO_Init+0x12>
 8001264:	affff000 	.word	0xaffff000
 8001268:	40021800 	.word	0x40021800
 800126c:	50000400 	.word	0x50000400
 8001270:	50000800 	.word	0x50000800
 8001274:	50000c00 	.word	0x50000c00
 8001278:	40021808 	.word	0x40021808
 800127c:	40021804 	.word	0x40021804

08001280 <HAL_GPIO_DeInit>:
 8001280:	b5f0      	push	{r4, r5, r6, r7, lr}
 8001282:	4a37      	ldr	r2, [pc, #220]	; (8001360 <HAL_GPIO_DeInit+0xe0>)
 8001284:	b085      	sub	sp, #20
 8001286:	1882      	adds	r2, r0, r2
 8001288:	9101      	str	r1, [sp, #4]
 800128a:	1e51      	subs	r1, r2, #1
 800128c:	418a      	sbcs	r2, r1
 800128e:	2300      	movs	r3, #0
 8001290:	3204      	adds	r2, #4
 8001292:	9203      	str	r2, [sp, #12]
 8001294:	9a01      	ldr	r2, [sp, #4]
 8001296:	40da      	lsrs	r2, r3
 8001298:	d101      	bne.n	800129e <HAL_GPIO_DeInit+0x1e>
 800129a:	b005      	add	sp, #20
 800129c:	bdf0      	pop	{r4, r5, r6, r7, pc}
 800129e:	2701      	movs	r7, #1
 80012a0:	003a      	movs	r2, r7
 80012a2:	409a      	lsls	r2, r3
 80012a4:	9c01      	ldr	r4, [sp, #4]
 80012a6:	9200      	str	r2, [sp, #0]
 80012a8:	4014      	ands	r4, r2
 80012aa:	9900      	ldr	r1, [sp, #0]
 80012ac:	9a01      	ldr	r2, [sp, #4]
 80012ae:	420a      	tst	r2, r1
 80012b0:	d053      	beq.n	800135a <HAL_GPIO_DeInit+0xda>
 80012b2:	492c      	ldr	r1, [pc, #176]	; (8001364 <HAL_GPIO_DeInit+0xe4>)
 80012b4:	089a      	lsrs	r2, r3, #2
 80012b6:	0092      	lsls	r2, r2, #2
 80012b8:	1852      	adds	r2, r2, r1
 80012ba:	6e11      	ldr	r1, [r2, #96]	; 0x60
 80012bc:	001d      	movs	r5, r3
 80012be:	000e      	movs	r6, r1
 80012c0:	2103      	movs	r1, #3
 80012c2:	400d      	ands	r5, r1
 80012c4:	408d      	lsls	r5, r1
 80012c6:	310c      	adds	r1, #12
 80012c8:	40a9      	lsls	r1, r5
 80012ca:	9102      	str	r1, [sp, #8]
 80012cc:	4031      	ands	r1, r6
 80012ce:	000e      	movs	r6, r1
 80012d0:	21a0      	movs	r1, #160	; 0xa0
 80012d2:	05c9      	lsls	r1, r1, #23
 80012d4:	468c      	mov	ip, r1
 80012d6:	2100      	movs	r1, #0
 80012d8:	4560      	cmp	r0, ip
 80012da:	d00d      	beq.n	80012f8 <HAL_GPIO_DeInit+0x78>
 80012dc:	4922      	ldr	r1, [pc, #136]	; (8001368 <HAL_GPIO_DeInit+0xe8>)
 80012de:	468c      	mov	ip, r1
 80012e0:	0039      	movs	r1, r7
 80012e2:	4560      	cmp	r0, ip
 80012e4:	d008      	beq.n	80012f8 <HAL_GPIO_DeInit+0x78>
 80012e6:	4f21      	ldr	r7, [pc, #132]	; (800136c <HAL_GPIO_DeInit+0xec>)
 80012e8:	1849      	adds	r1, r1, r1
 80012ea:	42b8      	cmp	r0, r7
 80012ec:	d004      	beq.n	80012f8 <HAL_GPIO_DeInit+0x78>
 80012ee:	4f20      	ldr	r7, [pc, #128]	; (8001370 <HAL_GPIO_DeInit+0xf0>)
 80012f0:	3101      	adds	r1, #1
 80012f2:	42b8      	cmp	r0, r7
 80012f4:	d000      	beq.n	80012f8 <HAL_GPIO_DeInit+0x78>
 80012f6:	9903      	ldr	r1, [sp, #12]
 80012f8:	40a9      	lsls	r1, r5
 80012fa:	42b1      	cmp	r1, r6
 80012fc:	d112      	bne.n	8001324 <HAL_GPIO_DeInit+0xa4>
 80012fe:	4e1d      	ldr	r6, [pc, #116]	; (8001374 <HAL_GPIO_DeInit+0xf4>)
 8001300:	4918      	ldr	r1, [pc, #96]	; (8001364 <HAL_GPIO_DeInit+0xe4>)
 8001302:	6ff5      	ldr	r5, [r6, #124]	; 0x7c
 8001304:	43a5      	bics	r5, r4
 8001306:	67f5      	str	r5, [r6, #124]	; 0x7c
 8001308:	4e1b      	ldr	r6, [pc, #108]	; (8001378 <HAL_GPIO_DeInit+0xf8>)
 800130a:	6ff5      	ldr	r5, [r6, #124]	; 0x7c
 800130c:	43a5      	bics	r5, r4
 800130e:	67f5      	str	r5, [r6, #124]	; 0x7c
 8001310:	684d      	ldr	r5, [r1, #4]
 8001312:	43a5      	bics	r5, r4
 8001314:	604d      	str	r5, [r1, #4]
 8001316:	680d      	ldr	r5, [r1, #0]
 8001318:	43a5      	bics	r5, r4
 800131a:	600d      	str	r5, [r1, #0]
 800131c:	6e11      	ldr	r1, [r2, #96]	; 0x60
 800131e:	9c02      	ldr	r4, [sp, #8]
 8001320:	43a1      	bics	r1, r4
 8001322:	6611      	str	r1, [r2, #96]	; 0x60
 8001324:	2103      	movs	r1, #3
 8001326:	005c      	lsls	r4, r3, #1
 8001328:	40a1      	lsls	r1, r4
 800132a:	2407      	movs	r4, #7
 800132c:	260f      	movs	r6, #15
 800132e:	401c      	ands	r4, r3
 8001330:	00a4      	lsls	r4, r4, #2
 8001332:	40a6      	lsls	r6, r4
 8001334:	6802      	ldr	r2, [r0, #0]
 8001336:	9c00      	ldr	r4, [sp, #0]
 8001338:	430a      	orrs	r2, r1
 800133a:	6002      	str	r2, [r0, #0]
 800133c:	08da      	lsrs	r2, r3, #3
 800133e:	0092      	lsls	r2, r2, #2
 8001340:	1882      	adds	r2, r0, r2
 8001342:	6a15      	ldr	r5, [r2, #32]
 8001344:	43b5      	bics	r5, r6
 8001346:	6215      	str	r5, [r2, #32]
 8001348:	6882      	ldr	r2, [r0, #8]
 800134a:	438a      	bics	r2, r1
 800134c:	6082      	str	r2, [r0, #8]
 800134e:	6842      	ldr	r2, [r0, #4]
 8001350:	43a2      	bics	r2, r4
 8001352:	6042      	str	r2, [r0, #4]
 8001354:	68c2      	ldr	r2, [r0, #12]
 8001356:	438a      	bics	r2, r1
 8001358:	60c2      	str	r2, [r0, #12]
 800135a:	3301      	adds	r3, #1
 800135c:	e79a      	b.n	8001294 <HAL_GPIO_DeInit+0x14>
 800135e:	46c0      	nop			; (mov r8, r8)
 8001360:	affff000 	.word	0xaffff000
 8001364:	40021800 	.word	0x40021800
 8001368:	50000400 	.word	0x50000400
 800136c:	50000800 	.word	0x50000800
 8001370:	50000c00 	.word	0x50000c00
 8001374:	40021804 	.word	0x40021804
 8001378:	40021808 	.word	0x40021808

0800137c <HAL_GPIO_WritePin>:
 800137c:	2a00      	cmp	r2, #0
 800137e:	d001      	beq.n	8001384 <HAL_GPIO_WritePin+0x8>
 8001380:	6181      	str	r1, [r0, #24]
 8001382:	4770      	bx	lr
 8001384:	6281      	str	r1, [r0, #40]	; 0x28
 8001386:	e7fc      	b.n	8001382 <HAL_GPIO_WritePin+0x6>

08001388 <I2C_Flush_TXDR>:
 8001388:	6803      	ldr	r3, [r0, #0]
 800138a:	699a      	ldr	r2, [r3, #24]
 800138c:	0792      	lsls	r2, r2, #30
 800138e:	d501      	bpl.n	8001394 <I2C_Flush_TXDR+0xc>
 8001390:	2200      	movs	r2, #0
 8001392:	629a      	str	r2, [r3, #40]	; 0x28
 8001394:	2201      	movs	r2, #1
 8001396:	6999      	ldr	r1, [r3, #24]
 8001398:	4211      	tst	r1, r2
 800139a:	d102      	bne.n	80013a2 <I2C_Flush_TXDR+0x1a>
 800139c:	6999      	ldr	r1, [r3, #24]
 800139e:	430a      	orrs	r2, r1
 80013a0:	619a      	str	r2, [r3, #24]
 80013a2:	4770      	bx	lr

080013a4 <I2C_TransferConfig>:
 80013a4:	b530      	push	{r4, r5, lr}
 80013a6:	9c03      	ldr	r4, [sp, #12]
 80013a8:	6800      	ldr	r0, [r0, #0]
 80013aa:	4323      	orrs	r3, r4
 80013ac:	0412      	lsls	r2, r2, #16
 80013ae:	0589      	lsls	r1, r1, #22
 80013b0:	431a      	orrs	r2, r3
 80013b2:	0d89      	lsrs	r1, r1, #22
 80013b4:	4b05      	ldr	r3, [pc, #20]	; (80013cc <I2C_TransferConfig+0x28>)
 80013b6:	6845      	ldr	r5, [r0, #4]
 80013b8:	430a      	orrs	r2, r1
 80013ba:	0d64      	lsrs	r4, r4, #21
 80013bc:	431c      	orrs	r4, r3
 80013be:	0052      	lsls	r2, r2, #1
 80013c0:	43a5      	bics	r5, r4
 80013c2:	0852      	lsrs	r2, r2, #1
 80013c4:	432a      	orrs	r2, r5
 80013c6:	6042      	str	r2, [r0, #4]
 80013c8:	bd30      	pop	{r4, r5, pc}
 80013ca:	46c0      	nop			; (mov r8, r8)
 80013cc:	03ff63ff 	.word	0x03ff63ff

080013d0 <I2C_IsErrorOccurred>:
 80013d0:	b5f7      	push	{r0, r1, r2, r4, r5, r6, r7, lr}
 80013d2:	0015      	movs	r5, r2
 80013d4:	6802      	ldr	r2, [r0, #0]
 80013d6:	000e      	movs	r6, r1
 80013d8:	6991      	ldr	r1, [r2, #24]
 80013da:	2310      	movs	r3, #16
 80013dc:	000f      	movs	r7, r1
 80013de:	0004      	movs	r4, r0
 80013e0:	401f      	ands	r7, r3
 80013e2:	2000      	movs	r0, #0
 80013e4:	4219      	tst	r1, r3
 80013e6:	d00e      	beq.n	8001406 <I2C_IsErrorOccurred+0x36>
 80013e8:	2720      	movs	r7, #32
 80013ea:	61d3      	str	r3, [r2, #28]
 80013ec:	9000      	str	r0, [sp, #0]
 80013ee:	9001      	str	r0, [sp, #4]
 80013f0:	6823      	ldr	r3, [r4, #0]
 80013f2:	699a      	ldr	r2, [r3, #24]
 80013f4:	423a      	tst	r2, r7
 80013f6:	d164      	bne.n	80014c2 <I2C_IsErrorOccurred+0xf2>
 80013f8:	9a01      	ldr	r2, [sp, #4]
 80013fa:	2a00      	cmp	r2, #0
 80013fc:	d032      	beq.n	8001464 <I2C_IsErrorOccurred+0x94>
 80013fe:	2704      	movs	r7, #4
 8001400:	2001      	movs	r0, #1
 8001402:	9b00      	ldr	r3, [sp, #0]
 8001404:	431f      	orrs	r7, r3
 8001406:	2180      	movs	r1, #128	; 0x80
 8001408:	6823      	ldr	r3, [r4, #0]
 800140a:	0049      	lsls	r1, r1, #1
 800140c:	699a      	ldr	r2, [r3, #24]
 800140e:	420a      	tst	r2, r1
 8001410:	d002      	beq.n	8001418 <I2C_IsErrorOccurred+0x48>
 8001412:	2001      	movs	r0, #1
 8001414:	61d9      	str	r1, [r3, #28]
 8001416:	4307      	orrs	r7, r0
 8001418:	2180      	movs	r1, #128	; 0x80
 800141a:	00c9      	lsls	r1, r1, #3
 800141c:	420a      	tst	r2, r1
 800141e:	d003      	beq.n	8001428 <I2C_IsErrorOccurred+0x58>
 8001420:	2008      	movs	r0, #8
 8001422:	61d9      	str	r1, [r3, #28]
 8001424:	4307      	orrs	r7, r0
 8001426:	3807      	subs	r0, #7
 8001428:	2180      	movs	r1, #128	; 0x80
 800142a:	0089      	lsls	r1, r1, #2
 800142c:	420a      	tst	r2, r1
 800142e:	d04d      	beq.n	80014cc <I2C_IsErrorOccurred+0xfc>
 8001430:	2202      	movs	r2, #2
 8001432:	61d9      	str	r1, [r3, #28]
 8001434:	4317      	orrs	r7, r2
 8001436:	0020      	movs	r0, r4
 8001438:	f7ff ffa6 	bl	8001388 <I2C_Flush_TXDR>
 800143c:	6822      	ldr	r2, [r4, #0]
 800143e:	4925      	ldr	r1, [pc, #148]	; (80014d4 <I2C_IsErrorOccurred+0x104>)
 8001440:	6853      	ldr	r3, [r2, #4]
 8001442:	400b      	ands	r3, r1
 8001444:	6053      	str	r3, [r2, #4]
 8001446:	0023      	movs	r3, r4
 8001448:	2220      	movs	r2, #32
 800144a:	6c60      	ldr	r0, [r4, #68]	; 0x44
 800144c:	3341      	adds	r3, #65	; 0x41
 800144e:	4307      	orrs	r7, r0
 8001450:	6467      	str	r7, [r4, #68]	; 0x44
 8001452:	701a      	strb	r2, [r3, #0]
 8001454:	0022      	movs	r2, r4
 8001456:	2300      	movs	r3, #0
 8001458:	3242      	adds	r2, #66	; 0x42
 800145a:	3440      	adds	r4, #64	; 0x40
 800145c:	7013      	strb	r3, [r2, #0]
 800145e:	2001      	movs	r0, #1
 8001460:	7023      	strb	r3, [r4, #0]
 8001462:	e035      	b.n	80014d0 <I2C_IsErrorOccurred+0x100>
 8001464:	1c72      	adds	r2, r6, #1
 8001466:	d0c4      	beq.n	80013f2 <I2C_IsErrorOccurred+0x22>
 8001468:	f7ff fdf6 	bl	8001058 <HAL_GetTick>
 800146c:	1b40      	subs	r0, r0, r5
 800146e:	42b0      	cmp	r0, r6
 8001470:	d801      	bhi.n	8001476 <I2C_IsErrorOccurred+0xa6>
 8001472:	2e00      	cmp	r6, #0
 8001474:	d1bc      	bne.n	80013f0 <I2C_IsErrorOccurred+0x20>
 8001476:	0022      	movs	r2, r4
 8001478:	6823      	ldr	r3, [r4, #0]
 800147a:	3242      	adds	r2, #66	; 0x42
 800147c:	6858      	ldr	r0, [r3, #4]
 800147e:	7811      	ldrb	r1, [r2, #0]
 8001480:	b2ca      	uxtb	r2, r1
 8001482:	2180      	movs	r1, #128	; 0x80
 8001484:	4694      	mov	ip, r2
 8001486:	699a      	ldr	r2, [r3, #24]
 8001488:	0209      	lsls	r1, r1, #8
 800148a:	420a      	tst	r2, r1
 800148c:	d00c      	beq.n	80014a8 <I2C_IsErrorOccurred+0xd8>
 800148e:	2280      	movs	r2, #128	; 0x80
 8001490:	01d2      	lsls	r2, r2, #7
 8001492:	4210      	tst	r0, r2
 8001494:	d108      	bne.n	80014a8 <I2C_IsErrorOccurred+0xd8>
 8001496:	4661      	mov	r1, ip
 8001498:	2920      	cmp	r1, #32
 800149a:	d005      	beq.n	80014a8 <I2C_IsErrorOccurred+0xd8>
 800149c:	6859      	ldr	r1, [r3, #4]
 800149e:	430a      	orrs	r2, r1
 80014a0:	605a      	str	r2, [r3, #4]
 80014a2:	f7ff fdd9 	bl	8001058 <HAL_GetTick>
 80014a6:	0005      	movs	r5, r0
 80014a8:	6823      	ldr	r3, [r4, #0]
 80014aa:	699b      	ldr	r3, [r3, #24]
 80014ac:	423b      	tst	r3, r7
 80014ae:	d19f      	bne.n	80013f0 <I2C_IsErrorOccurred+0x20>
 80014b0:	f7ff fdd2 	bl	8001058 <HAL_GetTick>
 80014b4:	1b40      	subs	r0, r0, r5
 80014b6:	2819      	cmp	r0, #25
 80014b8:	d9f6      	bls.n	80014a8 <I2C_IsErrorOccurred+0xd8>
 80014ba:	2301      	movs	r3, #1
 80014bc:	9700      	str	r7, [sp, #0]
 80014be:	9301      	str	r3, [sp, #4]
 80014c0:	e796      	b.n	80013f0 <I2C_IsErrorOccurred+0x20>
 80014c2:	9a01      	ldr	r2, [sp, #4]
 80014c4:	2a00      	cmp	r2, #0
 80014c6:	d19a      	bne.n	80013fe <I2C_IsErrorOccurred+0x2e>
 80014c8:	61df      	str	r7, [r3, #28]
 80014ca:	e798      	b.n	80013fe <I2C_IsErrorOccurred+0x2e>
 80014cc:	2800      	cmp	r0, #0
 80014ce:	d1b2      	bne.n	8001436 <I2C_IsErrorOccurred+0x66>
 80014d0:	bdfe      	pop	{r1, r2, r3, r4, r5, r6, r7, pc}
 80014d2:	46c0      	nop			; (mov r8, r8)
 80014d4:	fe00e800 	.word	0xfe00e800

080014d8 <I2C_WaitOnTXISFlagUntilTimeout>:
 80014d8:	b5f8      	push	{r3, r4, r5, r6, r7, lr}
 80014da:	0004      	movs	r4, r0
 80014dc:	000d      	movs	r5, r1
 80014de:	0016      	movs	r6, r2
 80014e0:	2702      	movs	r7, #2
 80014e2:	6823      	ldr	r3, [r4, #0]
 80014e4:	699b      	ldr	r3, [r3, #24]
 80014e6:	423b      	tst	r3, r7
 80014e8:	d001      	beq.n	80014ee <I2C_WaitOnTXISFlagUntilTimeout+0x16>
 80014ea:	2000      	movs	r0, #0
 80014ec:	bdf8      	pop	{r3, r4, r5, r6, r7, pc}
 80014ee:	0032      	movs	r2, r6
 80014f0:	0029      	movs	r1, r5
 80014f2:	0020      	movs	r0, r4
 80014f4:	f7ff ff6c 	bl	80013d0 <I2C_IsErrorOccurred>
 80014f8:	2800      	cmp	r0, #0
 80014fa:	d115      	bne.n	8001528 <I2C_WaitOnTXISFlagUntilTimeout+0x50>
 80014fc:	1c6b      	adds	r3, r5, #1
 80014fe:	d0f0      	beq.n	80014e2 <I2C_WaitOnTXISFlagUntilTimeout+0xa>
 8001500:	f7ff fdaa 	bl	8001058 <HAL_GetTick>
 8001504:	1b80      	subs	r0, r0, r6
 8001506:	42a8      	cmp	r0, r5
 8001508:	d801      	bhi.n	800150e <I2C_WaitOnTXISFlagUntilTimeout+0x36>
 800150a:	2d00      	cmp	r5, #0
 800150c:	d1e9      	bne.n	80014e2 <I2C_WaitOnTXISFlagUntilTimeout+0xa>
 800150e:	2220      	movs	r2, #32
 8001510:	6c63      	ldr	r3, [r4, #68]	; 0x44
 8001512:	4313      	orrs	r3, r2
 8001514:	6463      	str	r3, [r4, #68]	; 0x44
 8001516:	0023      	movs	r3, r4
 8001518:	3341      	adds	r3, #65	; 0x41
 800151a:	701a      	strb	r2, [r3, #0]
 800151c:	0022      	movs	r2, r4
 800151e:	2300      	movs	r3, #0
 8001520:	3242      	adds	r2, #66	; 0x42
 8001522:	3440      	adds	r4, #64	; 0x40
 8001524:	7013      	strb	r3, [r2, #0]
 8001526:	7023      	strb	r3, [r4, #0]
 8001528:	2001      	movs	r0, #1
 800152a:	e7df      	b.n	80014ec <I2C_WaitOnTXISFlagUntilTimeout+0x14>

0800152c <I2C_WaitOnFlagUntilTimeout>:
 800152c:	b5f8      	push	{r3, r4, r5, r6, r7, lr}
 800152e:	0004      	movs	r4, r0
 8001530:	000e      	movs	r6, r1
 8001532:	0017      	movs	r7, r2
 8001534:	001d      	movs	r5, r3
 8001536:	6822      	ldr	r2, [r4, #0]
 8001538:	6993      	ldr	r3, [r2, #24]
 800153a:	4033      	ands	r3, r6
 800153c:	1b9b      	subs	r3, r3, r6
 800153e:	4259      	negs	r1, r3
 8001540:	414b      	adcs	r3, r1
 8001542:	42bb      	cmp	r3, r7
 8001544:	d001      	beq.n	800154a <I2C_WaitOnFlagUntilTimeout+0x1e>
 8001546:	2000      	movs	r0, #0
 8001548:	e017      	b.n	800157a <I2C_WaitOnFlagUntilTimeout+0x4e>
 800154a:	1c6b      	adds	r3, r5, #1
 800154c:	d0f4      	beq.n	8001538 <I2C_WaitOnFlagUntilTimeout+0xc>
 800154e:	f7ff fd83 	bl	8001058 <HAL_GetTick>
 8001552:	9b06      	ldr	r3, [sp, #24]
 8001554:	1ac0      	subs	r0, r0, r3
 8001556:	42a8      	cmp	r0, r5
 8001558:	d801      	bhi.n	800155e <I2C_WaitOnFlagUntilTimeout+0x32>
 800155a:	2d00      	cmp	r5, #0
 800155c:	d1eb      	bne.n	8001536 <I2C_WaitOnFlagUntilTimeout+0xa>
 800155e:	2220      	movs	r2, #32
 8001560:	6c63      	ldr	r3, [r4, #68]	; 0x44
 8001562:	2001      	movs	r0, #1
 8001564:	4313      	orrs	r3, r2
 8001566:	6463      	str	r3, [r4, #68]	; 0x44
 8001568:	0023      	movs	r3, r4
 800156a:	3341      	adds	r3, #65	; 0x41
 800156c:	701a      	strb	r2, [r3, #0]
 800156e:	0022      	movs	r2, r4
 8001570:	2300      	movs	r3, #0
 8001572:	3242      	adds	r2, #66	; 0x42
 8001574:	3440      	adds	r4, #64	; 0x40
 8001576:	7013      	strb	r3, [r2, #0]
 8001578:	7023      	strb	r3, [r4, #0]
 800157a:	bdf8      	pop	{r3, r4, r5, r6, r7, pc}

0800157c <I2C_WaitOnSTOPFlagUntilTimeout>:
 800157c:	b5f8      	push	{r3, r4, r5, r6, r7, lr}
 800157e:	0004      	movs	r4, r0
 8001580:	000d      	movs	r5, r1
 8001582:	0016      	movs	r6, r2
 8001584:	2720      	movs	r7, #32
 8001586:	6823      	ldr	r3, [r4, #0]
 8001588:	699b      	ldr	r3, [r3, #24]
 800158a:	423b      	tst	r3, r7
 800158c:	d001      	beq.n	8001592 <I2C_WaitOnSTOPFlagUntilTimeout+0x16>
 800158e:	2000      	movs	r0, #0
 8001590:	bdf8      	pop	{r3, r4, r5, r6, r7, pc}
 8001592:	0032      	movs	r2, r6
 8001594:	0029      	movs	r1, r5
 8001596:	0020      	movs	r0, r4
 8001598:	f7ff ff1a 	bl	80013d0 <I2C_IsErrorOccurred>
 800159c:	2800      	cmp	r0, #0
 800159e:	d113      	bne.n	80015c8 <I2C_WaitOnSTOPFlagUntilTimeout+0x4c>
 80015a0:	f7ff fd5a 	bl	8001058 <HAL_GetTick>
 80015a4:	1b80      	subs	r0, r0, r6
 80015a6:	42a8      	cmp	r0, r5
 80015a8:	d801      	bhi.n	80015ae <I2C_WaitOnSTOPFlagUntilTimeout+0x32>
 80015aa:	2d00      	cmp	r5, #0
 80015ac:	d1eb      	bne.n	8001586 <I2C_WaitOnSTOPFlagUntilTimeout+0xa>
 80015ae:	2220      	movs	r2, #32
 80015b0:	6c63      	ldr	r3, [r4, #68]	; 0x44
 80015b2:	4313      	orrs	r3, r2
 80015b4:	6463      	str	r3, [r4, #68]	; 0x44
 80015b6:	0023      	movs	r3, r4
 80015b8:	3341      	adds	r3, #65	; 0x41
 80015ba:	701a      	strb	r2, [r3, #0]
 80015bc:	0022      	movs	r2, r4
 80015be:	2300      	movs	r3, #0
 80015c0:	3242      	adds	r2, #66	; 0x42
 80015c2:	3440      	adds	r4, #64	; 0x40
 80015c4:	7013      	strb	r3, [r2, #0]
 80015c6:	7023      	strb	r3, [r4, #0]
 80015c8:	2001      	movs	r0, #1
 80015ca:	e7e1      	b.n	8001590 <I2C_WaitOnSTOPFlagUntilTimeout+0x14>

080015cc <HAL_I2C_Init>:
 80015cc:	b570      	push	{r4, r5, r6, lr}
 80015ce:	0004      	movs	r4, r0
 80015d0:	2001      	movs	r0, #1
 80015d2:	2c00      	cmp	r4, #0
 80015d4:	d03f      	beq.n	8001656 <HAL_I2C_Init+0x8a>
 80015d6:	0025      	movs	r5, r4
 80015d8:	3541      	adds	r5, #65	; 0x41
 80015da:	782b      	ldrb	r3, [r5, #0]
 80015dc:	b2da      	uxtb	r2, r3
 80015de:	2b00      	cmp	r3, #0
 80015e0:	d105      	bne.n	80015ee <HAL_I2C_Init+0x22>
 80015e2:	0023      	movs	r3, r4
 80015e4:	3340      	adds	r3, #64	; 0x40
 80015e6:	0020      	movs	r0, r4
 80015e8:	701a      	strb	r2, [r3, #0]
 80015ea:	f7ff fa6d 	bl	8000ac8 <HAL_I2C_MspInit>
 80015ee:	2324      	movs	r3, #36	; 0x24
 80015f0:	2101      	movs	r1, #1
 80015f2:	702b      	strb	r3, [r5, #0]
 80015f4:	6823      	ldr	r3, [r4, #0]
 80015f6:	481d      	ldr	r0, [pc, #116]	; (800166c <HAL_I2C_Init+0xa0>)
 80015f8:	681a      	ldr	r2, [r3, #0]
 80015fa:	68a6      	ldr	r6, [r4, #8]
 80015fc:	438a      	bics	r2, r1
 80015fe:	601a      	str	r2, [r3, #0]
 8001600:	6861      	ldr	r1, [r4, #4]
 8001602:	4a1b      	ldr	r2, [pc, #108]	; (8001670 <HAL_I2C_Init+0xa4>)
 8001604:	400a      	ands	r2, r1
 8001606:	611a      	str	r2, [r3, #16]
 8001608:	689a      	ldr	r2, [r3, #8]
 800160a:	4002      	ands	r2, r0
 800160c:	609a      	str	r2, [r3, #8]
 800160e:	68e2      	ldr	r2, [r4, #12]
 8001610:	2a01      	cmp	r2, #1
 8001612:	d121      	bne.n	8001658 <HAL_I2C_Init+0x8c>
 8001614:	2180      	movs	r1, #128	; 0x80
 8001616:	0209      	lsls	r1, r1, #8
 8001618:	4331      	orrs	r1, r6
 800161a:	6099      	str	r1, [r3, #8]
 800161c:	685a      	ldr	r2, [r3, #4]
 800161e:	4915      	ldr	r1, [pc, #84]	; (8001674 <HAL_I2C_Init+0xa8>)
 8001620:	4311      	orrs	r1, r2
 8001622:	6059      	str	r1, [r3, #4]
 8001624:	68da      	ldr	r2, [r3, #12]
 8001626:	6961      	ldr	r1, [r4, #20]
 8001628:	4002      	ands	r2, r0
 800162a:	60da      	str	r2, [r3, #12]
 800162c:	6922      	ldr	r2, [r4, #16]
 800162e:	2000      	movs	r0, #0
 8001630:	430a      	orrs	r2, r1
 8001632:	69a1      	ldr	r1, [r4, #24]
 8001634:	0209      	lsls	r1, r1, #8
 8001636:	430a      	orrs	r2, r1
 8001638:	60da      	str	r2, [r3, #12]
 800163a:	6a21      	ldr	r1, [r4, #32]
 800163c:	69e2      	ldr	r2, [r4, #28]
 800163e:	430a      	orrs	r2, r1
 8001640:	601a      	str	r2, [r3, #0]
 8001642:	2201      	movs	r2, #1
 8001644:	6819      	ldr	r1, [r3, #0]
 8001646:	430a      	orrs	r2, r1
 8001648:	601a      	str	r2, [r3, #0]
 800164a:	2320      	movs	r3, #32
 800164c:	6460      	str	r0, [r4, #68]	; 0x44
 800164e:	702b      	strb	r3, [r5, #0]
 8001650:	6320      	str	r0, [r4, #48]	; 0x30
 8001652:	3442      	adds	r4, #66	; 0x42
 8001654:	7020      	strb	r0, [r4, #0]
 8001656:	bd70      	pop	{r4, r5, r6, pc}
 8001658:	2184      	movs	r1, #132	; 0x84
 800165a:	0209      	lsls	r1, r1, #8
 800165c:	4331      	orrs	r1, r6
 800165e:	6099      	str	r1, [r3, #8]
 8001660:	2a02      	cmp	r2, #2
 8001662:	d1db      	bne.n	800161c <HAL_I2C_Init+0x50>
 8001664:	2280      	movs	r2, #128	; 0x80
 8001666:	0112      	lsls	r2, r2, #4
 8001668:	605a      	str	r2, [r3, #4]
 800166a:	e7d7      	b.n	800161c <HAL_I2C_Init+0x50>
 800166c:	ffff7fff 	.word	0xffff7fff
 8001670:	f0ffffff 	.word	0xf0ffffff
 8001674:	02008000 	.word	0x02008000

08001678 <HAL_I2C_DeInit>:
 8001678:	b570      	push	{r4, r5, r6, lr}
 800167a:	0004      	movs	r4, r0
 800167c:	2001      	movs	r0, #1
 800167e:	2c00      	cmp	r4, #0
 8001680:	d013      	beq.n	80016aa <HAL_I2C_DeInit+0x32>
 8001682:	0025      	movs	r5, r4
 8001684:	2324      	movs	r3, #36	; 0x24
 8001686:	3541      	adds	r5, #65	; 0x41
 8001688:	702b      	strb	r3, [r5, #0]
 800168a:	6822      	ldr	r2, [r4, #0]
 800168c:	6813      	ldr	r3, [r2, #0]
 800168e:	4383      	bics	r3, r0
 8001690:	6013      	str	r3, [r2, #0]
 8001692:	0020      	movs	r0, r4
 8001694:	f7ff fa5a 	bl	8000b4c <HAL_I2C_MspDeInit>
 8001698:	2000      	movs	r0, #0
 800169a:	0023      	movs	r3, r4
 800169c:	6460      	str	r0, [r4, #68]	; 0x44
 800169e:	3342      	adds	r3, #66	; 0x42
 80016a0:	7028      	strb	r0, [r5, #0]
 80016a2:	6320      	str	r0, [r4, #48]	; 0x30
 80016a4:	3440      	adds	r4, #64	; 0x40
 80016a6:	7018      	strb	r0, [r3, #0]
 80016a8:	7020      	strb	r0, [r4, #0]
 80016aa:	bd70      	pop	{r4, r5, r6, pc}

080016ac <HAL_I2C_Mem_Write>:
 80016ac:	b5f0      	push	{r4, r5, r6, r7, lr}
 80016ae:	b089      	sub	sp, #36	; 0x24
 80016b0:	9304      	str	r3, [sp, #16]
 80016b2:	ab0e      	add	r3, sp, #56	; 0x38
 80016b4:	9203      	str	r2, [sp, #12]
 80016b6:	cb04      	ldmia	r3!, {r2}
 80016b8:	0004      	movs	r4, r0
 80016ba:	881b      	ldrh	r3, [r3, #0]
 80016bc:	9205      	str	r2, [sp, #20]
 80016be:	9306      	str	r3, [sp, #24]
 80016c0:	0003      	movs	r3, r0
 80016c2:	3341      	adds	r3, #65	; 0x41
 80016c4:	9307      	str	r3, [sp, #28]
 80016c6:	781b      	ldrb	r3, [r3, #0]
 80016c8:	000f      	movs	r7, r1
 80016ca:	2002      	movs	r0, #2
 80016cc:	9e10      	ldr	r6, [sp, #64]	; 0x40
 80016ce:	2b20      	cmp	r3, #32
 80016d0:	d108      	bne.n	80016e4 <HAL_I2C_Mem_Write+0x38>
 80016d2:	2a00      	cmp	r2, #0
 80016d4:	d002      	beq.n	80016dc <HAL_I2C_Mem_Write+0x30>
 80016d6:	9b06      	ldr	r3, [sp, #24]
 80016d8:	2b00      	cmp	r3, #0
 80016da:	d105      	bne.n	80016e8 <HAL_I2C_Mem_Write+0x3c>
 80016dc:	2380      	movs	r3, #128	; 0x80
 80016de:	009b      	lsls	r3, r3, #2
 80016e0:	6463      	str	r3, [r4, #68]	; 0x44
 80016e2:	2001      	movs	r0, #1
 80016e4:	b009      	add	sp, #36	; 0x24
 80016e6:	bdf0      	pop	{r4, r5, r6, r7, pc}
 80016e8:	0023      	movs	r3, r4
 80016ea:	3340      	adds	r3, #64	; 0x40
 80016ec:	781a      	ldrb	r2, [r3, #0]
 80016ee:	2002      	movs	r0, #2
 80016f0:	2a01      	cmp	r2, #1
 80016f2:	d0f7      	beq.n	80016e4 <HAL_I2C_Mem_Write+0x38>
 80016f4:	2201      	movs	r2, #1
 80016f6:	701a      	strb	r2, [r3, #0]
 80016f8:	f7ff fcae 	bl	8001058 <HAL_GetTick>
 80016fc:	2180      	movs	r1, #128	; 0x80
 80016fe:	0005      	movs	r5, r0
 8001700:	9000      	str	r0, [sp, #0]
 8001702:	2319      	movs	r3, #25
 8001704:	2201      	movs	r2, #1
 8001706:	0020      	movs	r0, r4
 8001708:	0209      	lsls	r1, r1, #8
 800170a:	f7ff ff0f 	bl	800152c <I2C_WaitOnFlagUntilTimeout>
 800170e:	2800      	cmp	r0, #0
 8001710:	d1e7      	bne.n	80016e2 <HAL_I2C_Mem_Write+0x36>
 8001712:	2321      	movs	r3, #33	; 0x21
 8001714:	9a07      	ldr	r2, [sp, #28]
 8001716:	0039      	movs	r1, r7
 8001718:	7013      	strb	r3, [r2, #0]
 800171a:	0023      	movs	r3, r4
 800171c:	3342      	adds	r3, #66	; 0x42
 800171e:	9307      	str	r3, [sp, #28]
 8001720:	2340      	movs	r3, #64	; 0x40
 8001722:	9a07      	ldr	r2, [sp, #28]
 8001724:	7013      	strb	r3, [r2, #0]
 8001726:	9b05      	ldr	r3, [sp, #20]
 8001728:	6460      	str	r0, [r4, #68]	; 0x44
 800172a:	6263      	str	r3, [r4, #36]	; 0x24
 800172c:	9b06      	ldr	r3, [sp, #24]
 800172e:	6360      	str	r0, [r4, #52]	; 0x34
 8001730:	8563      	strh	r3, [r4, #42]	; 0x2a
 8001732:	466b      	mov	r3, sp
 8001734:	7c1a      	ldrb	r2, [r3, #16]
 8001736:	4b4a      	ldr	r3, [pc, #296]	; (8001860 <HAL_I2C_Mem_Write+0x1b4>)
 8001738:	0020      	movs	r0, r4
 800173a:	9300      	str	r3, [sp, #0]
 800173c:	2380      	movs	r3, #128	; 0x80
 800173e:	045b      	lsls	r3, r3, #17
 8001740:	f7ff fe30 	bl	80013a4 <I2C_TransferConfig>
 8001744:	002a      	movs	r2, r5
 8001746:	0031      	movs	r1, r6
 8001748:	0020      	movs	r0, r4
 800174a:	f7ff fec5 	bl	80014d8 <I2C_WaitOnTXISFlagUntilTimeout>
 800174e:	2800      	cmp	r0, #0
 8001750:	d126      	bne.n	80017a0 <HAL_I2C_Mem_Write+0xf4>
 8001752:	9a04      	ldr	r2, [sp, #16]
 8001754:	6823      	ldr	r3, [r4, #0]
 8001756:	2a01      	cmp	r2, #1
 8001758:	d116      	bne.n	8001788 <HAL_I2C_Mem_Write+0xdc>
 800175a:	466a      	mov	r2, sp
 800175c:	7b12      	ldrb	r2, [r2, #12]
 800175e:	2180      	movs	r1, #128	; 0x80
 8001760:	629a      	str	r2, [r3, #40]	; 0x28
 8001762:	0020      	movs	r0, r4
 8001764:	0033      	movs	r3, r6
 8001766:	2200      	movs	r2, #0
 8001768:	9500      	str	r5, [sp, #0]
 800176a:	f7ff fedf 	bl	800152c <I2C_WaitOnFlagUntilTimeout>
 800176e:	2800      	cmp	r0, #0
 8001770:	d116      	bne.n	80017a0 <HAL_I2C_Mem_Write+0xf4>
 8001772:	8d63      	ldrh	r3, [r4, #42]	; 0x2a
 8001774:	2bff      	cmp	r3, #255	; 0xff
 8001776:	d817      	bhi.n	80017a8 <HAL_I2C_Mem_Write+0xfc>
 8001778:	2380      	movs	r3, #128	; 0x80
 800177a:	8d62      	ldrh	r2, [r4, #42]	; 0x2a
 800177c:	049b      	lsls	r3, r3, #18
 800177e:	b292      	uxth	r2, r2
 8001780:	8522      	strh	r2, [r4, #40]	; 0x28
 8001782:	b2d2      	uxtb	r2, r2
 8001784:	9000      	str	r0, [sp, #0]
 8001786:	e014      	b.n	80017b2 <HAL_I2C_Mem_Write+0x106>
 8001788:	9a03      	ldr	r2, [sp, #12]
 800178a:	0031      	movs	r1, r6
 800178c:	0a12      	lsrs	r2, r2, #8
 800178e:	629a      	str	r2, [r3, #40]	; 0x28
 8001790:	0020      	movs	r0, r4
 8001792:	002a      	movs	r2, r5
 8001794:	f7ff fea0 	bl	80014d8 <I2C_WaitOnTXISFlagUntilTimeout>
 8001798:	2800      	cmp	r0, #0
 800179a:	d101      	bne.n	80017a0 <HAL_I2C_Mem_Write+0xf4>
 800179c:	6823      	ldr	r3, [r4, #0]
 800179e:	e7dc      	b.n	800175a <HAL_I2C_Mem_Write+0xae>
 80017a0:	2300      	movs	r3, #0
 80017a2:	3440      	adds	r4, #64	; 0x40
 80017a4:	7023      	strb	r3, [r4, #0]
 80017a6:	e79c      	b.n	80016e2 <HAL_I2C_Mem_Write+0x36>
 80017a8:	22ff      	movs	r2, #255	; 0xff
 80017aa:	2380      	movs	r3, #128	; 0x80
 80017ac:	8522      	strh	r2, [r4, #40]	; 0x28
 80017ae:	045b      	lsls	r3, r3, #17
 80017b0:	9000      	str	r0, [sp, #0]
 80017b2:	0039      	movs	r1, r7
 80017b4:	0020      	movs	r0, r4
 80017b6:	f7ff fdf5 	bl	80013a4 <I2C_TransferConfig>
 80017ba:	002a      	movs	r2, r5
 80017bc:	0031      	movs	r1, r6
 80017be:	0020      	movs	r0, r4
 80017c0:	f7ff fe8a 	bl	80014d8 <I2C_WaitOnTXISFlagUntilTimeout>
 80017c4:	2800      	cmp	r0, #0
 80017c6:	d000      	beq.n	80017ca <HAL_I2C_Mem_Write+0x11e>
 80017c8:	e78b      	b.n	80016e2 <HAL_I2C_Mem_Write+0x36>
 80017ca:	6a63      	ldr	r3, [r4, #36]	; 0x24
 80017cc:	6822      	ldr	r2, [r4, #0]
 80017ce:	7819      	ldrb	r1, [r3, #0]
 80017d0:	3301      	adds	r3, #1
 80017d2:	6291      	str	r1, [r2, #40]	; 0x28
 80017d4:	6263      	str	r3, [r4, #36]	; 0x24
 80017d6:	8d63      	ldrh	r3, [r4, #42]	; 0x2a
 80017d8:	8d22      	ldrh	r2, [r4, #40]	; 0x28
 80017da:	3b01      	subs	r3, #1
 80017dc:	b29b      	uxth	r3, r3
 80017de:	8563      	strh	r3, [r4, #42]	; 0x2a
 80017e0:	3a01      	subs	r2, #1
 80017e2:	8d63      	ldrh	r3, [r4, #42]	; 0x2a
 80017e4:	b292      	uxth	r2, r2
 80017e6:	8522      	strh	r2, [r4, #40]	; 0x28
 80017e8:	2b00      	cmp	r3, #0
 80017ea:	d017      	beq.n	800181c <HAL_I2C_Mem_Write+0x170>
 80017ec:	2a00      	cmp	r2, #0
 80017ee:	d115      	bne.n	800181c <HAL_I2C_Mem_Write+0x170>
 80017f0:	0033      	movs	r3, r6
 80017f2:	2180      	movs	r1, #128	; 0x80
 80017f4:	0020      	movs	r0, r4
 80017f6:	9500      	str	r5, [sp, #0]
 80017f8:	f7ff fe98 	bl	800152c <I2C_WaitOnFlagUntilTimeout>
 80017fc:	2800      	cmp	r0, #0
 80017fe:	d000      	beq.n	8001802 <HAL_I2C_Mem_Write+0x156>
 8001800:	e76f      	b.n	80016e2 <HAL_I2C_Mem_Write+0x36>
 8001802:	8d63      	ldrh	r3, [r4, #42]	; 0x2a
 8001804:	2bff      	cmp	r3, #255	; 0xff
 8001806:	d923      	bls.n	8001850 <HAL_I2C_Mem_Write+0x1a4>
 8001808:	23ff      	movs	r3, #255	; 0xff
 800180a:	8523      	strh	r3, [r4, #40]	; 0x28
 800180c:	2380      	movs	r3, #128	; 0x80
 800180e:	22ff      	movs	r2, #255	; 0xff
 8001810:	9000      	str	r0, [sp, #0]
 8001812:	045b      	lsls	r3, r3, #17
 8001814:	0039      	movs	r1, r7
 8001816:	0020      	movs	r0, r4
 8001818:	f7ff fdc4 	bl	80013a4 <I2C_TransferConfig>
 800181c:	8d63      	ldrh	r3, [r4, #42]	; 0x2a
 800181e:	2b00      	cmp	r3, #0
 8001820:	d1cb      	bne.n	80017ba <HAL_I2C_Mem_Write+0x10e>
 8001822:	002a      	movs	r2, r5
 8001824:	0031      	movs	r1, r6
 8001826:	0020      	movs	r0, r4
 8001828:	f7ff fea8 	bl	800157c <I2C_WaitOnSTOPFlagUntilTimeout>
 800182c:	2800      	cmp	r0, #0
 800182e:	d000      	beq.n	8001832 <HAL_I2C_Mem_Write+0x186>
 8001830:	e757      	b.n	80016e2 <HAL_I2C_Mem_Write+0x36>
 8001832:	2120      	movs	r1, #32
 8001834:	6823      	ldr	r3, [r4, #0]
 8001836:	4d0b      	ldr	r5, [pc, #44]	; (8001864 <HAL_I2C_Mem_Write+0x1b8>)
 8001838:	61d9      	str	r1, [r3, #28]
 800183a:	685a      	ldr	r2, [r3, #4]
 800183c:	402a      	ands	r2, r5
 800183e:	605a      	str	r2, [r3, #4]
 8001840:	0023      	movs	r3, r4
 8001842:	3341      	adds	r3, #65	; 0x41
 8001844:	7019      	strb	r1, [r3, #0]
 8001846:	9b07      	ldr	r3, [sp, #28]
 8001848:	3440      	adds	r4, #64	; 0x40
 800184a:	7018      	strb	r0, [r3, #0]
 800184c:	7020      	strb	r0, [r4, #0]
 800184e:	e749      	b.n	80016e4 <HAL_I2C_Mem_Write+0x38>
 8001850:	2380      	movs	r3, #128	; 0x80
 8001852:	8d62      	ldrh	r2, [r4, #42]	; 0x2a
 8001854:	049b      	lsls	r3, r3, #18
 8001856:	b292      	uxth	r2, r2
 8001858:	8522      	strh	r2, [r4, #40]	; 0x28
 800185a:	b2d2      	uxtb	r2, r2
 800185c:	9000      	str	r0, [sp, #0]
 800185e:	e7d9      	b.n	8001814 <HAL_I2C_Mem_Write+0x168>
 8001860:	80002000 	.word	0x80002000
 8001864:	fe00e800 	.word	0xfe00e800

08001868 <HAL_I2C_Mem_Read>:
 8001868:	b5f0      	push	{r4, r5, r6, r7, lr}
 800186a:	b089      	sub	sp, #36	; 0x24
 800186c:	9304      	str	r3, [sp, #16]
 800186e:	ab0e      	add	r3, sp, #56	; 0x38
 8001870:	9203      	str	r2, [sp, #12]
 8001872:	cb04      	ldmia	r3!, {r2}
 8001874:	0004      	movs	r4, r0
 8001876:	881b      	ldrh	r3, [r3, #0]
 8001878:	9205      	str	r2, [sp, #20]
 800187a:	9306      	str	r3, [sp, #24]
 800187c:	0003      	movs	r3, r0
 800187e:	3341      	adds	r3, #65	; 0x41
 8001880:	9307      	str	r3, [sp, #28]
 8001882:	781b      	ldrb	r3, [r3, #0]
 8001884:	000f      	movs	r7, r1
 8001886:	2002      	movs	r0, #2
 8001888:	9e10      	ldr	r6, [sp, #64]	; 0x40
 800188a:	2b20      	cmp	r3, #32
 800188c:	d108      	bne.n	80018a0 <HAL_I2C_Mem_Read+0x38>
 800188e:	2a00      	cmp	r2, #0
 8001890:	d002      	beq.n	8001898 <HAL_I2C_Mem_Read+0x30>
 8001892:	9b06      	ldr	r3, [sp, #24]
 8001894:	2b00      	cmp	r3, #0
 8001896:	d105      	bne.n	80018a4 <HAL_I2C_Mem_Read+0x3c>
 8001898:	2380      	movs	r3, #128	; 0x80
 800189a:	009b      	lsls	r3, r3, #2
 800189c:	6463      	str	r3, [r4, #68]	; 0x44
 800189e:	2001      	movs	r0, #1
 80018a0:	b009      	add	sp, #36	; 0x24
 80018a2:	bdf0      	pop	{r4, r5, r6, r7, pc}
 80018a4:	0023      	movs	r3, r4
 80018a6:	3340      	adds	r3, #64	; 0x40
 80018a8:	781a      	ldrb	r2, [r3, #0]
 80018aa:	2002      	movs	r0, #2
 80018ac:	2a01      	cmp	r2, #1
 80018ae:	d0f7      	beq.n	80018a0 <HAL_I2C_Mem_Read+0x38>
 80018b0:	2201      	movs	r2, #1
 80018b2:	701a      	strb	r2, [r3, #0]
 80018b4:	f7ff fbd0 	bl	8001058 <HAL_GetTick>
 80018b8:	2180      	movs	r1, #128	; 0x80
 80018ba:	2319      	movs	r3, #25
 80018bc:	9000      	str	r0, [sp, #0]
 80018be:	0005      	movs	r5, r0
 80018c0:	2201      	movs	r2, #1
 80018c2:	0020      	movs	r0, r4
 80018c4:	0209      	lsls	r1, r1, #8
 80018c6:	f7ff fe31 	bl	800152c <I2C_WaitOnFlagUntilTimeout>
 80018ca:	1e03      	subs	r3, r0, #0
 80018cc:	d1e7      	bne.n	800189e <HAL_I2C_Mem_Read+0x36>
 80018ce:	2222      	movs	r2, #34	; 0x22
 80018d0:	9907      	ldr	r1, [sp, #28]
 80018d2:	700a      	strb	r2, [r1, #0]
 80018d4:	0022      	movs	r2, r4
 80018d6:	3242      	adds	r2, #66	; 0x42
 80018d8:	9207      	str	r2, [sp, #28]
 80018da:	2240      	movs	r2, #64	; 0x40
 80018dc:	9907      	ldr	r1, [sp, #28]
 80018de:	700a      	strb	r2, [r1, #0]
 80018e0:	9a05      	ldr	r2, [sp, #20]
 80018e2:	6460      	str	r0, [r4, #68]	; 0x44
 80018e4:	6262      	str	r2, [r4, #36]	; 0x24
 80018e6:	9a06      	ldr	r2, [sp, #24]
 80018e8:	494d      	ldr	r1, [pc, #308]	; (8001a20 <HAL_I2C_Mem_Read+0x1b8>)
 80018ea:	8562      	strh	r2, [r4, #42]	; 0x2a
 80018ec:	466a      	mov	r2, sp
 80018ee:	6360      	str	r0, [r4, #52]	; 0x34
 80018f0:	7c12      	ldrb	r2, [r2, #16]
 80018f2:	0020      	movs	r0, r4
 80018f4:	9100      	str	r1, [sp, #0]
 80018f6:	0039      	movs	r1, r7
 80018f8:	f7ff fd54 	bl	80013a4 <I2C_TransferConfig>
 80018fc:	002a      	movs	r2, r5
 80018fe:	0031      	movs	r1, r6
 8001900:	0020      	movs	r0, r4
 8001902:	f7ff fde9 	bl	80014d8 <I2C_WaitOnTXISFlagUntilTimeout>
 8001906:	2800      	cmp	r0, #0
 8001908:	d127      	bne.n	800195a <HAL_I2C_Mem_Read+0xf2>
 800190a:	9a04      	ldr	r2, [sp, #16]
 800190c:	6823      	ldr	r3, [r4, #0]
 800190e:	2a01      	cmp	r2, #1
 8001910:	d117      	bne.n	8001942 <HAL_I2C_Mem_Read+0xda>
 8001912:	466a      	mov	r2, sp
 8001914:	7b12      	ldrb	r2, [r2, #12]
 8001916:	2140      	movs	r1, #64	; 0x40
 8001918:	629a      	str	r2, [r3, #40]	; 0x28
 800191a:	0020      	movs	r0, r4
 800191c:	0033      	movs	r3, r6
 800191e:	2200      	movs	r2, #0
 8001920:	9500      	str	r5, [sp, #0]
 8001922:	f7ff fe03 	bl	800152c <I2C_WaitOnFlagUntilTimeout>
 8001926:	2800      	cmp	r0, #0
 8001928:	d117      	bne.n	800195a <HAL_I2C_Mem_Read+0xf2>
 800192a:	8d62      	ldrh	r2, [r4, #42]	; 0x2a
 800192c:	4b3d      	ldr	r3, [pc, #244]	; (8001a24 <HAL_I2C_Mem_Read+0x1bc>)
 800192e:	2aff      	cmp	r2, #255	; 0xff
 8001930:	d817      	bhi.n	8001962 <HAL_I2C_Mem_Read+0xfa>
 8001932:	8d62      	ldrh	r2, [r4, #42]	; 0x2a
 8001934:	b292      	uxth	r2, r2
 8001936:	8522      	strh	r2, [r4, #40]	; 0x28
 8001938:	9300      	str	r3, [sp, #0]
 800193a:	2380      	movs	r3, #128	; 0x80
 800193c:	b2d2      	uxtb	r2, r2
 800193e:	049b      	lsls	r3, r3, #18
 8001940:	e014      	b.n	800196c <HAL_I2C_Mem_Read+0x104>
 8001942:	9a03      	ldr	r2, [sp, #12]
 8001944:	0031      	movs	r1, r6
 8001946:	0a12      	lsrs	r2, r2, #8
 8001948:	629a      	str	r2, [r3, #40]	; 0x28
 800194a:	0020      	movs	r0, r4
 800194c:	002a      	movs	r2, r5
 800194e:	f7ff fdc3 	bl	80014d8 <I2C_WaitOnTXISFlagUntilTimeout>
 8001952:	2800      	cmp	r0, #0
 8001954:	d101      	bne.n	800195a <HAL_I2C_Mem_Read+0xf2>
 8001956:	6823      	ldr	r3, [r4, #0]
 8001958:	e7db      	b.n	8001912 <HAL_I2C_Mem_Read+0xaa>
 800195a:	2300      	movs	r3, #0
 800195c:	3440      	adds	r4, #64	; 0x40
 800195e:	7023      	strb	r3, [r4, #0]
 8001960:	e79d      	b.n	800189e <HAL_I2C_Mem_Read+0x36>
 8001962:	22ff      	movs	r2, #255	; 0xff
 8001964:	8522      	strh	r2, [r4, #40]	; 0x28
 8001966:	9300      	str	r3, [sp, #0]
 8001968:	2380      	movs	r3, #128	; 0x80
 800196a:	045b      	lsls	r3, r3, #17
 800196c:	0039      	movs	r1, r7
 800196e:	0020      	movs	r0, r4
 8001970:	f7ff fd18 	bl	80013a4 <I2C_TransferConfig>
 8001974:	0033      	movs	r3, r6
 8001976:	2200      	movs	r2, #0
 8001978:	2104      	movs	r1, #4
 800197a:	0020      	movs	r0, r4
 800197c:	9500      	str	r5, [sp, #0]
 800197e:	f7ff fdd5 	bl	800152c <I2C_WaitOnFlagUntilTimeout>
 8001982:	2800      	cmp	r0, #0
 8001984:	d000      	beq.n	8001988 <HAL_I2C_Mem_Read+0x120>
 8001986:	e78a      	b.n	800189e <HAL_I2C_Mem_Read+0x36>
 8001988:	6823      	ldr	r3, [r4, #0]
 800198a:	6a62      	ldr	r2, [r4, #36]	; 0x24
 800198c:	6a5b      	ldr	r3, [r3, #36]	; 0x24
 800198e:	7013      	strb	r3, [r2, #0]
 8001990:	6a63      	ldr	r3, [r4, #36]	; 0x24
 8001992:	8d22      	ldrh	r2, [r4, #40]	; 0x28
 8001994:	3301      	adds	r3, #1
 8001996:	6263      	str	r3, [r4, #36]	; 0x24
 8001998:	8d63      	ldrh	r3, [r4, #42]	; 0x2a
 800199a:	3a01      	subs	r2, #1
 800199c:	3b01      	subs	r3, #1
 800199e:	b29b      	uxth	r3, r3
 80019a0:	8563      	strh	r3, [r4, #42]	; 0x2a
 80019a2:	8d63      	ldrh	r3, [r4, #42]	; 0x2a
 80019a4:	b292      	uxth	r2, r2
 80019a6:	8522      	strh	r2, [r4, #40]	; 0x28
 80019a8:	2b00      	cmp	r3, #0
 80019aa:	d017      	beq.n	80019dc <HAL_I2C_Mem_Read+0x174>
 80019ac:	2a00      	cmp	r2, #0
 80019ae:	d115      	bne.n	80019dc <HAL_I2C_Mem_Read+0x174>
 80019b0:	0033      	movs	r3, r6
 80019b2:	2180      	movs	r1, #128	; 0x80
 80019b4:	0020      	movs	r0, r4
 80019b6:	9500      	str	r5, [sp, #0]
 80019b8:	f7ff fdb8 	bl	800152c <I2C_WaitOnFlagUntilTimeout>
 80019bc:	2800      	cmp	r0, #0
 80019be:	d000      	beq.n	80019c2 <HAL_I2C_Mem_Read+0x15a>
 80019c0:	e76d      	b.n	800189e <HAL_I2C_Mem_Read+0x36>
 80019c2:	8d63      	ldrh	r3, [r4, #42]	; 0x2a
 80019c4:	2bff      	cmp	r3, #255	; 0xff
 80019c6:	d923      	bls.n	8001a10 <HAL_I2C_Mem_Read+0x1a8>
 80019c8:	23ff      	movs	r3, #255	; 0xff
 80019ca:	8523      	strh	r3, [r4, #40]	; 0x28
 80019cc:	2380      	movs	r3, #128	; 0x80
 80019ce:	22ff      	movs	r2, #255	; 0xff
 80019d0:	9000      	str	r0, [sp, #0]
 80019d2:	045b      	lsls	r3, r3, #17
 80019d4:	0039      	movs	r1, r7
 80019d6:	0020      	movs	r0, r4
 80019d8:	f7ff fce4 	bl	80013a4 <I2C_TransferConfig>
 80019dc:	8d63      	ldrh	r3, [r4, #42]	; 0x2a
 80019de:	2b00      	cmp	r3, #0
 80019e0:	d1c8      	bne.n	8001974 <HAL_I2C_Mem_Read+0x10c>
 80019e2:	002a      	movs	r2, r5
 80019e4:	0031      	movs	r1, r6
 80019e6:	0020      	movs	r0, r4
 80019e8:	f7ff fdc8 	bl	800157c <I2C_WaitOnSTOPFlagUntilTimeout>
 80019ec:	2800      	cmp	r0, #0
 80019ee:	d000      	beq.n	80019f2 <HAL_I2C_Mem_Read+0x18a>
 80019f0:	e755      	b.n	800189e <HAL_I2C_Mem_Read+0x36>
 80019f2:	2120      	movs	r1, #32
 80019f4:	6823      	ldr	r3, [r4, #0]
 80019f6:	4d0c      	ldr	r5, [pc, #48]	; (8001a28 <HAL_I2C_Mem_Read+0x1c0>)
 80019f8:	61d9      	str	r1, [r3, #28]
 80019fa:	685a      	ldr	r2, [r3, #4]
 80019fc:	402a      	ands	r2, r5
 80019fe:	605a      	str	r2, [r3, #4]
 8001a00:	0023      	movs	r3, r4
 8001a02:	3341      	adds	r3, #65	; 0x41
 8001a04:	7019      	strb	r1, [r3, #0]
 8001a06:	9b07      	ldr	r3, [sp, #28]
 8001a08:	3440      	adds	r4, #64	; 0x40
 8001a0a:	7018      	strb	r0, [r3, #0]
 8001a0c:	7020      	strb	r0, [r4, #0]
 8001a0e:	e747      	b.n	80018a0 <HAL_I2C_Mem_Read+0x38>
 8001a10:	2380      	movs	r3, #128	; 0x80
 8001a12:	8d62      	ldrh	r2, [r4, #42]	; 0x2a
 8001a14:	049b      	lsls	r3, r3, #18
 8001a16:	b292      	uxth	r2, r2
 8001a18:	8522      	strh	r2, [r4, #40]	; 0x28
 8001a1a:	b2d2      	uxtb	r2, r2
 8001a1c:	9000      	str	r0, [sp, #0]
 8001a1e:	e7d9      	b.n	80019d4 <HAL_I2C_Mem_Read+0x16c>
 8001a20:	80002000 	.word	0x80002000
 8001a24:	80002400 	.word	0x80002400
 8001a28:	fe00e800 	.word	0xfe00e800

08001a2c <HAL_I2CEx_ConfigAnalogFilter>:
 8001a2c:	b5f0      	push	{r4, r5, r6, r7, lr}
 8001a2e:	0004      	movs	r4, r0
 8001a30:	3441      	adds	r4, #65	; 0x41
 8001a32:	7822      	ldrb	r2, [r4, #0]
 8001a34:	0003      	movs	r3, r0
 8001a36:	000f      	movs	r7, r1
 8001a38:	2002      	movs	r0, #2
 8001a3a:	b2d6      	uxtb	r6, r2
 8001a3c:	2a20      	cmp	r2, #32
 8001a3e:	d118      	bne.n	8001a72 <HAL_I2CEx_ConfigAnalogFilter+0x46>
 8001a40:	001d      	movs	r5, r3
 8001a42:	3540      	adds	r5, #64	; 0x40
 8001a44:	782a      	ldrb	r2, [r5, #0]
 8001a46:	2a01      	cmp	r2, #1
 8001a48:	d013      	beq.n	8001a72 <HAL_I2CEx_ConfigAnalogFilter+0x46>
 8001a4a:	2224      	movs	r2, #36	; 0x24
 8001a4c:	7022      	strb	r2, [r4, #0]
 8001a4e:	681b      	ldr	r3, [r3, #0]
 8001a50:	3a23      	subs	r2, #35	; 0x23
 8001a52:	6819      	ldr	r1, [r3, #0]
 8001a54:	4807      	ldr	r0, [pc, #28]	; (8001a74 <HAL_I2CEx_ConfigAnalogFilter+0x48>)
 8001a56:	4391      	bics	r1, r2
 8001a58:	6019      	str	r1, [r3, #0]
 8001a5a:	6819      	ldr	r1, [r3, #0]
 8001a5c:	4001      	ands	r1, r0
 8001a5e:	2000      	movs	r0, #0
 8001a60:	6019      	str	r1, [r3, #0]
 8001a62:	6819      	ldr	r1, [r3, #0]
 8001a64:	4339      	orrs	r1, r7
 8001a66:	6019      	str	r1, [r3, #0]
 8001a68:	6819      	ldr	r1, [r3, #0]
 8001a6a:	430a      	orrs	r2, r1
 8001a6c:	601a      	str	r2, [r3, #0]
 8001a6e:	7026      	strb	r6, [r4, #0]
 8001a70:	7028      	strb	r0, [r5, #0]
 8001a72:	bdf0      	pop	{r4, r5, r6, r7, pc}
 8001a74:	ffffefff 	.word	0xffffefff

08001a78 <HAL_I2CEx_ConfigDigitalFilter>:
 8001a78:	0002      	movs	r2, r0
 8001a7a:	b5f0      	push	{r4, r5, r6, r7, lr}
 8001a7c:	3241      	adds	r2, #65	; 0x41
 8001a7e:	7814      	ldrb	r4, [r2, #0]
 8001a80:	0003      	movs	r3, r0
 8001a82:	b2e5      	uxtb	r5, r4
 8001a84:	2002      	movs	r0, #2
 8001a86:	2c20      	cmp	r4, #32
 8001a88:	d117      	bne.n	8001aba <HAL_I2CEx_ConfigDigitalFilter+0x42>
 8001a8a:	001c      	movs	r4, r3
 8001a8c:	3440      	adds	r4, #64	; 0x40
 8001a8e:	7826      	ldrb	r6, [r4, #0]
 8001a90:	2e01      	cmp	r6, #1
 8001a92:	d012      	beq.n	8001aba <HAL_I2CEx_ConfigDigitalFilter+0x42>
 8001a94:	3022      	adds	r0, #34	; 0x22
 8001a96:	7010      	strb	r0, [r2, #0]
 8001a98:	681b      	ldr	r3, [r3, #0]
 8001a9a:	3823      	subs	r0, #35	; 0x23
 8001a9c:	681e      	ldr	r6, [r3, #0]
 8001a9e:	4f07      	ldr	r7, [pc, #28]	; (8001abc <HAL_I2CEx_ConfigDigitalFilter+0x44>)
 8001aa0:	4386      	bics	r6, r0
 8001aa2:	601e      	str	r6, [r3, #0]
 8001aa4:	681e      	ldr	r6, [r3, #0]
 8001aa6:	0209      	lsls	r1, r1, #8
 8001aa8:	403e      	ands	r6, r7
 8001aaa:	4331      	orrs	r1, r6
 8001aac:	6019      	str	r1, [r3, #0]
 8001aae:	6819      	ldr	r1, [r3, #0]
 8001ab0:	4308      	orrs	r0, r1
 8001ab2:	6018      	str	r0, [r3, #0]
 8001ab4:	2000      	movs	r0, #0
 8001ab6:	7015      	strb	r5, [r2, #0]
 8001ab8:	7020      	strb	r0, [r4, #0]
 8001aba:	bdf0      	pop	{r4, r5, r6, r7, pc}
 8001abc:	fffff0ff 	.word	0xfffff0ff

08001ac0 <HAL_PWREx_ControlVoltageScaling>:
 8001ac0:	b510      	push	{r4, lr}
 8001ac2:	4c11      	ldr	r4, [pc, #68]	; (8001b08 <HAL_PWREx_ControlVoltageScaling+0x48>)
 8001ac4:	4911      	ldr	r1, [pc, #68]	; (8001b0c <HAL_PWREx_ControlVoltageScaling+0x4c>)
 8001ac6:	6823      	ldr	r3, [r4, #0]
 8001ac8:	0002      	movs	r2, r0
 8001aca:	400b      	ands	r3, r1
 8001acc:	4303      	orrs	r3, r0
 8001ace:	6023      	str	r3, [r4, #0]
 8001ad0:	2380      	movs	r3, #128	; 0x80
 8001ad2:	2000      	movs	r0, #0
 8001ad4:	009b      	lsls	r3, r3, #2
 8001ad6:	429a      	cmp	r2, r3
 8001ad8:	d10e      	bne.n	8001af8 <HAL_PWREx_ControlVoltageScaling+0x38>
 8001ada:	4b0d      	ldr	r3, [pc, #52]	; (8001b10 <HAL_PWREx_ControlVoltageScaling+0x50>)
 8001adc:	490d      	ldr	r1, [pc, #52]	; (8001b14 <HAL_PWREx_ControlVoltageScaling+0x54>)
 8001ade:	6818      	ldr	r0, [r3, #0]
 8001ae0:	2306      	movs	r3, #6
 8001ae2:	4358      	muls	r0, r3
 8001ae4:	f7fe fb22 	bl	800012c <__udivsi3>
 8001ae8:	2280      	movs	r2, #128	; 0x80
 8001aea:	1c43      	adds	r3, r0, #1
 8001aec:	00d2      	lsls	r2, r2, #3
 8001aee:	6961      	ldr	r1, [r4, #20]
 8001af0:	0008      	movs	r0, r1
 8001af2:	4010      	ands	r0, r2
 8001af4:	4211      	tst	r1, r2
 8001af6:	d100      	bne.n	8001afa <HAL_PWREx_ControlVoltageScaling+0x3a>
 8001af8:	bd10      	pop	{r4, pc}
 8001afa:	2b00      	cmp	r3, #0
 8001afc:	d001      	beq.n	8001b02 <HAL_PWREx_ControlVoltageScaling+0x42>
 8001afe:	3b01      	subs	r3, #1
 8001b00:	e7f5      	b.n	8001aee <HAL_PWREx_ControlVoltageScaling+0x2e>
 8001b02:	2003      	movs	r0, #3
 8001b04:	e7f8      	b.n	8001af8 <HAL_PWREx_ControlVoltageScaling+0x38>
 8001b06:	46c0      	nop			; (mov r8, r8)
 8001b08:	40007000 	.word	0x40007000
 8001b0c:	fffff9ff 	.word	0xfffff9ff
 8001b10:	20000000 	.word	0x20000000
 8001b14:	000f4240 	.word	0x000f4240

08001b18 <HAL_RCC_OscConfig>:
 8001b18:	b5f0      	push	{r4, r5, r6, r7, lr}
 8001b1a:	0004      	movs	r4, r0
 8001b1c:	b085      	sub	sp, #20
 8001b1e:	2800      	cmp	r0, #0
 8001b20:	d027      	beq.n	8001b72 <HAL_RCC_OscConfig+0x5a>
 8001b22:	6803      	ldr	r3, [r0, #0]
 8001b24:	07db      	lsls	r3, r3, #31
 8001b26:	d414      	bmi.n	8001b52 <HAL_RCC_OscConfig+0x3a>
 8001b28:	6823      	ldr	r3, [r4, #0]
 8001b2a:	079b      	lsls	r3, r3, #30
 8001b2c:	d462      	bmi.n	8001bf4 <HAL_RCC_OscConfig+0xdc>
 8001b2e:	6823      	ldr	r3, [r4, #0]
 8001b30:	071b      	lsls	r3, r3, #28
 8001b32:	d500      	bpl.n	8001b36 <HAL_RCC_OscConfig+0x1e>
 8001b34:	e0c7      	b.n	8001cc6 <HAL_RCC_OscConfig+0x1ae>
 8001b36:	6823      	ldr	r3, [r4, #0]
 8001b38:	075b      	lsls	r3, r3, #29
 8001b3a:	d500      	bpl.n	8001b3e <HAL_RCC_OscConfig+0x26>
 8001b3c:	e0f8      	b.n	8001d30 <HAL_RCC_OscConfig+0x218>
 8001b3e:	6823      	ldr	r3, [r4, #0]
 8001b40:	069b      	lsls	r3, r3, #26
 8001b42:	d500      	bpl.n	8001b46 <HAL_RCC_OscConfig+0x2e>
 8001b44:	e166      	b.n	8001e14 <HAL_RCC_OscConfig+0x2fc>
 8001b46:	6a23      	ldr	r3, [r4, #32]
 8001b48:	2b00      	cmp	r3, #0
 8001b4a:	d000      	beq.n	8001b4e <HAL_RCC_OscConfig+0x36>
 8001b4c:	e1a5      	b.n	8001e9a <HAL_RCC_OscConfig+0x382>
 8001b4e:	2000      	movs	r0, #0
 8001b50:	e029      	b.n	8001ba6 <HAL_RCC_OscConfig+0x8e>
 8001b52:	2238      	movs	r2, #56	; 0x38
 8001b54:	4dbb      	ldr	r5, [pc, #748]	; (8001e44 <HAL_RCC_OscConfig+0x32c>)
 8001b56:	68ab      	ldr	r3, [r5, #8]
 8001b58:	4013      	ands	r3, r2
 8001b5a:	68ea      	ldr	r2, [r5, #12]
 8001b5c:	2b10      	cmp	r3, #16
 8001b5e:	d10a      	bne.n	8001b76 <HAL_RCC_OscConfig+0x5e>
 8001b60:	43d2      	mvns	r2, r2
 8001b62:	0793      	lsls	r3, r2, #30
 8001b64:	d109      	bne.n	8001b7a <HAL_RCC_OscConfig+0x62>
 8001b66:	682b      	ldr	r3, [r5, #0]
 8001b68:	039b      	lsls	r3, r3, #14
 8001b6a:	d5dd      	bpl.n	8001b28 <HAL_RCC_OscConfig+0x10>
 8001b6c:	6863      	ldr	r3, [r4, #4]
 8001b6e:	2b00      	cmp	r3, #0
 8001b70:	d1da      	bne.n	8001b28 <HAL_RCC_OscConfig+0x10>
 8001b72:	2001      	movs	r0, #1
 8001b74:	e017      	b.n	8001ba6 <HAL_RCC_OscConfig+0x8e>
 8001b76:	2b08      	cmp	r3, #8
 8001b78:	d0f5      	beq.n	8001b66 <HAL_RCC_OscConfig+0x4e>
 8001b7a:	2280      	movs	r2, #128	; 0x80
 8001b7c:	6863      	ldr	r3, [r4, #4]
 8001b7e:	0252      	lsls	r2, r2, #9
 8001b80:	4293      	cmp	r3, r2
 8001b82:	d112      	bne.n	8001baa <HAL_RCC_OscConfig+0x92>
 8001b84:	682a      	ldr	r2, [r5, #0]
 8001b86:	4313      	orrs	r3, r2
 8001b88:	602b      	str	r3, [r5, #0]
 8001b8a:	f7ff fa65 	bl	8001058 <HAL_GetTick>
 8001b8e:	2780      	movs	r7, #128	; 0x80
 8001b90:	0006      	movs	r6, r0
 8001b92:	02bf      	lsls	r7, r7, #10
 8001b94:	682b      	ldr	r3, [r5, #0]
 8001b96:	423b      	tst	r3, r7
 8001b98:	d1c6      	bne.n	8001b28 <HAL_RCC_OscConfig+0x10>
 8001b9a:	f7ff fa5d 	bl	8001058 <HAL_GetTick>
 8001b9e:	1b80      	subs	r0, r0, r6
 8001ba0:	2864      	cmp	r0, #100	; 0x64
 8001ba2:	d9f7      	bls.n	8001b94 <HAL_RCC_OscConfig+0x7c>
 8001ba4:	2003      	movs	r0, #3
 8001ba6:	b005      	add	sp, #20
 8001ba8:	bdf0      	pop	{r4, r5, r6, r7, pc}
 8001baa:	21a0      	movs	r1, #160	; 0xa0
 8001bac:	02c9      	lsls	r1, r1, #11
 8001bae:	428b      	cmp	r3, r1
 8001bb0:	d108      	bne.n	8001bc4 <HAL_RCC_OscConfig+0xac>
 8001bb2:	2380      	movs	r3, #128	; 0x80
 8001bb4:	6829      	ldr	r1, [r5, #0]
 8001bb6:	02db      	lsls	r3, r3, #11
 8001bb8:	430b      	orrs	r3, r1
 8001bba:	602b      	str	r3, [r5, #0]
 8001bbc:	682b      	ldr	r3, [r5, #0]
 8001bbe:	431a      	orrs	r2, r3
 8001bc0:	602a      	str	r2, [r5, #0]
 8001bc2:	e7e2      	b.n	8001b8a <HAL_RCC_OscConfig+0x72>
 8001bc4:	682a      	ldr	r2, [r5, #0]
 8001bc6:	49a0      	ldr	r1, [pc, #640]	; (8001e48 <HAL_RCC_OscConfig+0x330>)
 8001bc8:	400a      	ands	r2, r1
 8001bca:	602a      	str	r2, [r5, #0]
 8001bcc:	682a      	ldr	r2, [r5, #0]
 8001bce:	499f      	ldr	r1, [pc, #636]	; (8001e4c <HAL_RCC_OscConfig+0x334>)
 8001bd0:	400a      	ands	r2, r1
 8001bd2:	602a      	str	r2, [r5, #0]
 8001bd4:	2b00      	cmp	r3, #0
 8001bd6:	d1d8      	bne.n	8001b8a <HAL_RCC_OscConfig+0x72>
 8001bd8:	f7ff fa3e 	bl	8001058 <HAL_GetTick>
 8001bdc:	2780      	movs	r7, #128	; 0x80
 8001bde:	0006      	movs	r6, r0
 8001be0:	02bf      	lsls	r7, r7, #10
 8001be2:	682b      	ldr	r3, [r5, #0]
 8001be4:	423b      	tst	r3, r7
 8001be6:	d09f      	beq.n	8001b28 <HAL_RCC_OscConfig+0x10>
 8001be8:	f7ff fa36 	bl	8001058 <HAL_GetTick>
 8001bec:	1b80      	subs	r0, r0, r6
 8001bee:	2864      	cmp	r0, #100	; 0x64
 8001bf0:	d9f7      	bls.n	8001be2 <HAL_RCC_OscConfig+0xca>
 8001bf2:	e7d7      	b.n	8001ba4 <HAL_RCC_OscConfig+0x8c>
 8001bf4:	2338      	movs	r3, #56	; 0x38
 8001bf6:	4d93      	ldr	r5, [pc, #588]	; (8001e44 <HAL_RCC_OscConfig+0x32c>)
 8001bf8:	68aa      	ldr	r2, [r5, #8]
 8001bfa:	4013      	ands	r3, r2
 8001bfc:	68ea      	ldr	r2, [r5, #12]
 8001bfe:	2b10      	cmp	r3, #16
 8001c00:	d128      	bne.n	8001c54 <HAL_RCC_OscConfig+0x13c>
 8001c02:	2103      	movs	r1, #3
 8001c04:	400a      	ands	r2, r1
 8001c06:	2a02      	cmp	r2, #2
 8001c08:	d126      	bne.n	8001c58 <HAL_RCC_OscConfig+0x140>
 8001c0a:	682a      	ldr	r2, [r5, #0]
 8001c0c:	0552      	lsls	r2, r2, #21
 8001c0e:	d502      	bpl.n	8001c16 <HAL_RCC_OscConfig+0xfe>
 8001c10:	68e2      	ldr	r2, [r4, #12]
 8001c12:	2a00      	cmp	r2, #0
 8001c14:	d0ad      	beq.n	8001b72 <HAL_RCC_OscConfig+0x5a>
 8001c16:	6869      	ldr	r1, [r5, #4]
 8001c18:	6962      	ldr	r2, [r4, #20]
 8001c1a:	488d      	ldr	r0, [pc, #564]	; (8001e50 <HAL_RCC_OscConfig+0x338>)
 8001c1c:	0212      	lsls	r2, r2, #8
 8001c1e:	4001      	ands	r1, r0
 8001c20:	430a      	orrs	r2, r1
 8001c22:	606a      	str	r2, [r5, #4]
 8001c24:	2b00      	cmp	r3, #0
 8001c26:	d10d      	bne.n	8001c44 <HAL_RCC_OscConfig+0x12c>
 8001c28:	682b      	ldr	r3, [r5, #0]
 8001c2a:	4a8a      	ldr	r2, [pc, #552]	; (8001e54 <HAL_RCC_OscConfig+0x33c>)
 8001c2c:	4013      	ands	r3, r2
 8001c2e:	6922      	ldr	r2, [r4, #16]
 8001c30:	4313      	orrs	r3, r2
 8001c32:	602b      	str	r3, [r5, #0]
 8001c34:	682b      	ldr	r3, [r5, #0]
 8001c36:	4a88      	ldr	r2, [pc, #544]	; (8001e58 <HAL_RCC_OscConfig+0x340>)
 8001c38:	049b      	lsls	r3, r3, #18
 8001c3a:	0f5b      	lsrs	r3, r3, #29
 8001c3c:	40da      	lsrs	r2, r3
 8001c3e:	0013      	movs	r3, r2
 8001c40:	4a86      	ldr	r2, [pc, #536]	; (8001e5c <HAL_RCC_OscConfig+0x344>)
 8001c42:	6013      	str	r3, [r2, #0]
 8001c44:	4b86      	ldr	r3, [pc, #536]	; (8001e60 <HAL_RCC_OscConfig+0x348>)
 8001c46:	6818      	ldr	r0, [r3, #0]
 8001c48:	f7ff f9be 	bl	8000fc8 <HAL_InitTick>
 8001c4c:	2800      	cmp	r0, #0
 8001c4e:	d100      	bne.n	8001c52 <HAL_RCC_OscConfig+0x13a>
 8001c50:	e76d      	b.n	8001b2e <HAL_RCC_OscConfig+0x16>
 8001c52:	e78e      	b.n	8001b72 <HAL_RCC_OscConfig+0x5a>
 8001c54:	2b00      	cmp	r3, #0
 8001c56:	d0d8      	beq.n	8001c0a <HAL_RCC_OscConfig+0xf2>
 8001c58:	68e3      	ldr	r3, [r4, #12]
 8001c5a:	2b00      	cmp	r3, #0
 8001c5c:	d020      	beq.n	8001ca0 <HAL_RCC_OscConfig+0x188>
 8001c5e:	682b      	ldr	r3, [r5, #0]
 8001c60:	4a7c      	ldr	r2, [pc, #496]	; (8001e54 <HAL_RCC_OscConfig+0x33c>)
 8001c62:	2780      	movs	r7, #128	; 0x80
 8001c64:	4013      	ands	r3, r2
 8001c66:	6922      	ldr	r2, [r4, #16]
 8001c68:	00ff      	lsls	r7, r7, #3
 8001c6a:	4313      	orrs	r3, r2
 8001c6c:	602b      	str	r3, [r5, #0]
 8001c6e:	2380      	movs	r3, #128	; 0x80
 8001c70:	682a      	ldr	r2, [r5, #0]
 8001c72:	005b      	lsls	r3, r3, #1
 8001c74:	4313      	orrs	r3, r2
 8001c76:	602b      	str	r3, [r5, #0]
 8001c78:	f7ff f9ee 	bl	8001058 <HAL_GetTick>
 8001c7c:	0006      	movs	r6, r0
 8001c7e:	682b      	ldr	r3, [r5, #0]
 8001c80:	423b      	tst	r3, r7
 8001c82:	d007      	beq.n	8001c94 <HAL_RCC_OscConfig+0x17c>
 8001c84:	686a      	ldr	r2, [r5, #4]
 8001c86:	6963      	ldr	r3, [r4, #20]
 8001c88:	4971      	ldr	r1, [pc, #452]	; (8001e50 <HAL_RCC_OscConfig+0x338>)
 8001c8a:	021b      	lsls	r3, r3, #8
 8001c8c:	400a      	ands	r2, r1
 8001c8e:	4313      	orrs	r3, r2
 8001c90:	606b      	str	r3, [r5, #4]
 8001c92:	e74c      	b.n	8001b2e <HAL_RCC_OscConfig+0x16>
 8001c94:	f7ff f9e0 	bl	8001058 <HAL_GetTick>
 8001c98:	1b80      	subs	r0, r0, r6
 8001c9a:	2802      	cmp	r0, #2
 8001c9c:	d9ef      	bls.n	8001c7e <HAL_RCC_OscConfig+0x166>
 8001c9e:	e781      	b.n	8001ba4 <HAL_RCC_OscConfig+0x8c>
 8001ca0:	682b      	ldr	r3, [r5, #0]
 8001ca2:	4a70      	ldr	r2, [pc, #448]	; (8001e64 <HAL_RCC_OscConfig+0x34c>)
 8001ca4:	2780      	movs	r7, #128	; 0x80
 8001ca6:	4013      	ands	r3, r2
 8001ca8:	602b      	str	r3, [r5, #0]
 8001caa:	f7ff f9d5 	bl	8001058 <HAL_GetTick>
 8001cae:	0006      	movs	r6, r0
 8001cb0:	00ff      	lsls	r7, r7, #3
 8001cb2:	682b      	ldr	r3, [r5, #0]
 8001cb4:	423b      	tst	r3, r7
 8001cb6:	d100      	bne.n	8001cba <HAL_RCC_OscConfig+0x1a2>
 8001cb8:	e739      	b.n	8001b2e <HAL_RCC_OscConfig+0x16>
 8001cba:	f7ff f9cd 	bl	8001058 <HAL_GetTick>
 8001cbe:	1b80      	subs	r0, r0, r6
 8001cc0:	2802      	cmp	r0, #2
 8001cc2:	d9f6      	bls.n	8001cb2 <HAL_RCC_OscConfig+0x19a>
 8001cc4:	e76e      	b.n	8001ba4 <HAL_RCC_OscConfig+0x8c>
 8001cc6:	2238      	movs	r2, #56	; 0x38
 8001cc8:	4d5e      	ldr	r5, [pc, #376]	; (8001e44 <HAL_RCC_OscConfig+0x32c>)
 8001cca:	68ab      	ldr	r3, [r5, #8]
 8001ccc:	4013      	ands	r3, r2
 8001cce:	2b18      	cmp	r3, #24
 8001cd0:	d108      	bne.n	8001ce4 <HAL_RCC_OscConfig+0x1cc>
 8001cd2:	6e2b      	ldr	r3, [r5, #96]	; 0x60
 8001cd4:	079b      	lsls	r3, r3, #30
 8001cd6:	d400      	bmi.n	8001cda <HAL_RCC_OscConfig+0x1c2>
 8001cd8:	e72d      	b.n	8001b36 <HAL_RCC_OscConfig+0x1e>
 8001cda:	69a3      	ldr	r3, [r4, #24]
 8001cdc:	2b00      	cmp	r3, #0
 8001cde:	d000      	beq.n	8001ce2 <HAL_RCC_OscConfig+0x1ca>
 8001ce0:	e729      	b.n	8001b36 <HAL_RCC_OscConfig+0x1e>
 8001ce2:	e746      	b.n	8001b72 <HAL_RCC_OscConfig+0x5a>
 8001ce4:	69a2      	ldr	r2, [r4, #24]
 8001ce6:	2301      	movs	r3, #1
 8001ce8:	2a00      	cmp	r2, #0
 8001cea:	d010      	beq.n	8001d0e <HAL_RCC_OscConfig+0x1f6>
 8001cec:	6e2a      	ldr	r2, [r5, #96]	; 0x60
 8001cee:	2702      	movs	r7, #2
 8001cf0:	4313      	orrs	r3, r2
 8001cf2:	662b      	str	r3, [r5, #96]	; 0x60
 8001cf4:	f7ff f9b0 	bl	8001058 <HAL_GetTick>
 8001cf8:	0006      	movs	r6, r0
 8001cfa:	6e2b      	ldr	r3, [r5, #96]	; 0x60
 8001cfc:	423b      	tst	r3, r7
 8001cfe:	d000      	beq.n	8001d02 <HAL_RCC_OscConfig+0x1ea>
 8001d00:	e719      	b.n	8001b36 <HAL_RCC_OscConfig+0x1e>
 8001d02:	f7ff f9a9 	bl	8001058 <HAL_GetTick>
 8001d06:	1b80      	subs	r0, r0, r6
 8001d08:	2802      	cmp	r0, #2
 8001d0a:	d9f6      	bls.n	8001cfa <HAL_RCC_OscConfig+0x1e2>
 8001d0c:	e74a      	b.n	8001ba4 <HAL_RCC_OscConfig+0x8c>
 8001d0e:	6e2a      	ldr	r2, [r5, #96]	; 0x60
 8001d10:	2702      	movs	r7, #2
 8001d12:	439a      	bics	r2, r3
 8001d14:	662a      	str	r2, [r5, #96]	; 0x60
 8001d16:	f7ff f99f 	bl	8001058 <HAL_GetTick>
 8001d1a:	0006      	movs	r6, r0
 8001d1c:	6e2b      	ldr	r3, [r5, #96]	; 0x60
 8001d1e:	423b      	tst	r3, r7
 8001d20:	d100      	bne.n	8001d24 <HAL_RCC_OscConfig+0x20c>
 8001d22:	e708      	b.n	8001b36 <HAL_RCC_OscConfig+0x1e>
 8001d24:	f7ff f998 	bl	8001058 <HAL_GetTick>
 8001d28:	1b80      	subs	r0, r0, r6
 8001d2a:	2802      	cmp	r0, #2
 8001d2c:	d9f6      	bls.n	8001d1c <HAL_RCC_OscConfig+0x204>
 8001d2e:	e739      	b.n	8001ba4 <HAL_RCC_OscConfig+0x8c>
 8001d30:	2238      	movs	r2, #56	; 0x38
 8001d32:	4d44      	ldr	r5, [pc, #272]	; (8001e44 <HAL_RCC_OscConfig+0x32c>)
 8001d34:	68ab      	ldr	r3, [r5, #8]
 8001d36:	4013      	ands	r3, r2
 8001d38:	2b20      	cmp	r3, #32
 8001d3a:	d108      	bne.n	8001d4e <HAL_RCC_OscConfig+0x236>
 8001d3c:	6deb      	ldr	r3, [r5, #92]	; 0x5c
 8001d3e:	079b      	lsls	r3, r3, #30
 8001d40:	d400      	bmi.n	8001d44 <HAL_RCC_OscConfig+0x22c>
 8001d42:	e6fc      	b.n	8001b3e <HAL_RCC_OscConfig+0x26>
 8001d44:	68a3      	ldr	r3, [r4, #8]
 8001d46:	2b00      	cmp	r3, #0
 8001d48:	d000      	beq.n	8001d4c <HAL_RCC_OscConfig+0x234>
 8001d4a:	e6f8      	b.n	8001b3e <HAL_RCC_OscConfig+0x26>
 8001d4c:	e711      	b.n	8001b72 <HAL_RCC_OscConfig+0x5a>
 8001d4e:	2280      	movs	r2, #128	; 0x80
 8001d50:	2100      	movs	r1, #0
 8001d52:	6beb      	ldr	r3, [r5, #60]	; 0x3c
 8001d54:	0552      	lsls	r2, r2, #21
 8001d56:	9100      	str	r1, [sp, #0]
 8001d58:	4213      	tst	r3, r2
 8001d5a:	d108      	bne.n	8001d6e <HAL_RCC_OscConfig+0x256>
 8001d5c:	6beb      	ldr	r3, [r5, #60]	; 0x3c
 8001d5e:	4313      	orrs	r3, r2
 8001d60:	63eb      	str	r3, [r5, #60]	; 0x3c
 8001d62:	6beb      	ldr	r3, [r5, #60]	; 0x3c
 8001d64:	4013      	ands	r3, r2
 8001d66:	9303      	str	r3, [sp, #12]
 8001d68:	9b03      	ldr	r3, [sp, #12]
 8001d6a:	2301      	movs	r3, #1
 8001d6c:	9300      	str	r3, [sp, #0]
 8001d6e:	2780      	movs	r7, #128	; 0x80
 8001d70:	4e3d      	ldr	r6, [pc, #244]	; (8001e68 <HAL_RCC_OscConfig+0x350>)
 8001d72:	007f      	lsls	r7, r7, #1
 8001d74:	6833      	ldr	r3, [r6, #0]
 8001d76:	423b      	tst	r3, r7
 8001d78:	d015      	beq.n	8001da6 <HAL_RCC_OscConfig+0x28e>
 8001d7a:	68a3      	ldr	r3, [r4, #8]
 8001d7c:	2b01      	cmp	r3, #1
 8001d7e:	d122      	bne.n	8001dc6 <HAL_RCC_OscConfig+0x2ae>
 8001d80:	6dea      	ldr	r2, [r5, #92]	; 0x5c
 8001d82:	4313      	orrs	r3, r2
 8001d84:	65eb      	str	r3, [r5, #92]	; 0x5c
 8001d86:	f7ff f967 	bl	8001058 <HAL_GetTick>
 8001d8a:	2702      	movs	r7, #2
 8001d8c:	0006      	movs	r6, r0
 8001d8e:	6deb      	ldr	r3, [r5, #92]	; 0x5c
 8001d90:	423b      	tst	r3, r7
 8001d92:	d038      	beq.n	8001e06 <HAL_RCC_OscConfig+0x2ee>
 8001d94:	9b00      	ldr	r3, [sp, #0]
 8001d96:	2b01      	cmp	r3, #1
 8001d98:	d000      	beq.n	8001d9c <HAL_RCC_OscConfig+0x284>
 8001d9a:	e6d0      	b.n	8001b3e <HAL_RCC_OscConfig+0x26>
 8001d9c:	6beb      	ldr	r3, [r5, #60]	; 0x3c
 8001d9e:	4a33      	ldr	r2, [pc, #204]	; (8001e6c <HAL_RCC_OscConfig+0x354>)
 8001da0:	4013      	ands	r3, r2
 8001da2:	63eb      	str	r3, [r5, #60]	; 0x3c
 8001da4:	e6cb      	b.n	8001b3e <HAL_RCC_OscConfig+0x26>
 8001da6:	6833      	ldr	r3, [r6, #0]
 8001da8:	433b      	orrs	r3, r7
 8001daa:	6033      	str	r3, [r6, #0]
 8001dac:	f7ff f954 	bl	8001058 <HAL_GetTick>
 8001db0:	9001      	str	r0, [sp, #4]
 8001db2:	6833      	ldr	r3, [r6, #0]
 8001db4:	423b      	tst	r3, r7
 8001db6:	d1e0      	bne.n	8001d7a <HAL_RCC_OscConfig+0x262>
 8001db8:	f7ff f94e 	bl	8001058 <HAL_GetTick>
 8001dbc:	9b01      	ldr	r3, [sp, #4]
 8001dbe:	1ac0      	subs	r0, r0, r3
 8001dc0:	2802      	cmp	r0, #2
 8001dc2:	d9f6      	bls.n	8001db2 <HAL_RCC_OscConfig+0x29a>
 8001dc4:	e6ee      	b.n	8001ba4 <HAL_RCC_OscConfig+0x8c>
 8001dc6:	6dea      	ldr	r2, [r5, #92]	; 0x5c
 8001dc8:	2b05      	cmp	r3, #5
 8001dca:	d105      	bne.n	8001dd8 <HAL_RCC_OscConfig+0x2c0>
 8001dcc:	3b01      	subs	r3, #1
 8001dce:	4313      	orrs	r3, r2
 8001dd0:	65eb      	str	r3, [r5, #92]	; 0x5c
 8001dd2:	6dea      	ldr	r2, [r5, #92]	; 0x5c
 8001dd4:	2301      	movs	r3, #1
 8001dd6:	e7d4      	b.n	8001d82 <HAL_RCC_OscConfig+0x26a>
 8001dd8:	2101      	movs	r1, #1
 8001dda:	438a      	bics	r2, r1
 8001ddc:	65ea      	str	r2, [r5, #92]	; 0x5c
 8001dde:	6dea      	ldr	r2, [r5, #92]	; 0x5c
 8001de0:	3103      	adds	r1, #3
 8001de2:	438a      	bics	r2, r1
 8001de4:	65ea      	str	r2, [r5, #92]	; 0x5c
 8001de6:	2b00      	cmp	r3, #0
 8001de8:	d1cd      	bne.n	8001d86 <HAL_RCC_OscConfig+0x26e>
 8001dea:	f7ff f935 	bl	8001058 <HAL_GetTick>
 8001dee:	2702      	movs	r7, #2
 8001df0:	0006      	movs	r6, r0
 8001df2:	6deb      	ldr	r3, [r5, #92]	; 0x5c
 8001df4:	423b      	tst	r3, r7
 8001df6:	d0cd      	beq.n	8001d94 <HAL_RCC_OscConfig+0x27c>
 8001df8:	f7ff f92e 	bl	8001058 <HAL_GetTick>
 8001dfc:	4b1c      	ldr	r3, [pc, #112]	; (8001e70 <HAL_RCC_OscConfig+0x358>)
 8001dfe:	1b80      	subs	r0, r0, r6
 8001e00:	4298      	cmp	r0, r3
 8001e02:	d9f6      	bls.n	8001df2 <HAL_RCC_OscConfig+0x2da>
 8001e04:	e6ce      	b.n	8001ba4 <HAL_RCC_OscConfig+0x8c>
 8001e06:	f7ff f927 	bl	8001058 <HAL_GetTick>
 8001e0a:	4b19      	ldr	r3, [pc, #100]	; (8001e70 <HAL_RCC_OscConfig+0x358>)
 8001e0c:	1b80      	subs	r0, r0, r6
 8001e0e:	4298      	cmp	r0, r3
 8001e10:	d9bd      	bls.n	8001d8e <HAL_RCC_OscConfig+0x276>
 8001e12:	e6c7      	b.n	8001ba4 <HAL_RCC_OscConfig+0x8c>
 8001e14:	69e3      	ldr	r3, [r4, #28]
 8001e16:	4d0b      	ldr	r5, [pc, #44]	; (8001e44 <HAL_RCC_OscConfig+0x32c>)
 8001e18:	2b00      	cmp	r3, #0
 8001e1a:	d02b      	beq.n	8001e74 <HAL_RCC_OscConfig+0x35c>
 8001e1c:	2380      	movs	r3, #128	; 0x80
 8001e1e:	682a      	ldr	r2, [r5, #0]
 8001e20:	03db      	lsls	r3, r3, #15
 8001e22:	4313      	orrs	r3, r2
 8001e24:	602b      	str	r3, [r5, #0]
 8001e26:	f7ff f917 	bl	8001058 <HAL_GetTick>
 8001e2a:	2780      	movs	r7, #128	; 0x80
 8001e2c:	0006      	movs	r6, r0
 8001e2e:	043f      	lsls	r7, r7, #16
 8001e30:	682b      	ldr	r3, [r5, #0]
 8001e32:	423b      	tst	r3, r7
 8001e34:	d000      	beq.n	8001e38 <HAL_RCC_OscConfig+0x320>
 8001e36:	e686      	b.n	8001b46 <HAL_RCC_OscConfig+0x2e>
 8001e38:	f7ff f90e 	bl	8001058 <HAL_GetTick>
 8001e3c:	1b80      	subs	r0, r0, r6
 8001e3e:	2802      	cmp	r0, #2
 8001e40:	d9f6      	bls.n	8001e30 <HAL_RCC_OscConfig+0x318>
 8001e42:	e6af      	b.n	8001ba4 <HAL_RCC_OscConfig+0x8c>
 8001e44:	40021000 	.word	0x40021000
 8001e48:	fffeffff 	.word	0xfffeffff
 8001e4c:	fffbffff 	.word	0xfffbffff
 8001e50:	ffff80ff 	.word	0xffff80ff
 8001e54:	ffffc7ff 	.word	0xffffc7ff
 8001e58:	00f42400 	.word	0x00f42400
 8001e5c:	20000000 	.word	0x20000000
 8001e60:	20000008 	.word	0x20000008
 8001e64:	fffffeff 	.word	0xfffffeff
 8001e68:	40007000 	.word	0x40007000
 8001e6c:	efffffff 	.word	0xefffffff
 8001e70:	00001388 	.word	0x00001388
 8001e74:	682b      	ldr	r3, [r5, #0]
 8001e76:	4a4e      	ldr	r2, [pc, #312]	; (8001fb0 <HAL_RCC_OscConfig+0x498>)
 8001e78:	2780      	movs	r7, #128	; 0x80
 8001e7a:	4013      	ands	r3, r2
 8001e7c:	602b      	str	r3, [r5, #0]
 8001e7e:	f7ff f8eb 	bl	8001058 <HAL_GetTick>
 8001e82:	0006      	movs	r6, r0
 8001e84:	043f      	lsls	r7, r7, #16
 8001e86:	682b      	ldr	r3, [r5, #0]
 8001e88:	423b      	tst	r3, r7
 8001e8a:	d100      	bne.n	8001e8e <HAL_RCC_OscConfig+0x376>
 8001e8c:	e65b      	b.n	8001b46 <HAL_RCC_OscConfig+0x2e>
 8001e8e:	f7ff f8e3 	bl	8001058 <HAL_GetTick>
 8001e92:	1b80      	subs	r0, r0, r6
 8001e94:	2802      	cmp	r0, #2
 8001e96:	d9f6      	bls.n	8001e86 <HAL_RCC_OscConfig+0x36e>
 8001e98:	e684      	b.n	8001ba4 <HAL_RCC_OscConfig+0x8c>
 8001e9a:	2138      	movs	r1, #56	; 0x38
 8001e9c:	4d45      	ldr	r5, [pc, #276]	; (8001fb4 <HAL_RCC_OscConfig+0x49c>)
 8001e9e:	68aa      	ldr	r2, [r5, #8]
 8001ea0:	400a      	ands	r2, r1
 8001ea2:	2a10      	cmp	r2, #16
 8001ea4:	d055      	beq.n	8001f52 <HAL_RCC_OscConfig+0x43a>
 8001ea6:	4a44      	ldr	r2, [pc, #272]	; (8001fb8 <HAL_RCC_OscConfig+0x4a0>)
 8001ea8:	2b02      	cmp	r3, #2
 8001eaa:	d13a      	bne.n	8001f22 <HAL_RCC_OscConfig+0x40a>
 8001eac:	682b      	ldr	r3, [r5, #0]
 8001eae:	2780      	movs	r7, #128	; 0x80
 8001eb0:	4013      	ands	r3, r2
 8001eb2:	602b      	str	r3, [r5, #0]
 8001eb4:	f7ff f8d0 	bl	8001058 <HAL_GetTick>
 8001eb8:	0006      	movs	r6, r0
 8001eba:	04bf      	lsls	r7, r7, #18
 8001ebc:	682b      	ldr	r3, [r5, #0]
 8001ebe:	423b      	tst	r3, r7
 8001ec0:	d129      	bne.n	8001f16 <HAL_RCC_OscConfig+0x3fe>
 8001ec2:	6aa1      	ldr	r1, [r4, #40]	; 0x28
 8001ec4:	6a63      	ldr	r3, [r4, #36]	; 0x24
 8001ec6:	68ea      	ldr	r2, [r5, #12]
 8001ec8:	430b      	orrs	r3, r1
 8001eca:	493c      	ldr	r1, [pc, #240]	; (8001fbc <HAL_RCC_OscConfig+0x4a4>)
 8001ecc:	2680      	movs	r6, #128	; 0x80
 8001ece:	400a      	ands	r2, r1
 8001ed0:	4313      	orrs	r3, r2
 8001ed2:	6b22      	ldr	r2, [r4, #48]	; 0x30
 8001ed4:	04b6      	lsls	r6, r6, #18
 8001ed6:	4313      	orrs	r3, r2
 8001ed8:	6b62      	ldr	r2, [r4, #52]	; 0x34
 8001eda:	4313      	orrs	r3, r2
 8001edc:	6ba2      	ldr	r2, [r4, #56]	; 0x38
 8001ede:	4313      	orrs	r3, r2
 8001ee0:	6ae2      	ldr	r2, [r4, #44]	; 0x2c
 8001ee2:	0212      	lsls	r2, r2, #8
 8001ee4:	4313      	orrs	r3, r2
 8001ee6:	60eb      	str	r3, [r5, #12]
 8001ee8:	2380      	movs	r3, #128	; 0x80
 8001eea:	682a      	ldr	r2, [r5, #0]
 8001eec:	045b      	lsls	r3, r3, #17
 8001eee:	4313      	orrs	r3, r2
 8001ef0:	602b      	str	r3, [r5, #0]
 8001ef2:	2380      	movs	r3, #128	; 0x80
 8001ef4:	68ea      	ldr	r2, [r5, #12]
 8001ef6:	055b      	lsls	r3, r3, #21
 8001ef8:	4313      	orrs	r3, r2
 8001efa:	60eb      	str	r3, [r5, #12]
 8001efc:	f7ff f8ac 	bl	8001058 <HAL_GetTick>
 8001f00:	0004      	movs	r4, r0
 8001f02:	682b      	ldr	r3, [r5, #0]
 8001f04:	4233      	tst	r3, r6
 8001f06:	d000      	beq.n	8001f0a <HAL_RCC_OscConfig+0x3f2>
 8001f08:	e621      	b.n	8001b4e <HAL_RCC_OscConfig+0x36>
 8001f0a:	f7ff f8a5 	bl	8001058 <HAL_GetTick>
 8001f0e:	1b00      	subs	r0, r0, r4
 8001f10:	2802      	cmp	r0, #2
 8001f12:	d9f6      	bls.n	8001f02 <HAL_RCC_OscConfig+0x3ea>
 8001f14:	e646      	b.n	8001ba4 <HAL_RCC_OscConfig+0x8c>
 8001f16:	f7ff f89f 	bl	8001058 <HAL_GetTick>
 8001f1a:	1b80      	subs	r0, r0, r6
 8001f1c:	2802      	cmp	r0, #2
 8001f1e:	d9cd      	bls.n	8001ebc <HAL_RCC_OscConfig+0x3a4>
 8001f20:	e640      	b.n	8001ba4 <HAL_RCC_OscConfig+0x8c>
 8001f22:	682b      	ldr	r3, [r5, #0]
 8001f24:	2680      	movs	r6, #128	; 0x80
 8001f26:	4013      	ands	r3, r2
 8001f28:	602b      	str	r3, [r5, #0]
 8001f2a:	f7ff f895 	bl	8001058 <HAL_GetTick>
 8001f2e:	0004      	movs	r4, r0
 8001f30:	04b6      	lsls	r6, r6, #18
 8001f32:	682b      	ldr	r3, [r5, #0]
 8001f34:	0018      	movs	r0, r3
 8001f36:	4030      	ands	r0, r6
 8001f38:	4233      	tst	r3, r6
 8001f3a:	d104      	bne.n	8001f46 <HAL_RCC_OscConfig+0x42e>
 8001f3c:	68eb      	ldr	r3, [r5, #12]
 8001f3e:	4a20      	ldr	r2, [pc, #128]	; (8001fc0 <HAL_RCC_OscConfig+0x4a8>)
 8001f40:	4013      	ands	r3, r2
 8001f42:	60eb      	str	r3, [r5, #12]
 8001f44:	e62f      	b.n	8001ba6 <HAL_RCC_OscConfig+0x8e>
 8001f46:	f7ff f887 	bl	8001058 <HAL_GetTick>
 8001f4a:	1b00      	subs	r0, r0, r4
 8001f4c:	2802      	cmp	r0, #2
 8001f4e:	d9f0      	bls.n	8001f32 <HAL_RCC_OscConfig+0x41a>
 8001f50:	e628      	b.n	8001ba4 <HAL_RCC_OscConfig+0x8c>
 8001f52:	0018      	movs	r0, r3
 8001f54:	2b01      	cmp	r3, #1
 8001f56:	d100      	bne.n	8001f5a <HAL_RCC_OscConfig+0x442>
 8001f58:	e625      	b.n	8001ba6 <HAL_RCC_OscConfig+0x8e>
 8001f5a:	2203      	movs	r2, #3
 8001f5c:	68eb      	ldr	r3, [r5, #12]
 8001f5e:	6a61      	ldr	r1, [r4, #36]	; 0x24
 8001f60:	401a      	ands	r2, r3
 8001f62:	428a      	cmp	r2, r1
 8001f64:	d000      	beq.n	8001f68 <HAL_RCC_OscConfig+0x450>
 8001f66:	e604      	b.n	8001b72 <HAL_RCC_OscConfig+0x5a>
 8001f68:	2270      	movs	r2, #112	; 0x70
 8001f6a:	6aa1      	ldr	r1, [r4, #40]	; 0x28
 8001f6c:	401a      	ands	r2, r3
 8001f6e:	428a      	cmp	r2, r1
 8001f70:	d000      	beq.n	8001f74 <HAL_RCC_OscConfig+0x45c>
 8001f72:	e5fe      	b.n	8001b72 <HAL_RCC_OscConfig+0x5a>
 8001f74:	21fe      	movs	r1, #254	; 0xfe
 8001f76:	6ae2      	ldr	r2, [r4, #44]	; 0x2c
 8001f78:	01c9      	lsls	r1, r1, #7
 8001f7a:	4019      	ands	r1, r3
 8001f7c:	0212      	lsls	r2, r2, #8
 8001f7e:	4291      	cmp	r1, r2
 8001f80:	d000      	beq.n	8001f84 <HAL_RCC_OscConfig+0x46c>
 8001f82:	e5f6      	b.n	8001b72 <HAL_RCC_OscConfig+0x5a>
 8001f84:	22f8      	movs	r2, #248	; 0xf8
 8001f86:	6b21      	ldr	r1, [r4, #48]	; 0x30
 8001f88:	0392      	lsls	r2, r2, #14
 8001f8a:	401a      	ands	r2, r3
 8001f8c:	428a      	cmp	r2, r1
 8001f8e:	d000      	beq.n	8001f92 <HAL_RCC_OscConfig+0x47a>
 8001f90:	e5ef      	b.n	8001b72 <HAL_RCC_OscConfig+0x5a>
 8001f92:	22e0      	movs	r2, #224	; 0xe0
 8001f94:	6b61      	ldr	r1, [r4, #52]	; 0x34
 8001f96:	0512      	lsls	r2, r2, #20
 8001f98:	401a      	ands	r2, r3
 8001f9a:	428a      	cmp	r2, r1
 8001f9c:	d000      	beq.n	8001fa0 <HAL_RCC_OscConfig+0x488>
 8001f9e:	e5e8      	b.n	8001b72 <HAL_RCC_OscConfig+0x5a>
 8001fa0:	6ba2      	ldr	r2, [r4, #56]	; 0x38
 8001fa2:	0f5b      	lsrs	r3, r3, #29
 8001fa4:	075b      	lsls	r3, r3, #29
 8001fa6:	4293      	cmp	r3, r2
 8001fa8:	d100      	bne.n	8001fac <HAL_RCC_OscConfig+0x494>
 8001faa:	e5d0      	b.n	8001b4e <HAL_RCC_OscConfig+0x36>
 8001fac:	e5e1      	b.n	8001b72 <HAL_RCC_OscConfig+0x5a>
 8001fae:	46c0      	nop			; (mov r8, r8)
 8001fb0:	ffbfffff 	.word	0xffbfffff
 8001fb4:	40021000 	.word	0x40021000
 8001fb8:	feffffff 	.word	0xfeffffff
 8001fbc:	11c1808c 	.word	0x11c1808c
 8001fc0:	eefefffc 	.word	0xeefefffc

08001fc4 <HAL_RCC_GetSysClockFreq>:
 8001fc4:	2338      	movs	r3, #56	; 0x38
 8001fc6:	b570      	push	{r4, r5, r6, lr}
 8001fc8:	4c1e      	ldr	r4, [pc, #120]	; (8002044 <HAL_RCC_GetSysClockFreq+0x80>)
 8001fca:	68a2      	ldr	r2, [r4, #8]
 8001fcc:	421a      	tst	r2, r3
 8001fce:	d105      	bne.n	8001fdc <HAL_RCC_GetSysClockFreq+0x18>
 8001fd0:	6823      	ldr	r3, [r4, #0]
 8001fd2:	481d      	ldr	r0, [pc, #116]	; (8002048 <HAL_RCC_GetSysClockFreq+0x84>)
 8001fd4:	049b      	lsls	r3, r3, #18
 8001fd6:	0f5b      	lsrs	r3, r3, #29
 8001fd8:	40d8      	lsrs	r0, r3
 8001fda:	bd70      	pop	{r4, r5, r6, pc}
 8001fdc:	68a2      	ldr	r2, [r4, #8]
 8001fde:	401a      	ands	r2, r3
 8001fe0:	2a08      	cmp	r2, #8
 8001fe2:	d02a      	beq.n	800203a <HAL_RCC_GetSysClockFreq+0x76>
 8001fe4:	68a2      	ldr	r2, [r4, #8]
 8001fe6:	401a      	ands	r2, r3
 8001fe8:	2a10      	cmp	r2, #16
 8001fea:	d11a      	bne.n	8002022 <HAL_RCC_GetSysClockFreq+0x5e>
 8001fec:	68e3      	ldr	r3, [r4, #12]
 8001fee:	68e1      	ldr	r1, [r4, #12]
 8001ff0:	43db      	mvns	r3, r3
 8001ff2:	0649      	lsls	r1, r1, #25
 8001ff4:	0f49      	lsrs	r1, r1, #29
 8001ff6:	257f      	movs	r5, #127	; 0x7f
 8001ff8:	3101      	adds	r1, #1
 8001ffa:	079b      	lsls	r3, r3, #30
 8001ffc:	d10c      	bne.n	8002018 <HAL_RCC_GetSysClockFreq+0x54>
 8001ffe:	68e3      	ldr	r3, [r4, #12]
 8002000:	4812      	ldr	r0, [pc, #72]	; (800204c <HAL_RCC_GetSysClockFreq+0x88>)
 8002002:	0a1b      	lsrs	r3, r3, #8
 8002004:	401d      	ands	r5, r3
 8002006:	f7fe f891 	bl	800012c <__udivsi3>
 800200a:	68e1      	ldr	r1, [r4, #12]
 800200c:	4368      	muls	r0, r5
 800200e:	0f49      	lsrs	r1, r1, #29
 8002010:	3101      	adds	r1, #1
 8002012:	f7fe f88b 	bl	800012c <__udivsi3>
 8002016:	e7e0      	b.n	8001fda <HAL_RCC_GetSysClockFreq+0x16>
 8002018:	68e3      	ldr	r3, [r4, #12]
 800201a:	480b      	ldr	r0, [pc, #44]	; (8002048 <HAL_RCC_GetSysClockFreq+0x84>)
 800201c:	0a1b      	lsrs	r3, r3, #8
 800201e:	401d      	ands	r5, r3
 8002020:	e7f1      	b.n	8002006 <HAL_RCC_GetSysClockFreq+0x42>
 8002022:	68a2      	ldr	r2, [r4, #8]
 8002024:	401a      	ands	r2, r3
 8002026:	2a20      	cmp	r2, #32
 8002028:	d009      	beq.n	800203e <HAL_RCC_GetSysClockFreq+0x7a>
 800202a:	68a2      	ldr	r2, [r4, #8]
 800202c:	2000      	movs	r0, #0
 800202e:	4013      	ands	r3, r2
 8002030:	2b18      	cmp	r3, #24
 8002032:	d1d2      	bne.n	8001fda <HAL_RCC_GetSysClockFreq+0x16>
 8002034:	20fa      	movs	r0, #250	; 0xfa
 8002036:	01c0      	lsls	r0, r0, #7
 8002038:	e7cf      	b.n	8001fda <HAL_RCC_GetSysClockFreq+0x16>
 800203a:	4804      	ldr	r0, [pc, #16]	; (800204c <HAL_RCC_GetSysClockFreq+0x88>)
 800203c:	e7cd      	b.n	8001fda <HAL_RCC_GetSysClockFreq+0x16>
 800203e:	2080      	movs	r0, #128	; 0x80
 8002040:	0200      	lsls	r0, r0, #8
 8002042:	e7ca      	b.n	8001fda <HAL_RCC_GetSysClockFreq+0x16>
 8002044:	40021000 	.word	0x40021000
 8002048:	00f42400 	.word	0x00f42400
 800204c:	007a1200 	.word	0x007a1200

08002050 <HAL_RCC_ClockConfig>:
 8002050:	b5f7      	push	{r0, r1, r2, r4, r5, r6, r7, lr}
 8002052:	0004      	movs	r4, r0
 8002054:	000d      	movs	r5, r1
 8002056:	2800      	cmp	r0, #0
 8002058:	d101      	bne.n	800205e <HAL_RCC_ClockConfig+0xe>
 800205a:	2001      	movs	r0, #1
 800205c:	bdfe      	pop	{r1, r2, r3, r4, r5, r6, r7, pc}
 800205e:	2707      	movs	r7, #7
 8002060:	4e4a      	ldr	r6, [pc, #296]	; (800218c <HAL_RCC_ClockConfig+0x13c>)
 8002062:	6833      	ldr	r3, [r6, #0]
 8002064:	403b      	ands	r3, r7
 8002066:	428b      	cmp	r3, r1
 8002068:	d32a      	bcc.n	80020c0 <HAL_RCC_ClockConfig+0x70>
 800206a:	6821      	ldr	r1, [r4, #0]
 800206c:	078b      	lsls	r3, r1, #30
 800206e:	d43b      	bmi.n	80020e8 <HAL_RCC_ClockConfig+0x98>
 8002070:	07cb      	lsls	r3, r1, #31
 8002072:	d448      	bmi.n	8002106 <HAL_RCC_ClockConfig+0xb6>
 8002074:	2707      	movs	r7, #7
 8002076:	6833      	ldr	r3, [r6, #0]
 8002078:	403b      	ands	r3, r7
 800207a:	42ab      	cmp	r3, r5
 800207c:	d90a      	bls.n	8002094 <HAL_RCC_ClockConfig+0x44>
 800207e:	6833      	ldr	r3, [r6, #0]
 8002080:	43bb      	bics	r3, r7
 8002082:	432b      	orrs	r3, r5
 8002084:	6033      	str	r3, [r6, #0]
 8002086:	f7fe ffe7 	bl	8001058 <HAL_GetTick>
 800208a:	9001      	str	r0, [sp, #4]
 800208c:	6833      	ldr	r3, [r6, #0]
 800208e:	403b      	ands	r3, r7
 8002090:	42ab      	cmp	r3, r5
 8002092:	d16b      	bne.n	800216c <HAL_RCC_ClockConfig+0x11c>
 8002094:	6823      	ldr	r3, [r4, #0]
 8002096:	4d3e      	ldr	r5, [pc, #248]	; (8002190 <HAL_RCC_ClockConfig+0x140>)
 8002098:	075b      	lsls	r3, r3, #29
 800209a:	d46f      	bmi.n	800217c <HAL_RCC_ClockConfig+0x12c>
 800209c:	f7ff ff92 	bl	8001fc4 <HAL_RCC_GetSysClockFreq>
 80020a0:	68ab      	ldr	r3, [r5, #8]
 80020a2:	4a3c      	ldr	r2, [pc, #240]	; (8002194 <HAL_RCC_ClockConfig+0x144>)
 80020a4:	051b      	lsls	r3, r3, #20
 80020a6:	0f1b      	lsrs	r3, r3, #28
 80020a8:	009b      	lsls	r3, r3, #2
 80020aa:	589b      	ldr	r3, [r3, r2]
 80020ac:	221f      	movs	r2, #31
 80020ae:	4013      	ands	r3, r2
 80020b0:	40d8      	lsrs	r0, r3
 80020b2:	4b39      	ldr	r3, [pc, #228]	; (8002198 <HAL_RCC_ClockConfig+0x148>)
 80020b4:	6018      	str	r0, [r3, #0]
 80020b6:	4b39      	ldr	r3, [pc, #228]	; (800219c <HAL_RCC_ClockConfig+0x14c>)
 80020b8:	6818      	ldr	r0, [r3, #0]
 80020ba:	f7fe ff85 	bl	8000fc8 <HAL_InitTick>
 80020be:	e7cd      	b.n	800205c <HAL_RCC_ClockConfig+0xc>
 80020c0:	6833      	ldr	r3, [r6, #0]
 80020c2:	43bb      	bics	r3, r7
 80020c4:	430b      	orrs	r3, r1
 80020c6:	6033      	str	r3, [r6, #0]
 80020c8:	f7fe ffc6 	bl	8001058 <HAL_GetTick>
 80020cc:	9001      	str	r0, [sp, #4]
 80020ce:	6833      	ldr	r3, [r6, #0]
 80020d0:	403b      	ands	r3, r7
 80020d2:	42ab      	cmp	r3, r5
 80020d4:	d0c9      	beq.n	800206a <HAL_RCC_ClockConfig+0x1a>
 80020d6:	f7fe ffbf 	bl	8001058 <HAL_GetTick>
 80020da:	9b01      	ldr	r3, [sp, #4]
 80020dc:	1ac0      	subs	r0, r0, r3
 80020de:	4b30      	ldr	r3, [pc, #192]	; (80021a0 <HAL_RCC_ClockConfig+0x150>)
 80020e0:	4298      	cmp	r0, r3
 80020e2:	d9f4      	bls.n	80020ce <HAL_RCC_ClockConfig+0x7e>
 80020e4:	2003      	movs	r0, #3
 80020e6:	e7b9      	b.n	800205c <HAL_RCC_ClockConfig+0xc>
 80020e8:	4a29      	ldr	r2, [pc, #164]	; (8002190 <HAL_RCC_ClockConfig+0x140>)
 80020ea:	074b      	lsls	r3, r1, #29
 80020ec:	d504      	bpl.n	80020f8 <HAL_RCC_ClockConfig+0xa8>
 80020ee:	23e0      	movs	r3, #224	; 0xe0
 80020f0:	6890      	ldr	r0, [r2, #8]
 80020f2:	01db      	lsls	r3, r3, #7
 80020f4:	4303      	orrs	r3, r0
 80020f6:	6093      	str	r3, [r2, #8]
 80020f8:	6893      	ldr	r3, [r2, #8]
 80020fa:	482a      	ldr	r0, [pc, #168]	; (80021a4 <HAL_RCC_ClockConfig+0x154>)
 80020fc:	4003      	ands	r3, r0
 80020fe:	68a0      	ldr	r0, [r4, #8]
 8002100:	4303      	orrs	r3, r0
 8002102:	6093      	str	r3, [r2, #8]
 8002104:	e7b4      	b.n	8002070 <HAL_RCC_ClockConfig+0x20>
 8002106:	6862      	ldr	r2, [r4, #4]
 8002108:	4f21      	ldr	r7, [pc, #132]	; (8002190 <HAL_RCC_ClockConfig+0x140>)
 800210a:	2a01      	cmp	r2, #1
 800210c:	d119      	bne.n	8002142 <HAL_RCC_ClockConfig+0xf2>
 800210e:	683b      	ldr	r3, [r7, #0]
 8002110:	039b      	lsls	r3, r3, #14
 8002112:	d5a2      	bpl.n	800205a <HAL_RCC_ClockConfig+0xa>
 8002114:	2107      	movs	r1, #7
 8002116:	68bb      	ldr	r3, [r7, #8]
 8002118:	438b      	bics	r3, r1
 800211a:	4313      	orrs	r3, r2
 800211c:	60bb      	str	r3, [r7, #8]
 800211e:	f7fe ff9b 	bl	8001058 <HAL_GetTick>
 8002122:	9001      	str	r0, [sp, #4]
 8002124:	2338      	movs	r3, #56	; 0x38
 8002126:	68ba      	ldr	r2, [r7, #8]
 8002128:	401a      	ands	r2, r3
 800212a:	6863      	ldr	r3, [r4, #4]
 800212c:	00db      	lsls	r3, r3, #3
 800212e:	429a      	cmp	r2, r3
 8002130:	d0a0      	beq.n	8002074 <HAL_RCC_ClockConfig+0x24>
 8002132:	f7fe ff91 	bl	8001058 <HAL_GetTick>
 8002136:	9b01      	ldr	r3, [sp, #4]
 8002138:	1ac0      	subs	r0, r0, r3
 800213a:	4b19      	ldr	r3, [pc, #100]	; (80021a0 <HAL_RCC_ClockConfig+0x150>)
 800213c:	4298      	cmp	r0, r3
 800213e:	d9f1      	bls.n	8002124 <HAL_RCC_ClockConfig+0xd4>
 8002140:	e7d0      	b.n	80020e4 <HAL_RCC_ClockConfig+0x94>
 8002142:	2a02      	cmp	r2, #2
 8002144:	d103      	bne.n	800214e <HAL_RCC_ClockConfig+0xfe>
 8002146:	683b      	ldr	r3, [r7, #0]
 8002148:	019b      	lsls	r3, r3, #6
 800214a:	d4e3      	bmi.n	8002114 <HAL_RCC_ClockConfig+0xc4>
 800214c:	e785      	b.n	800205a <HAL_RCC_ClockConfig+0xa>
 800214e:	2a00      	cmp	r2, #0
 8002150:	d103      	bne.n	800215a <HAL_RCC_ClockConfig+0x10a>
 8002152:	683b      	ldr	r3, [r7, #0]
 8002154:	055b      	lsls	r3, r3, #21
 8002156:	d4dd      	bmi.n	8002114 <HAL_RCC_ClockConfig+0xc4>
 8002158:	e77f      	b.n	800205a <HAL_RCC_ClockConfig+0xa>
 800215a:	2302      	movs	r3, #2
 800215c:	2a03      	cmp	r2, #3
 800215e:	d103      	bne.n	8002168 <HAL_RCC_ClockConfig+0x118>
 8002160:	6e39      	ldr	r1, [r7, #96]	; 0x60
 8002162:	4219      	tst	r1, r3
 8002164:	d1d6      	bne.n	8002114 <HAL_RCC_ClockConfig+0xc4>
 8002166:	e778      	b.n	800205a <HAL_RCC_ClockConfig+0xa>
 8002168:	6df9      	ldr	r1, [r7, #92]	; 0x5c
 800216a:	e7fa      	b.n	8002162 <HAL_RCC_ClockConfig+0x112>
 800216c:	f7fe ff74 	bl	8001058 <HAL_GetTick>
 8002170:	9b01      	ldr	r3, [sp, #4]
 8002172:	1ac0      	subs	r0, r0, r3
 8002174:	4b0a      	ldr	r3, [pc, #40]	; (80021a0 <HAL_RCC_ClockConfig+0x150>)
 8002176:	4298      	cmp	r0, r3
 8002178:	d988      	bls.n	800208c <HAL_RCC_ClockConfig+0x3c>
 800217a:	e7b3      	b.n	80020e4 <HAL_RCC_ClockConfig+0x94>
 800217c:	68ab      	ldr	r3, [r5, #8]
 800217e:	4a0a      	ldr	r2, [pc, #40]	; (80021a8 <HAL_RCC_ClockConfig+0x158>)
 8002180:	4013      	ands	r3, r2
 8002182:	68e2      	ldr	r2, [r4, #12]
 8002184:	4313      	orrs	r3, r2
 8002186:	60ab      	str	r3, [r5, #8]
 8002188:	e788      	b.n	800209c <HAL_RCC_ClockConfig+0x4c>
 800218a:	46c0      	nop			; (mov r8, r8)
 800218c:	40022000 	.word	0x40022000
 8002190:	40021000 	.word	0x40021000
 8002194:	08002e34 	.word	0x08002e34
 8002198:	20000000 	.word	0x20000000
 800219c:	20000008 	.word	0x20000008
 80021a0:	00001388 	.word	0x00001388
 80021a4:	fffff0ff 	.word	0xfffff0ff
 80021a8:	ffff8fff 	.word	0xffff8fff

080021ac <HAL_RCC_GetPCLK1Freq>:
 80021ac:	4b06      	ldr	r3, [pc, #24]	; (80021c8 <HAL_RCC_GetPCLK1Freq+0x1c>)
 80021ae:	4a07      	ldr	r2, [pc, #28]	; (80021cc <HAL_RCC_GetPCLK1Freq+0x20>)
 80021b0:	689b      	ldr	r3, [r3, #8]
 80021b2:	045b      	lsls	r3, r3, #17
 80021b4:	0f5b      	lsrs	r3, r3, #29
 80021b6:	009b      	lsls	r3, r3, #2
 80021b8:	589b      	ldr	r3, [r3, r2]
 80021ba:	221f      	movs	r2, #31
 80021bc:	4013      	ands	r3, r2
 80021be:	4a04      	ldr	r2, [pc, #16]	; (80021d0 <HAL_RCC_GetPCLK1Freq+0x24>)
 80021c0:	6810      	ldr	r0, [r2, #0]
 80021c2:	40d8      	lsrs	r0, r3
 80021c4:	4770      	bx	lr
 80021c6:	46c0      	nop			; (mov r8, r8)
 80021c8:	40021000 	.word	0x40021000
 80021cc:	08002e74 	.word	0x08002e74
 80021d0:	20000000 	.word	0x20000000

080021d4 <HAL_RCCEx_PeriphCLKConfig>:
 80021d4:	b5f0      	push	{r4, r5, r6, r7, lr}
 80021d6:	0004      	movs	r4, r0
 80021d8:	6823      	ldr	r3, [r4, #0]
 80021da:	2000      	movs	r0, #0
 80021dc:	b085      	sub	sp, #20
 80021de:	039b      	lsls	r3, r3, #14
 80021e0:	d53c      	bpl.n	800225c <HAL_RCCEx_PeriphCLKConfig+0x88>
 80021e2:	2280      	movs	r2, #128	; 0x80
 80021e4:	4d97      	ldr	r5, [pc, #604]	; (8002444 <HAL_RCCEx_PeriphCLKConfig+0x270>)
 80021e6:	0552      	lsls	r2, r2, #21
 80021e8:	6beb      	ldr	r3, [r5, #60]	; 0x3c
 80021ea:	9000      	str	r0, [sp, #0]
 80021ec:	4213      	tst	r3, r2
 80021ee:	d108      	bne.n	8002202 <HAL_RCCEx_PeriphCLKConfig+0x2e>
 80021f0:	6beb      	ldr	r3, [r5, #60]	; 0x3c
 80021f2:	4313      	orrs	r3, r2
 80021f4:	63eb      	str	r3, [r5, #60]	; 0x3c
 80021f6:	6beb      	ldr	r3, [r5, #60]	; 0x3c
 80021f8:	4013      	ands	r3, r2
 80021fa:	9303      	str	r3, [sp, #12]
 80021fc:	9b03      	ldr	r3, [sp, #12]
 80021fe:	2301      	movs	r3, #1
 8002200:	9300      	str	r3, [sp, #0]
 8002202:	2780      	movs	r7, #128	; 0x80
 8002204:	4e90      	ldr	r6, [pc, #576]	; (8002448 <HAL_RCCEx_PeriphCLKConfig+0x274>)
 8002206:	007f      	lsls	r7, r7, #1
 8002208:	6833      	ldr	r3, [r6, #0]
 800220a:	433b      	orrs	r3, r7
 800220c:	6033      	str	r3, [r6, #0]
 800220e:	f7fe ff23 	bl	8001058 <HAL_GetTick>
 8002212:	9001      	str	r0, [sp, #4]
 8002214:	6833      	ldr	r3, [r6, #0]
 8002216:	423b      	tst	r3, r7
 8002218:	d012      	beq.n	8002240 <HAL_RCCEx_PeriphCLKConfig+0x6c>
 800221a:	6dea      	ldr	r2, [r5, #92]	; 0x5c
 800221c:	23c0      	movs	r3, #192	; 0xc0
 800221e:	0011      	movs	r1, r2
 8002220:	009b      	lsls	r3, r3, #2
 8002222:	4e8a      	ldr	r6, [pc, #552]	; (800244c <HAL_RCCEx_PeriphCLKConfig+0x278>)
 8002224:	4019      	ands	r1, r3
 8002226:	421a      	tst	r2, r3
 8002228:	d003      	beq.n	8002232 <HAL_RCCEx_PeriphCLKConfig+0x5e>
 800222a:	6c23      	ldr	r3, [r4, #64]	; 0x40
 800222c:	4299      	cmp	r1, r3
 800222e:	d000      	beq.n	8002232 <HAL_RCCEx_PeriphCLKConfig+0x5e>
 8002230:	e0e9      	b.n	8002406 <HAL_RCCEx_PeriphCLKConfig+0x232>
 8002232:	6deb      	ldr	r3, [r5, #92]	; 0x5c
 8002234:	2000      	movs	r0, #0
 8002236:	401e      	ands	r6, r3
 8002238:	6c23      	ldr	r3, [r4, #64]	; 0x40
 800223a:	431e      	orrs	r6, r3
 800223c:	65ee      	str	r6, [r5, #92]	; 0x5c
 800223e:	e006      	b.n	800224e <HAL_RCCEx_PeriphCLKConfig+0x7a>
 8002240:	f7fe ff0a 	bl	8001058 <HAL_GetTick>
 8002244:	9b01      	ldr	r3, [sp, #4]
 8002246:	1ac0      	subs	r0, r0, r3
 8002248:	2802      	cmp	r0, #2
 800224a:	d9e3      	bls.n	8002214 <HAL_RCCEx_PeriphCLKConfig+0x40>
 800224c:	2003      	movs	r0, #3
 800224e:	9b00      	ldr	r3, [sp, #0]
 8002250:	2b01      	cmp	r3, #1
 8002252:	d103      	bne.n	800225c <HAL_RCCEx_PeriphCLKConfig+0x88>
 8002254:	6beb      	ldr	r3, [r5, #60]	; 0x3c
 8002256:	4a7e      	ldr	r2, [pc, #504]	; (8002450 <HAL_RCCEx_PeriphCLKConfig+0x27c>)
 8002258:	4013      	ands	r3, r2
 800225a:	63eb      	str	r3, [r5, #60]	; 0x3c
 800225c:	6823      	ldr	r3, [r4, #0]
 800225e:	07da      	lsls	r2, r3, #31
 8002260:	d506      	bpl.n	8002270 <HAL_RCCEx_PeriphCLKConfig+0x9c>
 8002262:	2503      	movs	r5, #3
 8002264:	4977      	ldr	r1, [pc, #476]	; (8002444 <HAL_RCCEx_PeriphCLKConfig+0x270>)
 8002266:	6d4a      	ldr	r2, [r1, #84]	; 0x54
 8002268:	43aa      	bics	r2, r5
 800226a:	6865      	ldr	r5, [r4, #4]
 800226c:	432a      	orrs	r2, r5
 800226e:	654a      	str	r2, [r1, #84]	; 0x54
 8002270:	079a      	lsls	r2, r3, #30
 8002272:	d506      	bpl.n	8002282 <HAL_RCCEx_PeriphCLKConfig+0xae>
 8002274:	250c      	movs	r5, #12
 8002276:	4973      	ldr	r1, [pc, #460]	; (8002444 <HAL_RCCEx_PeriphCLKConfig+0x270>)
 8002278:	6d4a      	ldr	r2, [r1, #84]	; 0x54
 800227a:	43aa      	bics	r2, r5
 800227c:	68a5      	ldr	r5, [r4, #8]
 800227e:	432a      	orrs	r2, r5
 8002280:	654a      	str	r2, [r1, #84]	; 0x54
 8002282:	075a      	lsls	r2, r3, #29
 8002284:	d506      	bpl.n	8002294 <HAL_RCCEx_PeriphCLKConfig+0xc0>
 8002286:	2530      	movs	r5, #48	; 0x30
 8002288:	496e      	ldr	r1, [pc, #440]	; (8002444 <HAL_RCCEx_PeriphCLKConfig+0x270>)
 800228a:	6d4a      	ldr	r2, [r1, #84]	; 0x54
 800228c:	43aa      	bics	r2, r5
 800228e:	68e5      	ldr	r5, [r4, #12]
 8002290:	432a      	orrs	r2, r5
 8002292:	654a      	str	r2, [r1, #84]	; 0x54
 8002294:	06da      	lsls	r2, r3, #27
 8002296:	d506      	bpl.n	80022a6 <HAL_RCCEx_PeriphCLKConfig+0xd2>
 8002298:	496a      	ldr	r1, [pc, #424]	; (8002444 <HAL_RCCEx_PeriphCLKConfig+0x270>)
 800229a:	4d6e      	ldr	r5, [pc, #440]	; (8002454 <HAL_RCCEx_PeriphCLKConfig+0x280>)
 800229c:	6d4a      	ldr	r2, [r1, #84]	; 0x54
 800229e:	402a      	ands	r2, r5
 80022a0:	6925      	ldr	r5, [r4, #16]
 80022a2:	432a      	orrs	r2, r5
 80022a4:	654a      	str	r2, [r1, #84]	; 0x54
 80022a6:	04da      	lsls	r2, r3, #19
 80022a8:	d506      	bpl.n	80022b8 <HAL_RCCEx_PeriphCLKConfig+0xe4>
 80022aa:	4966      	ldr	r1, [pc, #408]	; (8002444 <HAL_RCCEx_PeriphCLKConfig+0x270>)
 80022ac:	4d67      	ldr	r5, [pc, #412]	; (800244c <HAL_RCCEx_PeriphCLKConfig+0x278>)
 80022ae:	6d4a      	ldr	r2, [r1, #84]	; 0x54
 80022b0:	402a      	ands	r2, r5
 80022b2:	6965      	ldr	r5, [r4, #20]
 80022b4:	432a      	orrs	r2, r5
 80022b6:	654a      	str	r2, [r1, #84]	; 0x54
 80022b8:	059a      	lsls	r2, r3, #22
 80022ba:	d506      	bpl.n	80022ca <HAL_RCCEx_PeriphCLKConfig+0xf6>
 80022bc:	4961      	ldr	r1, [pc, #388]	; (8002444 <HAL_RCCEx_PeriphCLKConfig+0x270>)
 80022be:	4d66      	ldr	r5, [pc, #408]	; (8002458 <HAL_RCCEx_PeriphCLKConfig+0x284>)
 80022c0:	6d4a      	ldr	r2, [r1, #84]	; 0x54
 80022c2:	402a      	ands	r2, r5
 80022c4:	6aa5      	ldr	r5, [r4, #40]	; 0x28
 80022c6:	432a      	orrs	r2, r5
 80022c8:	654a      	str	r2, [r1, #84]	; 0x54
 80022ca:	055a      	lsls	r2, r3, #21
 80022cc:	d506      	bpl.n	80022dc <HAL_RCCEx_PeriphCLKConfig+0x108>
 80022ce:	495d      	ldr	r1, [pc, #372]	; (8002444 <HAL_RCCEx_PeriphCLKConfig+0x270>)
 80022d0:	4d62      	ldr	r5, [pc, #392]	; (800245c <HAL_RCCEx_PeriphCLKConfig+0x288>)
 80022d2:	6d4a      	ldr	r2, [r1, #84]	; 0x54
 80022d4:	402a      	ands	r2, r5
 80022d6:	6ae5      	ldr	r5, [r4, #44]	; 0x2c
 80022d8:	432a      	orrs	r2, r5
 80022da:	654a      	str	r2, [r1, #84]	; 0x54
 80022dc:	069a      	lsls	r2, r3, #26
 80022de:	d506      	bpl.n	80022ee <HAL_RCCEx_PeriphCLKConfig+0x11a>
 80022e0:	4958      	ldr	r1, [pc, #352]	; (8002444 <HAL_RCCEx_PeriphCLKConfig+0x270>)
 80022e2:	4d5f      	ldr	r5, [pc, #380]	; (8002460 <HAL_RCCEx_PeriphCLKConfig+0x28c>)
 80022e4:	6d4a      	ldr	r2, [r1, #84]	; 0x54
 80022e6:	402a      	ands	r2, r5
 80022e8:	69a5      	ldr	r5, [r4, #24]
 80022ea:	432a      	orrs	r2, r5
 80022ec:	654a      	str	r2, [r1, #84]	; 0x54
 80022ee:	065a      	lsls	r2, r3, #25
 80022f0:	d506      	bpl.n	8002300 <HAL_RCCEx_PeriphCLKConfig+0x12c>
 80022f2:	4954      	ldr	r1, [pc, #336]	; (8002444 <HAL_RCCEx_PeriphCLKConfig+0x270>)
 80022f4:	4d5b      	ldr	r5, [pc, #364]	; (8002464 <HAL_RCCEx_PeriphCLKConfig+0x290>)
 80022f6:	6d4a      	ldr	r2, [r1, #84]	; 0x54
 80022f8:	402a      	ands	r2, r5
 80022fa:	69e5      	ldr	r5, [r4, #28]
 80022fc:	432a      	orrs	r2, r5
 80022fe:	654a      	str	r2, [r1, #84]	; 0x54
 8002300:	045a      	lsls	r2, r3, #17
 8002302:	d50f      	bpl.n	8002324 <HAL_RCCEx_PeriphCLKConfig+0x150>
 8002304:	494f      	ldr	r1, [pc, #316]	; (8002444 <HAL_RCCEx_PeriphCLKConfig+0x270>)
 8002306:	6b25      	ldr	r5, [r4, #48]	; 0x30
 8002308:	6d4a      	ldr	r2, [r1, #84]	; 0x54
 800230a:	0092      	lsls	r2, r2, #2
 800230c:	0892      	lsrs	r2, r2, #2
 800230e:	432a      	orrs	r2, r5
 8002310:	654a      	str	r2, [r1, #84]	; 0x54
 8002312:	2280      	movs	r2, #128	; 0x80
 8002314:	05d2      	lsls	r2, r2, #23
 8002316:	4295      	cmp	r5, r2
 8002318:	d104      	bne.n	8002324 <HAL_RCCEx_PeriphCLKConfig+0x150>
 800231a:	2280      	movs	r2, #128	; 0x80
 800231c:	68cd      	ldr	r5, [r1, #12]
 800231e:	0252      	lsls	r2, r2, #9
 8002320:	432a      	orrs	r2, r5
 8002322:	60ca      	str	r2, [r1, #12]
 8002324:	031a      	lsls	r2, r3, #12
 8002326:	d506      	bpl.n	8002336 <HAL_RCCEx_PeriphCLKConfig+0x162>
 8002328:	2540      	movs	r5, #64	; 0x40
 800232a:	4946      	ldr	r1, [pc, #280]	; (8002444 <HAL_RCCEx_PeriphCLKConfig+0x270>)
 800232c:	6d4a      	ldr	r2, [r1, #84]	; 0x54
 800232e:	43aa      	bics	r2, r5
 8002330:	6b65      	ldr	r5, [r4, #52]	; 0x34
 8002332:	432a      	orrs	r2, r5
 8002334:	654a      	str	r2, [r1, #84]	; 0x54
 8002336:	029a      	lsls	r2, r3, #10
 8002338:	d50f      	bpl.n	800235a <HAL_RCCEx_PeriphCLKConfig+0x186>
 800233a:	4942      	ldr	r1, [pc, #264]	; (8002444 <HAL_RCCEx_PeriphCLKConfig+0x270>)
 800233c:	4e4a      	ldr	r6, [pc, #296]	; (8002468 <HAL_RCCEx_PeriphCLKConfig+0x294>)
 800233e:	6d4a      	ldr	r2, [r1, #84]	; 0x54
 8002340:	6ba5      	ldr	r5, [r4, #56]	; 0x38
 8002342:	4032      	ands	r2, r6
 8002344:	432a      	orrs	r2, r5
 8002346:	654a      	str	r2, [r1, #84]	; 0x54
 8002348:	2280      	movs	r2, #128	; 0x80
 800234a:	03d2      	lsls	r2, r2, #15
 800234c:	4295      	cmp	r5, r2
 800234e:	d104      	bne.n	800235a <HAL_RCCEx_PeriphCLKConfig+0x186>
 8002350:	2280      	movs	r2, #128	; 0x80
 8002352:	68cd      	ldr	r5, [r1, #12]
 8002354:	0452      	lsls	r2, r2, #17
 8002356:	432a      	orrs	r2, r5
 8002358:	60ca      	str	r2, [r1, #12]
 800235a:	025a      	lsls	r2, r3, #9
 800235c:	d50d      	bpl.n	800237a <HAL_RCCEx_PeriphCLKConfig+0x1a6>
 800235e:	4d39      	ldr	r5, [pc, #228]	; (8002444 <HAL_RCCEx_PeriphCLKConfig+0x270>)
 8002360:	4e42      	ldr	r6, [pc, #264]	; (800246c <HAL_RCCEx_PeriphCLKConfig+0x298>)
 8002362:	6d69      	ldr	r1, [r5, #84]	; 0x54
 8002364:	6be2      	ldr	r2, [r4, #60]	; 0x3c
 8002366:	4031      	ands	r1, r6
 8002368:	4311      	orrs	r1, r2
 800236a:	6569      	str	r1, [r5, #84]	; 0x54
 800236c:	2180      	movs	r1, #128	; 0x80
 800236e:	0449      	lsls	r1, r1, #17
 8002370:	428a      	cmp	r2, r1
 8002372:	d102      	bne.n	800237a <HAL_RCCEx_PeriphCLKConfig+0x1a6>
 8002374:	68e9      	ldr	r1, [r5, #12]
 8002376:	430a      	orrs	r2, r1
 8002378:	60ea      	str	r2, [r5, #12]
 800237a:	051a      	lsls	r2, r3, #20
 800237c:	d50d      	bpl.n	800239a <HAL_RCCEx_PeriphCLKConfig+0x1c6>
 800237e:	2603      	movs	r6, #3
 8002380:	4930      	ldr	r1, [pc, #192]	; (8002444 <HAL_RCCEx_PeriphCLKConfig+0x270>)
 8002382:	6a25      	ldr	r5, [r4, #32]
 8002384:	6d8a      	ldr	r2, [r1, #88]	; 0x58
 8002386:	43b2      	bics	r2, r6
 8002388:	432a      	orrs	r2, r5
 800238a:	658a      	str	r2, [r1, #88]	; 0x58
 800238c:	2d01      	cmp	r5, #1
 800238e:	d104      	bne.n	800239a <HAL_RCCEx_PeriphCLKConfig+0x1c6>
 8002390:	2280      	movs	r2, #128	; 0x80
 8002392:	68cd      	ldr	r5, [r1, #12]
 8002394:	0252      	lsls	r2, r2, #9
 8002396:	432a      	orrs	r2, r5
 8002398:	60ca      	str	r2, [r1, #12]
 800239a:	049a      	lsls	r2, r3, #18
 800239c:	d50d      	bpl.n	80023ba <HAL_RCCEx_PeriphCLKConfig+0x1e6>
 800239e:	260c      	movs	r6, #12
 80023a0:	4928      	ldr	r1, [pc, #160]	; (8002444 <HAL_RCCEx_PeriphCLKConfig+0x270>)
 80023a2:	6a65      	ldr	r5, [r4, #36]	; 0x24
 80023a4:	6d8a      	ldr	r2, [r1, #88]	; 0x58
 80023a6:	43b2      	bics	r2, r6
 80023a8:	432a      	orrs	r2, r5
 80023aa:	658a      	str	r2, [r1, #88]	; 0x58
 80023ac:	2d04      	cmp	r5, #4
 80023ae:	d104      	bne.n	80023ba <HAL_RCCEx_PeriphCLKConfig+0x1e6>
 80023b0:	2280      	movs	r2, #128	; 0x80
 80023b2:	68cd      	ldr	r5, [r1, #12]
 80023b4:	0252      	lsls	r2, r2, #9
 80023b6:	432a      	orrs	r2, r5
 80023b8:	60ca      	str	r2, [r1, #12]
 80023ba:	2580      	movs	r5, #128	; 0x80
 80023bc:	046d      	lsls	r5, r5, #17
 80023be:	422b      	tst	r3, r5
 80023c0:	d00d      	beq.n	80023de <HAL_RCCEx_PeriphCLKConfig+0x20a>
 80023c2:	4920      	ldr	r1, [pc, #128]	; (8002444 <HAL_RCCEx_PeriphCLKConfig+0x270>)
 80023c4:	4f26      	ldr	r7, [pc, #152]	; (8002460 <HAL_RCCEx_PeriphCLKConfig+0x28c>)
 80023c6:	6d8a      	ldr	r2, [r1, #88]	; 0x58
 80023c8:	6c66      	ldr	r6, [r4, #68]	; 0x44
 80023ca:	403a      	ands	r2, r7
 80023cc:	4332      	orrs	r2, r6
 80023ce:	658a      	str	r2, [r1, #88]	; 0x58
 80023d0:	2280      	movs	r2, #128	; 0x80
 80023d2:	0192      	lsls	r2, r2, #6
 80023d4:	4296      	cmp	r6, r2
 80023d6:	d102      	bne.n	80023de <HAL_RCCEx_PeriphCLKConfig+0x20a>
 80023d8:	68ca      	ldr	r2, [r1, #12]
 80023da:	4315      	orrs	r5, r2
 80023dc:	60cd      	str	r5, [r1, #12]
 80023de:	019b      	lsls	r3, r3, #6
 80023e0:	d50f      	bpl.n	8002402 <HAL_RCCEx_PeriphCLKConfig+0x22e>
 80023e2:	4a18      	ldr	r2, [pc, #96]	; (8002444 <HAL_RCCEx_PeriphCLKConfig+0x270>)
 80023e4:	6ca1      	ldr	r1, [r4, #72]	; 0x48
 80023e6:	6d93      	ldr	r3, [r2, #88]	; 0x58
 80023e8:	4c18      	ldr	r4, [pc, #96]	; (800244c <HAL_RCCEx_PeriphCLKConfig+0x278>)
 80023ea:	4023      	ands	r3, r4
 80023ec:	430b      	orrs	r3, r1
 80023ee:	6593      	str	r3, [r2, #88]	; 0x58
 80023f0:	2380      	movs	r3, #128	; 0x80
 80023f2:	005b      	lsls	r3, r3, #1
 80023f4:	4299      	cmp	r1, r3
 80023f6:	d104      	bne.n	8002402 <HAL_RCCEx_PeriphCLKConfig+0x22e>
 80023f8:	2380      	movs	r3, #128	; 0x80
 80023fa:	68d1      	ldr	r1, [r2, #12]
 80023fc:	045b      	lsls	r3, r3, #17
 80023fe:	430b      	orrs	r3, r1
 8002400:	60d3      	str	r3, [r2, #12]
 8002402:	b005      	add	sp, #20
 8002404:	bdf0      	pop	{r4, r5, r6, r7, pc}
 8002406:	2380      	movs	r3, #128	; 0x80
 8002408:	6dea      	ldr	r2, [r5, #92]	; 0x5c
 800240a:	6de8      	ldr	r0, [r5, #92]	; 0x5c
 800240c:	0011      	movs	r1, r2
 800240e:	025b      	lsls	r3, r3, #9
 8002410:	4303      	orrs	r3, r0
 8002412:	65eb      	str	r3, [r5, #92]	; 0x5c
 8002414:	6deb      	ldr	r3, [r5, #92]	; 0x5c
 8002416:	4816      	ldr	r0, [pc, #88]	; (8002470 <HAL_RCCEx_PeriphCLKConfig+0x29c>)
 8002418:	4031      	ands	r1, r6
 800241a:	4003      	ands	r3, r0
 800241c:	65eb      	str	r3, [r5, #92]	; 0x5c
 800241e:	65e9      	str	r1, [r5, #92]	; 0x5c
 8002420:	07d3      	lsls	r3, r2, #31
 8002422:	d400      	bmi.n	8002426 <HAL_RCCEx_PeriphCLKConfig+0x252>
 8002424:	e705      	b.n	8002232 <HAL_RCCEx_PeriphCLKConfig+0x5e>
 8002426:	f7fe fe17 	bl	8001058 <HAL_GetTick>
 800242a:	0007      	movs	r7, r0
 800242c:	2202      	movs	r2, #2
 800242e:	6deb      	ldr	r3, [r5, #92]	; 0x5c
 8002430:	4213      	tst	r3, r2
 8002432:	d000      	beq.n	8002436 <HAL_RCCEx_PeriphCLKConfig+0x262>
 8002434:	e6fd      	b.n	8002232 <HAL_RCCEx_PeriphCLKConfig+0x5e>
 8002436:	f7fe fe0f 	bl	8001058 <HAL_GetTick>
 800243a:	4b0e      	ldr	r3, [pc, #56]	; (8002474 <HAL_RCCEx_PeriphCLKConfig+0x2a0>)
 800243c:	1bc0      	subs	r0, r0, r7
 800243e:	4298      	cmp	r0, r3
 8002440:	d9f4      	bls.n	800242c <HAL_RCCEx_PeriphCLKConfig+0x258>
 8002442:	e703      	b.n	800224c <HAL_RCCEx_PeriphCLKConfig+0x78>
 8002444:	40021000 	.word	0x40021000
 8002448:	40007000 	.word	0x40007000
 800244c:	fffffcff 	.word	0xfffffcff
 8002450:	efffffff 	.word	0xefffffff
 8002454:	fffff3ff 	.word	0xfffff3ff
 8002458:	fff3ffff 	.word	0xfff3ffff
 800245c:	ffcfffff 	.word	0xffcfffff
 8002460:	ffffcfff 	.word	0xffffcfff
 8002464:	ffff3fff 	.word	0xffff3fff
 8002468:	ffbfffff 	.word	0xffbfffff
 800246c:	feffffff 	.word	0xfeffffff
 8002470:	fffeffff 	.word	0xfffeffff
 8002474:	00001388 	.word	0x00001388

08002478 <TIM_Base_SetConfig>:
 8002478:	4a23      	ldr	r2, [pc, #140]	; (8002508 <TIM_Base_SetConfig+0x90>)
 800247a:	b510      	push	{r4, lr}
 800247c:	6803      	ldr	r3, [r0, #0]
 800247e:	4290      	cmp	r0, r2
 8002480:	d009      	beq.n	8002496 <TIM_Base_SetConfig+0x1e>
 8002482:	2480      	movs	r4, #128	; 0x80
 8002484:	05e4      	lsls	r4, r4, #23
 8002486:	42a0      	cmp	r0, r4
 8002488:	d005      	beq.n	8002496 <TIM_Base_SetConfig+0x1e>
 800248a:	4c20      	ldr	r4, [pc, #128]	; (800250c <TIM_Base_SetConfig+0x94>)
 800248c:	42a0      	cmp	r0, r4
 800248e:	d002      	beq.n	8002496 <TIM_Base_SetConfig+0x1e>
 8002490:	4c1f      	ldr	r4, [pc, #124]	; (8002510 <TIM_Base_SetConfig+0x98>)
 8002492:	42a0      	cmp	r0, r4
 8002494:	d10f      	bne.n	80024b6 <TIM_Base_SetConfig+0x3e>
 8002496:	2470      	movs	r4, #112	; 0x70
 8002498:	43a3      	bics	r3, r4
 800249a:	684c      	ldr	r4, [r1, #4]
 800249c:	4323      	orrs	r3, r4
 800249e:	4290      	cmp	r0, r2
 80024a0:	d015      	beq.n	80024ce <TIM_Base_SetConfig+0x56>
 80024a2:	2480      	movs	r4, #128	; 0x80
 80024a4:	05e4      	lsls	r4, r4, #23
 80024a6:	42a0      	cmp	r0, r4
 80024a8:	d011      	beq.n	80024ce <TIM_Base_SetConfig+0x56>
 80024aa:	4c18      	ldr	r4, [pc, #96]	; (800250c <TIM_Base_SetConfig+0x94>)
 80024ac:	42a0      	cmp	r0, r4
 80024ae:	d00e      	beq.n	80024ce <TIM_Base_SetConfig+0x56>
 80024b0:	4c17      	ldr	r4, [pc, #92]	; (8002510 <TIM_Base_SetConfig+0x98>)
 80024b2:	42a0      	cmp	r0, r4
 80024b4:	d00b      	beq.n	80024ce <TIM_Base_SetConfig+0x56>
 80024b6:	4c17      	ldr	r4, [pc, #92]	; (8002514 <TIM_Base_SetConfig+0x9c>)
 80024b8:	42a0      	cmp	r0, r4
 80024ba:	d008      	beq.n	80024ce <TIM_Base_SetConfig+0x56>
 80024bc:	4c16      	ldr	r4, [pc, #88]	; (8002518 <TIM_Base_SetConfig+0xa0>)
 80024be:	42a0      	cmp	r0, r4
 80024c0:	d005      	beq.n	80024ce <TIM_Base_SetConfig+0x56>
 80024c2:	4c16      	ldr	r4, [pc, #88]	; (800251c <TIM_Base_SetConfig+0xa4>)
 80024c4:	42a0      	cmp	r0, r4
 80024c6:	d002      	beq.n	80024ce <TIM_Base_SetConfig+0x56>
 80024c8:	4c15      	ldr	r4, [pc, #84]	; (8002520 <TIM_Base_SetConfig+0xa8>)
 80024ca:	42a0      	cmp	r0, r4
 80024cc:	d103      	bne.n	80024d6 <TIM_Base_SetConfig+0x5e>
 80024ce:	4c15      	ldr	r4, [pc, #84]	; (8002524 <TIM_Base_SetConfig+0xac>)
 80024d0:	4023      	ands	r3, r4
 80024d2:	68cc      	ldr	r4, [r1, #12]
 80024d4:	4323      	orrs	r3, r4
 80024d6:	2480      	movs	r4, #128	; 0x80
 80024d8:	43a3      	bics	r3, r4
 80024da:	694c      	ldr	r4, [r1, #20]
 80024dc:	4323      	orrs	r3, r4
 80024de:	6003      	str	r3, [r0, #0]
 80024e0:	688b      	ldr	r3, [r1, #8]
 80024e2:	62c3      	str	r3, [r0, #44]	; 0x2c
 80024e4:	680b      	ldr	r3, [r1, #0]
 80024e6:	6283      	str	r3, [r0, #40]	; 0x28
 80024e8:	4290      	cmp	r0, r2
 80024ea:	d008      	beq.n	80024fe <TIM_Base_SetConfig+0x86>
 80024ec:	4b0a      	ldr	r3, [pc, #40]	; (8002518 <TIM_Base_SetConfig+0xa0>)
 80024ee:	4298      	cmp	r0, r3
 80024f0:	d005      	beq.n	80024fe <TIM_Base_SetConfig+0x86>
 80024f2:	4b0a      	ldr	r3, [pc, #40]	; (800251c <TIM_Base_SetConfig+0xa4>)
 80024f4:	4298      	cmp	r0, r3
 80024f6:	d002      	beq.n	80024fe <TIM_Base_SetConfig+0x86>
 80024f8:	4b09      	ldr	r3, [pc, #36]	; (8002520 <TIM_Base_SetConfig+0xa8>)
 80024fa:	4298      	cmp	r0, r3
 80024fc:	d101      	bne.n	8002502 <TIM_Base_SetConfig+0x8a>
 80024fe:	690b      	ldr	r3, [r1, #16]
 8002500:	6303      	str	r3, [r0, #48]	; 0x30
 8002502:	2301      	movs	r3, #1
 8002504:	6143      	str	r3, [r0, #20]
 8002506:	bd10      	pop	{r4, pc}
 8002508:	40012c00 	.word	0x40012c00
 800250c:	40000400 	.word	0x40000400
 8002510:	40000800 	.word	0x40000800
 8002514:	40002000 	.word	0x40002000
 8002518:	40014000 	.word	0x40014000
 800251c:	40014400 	.word	0x40014400
 8002520:	40014800 	.word	0x40014800
 8002524:	fffffcff 	.word	0xfffffcff

08002528 <HAL_TIM_Base_Init>:
 8002528:	b570      	push	{r4, r5, r6, lr}
 800252a:	0004      	movs	r4, r0
 800252c:	2001      	movs	r0, #1
 800252e:	2c00      	cmp	r4, #0
 8002530:	d023      	beq.n	800257a <HAL_TIM_Base_Init+0x52>
 8002532:	0025      	movs	r5, r4
 8002534:	353d      	adds	r5, #61	; 0x3d
 8002536:	782b      	ldrb	r3, [r5, #0]
 8002538:	b2da      	uxtb	r2, r3
 800253a:	2b00      	cmp	r3, #0
 800253c:	d105      	bne.n	800254a <HAL_TIM_Base_Init+0x22>
 800253e:	0023      	movs	r3, r4
 8002540:	333c      	adds	r3, #60	; 0x3c
 8002542:	0020      	movs	r0, r4
 8002544:	701a      	strb	r2, [r3, #0]
 8002546:	f7fe fb1f 	bl	8000b88 <HAL_TIM_Base_MspInit>
 800254a:	2302      	movs	r3, #2
 800254c:	702b      	strb	r3, [r5, #0]
 800254e:	6820      	ldr	r0, [r4, #0]
 8002550:	1d21      	adds	r1, r4, #4
 8002552:	f7ff ff91 	bl	8002478 <TIM_Base_SetConfig>
 8002556:	0022      	movs	r2, r4
 8002558:	2301      	movs	r3, #1
 800255a:	2000      	movs	r0, #0
 800255c:	3248      	adds	r2, #72	; 0x48
 800255e:	7013      	strb	r3, [r2, #0]
 8002560:	3447      	adds	r4, #71	; 0x47
 8002562:	3a0a      	subs	r2, #10
 8002564:	7013      	strb	r3, [r2, #0]
 8002566:	7053      	strb	r3, [r2, #1]
 8002568:	7093      	strb	r3, [r2, #2]
 800256a:	70d3      	strb	r3, [r2, #3]
 800256c:	7113      	strb	r3, [r2, #4]
 800256e:	7153      	strb	r3, [r2, #5]
 8002570:	7193      	strb	r3, [r2, #6]
 8002572:	71d3      	strb	r3, [r2, #7]
 8002574:	7213      	strb	r3, [r2, #8]
 8002576:	7023      	strb	r3, [r4, #0]
 8002578:	702b      	strb	r3, [r5, #0]
 800257a:	bd70      	pop	{r4, r5, r6, pc}

0800257c <TIM_ETR_SetConfig>:
 800257c:	b530      	push	{r4, r5, lr}
 800257e:	6884      	ldr	r4, [r0, #8]
 8002580:	4d03      	ldr	r5, [pc, #12]	; (8002590 <TIM_ETR_SetConfig+0x14>)
 8002582:	430a      	orrs	r2, r1
 8002584:	021b      	lsls	r3, r3, #8
 8002586:	402c      	ands	r4, r5
 8002588:	4313      	orrs	r3, r2
 800258a:	4323      	orrs	r3, r4
 800258c:	6083      	str	r3, [r0, #8]
 800258e:	bd30      	pop	{r4, r5, pc}
 8002590:	ffff00ff 	.word	0xffff00ff

08002594 <HAL_TIM_ConfigClockSource>:
 8002594:	b5f8      	push	{r3, r4, r5, r6, r7, lr}
 8002596:	0005      	movs	r5, r0
 8002598:	2302      	movs	r3, #2
 800259a:	353c      	adds	r5, #60	; 0x3c
 800259c:	0004      	movs	r4, r0
 800259e:	7828      	ldrb	r0, [r5, #0]
 80025a0:	001a      	movs	r2, r3
 80025a2:	2801      	cmp	r0, #1
 80025a4:	d01d      	beq.n	80025e2 <HAL_TIM_ConfigClockSource+0x4e>
 80025a6:	0026      	movs	r6, r4
 80025a8:	2701      	movs	r7, #1
 80025aa:	363d      	adds	r6, #61	; 0x3d
 80025ac:	702f      	strb	r7, [r5, #0]
 80025ae:	7033      	strb	r3, [r6, #0]
 80025b0:	6820      	ldr	r0, [r4, #0]
 80025b2:	4a47      	ldr	r2, [pc, #284]	; (80026d0 <HAL_TIM_ConfigClockSource+0x13c>)
 80025b4:	6883      	ldr	r3, [r0, #8]
 80025b6:	4013      	ands	r3, r2
 80025b8:	6083      	str	r3, [r0, #8]
 80025ba:	680b      	ldr	r3, [r1, #0]
 80025bc:	2b60      	cmp	r3, #96	; 0x60
 80025be:	d058      	beq.n	8002672 <HAL_TIM_ConfigClockSource+0xde>
 80025c0:	d834      	bhi.n	800262c <HAL_TIM_ConfigClockSource+0x98>
 80025c2:	2b40      	cmp	r3, #64	; 0x40
 80025c4:	d100      	bne.n	80025c8 <HAL_TIM_ConfigClockSource+0x34>
 80025c6:	e06c      	b.n	80026a2 <HAL_TIM_ConfigClockSource+0x10e>
 80025c8:	d815      	bhi.n	80025f6 <HAL_TIM_ConfigClockSource+0x62>
 80025ca:	2b20      	cmp	r3, #32
 80025cc:	d00d      	beq.n	80025ea <HAL_TIM_ConfigClockSource+0x56>
 80025ce:	d80a      	bhi.n	80025e6 <HAL_TIM_ConfigClockSource+0x52>
 80025d0:	2210      	movs	r2, #16
 80025d2:	0019      	movs	r1, r3
 80025d4:	4391      	bics	r1, r2
 80025d6:	d008      	beq.n	80025ea <HAL_TIM_ConfigClockSource+0x56>
 80025d8:	003a      	movs	r2, r7
 80025da:	2301      	movs	r3, #1
 80025dc:	7033      	strb	r3, [r6, #0]
 80025de:	2300      	movs	r3, #0
 80025e0:	702b      	strb	r3, [r5, #0]
 80025e2:	0010      	movs	r0, r2
 80025e4:	bdf8      	pop	{r3, r4, r5, r6, r7, pc}
 80025e6:	2b30      	cmp	r3, #48	; 0x30
 80025e8:	d1f6      	bne.n	80025d8 <HAL_TIM_ConfigClockSource+0x44>
 80025ea:	6882      	ldr	r2, [r0, #8]
 80025ec:	4939      	ldr	r1, [pc, #228]	; (80026d4 <HAL_TIM_ConfigClockSource+0x140>)
 80025ee:	400a      	ands	r2, r1
 80025f0:	4313      	orrs	r3, r2
 80025f2:	2207      	movs	r2, #7
 80025f4:	e017      	b.n	8002626 <HAL_TIM_ConfigClockSource+0x92>
 80025f6:	2b50      	cmp	r3, #80	; 0x50
 80025f8:	d1ee      	bne.n	80025d8 <HAL_TIM_ConfigClockSource+0x44>
 80025fa:	68ca      	ldr	r2, [r1, #12]
 80025fc:	684c      	ldr	r4, [r1, #4]
 80025fe:	6a01      	ldr	r1, [r0, #32]
 8002600:	6a03      	ldr	r3, [r0, #32]
 8002602:	43bb      	bics	r3, r7
 8002604:	27f0      	movs	r7, #240	; 0xf0
 8002606:	6203      	str	r3, [r0, #32]
 8002608:	6983      	ldr	r3, [r0, #24]
 800260a:	43bb      	bics	r3, r7
 800260c:	001f      	movs	r7, r3
 800260e:	0113      	lsls	r3, r2, #4
 8002610:	220a      	movs	r2, #10
 8002612:	4391      	bics	r1, r2
 8002614:	000a      	movs	r2, r1
 8002616:	433b      	orrs	r3, r7
 8002618:	4322      	orrs	r2, r4
 800261a:	6183      	str	r3, [r0, #24]
 800261c:	6202      	str	r2, [r0, #32]
 800261e:	6883      	ldr	r3, [r0, #8]
 8002620:	4a2c      	ldr	r2, [pc, #176]	; (80026d4 <HAL_TIM_ConfigClockSource+0x140>)
 8002622:	401a      	ands	r2, r3
 8002624:	2357      	movs	r3, #87	; 0x57
 8002626:	4313      	orrs	r3, r2
 8002628:	6083      	str	r3, [r0, #8]
 800262a:	e016      	b.n	800265a <HAL_TIM_ConfigClockSource+0xc6>
 800262c:	2280      	movs	r2, #128	; 0x80
 800262e:	0152      	lsls	r2, r2, #5
 8002630:	4694      	mov	ip, r2
 8002632:	2200      	movs	r2, #0
 8002634:	4563      	cmp	r3, ip
 8002636:	d0d0      	beq.n	80025da <HAL_TIM_ConfigClockSource+0x46>
 8002638:	2280      	movs	r2, #128	; 0x80
 800263a:	0192      	lsls	r2, r2, #6
 800263c:	4293      	cmp	r3, r2
 800263e:	d00e      	beq.n	800265e <HAL_TIM_ConfigClockSource+0xca>
 8002640:	003a      	movs	r2, r7
 8002642:	2b70      	cmp	r3, #112	; 0x70
 8002644:	d1c9      	bne.n	80025da <HAL_TIM_ConfigClockSource+0x46>
 8002646:	68cb      	ldr	r3, [r1, #12]
 8002648:	684a      	ldr	r2, [r1, #4]
 800264a:	6889      	ldr	r1, [r1, #8]
 800264c:	f7ff ff96 	bl	800257c <TIM_ETR_SetConfig>
 8002650:	2377      	movs	r3, #119	; 0x77
 8002652:	6822      	ldr	r2, [r4, #0]
 8002654:	6891      	ldr	r1, [r2, #8]
 8002656:	430b      	orrs	r3, r1
 8002658:	6093      	str	r3, [r2, #8]
 800265a:	2200      	movs	r2, #0
 800265c:	e7bd      	b.n	80025da <HAL_TIM_ConfigClockSource+0x46>
 800265e:	68cb      	ldr	r3, [r1, #12]
 8002660:	684a      	ldr	r2, [r1, #4]
 8002662:	6889      	ldr	r1, [r1, #8]
 8002664:	f7ff ff8a 	bl	800257c <TIM_ETR_SetConfig>
 8002668:	2380      	movs	r3, #128	; 0x80
 800266a:	6822      	ldr	r2, [r4, #0]
 800266c:	01db      	lsls	r3, r3, #7
 800266e:	6891      	ldr	r1, [r2, #8]
 8002670:	e7f1      	b.n	8002656 <HAL_TIM_ConfigClockSource+0xc2>
 8002672:	684a      	ldr	r2, [r1, #4]
 8002674:	68cf      	ldr	r7, [r1, #12]
 8002676:	2110      	movs	r1, #16
 8002678:	6a03      	ldr	r3, [r0, #32]
 800267a:	4c17      	ldr	r4, [pc, #92]	; (80026d8 <HAL_TIM_ConfigClockSource+0x144>)
 800267c:	438b      	bics	r3, r1
 800267e:	6203      	str	r3, [r0, #32]
 8002680:	6981      	ldr	r1, [r0, #24]
 8002682:	6a03      	ldr	r3, [r0, #32]
 8002684:	4021      	ands	r1, r4
 8002686:	24a0      	movs	r4, #160	; 0xa0
 8002688:	43a3      	bics	r3, r4
 800268a:	001c      	movs	r4, r3
 800268c:	033f      	lsls	r7, r7, #12
 800268e:	0113      	lsls	r3, r2, #4
 8002690:	4323      	orrs	r3, r4
 8002692:	4339      	orrs	r1, r7
 8002694:	6181      	str	r1, [r0, #24]
 8002696:	6203      	str	r3, [r0, #32]
 8002698:	6883      	ldr	r3, [r0, #8]
 800269a:	4a0e      	ldr	r2, [pc, #56]	; (80026d4 <HAL_TIM_ConfigClockSource+0x140>)
 800269c:	401a      	ands	r2, r3
 800269e:	2367      	movs	r3, #103	; 0x67
 80026a0:	e7c1      	b.n	8002626 <HAL_TIM_ConfigClockSource+0x92>
 80026a2:	68ca      	ldr	r2, [r1, #12]
 80026a4:	684c      	ldr	r4, [r1, #4]
 80026a6:	6a01      	ldr	r1, [r0, #32]
 80026a8:	6a03      	ldr	r3, [r0, #32]
 80026aa:	43bb      	bics	r3, r7
 80026ac:	27f0      	movs	r7, #240	; 0xf0
 80026ae:	6203      	str	r3, [r0, #32]
 80026b0:	6983      	ldr	r3, [r0, #24]
 80026b2:	43bb      	bics	r3, r7
 80026b4:	001f      	movs	r7, r3
 80026b6:	0113      	lsls	r3, r2, #4
 80026b8:	220a      	movs	r2, #10
 80026ba:	4391      	bics	r1, r2
 80026bc:	000a      	movs	r2, r1
 80026be:	433b      	orrs	r3, r7
 80026c0:	4322      	orrs	r2, r4
 80026c2:	6183      	str	r3, [r0, #24]
 80026c4:	6202      	str	r2, [r0, #32]
 80026c6:	6883      	ldr	r3, [r0, #8]
 80026c8:	4a02      	ldr	r2, [pc, #8]	; (80026d4 <HAL_TIM_ConfigClockSource+0x140>)
 80026ca:	401a      	ands	r2, r3
 80026cc:	2347      	movs	r3, #71	; 0x47
 80026ce:	e7aa      	b.n	8002626 <HAL_TIM_ConfigClockSource+0x92>
 80026d0:	ffce0088 	.word	0xffce0088
 80026d4:	ffcfff8f 	.word	0xffcfff8f
 80026d8:	ffff0fff 	.word	0xffff0fff

080026dc <HAL_TIMEx_MasterConfigSynchronization>:
 80026dc:	b5f0      	push	{r4, r5, r6, r7, lr}
 80026de:	0004      	movs	r4, r0
 80026e0:	2202      	movs	r2, #2
 80026e2:	343c      	adds	r4, #60	; 0x3c
 80026e4:	7825      	ldrb	r5, [r4, #0]
 80026e6:	0003      	movs	r3, r0
 80026e8:	0010      	movs	r0, r2
 80026ea:	2d01      	cmp	r5, #1
 80026ec:	d029      	beq.n	8002742 <HAL_TIMEx_MasterConfigSynchronization+0x66>
 80026ee:	001d      	movs	r5, r3
 80026f0:	353d      	adds	r5, #61	; 0x3d
 80026f2:	702a      	strb	r2, [r5, #0]
 80026f4:	681b      	ldr	r3, [r3, #0]
 80026f6:	4e13      	ldr	r6, [pc, #76]	; (8002744 <HAL_TIMEx_MasterConfigSynchronization+0x68>)
 80026f8:	685a      	ldr	r2, [r3, #4]
 80026fa:	6898      	ldr	r0, [r3, #8]
 80026fc:	42b3      	cmp	r3, r6
 80026fe:	d103      	bne.n	8002708 <HAL_TIMEx_MasterConfigSynchronization+0x2c>
 8002700:	4f11      	ldr	r7, [pc, #68]	; (8002748 <HAL_TIMEx_MasterConfigSynchronization+0x6c>)
 8002702:	403a      	ands	r2, r7
 8002704:	684f      	ldr	r7, [r1, #4]
 8002706:	433a      	orrs	r2, r7
 8002708:	2770      	movs	r7, #112	; 0x70
 800270a:	43ba      	bics	r2, r7
 800270c:	680f      	ldr	r7, [r1, #0]
 800270e:	433a      	orrs	r2, r7
 8002710:	605a      	str	r2, [r3, #4]
 8002712:	42b3      	cmp	r3, r6
 8002714:	d00c      	beq.n	8002730 <HAL_TIMEx_MasterConfigSynchronization+0x54>
 8002716:	2280      	movs	r2, #128	; 0x80
 8002718:	05d2      	lsls	r2, r2, #23
 800271a:	4293      	cmp	r3, r2
 800271c:	d008      	beq.n	8002730 <HAL_TIMEx_MasterConfigSynchronization+0x54>
 800271e:	4a0b      	ldr	r2, [pc, #44]	; (800274c <HAL_TIMEx_MasterConfigSynchronization+0x70>)
 8002720:	4293      	cmp	r3, r2
 8002722:	d005      	beq.n	8002730 <HAL_TIMEx_MasterConfigSynchronization+0x54>
 8002724:	4a0a      	ldr	r2, [pc, #40]	; (8002750 <HAL_TIMEx_MasterConfigSynchronization+0x74>)
 8002726:	4293      	cmp	r3, r2
 8002728:	d002      	beq.n	8002730 <HAL_TIMEx_MasterConfigSynchronization+0x54>
 800272a:	4a0a      	ldr	r2, [pc, #40]	; (8002754 <HAL_TIMEx_MasterConfigSynchronization+0x78>)
 800272c:	4293      	cmp	r3, r2
 800272e:	d104      	bne.n	800273a <HAL_TIMEx_MasterConfigSynchronization+0x5e>
 8002730:	2280      	movs	r2, #128	; 0x80
 8002732:	4390      	bics	r0, r2
 8002734:	688a      	ldr	r2, [r1, #8]
 8002736:	4310      	orrs	r0, r2
 8002738:	6098      	str	r0, [r3, #8]
 800273a:	2301      	movs	r3, #1
 800273c:	2000      	movs	r0, #0
 800273e:	702b      	strb	r3, [r5, #0]
 8002740:	7020      	strb	r0, [r4, #0]
 8002742:	bdf0      	pop	{r4, r5, r6, r7, pc}
 8002744:	40012c00 	.word	0x40012c00
 8002748:	ff0fffff 	.word	0xff0fffff
 800274c:	40000400 	.word	0x40000400
 8002750:	40000800 	.word	0x40000800
 8002754:	40014000 	.word	0x40014000

08002758 <UART_SetConfig>:
 8002758:	b5f8      	push	{r3, r4, r5, r6, r7, lr}
 800275a:	0004      	movs	r4, r0
 800275c:	6925      	ldr	r5, [r4, #16]
 800275e:	68a1      	ldr	r1, [r4, #8]
 8002760:	6803      	ldr	r3, [r0, #0]
 8002762:	4329      	orrs	r1, r5
 8002764:	6965      	ldr	r5, [r4, #20]
 8002766:	69c2      	ldr	r2, [r0, #28]
 8002768:	4329      	orrs	r1, r5
 800276a:	6818      	ldr	r0, [r3, #0]
 800276c:	4d9e      	ldr	r5, [pc, #632]	; (80029e8 <UART_SetConfig+0x290>)
 800276e:	4311      	orrs	r1, r2
 8002770:	4028      	ands	r0, r5
 8002772:	4301      	orrs	r1, r0
 8002774:	6019      	str	r1, [r3, #0]
 8002776:	6859      	ldr	r1, [r3, #4]
 8002778:	489c      	ldr	r0, [pc, #624]	; (80029ec <UART_SetConfig+0x294>)
 800277a:	69a5      	ldr	r5, [r4, #24]
 800277c:	4001      	ands	r1, r0
 800277e:	68e0      	ldr	r0, [r4, #12]
 8002780:	4301      	orrs	r1, r0
 8002782:	489b      	ldr	r0, [pc, #620]	; (80029f0 <UART_SetConfig+0x298>)
 8002784:	6059      	str	r1, [r3, #4]
 8002786:	4283      	cmp	r3, r0
 8002788:	d004      	beq.n	8002794 <UART_SetConfig+0x3c>
 800278a:	499a      	ldr	r1, [pc, #616]	; (80029f4 <UART_SetConfig+0x29c>)
 800278c:	428b      	cmp	r3, r1
 800278e:	d001      	beq.n	8002794 <UART_SetConfig+0x3c>
 8002790:	6a21      	ldr	r1, [r4, #32]
 8002792:	430d      	orrs	r5, r1
 8002794:	6899      	ldr	r1, [r3, #8]
 8002796:	4e98      	ldr	r6, [pc, #608]	; (80029f8 <UART_SetConfig+0x2a0>)
 8002798:	4031      	ands	r1, r6
 800279a:	4329      	orrs	r1, r5
 800279c:	250f      	movs	r5, #15
 800279e:	6099      	str	r1, [r3, #8]
 80027a0:	6ad9      	ldr	r1, [r3, #44]	; 0x2c
 80027a2:	43a9      	bics	r1, r5
 80027a4:	6a65      	ldr	r5, [r4, #36]	; 0x24
 80027a6:	4329      	orrs	r1, r5
 80027a8:	62d9      	str	r1, [r3, #44]	; 0x2c
 80027aa:	4994      	ldr	r1, [pc, #592]	; (80029fc <UART_SetConfig+0x2a4>)
 80027ac:	428b      	cmp	r3, r1
 80027ae:	d116      	bne.n	80027de <UART_SetConfig+0x86>
 80027b0:	2103      	movs	r1, #3
 80027b2:	4b93      	ldr	r3, [pc, #588]	; (8002a00 <UART_SetConfig+0x2a8>)
 80027b4:	2000      	movs	r0, #0
 80027b6:	6d5b      	ldr	r3, [r3, #84]	; 0x54
 80027b8:	400b      	ands	r3, r1
 80027ba:	3b01      	subs	r3, #1
 80027bc:	4991      	ldr	r1, [pc, #580]	; (8002a04 <UART_SetConfig+0x2ac>)
 80027be:	2b02      	cmp	r3, #2
 80027c0:	d915      	bls.n	80027ee <UART_SetConfig+0x96>
 80027c2:	2380      	movs	r3, #128	; 0x80
 80027c4:	021b      	lsls	r3, r3, #8
 80027c6:	429a      	cmp	r2, r3
 80027c8:	d000      	beq.n	80027cc <UART_SetConfig+0x74>
 80027ca:	e0a7      	b.n	800291c <UART_SetConfig+0x1c4>
 80027cc:	2808      	cmp	r0, #8
 80027ce:	d821      	bhi.n	8002814 <UART_SetConfig+0xbc>
 80027d0:	f7fd fc98 	bl	8000104 <__gnu_thumb1_case_uqi>
 80027d4:	20a220dd 	.word	0x20a220dd
 80027d8:	202020d0 	.word	0x202020d0
 80027dc:	e2          	.byte	0xe2
 80027dd:	00          	.byte	0x00
 80027de:	498a      	ldr	r1, [pc, #552]	; (8002a08 <UART_SetConfig+0x2b0>)
 80027e0:	428b      	cmp	r3, r1
 80027e2:	d106      	bne.n	80027f2 <UART_SetConfig+0x9a>
 80027e4:	210c      	movs	r1, #12
 80027e6:	4b86      	ldr	r3, [pc, #536]	; (8002a00 <UART_SetConfig+0x2a8>)
 80027e8:	6d5b      	ldr	r3, [r3, #84]	; 0x54
 80027ea:	400b      	ands	r3, r1
 80027ec:	4987      	ldr	r1, [pc, #540]	; (8002a0c <UART_SetConfig+0x2b4>)
 80027ee:	5cc8      	ldrb	r0, [r1, r3]
 80027f0:	e7e7      	b.n	80027c2 <UART_SetConfig+0x6a>
 80027f2:	4987      	ldr	r1, [pc, #540]	; (8002a10 <UART_SetConfig+0x2b8>)
 80027f4:	428b      	cmp	r3, r1
 80027f6:	d117      	bne.n	8002828 <UART_SetConfig+0xd0>
 80027f8:	2030      	movs	r0, #48	; 0x30
 80027fa:	4981      	ldr	r1, [pc, #516]	; (8002a00 <UART_SetConfig+0x2a8>)
 80027fc:	6d49      	ldr	r1, [r1, #84]	; 0x54
 80027fe:	4001      	ands	r1, r0
 8002800:	2920      	cmp	r1, #32
 8002802:	d100      	bne.n	8002806 <UART_SetConfig+0xae>
 8002804:	e0b9      	b.n	800297a <UART_SetConfig+0x222>
 8002806:	d807      	bhi.n	8002818 <UART_SetConfig+0xc0>
 8002808:	2900      	cmp	r1, #0
 800280a:	d100      	bne.n	800280e <UART_SetConfig+0xb6>
 800280c:	e0e2      	b.n	80029d4 <UART_SetConfig+0x27c>
 800280e:	2910      	cmp	r1, #16
 8002810:	d100      	bne.n	8002814 <UART_SetConfig+0xbc>
 8002812:	e0ab      	b.n	800296c <UART_SetConfig+0x214>
 8002814:	2001      	movs	r0, #1
 8002816:	e04b      	b.n	80028b0 <UART_SetConfig+0x158>
 8002818:	2930      	cmp	r1, #48	; 0x30
 800281a:	d1fb      	bne.n	8002814 <UART_SetConfig+0xbc>
 800281c:	2080      	movs	r0, #128	; 0x80
 800281e:	0200      	lsls	r0, r0, #8
 8002820:	4282      	cmp	r2, r0
 8002822:	d000      	beq.n	8002826 <UART_SetConfig+0xce>
 8002824:	e08a      	b.n	800293c <UART_SetConfig+0x1e4>
 8002826:	e0b7      	b.n	8002998 <UART_SetConfig+0x240>
 8002828:	497a      	ldr	r1, [pc, #488]	; (8002a14 <UART_SetConfig+0x2bc>)
 800282a:	428b      	cmp	r3, r1
 800282c:	d100      	bne.n	8002830 <UART_SetConfig+0xd8>
 800282e:	e0aa      	b.n	8002986 <UART_SetConfig+0x22e>
 8002830:	4979      	ldr	r1, [pc, #484]	; (8002a18 <UART_SetConfig+0x2c0>)
 8002832:	428b      	cmp	r3, r1
 8002834:	d100      	bne.n	8002838 <UART_SetConfig+0xe0>
 8002836:	e0a6      	b.n	8002986 <UART_SetConfig+0x22e>
 8002838:	4978      	ldr	r1, [pc, #480]	; (8002a1c <UART_SetConfig+0x2c4>)
 800283a:	428b      	cmp	r3, r1
 800283c:	d100      	bne.n	8002840 <UART_SetConfig+0xe8>
 800283e:	e0a2      	b.n	8002986 <UART_SetConfig+0x22e>
 8002840:	4283      	cmp	r3, r0
 8002842:	d117      	bne.n	8002874 <UART_SetConfig+0x11c>
 8002844:	22c0      	movs	r2, #192	; 0xc0
 8002846:	2180      	movs	r1, #128	; 0x80
 8002848:	4b6d      	ldr	r3, [pc, #436]	; (8002a00 <UART_SetConfig+0x2a8>)
 800284a:	0112      	lsls	r2, r2, #4
 800284c:	6d5b      	ldr	r3, [r3, #84]	; 0x54
 800284e:	0109      	lsls	r1, r1, #4
 8002850:	4013      	ands	r3, r2
 8002852:	428b      	cmp	r3, r1
 8002854:	d032      	beq.n	80028bc <UART_SetConfig+0x164>
 8002856:	d808      	bhi.n	800286a <UART_SetConfig+0x112>
 8002858:	2b00      	cmp	r3, #0
 800285a:	d024      	beq.n	80028a6 <UART_SetConfig+0x14e>
 800285c:	2280      	movs	r2, #128	; 0x80
 800285e:	00d2      	lsls	r2, r2, #3
 8002860:	4293      	cmp	r3, r2
 8002862:	d1d7      	bne.n	8002814 <UART_SetConfig+0xbc>
 8002864:	f7ff fbae 	bl	8001fc4 <HAL_RCC_GetSysClockFreq>
 8002868:	e01f      	b.n	80028aa <UART_SetConfig+0x152>
 800286a:	4293      	cmp	r3, r2
 800286c:	d1d2      	bne.n	8002814 <UART_SetConfig+0xbc>
 800286e:	2680      	movs	r6, #128	; 0x80
 8002870:	0236      	lsls	r6, r6, #8
 8002872:	e024      	b.n	80028be <UART_SetConfig+0x166>
 8002874:	495f      	ldr	r1, [pc, #380]	; (80029f4 <UART_SetConfig+0x29c>)
 8002876:	2001      	movs	r0, #1
 8002878:	428b      	cmp	r3, r1
 800287a:	d119      	bne.n	80028b0 <UART_SetConfig+0x158>
 800287c:	20c0      	movs	r0, #192	; 0xc0
 800287e:	2580      	movs	r5, #128	; 0x80
 8002880:	495f      	ldr	r1, [pc, #380]	; (8002a00 <UART_SetConfig+0x2a8>)
 8002882:	0080      	lsls	r0, r0, #2
 8002884:	6d49      	ldr	r1, [r1, #84]	; 0x54
 8002886:	00ad      	lsls	r5, r5, #2
 8002888:	4001      	ands	r1, r0
 800288a:	42a9      	cmp	r1, r5
 800288c:	d016      	beq.n	80028bc <UART_SetConfig+0x164>
 800288e:	d807      	bhi.n	80028a0 <UART_SetConfig+0x148>
 8002890:	2900      	cmp	r1, #0
 8002892:	d100      	bne.n	8002896 <UART_SetConfig+0x13e>
 8002894:	e09e      	b.n	80029d4 <UART_SetConfig+0x27c>
 8002896:	2380      	movs	r3, #128	; 0x80
 8002898:	005b      	lsls	r3, r3, #1
 800289a:	4299      	cmp	r1, r3
 800289c:	d0e2      	beq.n	8002864 <UART_SetConfig+0x10c>
 800289e:	e7b9      	b.n	8002814 <UART_SetConfig+0xbc>
 80028a0:	4281      	cmp	r1, r0
 80028a2:	d0e4      	beq.n	800286e <UART_SetConfig+0x116>
 80028a4:	e7b6      	b.n	8002814 <UART_SetConfig+0xbc>
 80028a6:	f7ff fc81 	bl	80021ac <HAL_RCC_GetPCLK1Freq>
 80028aa:	1e06      	subs	r6, r0, #0
 80028ac:	d107      	bne.n	80028be <UART_SetConfig+0x166>
 80028ae:	2000      	movs	r0, #0
 80028b0:	4b5b      	ldr	r3, [pc, #364]	; (8002a20 <UART_SetConfig+0x2c8>)
 80028b2:	66a3      	str	r3, [r4, #104]	; 0x68
 80028b4:	2300      	movs	r3, #0
 80028b6:	6763      	str	r3, [r4, #116]	; 0x74
 80028b8:	67a3      	str	r3, [r4, #120]	; 0x78
 80028ba:	bdf8      	pop	{r3, r4, r5, r6, r7, pc}
 80028bc:	4e59      	ldr	r6, [pc, #356]	; (8002a24 <UART_SetConfig+0x2cc>)
 80028be:	6a63      	ldr	r3, [r4, #36]	; 0x24
 80028c0:	4a59      	ldr	r2, [pc, #356]	; (8002a28 <UART_SetConfig+0x2d0>)
 80028c2:	005b      	lsls	r3, r3, #1
 80028c4:	5a9f      	ldrh	r7, [r3, r2]
 80028c6:	0030      	movs	r0, r6
 80028c8:	0039      	movs	r1, r7
 80028ca:	f7fd fc2f 	bl	800012c <__udivsi3>
 80028ce:	2303      	movs	r3, #3
 80028d0:	6865      	ldr	r5, [r4, #4]
 80028d2:	436b      	muls	r3, r5
 80028d4:	4283      	cmp	r3, r0
 80028d6:	d89d      	bhi.n	8002814 <UART_SetConfig+0xbc>
 80028d8:	032b      	lsls	r3, r5, #12
 80028da:	4283      	cmp	r3, r0
 80028dc:	d39a      	bcc.n	8002814 <UART_SetConfig+0xbc>
 80028de:	2300      	movs	r3, #0
 80028e0:	003a      	movs	r2, r7
 80028e2:	0030      	movs	r0, r6
 80028e4:	0019      	movs	r1, r3
 80028e6:	f7fd fd97 	bl	8000418 <__aeabi_uldivmod>
 80028ea:	2700      	movs	r7, #0
 80028ec:	0e06      	lsrs	r6, r0, #24
 80028ee:	020b      	lsls	r3, r1, #8
 80028f0:	4333      	orrs	r3, r6
 80028f2:	0202      	lsls	r2, r0, #8
 80028f4:	086e      	lsrs	r6, r5, #1
 80028f6:	1992      	adds	r2, r2, r6
 80028f8:	417b      	adcs	r3, r7
 80028fa:	0010      	movs	r0, r2
 80028fc:	0019      	movs	r1, r3
 80028fe:	002a      	movs	r2, r5
 8002900:	003b      	movs	r3, r7
 8002902:	f7fd fd89 	bl	8000418 <__aeabi_uldivmod>
 8002906:	4b49      	ldr	r3, [pc, #292]	; (8002a2c <UART_SetConfig+0x2d4>)
 8002908:	18c2      	adds	r2, r0, r3
 800290a:	4b49      	ldr	r3, [pc, #292]	; (8002a30 <UART_SetConfig+0x2d8>)
 800290c:	429a      	cmp	r2, r3
 800290e:	d900      	bls.n	8002912 <UART_SetConfig+0x1ba>
 8002910:	e780      	b.n	8002814 <UART_SetConfig+0xbc>
 8002912:	6823      	ldr	r3, [r4, #0]
 8002914:	60d8      	str	r0, [r3, #12]
 8002916:	e7ca      	b.n	80028ae <UART_SetConfig+0x156>
 8002918:	4a42      	ldr	r2, [pc, #264]	; (8002a24 <UART_SetConfig+0x2cc>)
 800291a:	e03d      	b.n	8002998 <UART_SetConfig+0x240>
 800291c:	2808      	cmp	r0, #8
 800291e:	d900      	bls.n	8002922 <UART_SetConfig+0x1ca>
 8002920:	e778      	b.n	8002814 <UART_SetConfig+0xbc>
 8002922:	f7fd fbf9 	bl	8000118 <__gnu_thumb1_case_shi>
 8002926:	001b      	.short	0x001b
 8002928:	002eff77 	.word	0x002eff77
 800292c:	0020ff77 	.word	0x0020ff77
 8002930:	ff77ff77 	.word	0xff77ff77
 8002934:	0009ff77 	.word	0x0009ff77
 8002938:	2080      	movs	r0, #128	; 0x80
 800293a:	0200      	lsls	r0, r0, #8
 800293c:	6a63      	ldr	r3, [r4, #36]	; 0x24
 800293e:	4a3a      	ldr	r2, [pc, #232]	; (8002a28 <UART_SetConfig+0x2d0>)
 8002940:	005b      	lsls	r3, r3, #1
 8002942:	5a99      	ldrh	r1, [r3, r2]
 8002944:	f7fd fbf2 	bl	800012c <__udivsi3>
 8002948:	6865      	ldr	r5, [r4, #4]
 800294a:	086b      	lsrs	r3, r5, #1
 800294c:	18c0      	adds	r0, r0, r3
 800294e:	0029      	movs	r1, r5
 8002950:	f7fd fbec 	bl	800012c <__udivsi3>
 8002954:	0002      	movs	r2, r0
 8002956:	4b37      	ldr	r3, [pc, #220]	; (8002a34 <UART_SetConfig+0x2dc>)
 8002958:	3a10      	subs	r2, #16
 800295a:	e7d7      	b.n	800290c <UART_SetConfig+0x1b4>
 800295c:	f7ff fc26 	bl	80021ac <HAL_RCC_GetPCLK1Freq>
 8002960:	2800      	cmp	r0, #0
 8002962:	d0a4      	beq.n	80028ae <UART_SetConfig+0x156>
 8002964:	e7ea      	b.n	800293c <UART_SetConfig+0x1e4>
 8002966:	f7ff fb2d 	bl	8001fc4 <HAL_RCC_GetSysClockFreq>
 800296a:	e7f9      	b.n	8002960 <UART_SetConfig+0x208>
 800296c:	2380      	movs	r3, #128	; 0x80
 800296e:	021b      	lsls	r3, r3, #8
 8002970:	429a      	cmp	r2, r3
 8002972:	d1f8      	bne.n	8002966 <UART_SetConfig+0x20e>
 8002974:	f7ff fb26 	bl	8001fc4 <HAL_RCC_GetSysClockFreq>
 8002978:	e00b      	b.n	8002992 <UART_SetConfig+0x23a>
 800297a:	2380      	movs	r3, #128	; 0x80
 800297c:	021b      	lsls	r3, r3, #8
 800297e:	429a      	cmp	r2, r3
 8002980:	d0ca      	beq.n	8002918 <UART_SetConfig+0x1c0>
 8002982:	4828      	ldr	r0, [pc, #160]	; (8002a24 <UART_SetConfig+0x2cc>)
 8002984:	e7da      	b.n	800293c <UART_SetConfig+0x1e4>
 8002986:	2380      	movs	r3, #128	; 0x80
 8002988:	021b      	lsls	r3, r3, #8
 800298a:	429a      	cmp	r2, r3
 800298c:	d1e6      	bne.n	800295c <UART_SetConfig+0x204>
 800298e:	f7ff fc0d 	bl	80021ac <HAL_RCC_GetPCLK1Freq>
 8002992:	1e02      	subs	r2, r0, #0
 8002994:	d100      	bne.n	8002998 <UART_SetConfig+0x240>
 8002996:	e78a      	b.n	80028ae <UART_SetConfig+0x156>
 8002998:	6a63      	ldr	r3, [r4, #36]	; 0x24
 800299a:	4923      	ldr	r1, [pc, #140]	; (8002a28 <UART_SetConfig+0x2d0>)
 800299c:	005b      	lsls	r3, r3, #1
 800299e:	0010      	movs	r0, r2
 80029a0:	5a59      	ldrh	r1, [r3, r1]
 80029a2:	f7fd fbc3 	bl	800012c <__udivsi3>
 80029a6:	6865      	ldr	r5, [r4, #4]
 80029a8:	0040      	lsls	r0, r0, #1
 80029aa:	086b      	lsrs	r3, r5, #1
 80029ac:	18c0      	adds	r0, r0, r3
 80029ae:	0029      	movs	r1, r5
 80029b0:	f7fd fbbc 	bl	800012c <__udivsi3>
 80029b4:	0002      	movs	r2, r0
 80029b6:	4b1f      	ldr	r3, [pc, #124]	; (8002a34 <UART_SetConfig+0x2dc>)
 80029b8:	3a10      	subs	r2, #16
 80029ba:	429a      	cmp	r2, r3
 80029bc:	d900      	bls.n	80029c0 <UART_SetConfig+0x268>
 80029be:	e729      	b.n	8002814 <UART_SetConfig+0xbc>
 80029c0:	230f      	movs	r3, #15
 80029c2:	0002      	movs	r2, r0
 80029c4:	0700      	lsls	r0, r0, #28
 80029c6:	439a      	bics	r2, r3
 80029c8:	b293      	uxth	r3, r2
 80029ca:	0f40      	lsrs	r0, r0, #29
 80029cc:	6822      	ldr	r2, [r4, #0]
 80029ce:	4318      	orrs	r0, r3
 80029d0:	60d0      	str	r0, [r2, #12]
 80029d2:	e76c      	b.n	80028ae <UART_SetConfig+0x156>
 80029d4:	4907      	ldr	r1, [pc, #28]	; (80029f4 <UART_SetConfig+0x29c>)
 80029d6:	428b      	cmp	r3, r1
 80029d8:	d100      	bne.n	80029dc <UART_SetConfig+0x284>
 80029da:	e764      	b.n	80028a6 <UART_SetConfig+0x14e>
 80029dc:	2380      	movs	r3, #128	; 0x80
 80029de:	2000      	movs	r0, #0
 80029e0:	021b      	lsls	r3, r3, #8
 80029e2:	429a      	cmp	r2, r3
 80029e4:	d19d      	bne.n	8002922 <UART_SetConfig+0x1ca>
 80029e6:	e7d2      	b.n	800298e <UART_SetConfig+0x236>
 80029e8:	cfff69f3 	.word	0xcfff69f3
 80029ec:	ffffcfff 	.word	0xffffcfff
 80029f0:	40008000 	.word	0x40008000
 80029f4:	40008400 	.word	0x40008400
 80029f8:	11fff4ff 	.word	0x11fff4ff
 80029fc:	40013800 	.word	0x40013800
 8002a00:	40021000 	.word	0x40021000
 8002a04:	08002e94 	.word	0x08002e94
 8002a08:	40004400 	.word	0x40004400
 8002a0c:	08002e97 	.word	0x08002e97
 8002a10:	40004800 	.word	0x40004800
 8002a14:	40004c00 	.word	0x40004c00
 8002a18:	40005000 	.word	0x40005000
 8002a1c:	40013c00 	.word	0x40013c00
 8002a20:	00010001 	.word	0x00010001
 8002a24:	00f42400 	.word	0x00f42400
 8002a28:	08002ea4 	.word	0x08002ea4
 8002a2c:	fffffd00 	.word	0xfffffd00
 8002a30:	000ffcff 	.word	0x000ffcff
 8002a34:	0000ffef 	.word	0x0000ffef

08002a38 <UART_AdvFeatureConfig>:
 8002a38:	6a83      	ldr	r3, [r0, #40]	; 0x28
 8002a3a:	b530      	push	{r4, r5, lr}
 8002a3c:	07da      	lsls	r2, r3, #31
 8002a3e:	d506      	bpl.n	8002a4e <UART_AdvFeatureConfig+0x16>
 8002a40:	6801      	ldr	r1, [r0, #0]
 8002a42:	4c28      	ldr	r4, [pc, #160]	; (8002ae4 <UART_AdvFeatureConfig+0xac>)
 8002a44:	684a      	ldr	r2, [r1, #4]
 8002a46:	4022      	ands	r2, r4
 8002a48:	6ac4      	ldr	r4, [r0, #44]	; 0x2c
 8002a4a:	4322      	orrs	r2, r4
 8002a4c:	604a      	str	r2, [r1, #4]
 8002a4e:	079a      	lsls	r2, r3, #30
 8002a50:	d506      	bpl.n	8002a60 <UART_AdvFeatureConfig+0x28>
 8002a52:	6801      	ldr	r1, [r0, #0]
 8002a54:	4c24      	ldr	r4, [pc, #144]	; (8002ae8 <UART_AdvFeatureConfig+0xb0>)
 8002a56:	684a      	ldr	r2, [r1, #4]
 8002a58:	4022      	ands	r2, r4
 8002a5a:	6b04      	ldr	r4, [r0, #48]	; 0x30
 8002a5c:	4322      	orrs	r2, r4
 8002a5e:	604a      	str	r2, [r1, #4]
 8002a60:	075a      	lsls	r2, r3, #29
 8002a62:	d506      	bpl.n	8002a72 <UART_AdvFeatureConfig+0x3a>
 8002a64:	6801      	ldr	r1, [r0, #0]
 8002a66:	4c21      	ldr	r4, [pc, #132]	; (8002aec <UART_AdvFeatureConfig+0xb4>)
 8002a68:	684a      	ldr	r2, [r1, #4]
 8002a6a:	4022      	ands	r2, r4
 8002a6c:	6b44      	ldr	r4, [r0, #52]	; 0x34
 8002a6e:	4322      	orrs	r2, r4
 8002a70:	604a      	str	r2, [r1, #4]
 8002a72:	071a      	lsls	r2, r3, #28
 8002a74:	d506      	bpl.n	8002a84 <UART_AdvFeatureConfig+0x4c>
 8002a76:	6801      	ldr	r1, [r0, #0]
 8002a78:	4c1d      	ldr	r4, [pc, #116]	; (8002af0 <UART_AdvFeatureConfig+0xb8>)
 8002a7a:	684a      	ldr	r2, [r1, #4]
 8002a7c:	4022      	ands	r2, r4
 8002a7e:	6b84      	ldr	r4, [r0, #56]	; 0x38
 8002a80:	4322      	orrs	r2, r4
 8002a82:	604a      	str	r2, [r1, #4]
 8002a84:	06da      	lsls	r2, r3, #27
 8002a86:	d506      	bpl.n	8002a96 <UART_AdvFeatureConfig+0x5e>
 8002a88:	6801      	ldr	r1, [r0, #0]
 8002a8a:	4c1a      	ldr	r4, [pc, #104]	; (8002af4 <UART_AdvFeatureConfig+0xbc>)
 8002a8c:	688a      	ldr	r2, [r1, #8]
 8002a8e:	4022      	ands	r2, r4
 8002a90:	6bc4      	ldr	r4, [r0, #60]	; 0x3c
 8002a92:	4322      	orrs	r2, r4
 8002a94:	608a      	str	r2, [r1, #8]
 8002a96:	069a      	lsls	r2, r3, #26
 8002a98:	d506      	bpl.n	8002aa8 <UART_AdvFeatureConfig+0x70>
 8002a9a:	6801      	ldr	r1, [r0, #0]
 8002a9c:	4c16      	ldr	r4, [pc, #88]	; (8002af8 <UART_AdvFeatureConfig+0xc0>)
 8002a9e:	688a      	ldr	r2, [r1, #8]
 8002aa0:	4022      	ands	r2, r4
 8002aa2:	6c04      	ldr	r4, [r0, #64]	; 0x40
 8002aa4:	4322      	orrs	r2, r4
 8002aa6:	608a      	str	r2, [r1, #8]
 8002aa8:	065a      	lsls	r2, r3, #25
 8002aaa:	d510      	bpl.n	8002ace <UART_AdvFeatureConfig+0x96>
 8002aac:	6801      	ldr	r1, [r0, #0]
 8002aae:	4d13      	ldr	r5, [pc, #76]	; (8002afc <UART_AdvFeatureConfig+0xc4>)
 8002ab0:	684a      	ldr	r2, [r1, #4]
 8002ab2:	6c44      	ldr	r4, [r0, #68]	; 0x44
 8002ab4:	402a      	ands	r2, r5
 8002ab6:	4322      	orrs	r2, r4
 8002ab8:	604a      	str	r2, [r1, #4]
 8002aba:	2280      	movs	r2, #128	; 0x80
 8002abc:	0352      	lsls	r2, r2, #13
 8002abe:	4294      	cmp	r4, r2
 8002ac0:	d105      	bne.n	8002ace <UART_AdvFeatureConfig+0x96>
 8002ac2:	684a      	ldr	r2, [r1, #4]
 8002ac4:	4c0e      	ldr	r4, [pc, #56]	; (8002b00 <UART_AdvFeatureConfig+0xc8>)
 8002ac6:	4022      	ands	r2, r4
 8002ac8:	6c84      	ldr	r4, [r0, #72]	; 0x48
 8002aca:	4322      	orrs	r2, r4
 8002acc:	604a      	str	r2, [r1, #4]
 8002ace:	061b      	lsls	r3, r3, #24
 8002ad0:	d506      	bpl.n	8002ae0 <UART_AdvFeatureConfig+0xa8>
 8002ad2:	6802      	ldr	r2, [r0, #0]
 8002ad4:	490b      	ldr	r1, [pc, #44]	; (8002b04 <UART_AdvFeatureConfig+0xcc>)
 8002ad6:	6853      	ldr	r3, [r2, #4]
 8002ad8:	400b      	ands	r3, r1
 8002ada:	6cc1      	ldr	r1, [r0, #76]	; 0x4c
 8002adc:	430b      	orrs	r3, r1
 8002ade:	6053      	str	r3, [r2, #4]
 8002ae0:	bd30      	pop	{r4, r5, pc}
 8002ae2:	46c0      	nop			; (mov r8, r8)
 8002ae4:	fffdffff 	.word	0xfffdffff
 8002ae8:	fffeffff 	.word	0xfffeffff
 8002aec:	fffbffff 	.word	0xfffbffff
 8002af0:	ffff7fff 	.word	0xffff7fff
 8002af4:	ffffefff 	.word	0xffffefff
 8002af8:	ffffdfff 	.word	0xffffdfff
 8002afc:	ffefffff 	.word	0xffefffff
 8002b00:	ff9fffff 	.word	0xff9fffff
 8002b04:	fff7ffff 	.word	0xfff7ffff

08002b08 <UART_WaitOnFlagUntilTimeout>:
 8002b08:	b5f7      	push	{r0, r1, r2, r4, r5, r6, r7, lr}
 8002b0a:	2780      	movs	r7, #128	; 0x80
 8002b0c:	0004      	movs	r4, r0
 8002b0e:	000d      	movs	r5, r1
 8002b10:	0016      	movs	r6, r2
 8002b12:	9301      	str	r3, [sp, #4]
 8002b14:	013f      	lsls	r7, r7, #4
 8002b16:	6822      	ldr	r2, [r4, #0]
 8002b18:	69d3      	ldr	r3, [r2, #28]
 8002b1a:	402b      	ands	r3, r5
 8002b1c:	1b5b      	subs	r3, r3, r5
 8002b1e:	4259      	negs	r1, r3
 8002b20:	414b      	adcs	r3, r1
 8002b22:	42b3      	cmp	r3, r6
 8002b24:	d001      	beq.n	8002b2a <UART_WaitOnFlagUntilTimeout+0x22>
 8002b26:	2000      	movs	r0, #0
 8002b28:	e02a      	b.n	8002b80 <UART_WaitOnFlagUntilTimeout+0x78>
 8002b2a:	9b08      	ldr	r3, [sp, #32]
 8002b2c:	3301      	adds	r3, #1
 8002b2e:	d0f3      	beq.n	8002b18 <UART_WaitOnFlagUntilTimeout+0x10>
 8002b30:	f7fe fa92 	bl	8001058 <HAL_GetTick>
 8002b34:	9b01      	ldr	r3, [sp, #4]
 8002b36:	1ac0      	subs	r0, r0, r3
 8002b38:	9b08      	ldr	r3, [sp, #32]
 8002b3a:	4298      	cmp	r0, r3
 8002b3c:	d801      	bhi.n	8002b42 <UART_WaitOnFlagUntilTimeout+0x3a>
 8002b3e:	2b00      	cmp	r3, #0
 8002b40:	d11f      	bne.n	8002b82 <UART_WaitOnFlagUntilTimeout+0x7a>
 8002b42:	f3ef 8010 	mrs	r0, PRIMASK
 8002b46:	2201      	movs	r2, #1
 8002b48:	f382 8810 	msr	PRIMASK, r2
 8002b4c:	6821      	ldr	r1, [r4, #0]
 8002b4e:	4d20      	ldr	r5, [pc, #128]	; (8002bd0 <UART_WaitOnFlagUntilTimeout+0xc8>)
 8002b50:	680b      	ldr	r3, [r1, #0]
 8002b52:	402b      	ands	r3, r5
 8002b54:	600b      	str	r3, [r1, #0]
 8002b56:	f380 8810 	msr	PRIMASK, r0
 8002b5a:	f3ef 8010 	mrs	r0, PRIMASK
 8002b5e:	f382 8810 	msr	PRIMASK, r2
 8002b62:	6821      	ldr	r1, [r4, #0]
 8002b64:	688b      	ldr	r3, [r1, #8]
 8002b66:	4393      	bics	r3, r2
 8002b68:	608b      	str	r3, [r1, #8]
 8002b6a:	f380 8810 	msr	PRIMASK, r0
 8002b6e:	0022      	movs	r2, r4
 8002b70:	2320      	movs	r3, #32
 8002b72:	3288      	adds	r2, #136	; 0x88
 8002b74:	6013      	str	r3, [r2, #0]
 8002b76:	6053      	str	r3, [r2, #4]
 8002b78:	2300      	movs	r3, #0
 8002b7a:	2003      	movs	r0, #3
 8002b7c:	3484      	adds	r4, #132	; 0x84
 8002b7e:	7023      	strb	r3, [r4, #0]
 8002b80:	bdfe      	pop	{r1, r2, r3, r4, r5, r6, r7, pc}
 8002b82:	2104      	movs	r1, #4
 8002b84:	6823      	ldr	r3, [r4, #0]
 8002b86:	681a      	ldr	r2, [r3, #0]
 8002b88:	420a      	tst	r2, r1
 8002b8a:	d0c4      	beq.n	8002b16 <UART_WaitOnFlagUntilTimeout+0xe>
 8002b8c:	69da      	ldr	r2, [r3, #28]
 8002b8e:	423a      	tst	r2, r7
 8002b90:	d0c1      	beq.n	8002b16 <UART_WaitOnFlagUntilTimeout+0xe>
 8002b92:	621f      	str	r7, [r3, #32]
 8002b94:	f3ef 8010 	mrs	r0, PRIMASK
 8002b98:	2201      	movs	r2, #1
 8002b9a:	f382 8810 	msr	PRIMASK, r2
 8002b9e:	6821      	ldr	r1, [r4, #0]
 8002ba0:	4d0b      	ldr	r5, [pc, #44]	; (8002bd0 <UART_WaitOnFlagUntilTimeout+0xc8>)
 8002ba2:	680b      	ldr	r3, [r1, #0]
 8002ba4:	402b      	ands	r3, r5
 8002ba6:	600b      	str	r3, [r1, #0]
 8002ba8:	f380 8810 	msr	PRIMASK, r0
 8002bac:	f3ef 8010 	mrs	r0, PRIMASK
 8002bb0:	f382 8810 	msr	PRIMASK, r2
 8002bb4:	6821      	ldr	r1, [r4, #0]
 8002bb6:	688b      	ldr	r3, [r1, #8]
 8002bb8:	4393      	bics	r3, r2
 8002bba:	608b      	str	r3, [r1, #8]
 8002bbc:	f380 8810 	msr	PRIMASK, r0
 8002bc0:	0022      	movs	r2, r4
 8002bc2:	2320      	movs	r3, #32
 8002bc4:	3288      	adds	r2, #136	; 0x88
 8002bc6:	6013      	str	r3, [r2, #0]
 8002bc8:	6053      	str	r3, [r2, #4]
 8002bca:	6093      	str	r3, [r2, #8]
 8002bcc:	e7d4      	b.n	8002b78 <UART_WaitOnFlagUntilTimeout+0x70>
 8002bce:	46c0      	nop			; (mov r8, r8)
 8002bd0:	fffffe5f 	.word	0xfffffe5f

08002bd4 <UART_CheckIdleState>:
 8002bd4:	0003      	movs	r3, r0
 8002bd6:	b573      	push	{r0, r1, r4, r5, r6, lr}
 8002bd8:	2600      	movs	r6, #0
 8002bda:	0004      	movs	r4, r0
 8002bdc:	3390      	adds	r3, #144	; 0x90
 8002bde:	601e      	str	r6, [r3, #0]
 8002be0:	f7fe fa3a 	bl	8001058 <HAL_GetTick>
 8002be4:	6823      	ldr	r3, [r4, #0]
 8002be6:	0005      	movs	r5, r0
 8002be8:	681b      	ldr	r3, [r3, #0]
 8002bea:	071b      	lsls	r3, r3, #28
 8002bec:	d419      	bmi.n	8002c22 <UART_CheckIdleState+0x4e>
 8002bee:	6823      	ldr	r3, [r4, #0]
 8002bf0:	681b      	ldr	r3, [r3, #0]
 8002bf2:	075b      	lsls	r3, r3, #29
 8002bf4:	d50a      	bpl.n	8002c0c <UART_CheckIdleState+0x38>
 8002bf6:	2180      	movs	r1, #128	; 0x80
 8002bf8:	4b10      	ldr	r3, [pc, #64]	; (8002c3c <UART_CheckIdleState+0x68>)
 8002bfa:	2200      	movs	r2, #0
 8002bfc:	9300      	str	r3, [sp, #0]
 8002bfe:	0020      	movs	r0, r4
 8002c00:	002b      	movs	r3, r5
 8002c02:	03c9      	lsls	r1, r1, #15
 8002c04:	f7ff ff80 	bl	8002b08 <UART_WaitOnFlagUntilTimeout>
 8002c08:	2800      	cmp	r0, #0
 8002c0a:	d115      	bne.n	8002c38 <UART_CheckIdleState+0x64>
 8002c0c:	0022      	movs	r2, r4
 8002c0e:	2000      	movs	r0, #0
 8002c10:	2320      	movs	r3, #32
 8002c12:	3288      	adds	r2, #136	; 0x88
 8002c14:	6013      	str	r3, [r2, #0]
 8002c16:	6053      	str	r3, [r2, #4]
 8002c18:	66e0      	str	r0, [r4, #108]	; 0x6c
 8002c1a:	6720      	str	r0, [r4, #112]	; 0x70
 8002c1c:	3484      	adds	r4, #132	; 0x84
 8002c1e:	7020      	strb	r0, [r4, #0]
 8002c20:	e00b      	b.n	8002c3a <UART_CheckIdleState+0x66>
 8002c22:	2180      	movs	r1, #128	; 0x80
 8002c24:	4b05      	ldr	r3, [pc, #20]	; (8002c3c <UART_CheckIdleState+0x68>)
 8002c26:	0032      	movs	r2, r6
 8002c28:	9300      	str	r3, [sp, #0]
 8002c2a:	0389      	lsls	r1, r1, #14
 8002c2c:	0003      	movs	r3, r0
 8002c2e:	0020      	movs	r0, r4
 8002c30:	f7ff ff6a 	bl	8002b08 <UART_WaitOnFlagUntilTimeout>
 8002c34:	2800      	cmp	r0, #0
 8002c36:	d0da      	beq.n	8002bee <UART_CheckIdleState+0x1a>
 8002c38:	2003      	movs	r0, #3
 8002c3a:	bd76      	pop	{r1, r2, r4, r5, r6, pc}
 8002c3c:	01ffffff 	.word	0x01ffffff

08002c40 <HAL_UART_Init>:
 8002c40:	b570      	push	{r4, r5, r6, lr}
 8002c42:	1e04      	subs	r4, r0, #0
 8002c44:	d101      	bne.n	8002c4a <HAL_UART_Init+0xa>
 8002c46:	2001      	movs	r0, #1
 8002c48:	bd70      	pop	{r4, r5, r6, pc}
 8002c4a:	0005      	movs	r5, r0
 8002c4c:	3588      	adds	r5, #136	; 0x88
 8002c4e:	682b      	ldr	r3, [r5, #0]
 8002c50:	2b00      	cmp	r3, #0
 8002c52:	d104      	bne.n	8002c5e <HAL_UART_Init+0x1e>
 8002c54:	0002      	movs	r2, r0
 8002c56:	3284      	adds	r2, #132	; 0x84
 8002c58:	7013      	strb	r3, [r2, #0]
 8002c5a:	f7fd ffb7 	bl	8000bcc <HAL_UART_MspInit>
 8002c5e:	2324      	movs	r3, #36	; 0x24
 8002c60:	2101      	movs	r1, #1
 8002c62:	6822      	ldr	r2, [r4, #0]
 8002c64:	602b      	str	r3, [r5, #0]
 8002c66:	6813      	ldr	r3, [r2, #0]
 8002c68:	0020      	movs	r0, r4
 8002c6a:	438b      	bics	r3, r1
 8002c6c:	6013      	str	r3, [r2, #0]
 8002c6e:	f7ff fd73 	bl	8002758 <UART_SetConfig>
 8002c72:	2801      	cmp	r0, #1
 8002c74:	d0e7      	beq.n	8002c46 <HAL_UART_Init+0x6>
 8002c76:	6aa3      	ldr	r3, [r4, #40]	; 0x28
 8002c78:	2b00      	cmp	r3, #0
 8002c7a:	d002      	beq.n	8002c82 <HAL_UART_Init+0x42>
 8002c7c:	0020      	movs	r0, r4
 8002c7e:	f7ff fedb 	bl	8002a38 <UART_AdvFeatureConfig>
 8002c82:	6823      	ldr	r3, [r4, #0]
 8002c84:	4907      	ldr	r1, [pc, #28]	; (8002ca4 <HAL_UART_Init+0x64>)
 8002c86:	685a      	ldr	r2, [r3, #4]
 8002c88:	0020      	movs	r0, r4
 8002c8a:	400a      	ands	r2, r1
 8002c8c:	212a      	movs	r1, #42	; 0x2a
 8002c8e:	605a      	str	r2, [r3, #4]
 8002c90:	689a      	ldr	r2, [r3, #8]
 8002c92:	438a      	bics	r2, r1
 8002c94:	609a      	str	r2, [r3, #8]
 8002c96:	2201      	movs	r2, #1
 8002c98:	6819      	ldr	r1, [r3, #0]
 8002c9a:	430a      	orrs	r2, r1
 8002c9c:	601a      	str	r2, [r3, #0]
 8002c9e:	f7ff ff99 	bl	8002bd4 <UART_CheckIdleState>
 8002ca2:	e7d1      	b.n	8002c48 <HAL_UART_Init+0x8>
 8002ca4:	ffffb7ff 	.word	0xffffb7ff

08002ca8 <UARTEx_SetNbDataToProcess>:
 8002ca8:	b5f8      	push	{r3, r4, r5, r6, r7, lr}
 8002caa:	6e43      	ldr	r3, [r0, #100]	; 0x64
 8002cac:	0004      	movs	r4, r0
 8002cae:	2b00      	cmp	r3, #0
 8002cb0:	d102      	bne.n	8002cb8 <UARTEx_SetNbDataToProcess+0x10>
 8002cb2:	4b0d      	ldr	r3, [pc, #52]	; (8002ce8 <UARTEx_SetNbDataToProcess+0x40>)
 8002cb4:	6683      	str	r3, [r0, #104]	; 0x68
 8002cb6:	bdf8      	pop	{r3, r4, r5, r6, r7, pc}
 8002cb8:	6803      	ldr	r3, [r0, #0]
 8002cba:	4e0c      	ldr	r6, [pc, #48]	; (8002cec <UARTEx_SetNbDataToProcess+0x44>)
 8002cbc:	689f      	ldr	r7, [r3, #8]
 8002cbe:	689b      	ldr	r3, [r3, #8]
 8002cc0:	4d0b      	ldr	r5, [pc, #44]	; (8002cf0 <UARTEx_SetNbDataToProcess+0x48>)
 8002cc2:	0f5b      	lsrs	r3, r3, #29
 8002cc4:	5cf0      	ldrb	r0, [r6, r3]
 8002cc6:	5ce9      	ldrb	r1, [r5, r3]
 8002cc8:	00c0      	lsls	r0, r0, #3
 8002cca:	f7fd fab9 	bl	8000240 <__divsi3>
 8002cce:	0023      	movs	r3, r4
 8002cd0:	336a      	adds	r3, #106	; 0x6a
 8002cd2:	8018      	strh	r0, [r3, #0]
 8002cd4:	013b      	lsls	r3, r7, #4
 8002cd6:	0f5b      	lsrs	r3, r3, #29
 8002cd8:	5cf0      	ldrb	r0, [r6, r3]
 8002cda:	5ce9      	ldrb	r1, [r5, r3]
 8002cdc:	00c0      	lsls	r0, r0, #3
 8002cde:	f7fd faaf 	bl	8000240 <__divsi3>
 8002ce2:	3468      	adds	r4, #104	; 0x68
 8002ce4:	8020      	strh	r0, [r4, #0]
 8002ce6:	e7e6      	b.n	8002cb6 <UARTEx_SetNbDataToProcess+0xe>
 8002ce8:	00010001 	.word	0x00010001
 8002cec:	08002ec4 	.word	0x08002ec4
 8002cf0:	08002ebc 	.word	0x08002ebc

08002cf4 <HAL_UARTEx_DisableFifoMode>:
 8002cf4:	b570      	push	{r4, r5, r6, lr}
 8002cf6:	0004      	movs	r4, r0
 8002cf8:	3484      	adds	r4, #132	; 0x84
 8002cfa:	7822      	ldrb	r2, [r4, #0]
 8002cfc:	0003      	movs	r3, r0
 8002cfe:	2002      	movs	r0, #2
 8002d00:	2a01      	cmp	r2, #1
 8002d02:	d011      	beq.n	8002d28 <HAL_UARTEx_DisableFifoMode+0x34>
 8002d04:	001d      	movs	r5, r3
 8002d06:	2224      	movs	r2, #36	; 0x24
 8002d08:	2601      	movs	r6, #1
 8002d0a:	3588      	adds	r5, #136	; 0x88
 8002d0c:	602a      	str	r2, [r5, #0]
 8002d0e:	681a      	ldr	r2, [r3, #0]
 8002d10:	6811      	ldr	r1, [r2, #0]
 8002d12:	6810      	ldr	r0, [r2, #0]
 8002d14:	43b0      	bics	r0, r6
 8002d16:	6010      	str	r0, [r2, #0]
 8002d18:	4804      	ldr	r0, [pc, #16]	; (8002d2c <HAL_UARTEx_DisableFifoMode+0x38>)
 8002d1a:	4001      	ands	r1, r0
 8002d1c:	2000      	movs	r0, #0
 8002d1e:	6658      	str	r0, [r3, #100]	; 0x64
 8002d20:	2320      	movs	r3, #32
 8002d22:	6011      	str	r1, [r2, #0]
 8002d24:	602b      	str	r3, [r5, #0]
 8002d26:	7020      	strb	r0, [r4, #0]
 8002d28:	bd70      	pop	{r4, r5, r6, pc}
 8002d2a:	46c0      	nop			; (mov r8, r8)
 8002d2c:	dfffffff 	.word	0xdfffffff

08002d30 <HAL_UARTEx_SetTxFifoThreshold>:
 8002d30:	b5f8      	push	{r3, r4, r5, r6, r7, lr}
 8002d32:	0004      	movs	r4, r0
 8002d34:	0025      	movs	r5, r4
 8002d36:	3584      	adds	r5, #132	; 0x84
 8002d38:	782a      	ldrb	r2, [r5, #0]
 8002d3a:	0008      	movs	r0, r1
 8002d3c:	2302      	movs	r3, #2
 8002d3e:	2a01      	cmp	r2, #1
 8002d40:	d018      	beq.n	8002d74 <HAL_UARTEx_SetTxFifoThreshold+0x44>
 8002d42:	2101      	movs	r1, #1
 8002d44:	0026      	movs	r6, r4
 8002d46:	7029      	strb	r1, [r5, #0]
 8002d48:	6822      	ldr	r2, [r4, #0]
 8002d4a:	3688      	adds	r6, #136	; 0x88
 8002d4c:	3322      	adds	r3, #34	; 0x22
 8002d4e:	6033      	str	r3, [r6, #0]
 8002d50:	6817      	ldr	r7, [r2, #0]
 8002d52:	6813      	ldr	r3, [r2, #0]
 8002d54:	438b      	bics	r3, r1
 8002d56:	6013      	str	r3, [r2, #0]
 8002d58:	6893      	ldr	r3, [r2, #8]
 8002d5a:	00db      	lsls	r3, r3, #3
 8002d5c:	08d9      	lsrs	r1, r3, #3
 8002d5e:	4301      	orrs	r1, r0
 8002d60:	6091      	str	r1, [r2, #8]
 8002d62:	0020      	movs	r0, r4
 8002d64:	f7ff ffa0 	bl	8002ca8 <UARTEx_SetNbDataToProcess>
 8002d68:	6823      	ldr	r3, [r4, #0]
 8002d6a:	601f      	str	r7, [r3, #0]
 8002d6c:	2320      	movs	r3, #32
 8002d6e:	6033      	str	r3, [r6, #0]
 8002d70:	2300      	movs	r3, #0
 8002d72:	702b      	strb	r3, [r5, #0]
 8002d74:	0018      	movs	r0, r3
 8002d76:	bdf8      	pop	{r3, r4, r5, r6, r7, pc}

08002d78 <HAL_UARTEx_SetRxFifoThreshold>:
 8002d78:	b5f8      	push	{r3, r4, r5, r6, r7, lr}
 8002d7a:	0005      	movs	r5, r0
 8002d7c:	3584      	adds	r5, #132	; 0x84
 8002d7e:	782b      	ldrb	r3, [r5, #0]
 8002d80:	0004      	movs	r4, r0
 8002d82:	000a      	movs	r2, r1
 8002d84:	2002      	movs	r0, #2
 8002d86:	2b01      	cmp	r3, #1
 8002d88:	d018      	beq.n	8002dbc <HAL_UARTEx_SetRxFifoThreshold+0x44>
 8002d8a:	0026      	movs	r6, r4
 8002d8c:	2324      	movs	r3, #36	; 0x24
 8002d8e:	3801      	subs	r0, #1
 8002d90:	7028      	strb	r0, [r5, #0]
 8002d92:	3688      	adds	r6, #136	; 0x88
 8002d94:	6033      	str	r3, [r6, #0]
 8002d96:	6823      	ldr	r3, [r4, #0]
 8002d98:	681f      	ldr	r7, [r3, #0]
 8002d9a:	6819      	ldr	r1, [r3, #0]
 8002d9c:	4381      	bics	r1, r0
 8002d9e:	6019      	str	r1, [r3, #0]
 8002da0:	6899      	ldr	r1, [r3, #8]
 8002da2:	4807      	ldr	r0, [pc, #28]	; (8002dc0 <HAL_UARTEx_SetRxFifoThreshold+0x48>)
 8002da4:	4001      	ands	r1, r0
 8002da6:	4311      	orrs	r1, r2
 8002da8:	0020      	movs	r0, r4
 8002daa:	6099      	str	r1, [r3, #8]
 8002dac:	f7ff ff7c 	bl	8002ca8 <UARTEx_SetNbDataToProcess>
 8002db0:	6823      	ldr	r3, [r4, #0]
 8002db2:	2000      	movs	r0, #0
 8002db4:	601f      	str	r7, [r3, #0]
 8002db6:	2320      	movs	r3, #32
 8002db8:	6033      	str	r3, [r6, #0]
 8002dba:	7028      	strb	r0, [r5, #0]
 8002dbc:	bdf8      	pop	{r3, r4, r5, r6, r7, pc}
 8002dbe:	46c0      	nop			; (mov r8, r8)
 8002dc0:	f1ffffff 	.word	0xf1ffffff

08002dc4 <__libc_init_array>:
 8002dc4:	b570      	push	{r4, r5, r6, lr}
 8002dc6:	2600      	movs	r6, #0
 8002dc8:	4d0c      	ldr	r5, [pc, #48]	; (8002dfc <__libc_init_array+0x38>)
 8002dca:	4c0d      	ldr	r4, [pc, #52]	; (8002e00 <__libc_init_array+0x3c>)
 8002dcc:	1b64      	subs	r4, r4, r5
 8002dce:	10a4      	asrs	r4, r4, #2
 8002dd0:	42a6      	cmp	r6, r4
 8002dd2:	d109      	bne.n	8002de8 <__libc_init_array+0x24>
 8002dd4:	2600      	movs	r6, #0
 8002dd6:	f000 f821 	bl	8002e1c <_init>
 8002dda:	4d0a      	ldr	r5, [pc, #40]	; (8002e04 <__libc_init_array+0x40>)
 8002ddc:	4c0a      	ldr	r4, [pc, #40]	; (8002e08 <__libc_init_array+0x44>)
 8002dde:	1b64      	subs	r4, r4, r5
 8002de0:	10a4      	asrs	r4, r4, #2
 8002de2:	42a6      	cmp	r6, r4
 8002de4:	d105      	bne.n	8002df2 <__libc_init_array+0x2e>
 8002de6:	bd70      	pop	{r4, r5, r6, pc}
 8002de8:	00b3      	lsls	r3, r6, #2
 8002dea:	58eb      	ldr	r3, [r5, r3]
 8002dec:	4798      	blx	r3
 8002dee:	3601      	adds	r6, #1
 8002df0:	e7ee      	b.n	8002dd0 <__libc_init_array+0xc>
 8002df2:	00b3      	lsls	r3, r6, #2
 8002df4:	58eb      	ldr	r3, [r5, r3]
 8002df6:	4798      	blx	r3
 8002df8:	3601      	adds	r6, #1
 8002dfa:	e7f2      	b.n	8002de2 <__libc_init_array+0x1e>
 8002dfc:	08002ed4 	.word	0x08002ed4
 8002e00:	08002ed4 	.word	0x08002ed4
 8002e04:	08002ed4 	.word	0x08002ed4
 8002e08:	08002ed8 	.word	0x08002ed8

08002e0c <memset>:
 8002e0c:	0003      	movs	r3, r0
 8002e0e:	1882      	adds	r2, r0, r2
 8002e10:	4293      	cmp	r3, r2
 8002e12:	d100      	bne.n	8002e16 <memset+0xa>
 8002e14:	4770      	bx	lr
 8002e16:	7019      	strb	r1, [r3, #0]
 8002e18:	3301      	adds	r3, #1
 8002e1a:	e7f9      	b.n	8002e10 <memset+0x4>

08002e1c <_init>:
 8002e1c:	b5f8      	push	{r3, r4, r5, r6, r7, lr}
 8002e1e:	46c0      	nop			; (mov r8, r8)
 8002e20:	bcf8      	pop	{r3, r4, r5, r6, r7}
 8002e22:	bc08      	pop	{r3}
 8002e24:	469e      	mov	lr, r3
 8002e26:	4770      	bx	lr

08002e28 <_fini>:
 8002e28:	b5f8      	push	{r3, r4, r5, r6, r7, lr}
 8002e2a:	46c0      	nop			; (mov r8, r8)
 8002e2c:	bcf8      	pop	{r3, r4, r5, r6, r7}
 8002e2e:	bc08      	pop	{r3}
 8002e30:	469e      	mov	lr, r3
 8002e32:	4770      	bx	lr
