
HackKosice2023.elf:     file format elf32-littlearm

Sections:
Idx Name          Size      VMA       LMA       File off  Algn
  0 .isr_vector   000000bc  08000000  08000000  00010000  2**0
                  CONTENTS, ALLOC, LOAD, READONLY, DATA
  1 .text         00002d88  080000bc  080000bc  000100bc  2**2
                  CONTENTS, ALLOC, LOAD, READONLY, CODE
  2 .rodata       00000098  08002e44  08002e44  00012e44  2**2
                  CONTENTS, ALLOC, LOAD, READONLY, DATA
  3 .ARM.extab    00000000  08002edc  08002edc  0002000c  2**0
                  CONTENTS
  4 .ARM          00000008  08002edc  08002edc  00012edc  2**2
                  CONTENTS, ALLOC, LOAD, READONLY, DATA
  5 .preinit_array 00000000  08002ee4  08002ee4  0002000c  2**0
                  CONTENTS, ALLOC, LOAD, DATA
  6 .init_array   00000004  08002ee4  08002ee4  00012ee4  2**2
                  CONTENTS, ALLOC, LOAD, DATA
  7 .fini_array   00000004  08002ee8  08002ee8  00012ee8  2**2
                  CONTENTS, ALLOC, LOAD, DATA
  8 .data         0000000c  20000000  08002eec  00020000  2**2
                  CONTENTS, ALLOC, LOAD, DATA
  9 .bss          0000025c  2000000c  08002ef8  0002000c  2**2
                  ALLOC
 10 ._user_heap_stack 00000600  20000268  08002ef8  00020268  2**0
                  ALLOC
 11 .ARM.attributes 00000028  00000000  00000000  0002000c  2**0
                  CONTENTS, READONLY
 12 .comment      00000050  00000000  00000000  00020034  2**0
                  CONTENTS, READONLY
 13 .debug_frame  000000c8  00000000  00000000  00020084  2**2
                  CONTENTS, READONLY, DEBUGGING, OCTETS

Disassembly of section .text:

080000bc <__do_global_dtors_aux>:
 80000bc:	b510      	push	{r4, lr}
 80000be:	4c06      	ldr	r4, [pc, #24]	; (80000d8 <__do_global_dtors_aux+0x1c>)
 80000c0:	7823      	ldrb	r3, [r4, #0]
 80000c2:	2b00      	cmp	r3, #0
 80000c4:	d107      	bne.n	80000d6 <__do_global_dtors_aux+0x1a>
 80000c6:	4b05      	ldr	r3, [pc, #20]	; (80000dc <__do_global_dtors_aux+0x20>)
 80000c8:	2b00      	cmp	r3, #0
 80000ca:	d002      	beq.n	80000d2 <__do_global_dtors_aux+0x16>
 80000cc:	4804      	ldr	r0, [pc, #16]	; (80000e0 <__do_global_dtors_aux+0x24>)
 80000ce:	e000      	b.n	80000d2 <__do_global_dtors_aux+0x16>
 80000d0:	bf00      	nop
 80000d2:	2301      	movs	r3, #1
 80000d4:	7023      	strb	r3, [r4, #0]
 80000d6:	bd10      	pop	{r4, pc}
 80000d8:	2000000c 	.word	0x2000000c
 80000dc:	00000000 	.word	0x00000000
 80000e0:	08002e2c 	.word	0x08002e2c

080000e4 <frame_dummy>:
 80000e4:	4b04      	ldr	r3, [pc, #16]	; (80000f8 <frame_dummy+0x14>)
 80000e6:	b510      	push	{r4, lr}
 80000e8:	2b00      	cmp	r3, #0
 80000ea:	d003      	beq.n	80000f4 <frame_dummy+0x10>
 80000ec:	4903      	ldr	r1, [pc, #12]	; (80000fc <frame_dummy+0x18>)
 80000ee:	4804      	ldr	r0, [pc, #16]	; (8000100 <frame_dummy+0x1c>)
 80000f0:	e000      	b.n	80000f4 <frame_dummy+0x10>
 80000f2:	bf00      	nop
 80000f4:	bd10      	pop	{r4, pc}
 80000f6:	46c0      	nop			; (mov r8, r8)
 80000f8:	00000000 	.word	0x00000000
 80000fc:	20000010 	.word	0x20000010
 8000100:	08002e2c 	.word	0x08002e2c

08000104 <__gnu_thumb1_case_uqi>:
 8000104:	b402      	push	{r1}
 8000106:	4671      	mov	r1, lr
 8000108:	0849      	lsrs	r1, r1, #1
 800010a:	0049      	lsls	r1, r1, #1
 800010c:	5c09      	ldrb	r1, [r1, r0]
 800010e:	0049      	lsls	r1, r1, #1
 8000110:	448e      	add	lr, r1
 8000112:	bc02      	pop	{r1}
 8000114:	4770      	bx	lr
 8000116:	46c0      	nop			; (mov r8, r8)

08000118 <__gnu_thumb1_case_shi>:
 8000118:	b403      	push	{r0, r1}
 800011a:	4671      	mov	r1, lr
 800011c:	0849      	lsrs	r1, r1, #1
 800011e:	0040      	lsls	r0, r0, #1
 8000120:	0049      	lsls	r1, r1, #1
 8000122:	5e09      	ldrsh	r1, [r1, r0]
 8000124:	0049      	lsls	r1, r1, #1
 8000126:	448e      	add	lr, r1
 8000128:	bc03      	pop	{r0, r1}
 800012a:	4770      	bx	lr

0800012c <__udivsi3>:
 800012c:	2200      	movs	r2, #0
 800012e:	0843      	lsrs	r3, r0, #1
 8000130:	428b      	cmp	r3, r1
 8000132:	d374      	bcc.n	800021e <__udivsi3+0xf2>
 8000134:	0903      	lsrs	r3, r0, #4
 8000136:	428b      	cmp	r3, r1
 8000138:	d35f      	bcc.n	80001fa <__udivsi3+0xce>
 800013a:	0a03      	lsrs	r3, r0, #8
 800013c:	428b      	cmp	r3, r1
 800013e:	d344      	bcc.n	80001ca <__udivsi3+0x9e>
 8000140:	0b03      	lsrs	r3, r0, #12
 8000142:	428b      	cmp	r3, r1
 8000144:	d328      	bcc.n	8000198 <__udivsi3+0x6c>
 8000146:	0c03      	lsrs	r3, r0, #16
 8000148:	428b      	cmp	r3, r1
 800014a:	d30d      	bcc.n	8000168 <__udivsi3+0x3c>
 800014c:	22ff      	movs	r2, #255	; 0xff
 800014e:	0209      	lsls	r1, r1, #8
 8000150:	ba12      	rev	r2, r2
 8000152:	0c03      	lsrs	r3, r0, #16
 8000154:	428b      	cmp	r3, r1
 8000156:	d302      	bcc.n	800015e <__udivsi3+0x32>
 8000158:	1212      	asrs	r2, r2, #8
 800015a:	0209      	lsls	r1, r1, #8
 800015c:	d065      	beq.n	800022a <__udivsi3+0xfe>
 800015e:	0b03      	lsrs	r3, r0, #12
 8000160:	428b      	cmp	r3, r1
 8000162:	d319      	bcc.n	8000198 <__udivsi3+0x6c>
 8000164:	e000      	b.n	8000168 <__udivsi3+0x3c>
 8000166:	0a09      	lsrs	r1, r1, #8
 8000168:	0bc3      	lsrs	r3, r0, #15
 800016a:	428b      	cmp	r3, r1
 800016c:	d301      	bcc.n	8000172 <__udivsi3+0x46>
 800016e:	03cb      	lsls	r3, r1, #15
 8000170:	1ac0      	subs	r0, r0, r3
 8000172:	4152      	adcs	r2, r2
 8000174:	0b83      	lsrs	r3, r0, #14
 8000176:	428b      	cmp	r3, r1
 8000178:	d301      	bcc.n	800017e <__udivsi3+0x52>
 800017a:	038b      	lsls	r3, r1, #14
 800017c:	1ac0      	subs	r0, r0, r3
 800017e:	4152      	adcs	r2, r2
 8000180:	0b43      	lsrs	r3, r0, #13
 8000182:	428b      	cmp	r3, r1
 8000184:	d301      	bcc.n	800018a <__udivsi3+0x5e>
 8000186:	034b      	lsls	r3, r1, #13
 8000188:	1ac0      	subs	r0, r0, r3
 800018a:	4152      	adcs	r2, r2
 800018c:	0b03      	lsrs	r3, r0, #12
 800018e:	428b      	cmp	r3, r1
 8000190:	d301      	bcc.n	8000196 <__udivsi3+0x6a>
 8000192:	030b      	lsls	r3, r1, #12
 8000194:	1ac0      	subs	r0, r0, r3
 8000196:	4152      	adcs	r2, r2
 8000198:	0ac3      	lsrs	r3, r0, #11
 800019a:	428b      	cmp	r3, r1
 800019c:	d301      	bcc.n	80001a2 <__udivsi3+0x76>
 800019e:	02cb      	lsls	r3, r1, #11
 80001a0:	1ac0      	subs	r0, r0, r3
 80001a2:	4152      	adcs	r2, r2
 80001a4:	0a83      	lsrs	r3, r0, #10
 80001a6:	428b      	cmp	r3, r1
 80001a8:	d301      	bcc.n	80001ae <__udivsi3+0x82>
 80001aa:	028b      	lsls	r3, r1, #10
 80001ac:	1ac0      	subs	r0, r0, r3
 80001ae:	4152      	adcs	r2, r2
 80001b0:	0a43      	lsrs	r3, r0, #9
 80001b2:	428b      	cmp	r3, r1
 80001b4:	d301      	bcc.n	80001ba <__udivsi3+0x8e>
 80001b6:	024b      	lsls	r3, r1, #9
 80001b8:	1ac0      	subs	r0, r0, r3
 80001ba:	4152      	adcs	r2, r2
 80001bc:	0a03      	lsrs	r3, r0, #8
 80001be:	428b      	cmp	r3, r1
 80001c0:	d301      	bcc.n	80001c6 <__udivsi3+0x9a>
 80001c2:	020b      	lsls	r3, r1, #8
 80001c4:	1ac0      	subs	r0, r0, r3
 80001c6:	4152      	adcs	r2, r2
 80001c8:	d2cd      	bcs.n	8000166 <__udivsi3+0x3a>
 80001ca:	09c3      	lsrs	r3, r0, #7
 80001cc:	428b      	cmp	r3, r1
 80001ce:	d301      	bcc.n	80001d4 <__udivsi3+0xa8>
 80001d0:	01cb      	lsls	r3, r1, #7
 80001d2:	1ac0      	subs	r0, r0, r3
 80001d4:	4152      	adcs	r2, r2
 80001d6:	0983      	lsrs	r3, r0, #6
 80001d8:	428b      	cmp	r3, r1
 80001da:	d301      	bcc.n	80001e0 <__udivsi3+0xb4>
 80001dc:	018b      	lsls	r3, r1, #6
 80001de:	1ac0      	subs	r0, r0, r3
 80001e0:	4152      	adcs	r2, r2
 80001e2:	0943      	lsrs	r3, r0, #5
 80001e4:	428b      	cmp	r3, r1
 80001e6:	d301      	bcc.n	80001ec <__udivsi3+0xc0>
 80001e8:	014b      	lsls	r3, r1, #5
 80001ea:	1ac0      	subs	r0, r0, r3
 80001ec:	4152      	adcs	r2, r2
 80001ee:	0903      	lsrs	r3, r0, #4
 80001f0:	428b      	cmp	r3, r1
 80001f2:	d301      	bcc.n	80001f8 <__udivsi3+0xcc>
 80001f4:	010b      	lsls	r3, r1, #4
 80001f6:	1ac0      	subs	r0, r0, r3
 80001f8:	4152      	adcs	r2, r2
 80001fa:	08c3      	lsrs	r3, r0, #3
 80001fc:	428b      	cmp	r3, r1
 80001fe:	d301      	bcc.n	8000204 <__udivsi3+0xd8>
 8000200:	00cb      	lsls	r3, r1, #3
 8000202:	1ac0      	subs	r0, r0, r3
 8000204:	4152      	adcs	r2, r2
 8000206:	0883      	lsrs	r3, r0, #2
 8000208:	428b      	cmp	r3, r1
 800020a:	d301      	bcc.n	8000210 <__udivsi3+0xe4>
 800020c:	008b      	lsls	r3, r1, #2
 800020e:	1ac0      	subs	r0, r0, r3
 8000210:	4152      	adcs	r2, r2
 8000212:	0843      	lsrs	r3, r0, #1
 8000214:	428b      	cmp	r3, r1
 8000216:	d301      	bcc.n	800021c <__udivsi3+0xf0>
 8000218:	004b      	lsls	r3, r1, #1
 800021a:	1ac0      	subs	r0, r0, r3
 800021c:	4152      	adcs	r2, r2
 800021e:	1a41      	subs	r1, r0, r1
 8000220:	d200      	bcs.n	8000224 <__udivsi3+0xf8>
 8000222:	4601      	mov	r1, r0
 8000224:	4152      	adcs	r2, r2
 8000226:	4610      	mov	r0, r2
 8000228:	4770      	bx	lr
 800022a:	e7ff      	b.n	800022c <__udivsi3+0x100>
 800022c:	b501      	push	{r0, lr}
 800022e:	2000      	movs	r0, #0
 8000230:	f000 f8f0 	bl	8000414 <__aeabi_idiv0>
 8000234:	bd02      	pop	{r1, pc}
 8000236:	46c0      	nop			; (mov r8, r8)

08000238 <__aeabi_uidivmod>:
 8000238:	2900      	cmp	r1, #0
 800023a:	d0f7      	beq.n	800022c <__udivsi3+0x100>
 800023c:	e776      	b.n	800012c <__udivsi3>
 800023e:	4770      	bx	lr

08000240 <__divsi3>:
 8000240:	4603      	mov	r3, r0
 8000242:	430b      	orrs	r3, r1
 8000244:	d47f      	bmi.n	8000346 <__divsi3+0x106>
 8000246:	2200      	movs	r2, #0
 8000248:	0843      	lsrs	r3, r0, #1
 800024a:	428b      	cmp	r3, r1
 800024c:	d374      	bcc.n	8000338 <__divsi3+0xf8>
 800024e:	0903      	lsrs	r3, r0, #4
 8000250:	428b      	cmp	r3, r1
 8000252:	d35f      	bcc.n	8000314 <__divsi3+0xd4>
 8000254:	0a03      	lsrs	r3, r0, #8
 8000256:	428b      	cmp	r3, r1
 8000258:	d344      	bcc.n	80002e4 <__divsi3+0xa4>
 800025a:	0b03      	lsrs	r3, r0, #12
 800025c:	428b      	cmp	r3, r1
 800025e:	d328      	bcc.n	80002b2 <__divsi3+0x72>
 8000260:	0c03      	lsrs	r3, r0, #16
 8000262:	428b      	cmp	r3, r1
 8000264:	d30d      	bcc.n	8000282 <__divsi3+0x42>
 8000266:	22ff      	movs	r2, #255	; 0xff
 8000268:	0209      	lsls	r1, r1, #8
 800026a:	ba12      	rev	r2, r2
 800026c:	0c03      	lsrs	r3, r0, #16
 800026e:	428b      	cmp	r3, r1
 8000270:	d302      	bcc.n	8000278 <__divsi3+0x38>
 8000272:	1212      	asrs	r2, r2, #8
 8000274:	0209      	lsls	r1, r1, #8
 8000276:	d065      	beq.n	8000344 <__divsi3+0x104>
 8000278:	0b03      	lsrs	r3, r0, #12
 800027a:	428b      	cmp	r3, r1
 800027c:	d319      	bcc.n	80002b2 <__divsi3+0x72>
 800027e:	e000      	b.n	8000282 <__divsi3+0x42>
 8000280:	0a09      	lsrs	r1, r1, #8
 8000282:	0bc3      	lsrs	r3, r0, #15
 8000284:	428b      	cmp	r3, r1
 8000286:	d301      	bcc.n	800028c <__divsi3+0x4c>
 8000288:	03cb      	lsls	r3, r1, #15
 800028a:	1ac0      	subs	r0, r0, r3
 800028c:	4152      	adcs	r2, r2
 800028e:	0b83      	lsrs	r3, r0, #14
 8000290:	428b      	cmp	r3, r1
 8000292:	d301      	bcc.n	8000298 <__divsi3+0x58>
 8000294:	038b      	lsls	r3, r1, #14
 8000296:	1ac0      	subs	r0, r0, r3
 8000298:	4152      	adcs	r2, r2
 800029a:	0b43      	lsrs	r3, r0, #13
 800029c:	428b      	cmp	r3, r1
 800029e:	d301      	bcc.n	80002a4 <__divsi3+0x64>
 80002a0:	034b      	lsls	r3, r1, #13
 80002a2:	1ac0      	subs	r0, r0, r3
 80002a4:	4152      	adcs	r2, r2
 80002a6:	0b03      	lsrs	r3, r0, #12
 80002a8:	428b      	cmp	r3, r1
 80002aa:	d301      	bcc.n	80002b0 <__divsi3+0x70>
 80002ac:	030b      	lsls	r3, r1, #12
 80002ae:	1ac0      	subs	r0, r0, r3
 80002b0:	4152      	adcs	r2, r2
 80002b2:	0ac3      	lsrs	r3, r0, #11
 80002b4:	428b      	cmp	r3, r1
 80002b6:	d301      	bcc.n	80002bc <__divsi3+0x7c>
 80002b8:	02cb      	lsls	r3, r1, #11
 80002ba:	1ac0      	subs	r0, r0, r3
 80002bc:	4152      	adcs	r2, r2
 80002be:	0a83      	lsrs	r3, r0, #10
 80002c0:	428b      	cmp	r3, r1
 80002c2:	d301      	bcc.n	80002c8 <__divsi3+0x88>
 80002c4:	028b      	lsls	r3, r1, #10
 80002c6:	1ac0      	subs	r0, r0, r3
 80002c8:	4152      	adcs	r2, r2
 80002ca:	0a43      	lsrs	r3, r0, #9
 80002cc:	428b      	cmp	r3, r1
 80002ce:	d301      	bcc.n	80002d4 <__divsi3+0x94>
 80002d0:	024b      	lsls	r3, r1, #9
 80002d2:	1ac0      	subs	r0, r0, r3
 80002d4:	4152      	adcs	r2, r2
 80002d6:	0a03      	lsrs	r3, r0, #8
 80002d8:	428b      	cmp	r3, r1
 80002da:	d301      	bcc.n	80002e0 <__divsi3+0xa0>
 80002dc:	020b      	lsls	r3, r1, #8
 80002de:	1ac0      	subs	r0, r0, r3
 80002e0:	4152      	adcs	r2, r2
 80002e2:	d2cd      	bcs.n	8000280 <__divsi3+0x40>
 80002e4:	09c3      	lsrs	r3, r0, #7
 80002e6:	428b      	cmp	r3, r1
 80002e8:	d301      	bcc.n	80002ee <__divsi3+0xae>
 80002ea:	01cb      	lsls	r3, r1, #7
 80002ec:	1ac0      	subs	r0, r0, r3
 80002ee:	4152      	adcs	r2, r2
 80002f0:	0983      	lsrs	r3, r0, #6
 80002f2:	428b      	cmp	r3, r1
 80002f4:	d301      	bcc.n	80002fa <__divsi3+0xba>
 80002f6:	018b      	lsls	r3, r1, #6
 80002f8:	1ac0      	subs	r0, r0, r3
 80002fa:	4152      	adcs	r2, r2
 80002fc:	0943      	lsrs	r3, r0, #5
 80002fe:	428b      	cmp	r3, r1
 8000300:	d301      	bcc.n	8000306 <__divsi3+0xc6>
 8000302:	014b      	lsls	r3, r1, #5
 8000304:	1ac0      	subs	r0, r0, r3
 8000306:	4152      	adcs	r2, r2
 8000308:	0903      	lsrs	r3, r0, #4
 800030a:	428b      	cmp	r3, r1
 800030c:	d301      	bcc.n	8000312 <__divsi3+0xd2>
 800030e:	010b      	lsls	r3, r1, #4
 8000310:	1ac0      	subs	r0, r0, r3
 8000312:	4152      	adcs	r2, r2
 8000314:	08c3      	lsrs	r3, r0, #3
 8000316:	428b      	cmp	r3, r1
 8000318:	d301      	bcc.n	800031e <__divsi3+0xde>
 800031a:	00cb      	lsls	r3, r1, #3
 800031c:	1ac0      	subs	r0, r0, r3
 800031e:	4152      	adcs	r2, r2
 8000320:	0883      	lsrs	r3, r0, #2
 8000322:	428b      	cmp	r3, r1
 8000324:	d301      	bcc.n	800032a <__divsi3+0xea>
 8000326:	008b      	lsls	r3, r1, #2
 8000328:	1ac0      	subs	r0, r0, r3
 800032a:	4152      	adcs	r2, r2
 800032c:	0843      	lsrs	r3, r0, #1
 800032e:	428b      	cmp	r3, r1
 8000330:	d301      	bcc.n	8000336 <__divsi3+0xf6>
 8000332:	004b      	lsls	r3, r1, #1
 8000334:	1ac0      	subs	r0, r0, r3
 8000336:	4152      	adcs	r2, r2
 8000338:	1a41      	subs	r1, r0, r1
 800033a:	d200      	bcs.n	800033e <__divsi3+0xfe>
 800033c:	4601      	mov	r1, r0
 800033e:	4152      	adcs	r2, r2
 8000340:	4610      	mov	r0, r2
 8000342:	4770      	bx	lr
 8000344:	e05d      	b.n	8000402 <__divsi3+0x1c2>
 8000346:	0fca      	lsrs	r2, r1, #31
 8000348:	d000      	beq.n	800034c <__divsi3+0x10c>
 800034a:	4249      	negs	r1, r1
 800034c:	1003      	asrs	r3, r0, #32
 800034e:	d300      	bcc.n	8000352 <__divsi3+0x112>
 8000350:	4240      	negs	r0, r0
 8000352:	4053      	eors	r3, r2
 8000354:	2200      	movs	r2, #0
 8000356:	469c      	mov	ip, r3
 8000358:	0903      	lsrs	r3, r0, #4
 800035a:	428b      	cmp	r3, r1
 800035c:	d32d      	bcc.n	80003ba <__divsi3+0x17a>
 800035e:	0a03      	lsrs	r3, r0, #8
 8000360:	428b      	cmp	r3, r1
 8000362:	d312      	bcc.n	800038a <__divsi3+0x14a>
 8000364:	22fc      	movs	r2, #252	; 0xfc
 8000366:	0189      	lsls	r1, r1, #6
 8000368:	ba12      	rev	r2, r2
 800036a:	0a03      	lsrs	r3, r0, #8
 800036c:	428b      	cmp	r3, r1
 800036e:	d30c      	bcc.n	800038a <__divsi3+0x14a>
 8000370:	0189      	lsls	r1, r1, #6
 8000372:	1192      	asrs	r2, r2, #6
 8000374:	428b      	cmp	r3, r1
 8000376:	d308      	bcc.n	800038a <__divsi3+0x14a>
 8000378:	0189      	lsls	r1, r1, #6
 800037a:	1192      	asrs	r2, r2, #6
 800037c:	428b      	cmp	r3, r1
 800037e:	d304      	bcc.n	800038a <__divsi3+0x14a>
 8000380:	0189      	lsls	r1, r1, #6
 8000382:	d03a      	beq.n	80003fa <__divsi3+0x1ba>
 8000384:	1192      	asrs	r2, r2, #6
 8000386:	e000      	b.n	800038a <__divsi3+0x14a>
 8000388:	0989      	lsrs	r1, r1, #6
 800038a:	09c3      	lsrs	r3, r0, #7
 800038c:	428b      	cmp	r3, r1
 800038e:	d301      	bcc.n	8000394 <__divsi3+0x154>
 8000390:	01cb      	lsls	r3, r1, #7
 8000392:	1ac0      	subs	r0, r0, r3
 8000394:	4152      	adcs	r2, r2
 8000396:	0983      	lsrs	r3, r0, #6
 8000398:	428b      	cmp	r3, r1
 800039a:	d301      	bcc.n	80003a0 <__divsi3+0x160>
 800039c:	018b      	lsls	r3, r1, #6
 800039e:	1ac0      	subs	r0, r0, r3
 80003a0:	4152      	adcs	r2, r2
 80003a2:	0943      	lsrs	r3, r0, #5
 80003a4:	428b      	cmp	r3, r1
 80003a6:	d301      	bcc.n	80003ac <__divsi3+0x16c>
 80003a8:	014b      	lsls	r3, r1, #5
 80003aa:	1ac0      	subs	r0, r0, r3
 80003ac:	4152      	adcs	r2, r2
 80003ae:	0903      	lsrs	r3, r0, #4
 80003b0:	428b      	cmp	r3, r1
 80003b2:	d301      	bcc.n	80003b8 <__divsi3+0x178>
 80003b4:	010b      	lsls	r3, r1, #4
 80003b6:	1ac0      	subs	r0, r0, r3
 80003b8:	4152      	adcs	r2, r2
 80003ba:	08c3      	lsrs	r3, r0, #3
 80003bc:	428b      	cmp	r3, r1
 80003be:	d301      	bcc.n	80003c4 <__divsi3+0x184>
 80003c0:	00cb      	lsls	r3, r1, #3
 80003c2:	1ac0      	subs	r0, r0, r3
 80003c4:	4152      	adcs	r2, r2
 80003c6:	0883      	lsrs	r3, r0, #2
 80003c8:	428b      	cmp	r3, r1
 80003ca:	d301      	bcc.n	80003d0 <__divsi3+0x190>
 80003cc:	008b      	lsls	r3, r1, #2
 80003ce:	1ac0      	subs	r0, r0, r3
 80003d0:	4152      	adcs	r2, r2
 80003d2:	d2d9      	bcs.n	8000388 <__divsi3+0x148>
 80003d4:	0843      	lsrs	r3, r0, #1
 80003d6:	428b      	cmp	r3, r1
 80003d8:	d301      	bcc.n	80003de <__divsi3+0x19e>
 80003da:	004b      	lsls	r3, r1, #1
 80003dc:	1ac0      	subs	r0, r0, r3
 80003de:	4152      	adcs	r2, r2
 80003e0:	1a41      	subs	r1, r0, r1
 80003e2:	d200      	bcs.n	80003e6 <__divsi3+0x1a6>
 80003e4:	4601      	mov	r1, r0
 80003e6:	4663      	mov	r3, ip
 80003e8:	4152      	adcs	r2, r2
 80003ea:	105b      	asrs	r3, r3, #1
 80003ec:	4610      	mov	r0, r2
 80003ee:	d301      	bcc.n	80003f4 <__divsi3+0x1b4>
 80003f0:	4240      	negs	r0, r0
 80003f2:	2b00      	cmp	r3, #0
 80003f4:	d500      	bpl.n	80003f8 <__divsi3+0x1b8>
 80003f6:	4249      	negs	r1, r1
 80003f8:	4770      	bx	lr
 80003fa:	4663      	mov	r3, ip
 80003fc:	105b      	asrs	r3, r3, #1
 80003fe:	d300      	bcc.n	8000402 <__divsi3+0x1c2>
 8000400:	4240      	negs	r0, r0
 8000402:	b501      	push	{r0, lr}
 8000404:	2000      	movs	r0, #0
 8000406:	f000 f805 	bl	8000414 <__aeabi_idiv0>
 800040a:	bd02      	pop	{r1, pc}

0800040c <__aeabi_idivmod>:
 800040c:	2900      	cmp	r1, #0
 800040e:	d0f8      	beq.n	8000402 <__divsi3+0x1c2>
 8000410:	e716      	b.n	8000240 <__divsi3>
 8000412:	4770      	bx	lr

08000414 <__aeabi_idiv0>:
 8000414:	4770      	bx	lr
 8000416:	46c0      	nop			; (mov r8, r8)

08000418 <__aeabi_uldivmod>:
 8000418:	2b00      	cmp	r3, #0
 800041a:	d111      	bne.n	8000440 <__aeabi_uldivmod+0x28>
 800041c:	2a00      	cmp	r2, #0
 800041e:	d10f      	bne.n	8000440 <__aeabi_uldivmod+0x28>
 8000420:	2900      	cmp	r1, #0
 8000422:	d100      	bne.n	8000426 <__aeabi_uldivmod+0xe>
 8000424:	2800      	cmp	r0, #0
 8000426:	d002      	beq.n	800042e <__aeabi_uldivmod+0x16>
 8000428:	2100      	movs	r1, #0
 800042a:	43c9      	mvns	r1, r1
 800042c:	0008      	movs	r0, r1
 800042e:	b407      	push	{r0, r1, r2}
 8000430:	4802      	ldr	r0, [pc, #8]	; (800043c <__aeabi_uldivmod+0x24>)
 8000432:	a102      	add	r1, pc, #8	; (adr r1, 800043c <__aeabi_uldivmod+0x24>)
 8000434:	1840      	adds	r0, r0, r1
 8000436:	9002      	str	r0, [sp, #8]
 8000438:	bd03      	pop	{r0, r1, pc}
 800043a:	46c0      	nop			; (mov r8, r8)
 800043c:	ffffffd9 	.word	0xffffffd9
 8000440:	b403      	push	{r0, r1}
 8000442:	4668      	mov	r0, sp
 8000444:	b501      	push	{r0, lr}
 8000446:	9802      	ldr	r0, [sp, #8]
 8000448:	f000 f806 	bl	8000458 <__udivmoddi4>
 800044c:	9b01      	ldr	r3, [sp, #4]
 800044e:	469e      	mov	lr, r3
 8000450:	b002      	add	sp, #8
 8000452:	bc0c      	pop	{r2, r3}
 8000454:	4770      	bx	lr
 8000456:	46c0      	nop			; (mov r8, r8)

08000458 <__udivmoddi4>:
 8000458:	b5f0      	push	{r4, r5, r6, r7, lr}
 800045a:	4657      	mov	r7, sl
 800045c:	464e      	mov	r6, r9
 800045e:	4645      	mov	r5, r8
 8000460:	46de      	mov	lr, fp
 8000462:	b5e0      	push	{r5, r6, r7, lr}
 8000464:	0004      	movs	r4, r0
 8000466:	000d      	movs	r5, r1
 8000468:	4692      	mov	sl, r2
 800046a:	4699      	mov	r9, r3
 800046c:	b083      	sub	sp, #12
 800046e:	428b      	cmp	r3, r1
 8000470:	d830      	bhi.n	80004d4 <__udivmoddi4+0x7c>
 8000472:	d02d      	beq.n	80004d0 <__udivmoddi4+0x78>
 8000474:	4649      	mov	r1, r9
 8000476:	4650      	mov	r0, sl
 8000478:	f000 f8ba 	bl	80005f0 <__clzdi2>
 800047c:	0029      	movs	r1, r5
 800047e:	0006      	movs	r6, r0
 8000480:	0020      	movs	r0, r4
 8000482:	f000 f8b5 	bl	80005f0 <__clzdi2>
 8000486:	1a33      	subs	r3, r6, r0
 8000488:	4698      	mov	r8, r3
 800048a:	3b20      	subs	r3, #32
 800048c:	469b      	mov	fp, r3
 800048e:	d433      	bmi.n	80004f8 <__udivmoddi4+0xa0>
 8000490:	465a      	mov	r2, fp
 8000492:	4653      	mov	r3, sl
 8000494:	4093      	lsls	r3, r2
 8000496:	4642      	mov	r2, r8
 8000498:	001f      	movs	r7, r3
 800049a:	4653      	mov	r3, sl
 800049c:	4093      	lsls	r3, r2
 800049e:	001e      	movs	r6, r3
 80004a0:	42af      	cmp	r7, r5
 80004a2:	d83a      	bhi.n	800051a <__udivmoddi4+0xc2>
 80004a4:	42af      	cmp	r7, r5
 80004a6:	d100      	bne.n	80004aa <__udivmoddi4+0x52>
 80004a8:	e078      	b.n	800059c <__udivmoddi4+0x144>
 80004aa:	465b      	mov	r3, fp
 80004ac:	1ba4      	subs	r4, r4, r6
 80004ae:	41bd      	sbcs	r5, r7
 80004b0:	2b00      	cmp	r3, #0
 80004b2:	da00      	bge.n	80004b6 <__udivmoddi4+0x5e>
 80004b4:	e075      	b.n	80005a2 <__udivmoddi4+0x14a>
 80004b6:	2200      	movs	r2, #0
 80004b8:	2300      	movs	r3, #0
 80004ba:	9200      	str	r2, [sp, #0]
 80004bc:	9301      	str	r3, [sp, #4]
 80004be:	2301      	movs	r3, #1
 80004c0:	465a      	mov	r2, fp
 80004c2:	4093      	lsls	r3, r2
 80004c4:	9301      	str	r3, [sp, #4]
 80004c6:	2301      	movs	r3, #1
 80004c8:	4642      	mov	r2, r8
 80004ca:	4093      	lsls	r3, r2
 80004cc:	9300      	str	r3, [sp, #0]
 80004ce:	e028      	b.n	8000522 <__udivmoddi4+0xca>
 80004d0:	4282      	cmp	r2, r0
 80004d2:	d9cf      	bls.n	8000474 <__udivmoddi4+0x1c>
 80004d4:	2200      	movs	r2, #0
 80004d6:	2300      	movs	r3, #0
 80004d8:	9200      	str	r2, [sp, #0]
 80004da:	9301      	str	r3, [sp, #4]
 80004dc:	9b0c      	ldr	r3, [sp, #48]	; 0x30
 80004de:	2b00      	cmp	r3, #0
 80004e0:	d001      	beq.n	80004e6 <__udivmoddi4+0x8e>
 80004e2:	601c      	str	r4, [r3, #0]
 80004e4:	605d      	str	r5, [r3, #4]
 80004e6:	9800      	ldr	r0, [sp, #0]
 80004e8:	9901      	ldr	r1, [sp, #4]
 80004ea:	b003      	add	sp, #12
 80004ec:	bcf0      	pop	{r4, r5, r6, r7}
 80004ee:	46bb      	mov	fp, r7
 80004f0:	46b2      	mov	sl, r6
 80004f2:	46a9      	mov	r9, r5
 80004f4:	46a0      	mov	r8, r4
 80004f6:	bdf0      	pop	{r4, r5, r6, r7, pc}
 80004f8:	4642      	mov	r2, r8
 80004fa:	2320      	movs	r3, #32
 80004fc:	1a9b      	subs	r3, r3, r2
 80004fe:	4652      	mov	r2, sl
 8000500:	40da      	lsrs	r2, r3
 8000502:	4641      	mov	r1, r8
 8000504:	0013      	movs	r3, r2
 8000506:	464a      	mov	r2, r9
 8000508:	408a      	lsls	r2, r1
 800050a:	0017      	movs	r7, r2
 800050c:	4642      	mov	r2, r8
 800050e:	431f      	orrs	r7, r3
 8000510:	4653      	mov	r3, sl
 8000512:	4093      	lsls	r3, r2
 8000514:	001e      	movs	r6, r3
 8000516:	42af      	cmp	r7, r5
 8000518:	d9c4      	bls.n	80004a4 <__udivmoddi4+0x4c>
 800051a:	2200      	movs	r2, #0
 800051c:	2300      	movs	r3, #0
 800051e:	9200      	str	r2, [sp, #0]
 8000520:	9301      	str	r3, [sp, #4]
 8000522:	4643      	mov	r3, r8
 8000524:	2b00      	cmp	r3, #0
 8000526:	d0d9      	beq.n	80004dc <__udivmoddi4+0x84>
 8000528:	07fb      	lsls	r3, r7, #31
 800052a:	0872      	lsrs	r2, r6, #1
 800052c:	431a      	orrs	r2, r3
 800052e:	4646      	mov	r6, r8
 8000530:	087b      	lsrs	r3, r7, #1
 8000532:	e00e      	b.n	8000552 <__udivmoddi4+0xfa>
 8000534:	42ab      	cmp	r3, r5
 8000536:	d101      	bne.n	800053c <__udivmoddi4+0xe4>
 8000538:	42a2      	cmp	r2, r4
 800053a:	d80c      	bhi.n	8000556 <__udivmoddi4+0xfe>
 800053c:	1aa4      	subs	r4, r4, r2
 800053e:	419d      	sbcs	r5, r3
 8000540:	2001      	movs	r0, #1
 8000542:	1924      	adds	r4, r4, r4
 8000544:	416d      	adcs	r5, r5
 8000546:	2100      	movs	r1, #0
 8000548:	3e01      	subs	r6, #1
 800054a:	1824      	adds	r4, r4, r0
 800054c:	414d      	adcs	r5, r1
 800054e:	2e00      	cmp	r6, #0
 8000550:	d006      	beq.n	8000560 <__udivmoddi4+0x108>
 8000552:	42ab      	cmp	r3, r5
 8000554:	d9ee      	bls.n	8000534 <__udivmoddi4+0xdc>
 8000556:	3e01      	subs	r6, #1
 8000558:	1924      	adds	r4, r4, r4
 800055a:	416d      	adcs	r5, r5
 800055c:	2e00      	cmp	r6, #0
 800055e:	d1f8      	bne.n	8000552 <__udivmoddi4+0xfa>
 8000560:	9800      	ldr	r0, [sp, #0]
 8000562:	9901      	ldr	r1, [sp, #4]
 8000564:	465b      	mov	r3, fp
 8000566:	1900      	adds	r0, r0, r4
 8000568:	4169      	adcs	r1, r5
 800056a:	2b00      	cmp	r3, #0
 800056c:	db24      	blt.n	80005b8 <__udivmoddi4+0x160>
 800056e:	002b      	movs	r3, r5
 8000570:	465a      	mov	r2, fp
 8000572:	4644      	mov	r4, r8
 8000574:	40d3      	lsrs	r3, r2
 8000576:	002a      	movs	r2, r5
 8000578:	40e2      	lsrs	r2, r4
 800057a:	001c      	movs	r4, r3
 800057c:	465b      	mov	r3, fp
 800057e:	0015      	movs	r5, r2
 8000580:	2b00      	cmp	r3, #0
 8000582:	db2a      	blt.n	80005da <__udivmoddi4+0x182>
 8000584:	0026      	movs	r6, r4
 8000586:	409e      	lsls	r6, r3
 8000588:	0033      	movs	r3, r6
 800058a:	0026      	movs	r6, r4
 800058c:	4647      	mov	r7, r8
 800058e:	40be      	lsls	r6, r7
 8000590:	0032      	movs	r2, r6
 8000592:	1a80      	subs	r0, r0, r2
 8000594:	4199      	sbcs	r1, r3
 8000596:	9000      	str	r0, [sp, #0]
 8000598:	9101      	str	r1, [sp, #4]
 800059a:	e79f      	b.n	80004dc <__udivmoddi4+0x84>
 800059c:	42a3      	cmp	r3, r4
 800059e:	d8bc      	bhi.n	800051a <__udivmoddi4+0xc2>
 80005a0:	e783      	b.n	80004aa <__udivmoddi4+0x52>
 80005a2:	4642      	mov	r2, r8
 80005a4:	2320      	movs	r3, #32
 80005a6:	2100      	movs	r1, #0
 80005a8:	1a9b      	subs	r3, r3, r2
 80005aa:	2200      	movs	r2, #0
 80005ac:	9100      	str	r1, [sp, #0]
 80005ae:	9201      	str	r2, [sp, #4]
 80005b0:	2201      	movs	r2, #1
 80005b2:	40da      	lsrs	r2, r3
 80005b4:	9201      	str	r2, [sp, #4]
 80005b6:	e786      	b.n	80004c6 <__udivmoddi4+0x6e>
 80005b8:	4642      	mov	r2, r8
 80005ba:	2320      	movs	r3, #32
 80005bc:	1a9b      	subs	r3, r3, r2
 80005be:	002a      	movs	r2, r5
 80005c0:	4646      	mov	r6, r8
 80005c2:	409a      	lsls	r2, r3
 80005c4:	0023      	movs	r3, r4
 80005c6:	40f3      	lsrs	r3, r6
 80005c8:	4644      	mov	r4, r8
 80005ca:	4313      	orrs	r3, r2
 80005cc:	002a      	movs	r2, r5
 80005ce:	40e2      	lsrs	r2, r4
 80005d0:	001c      	movs	r4, r3
 80005d2:	465b      	mov	r3, fp
 80005d4:	0015      	movs	r5, r2
 80005d6:	2b00      	cmp	r3, #0
 80005d8:	dad4      	bge.n	8000584 <__udivmoddi4+0x12c>
 80005da:	4642      	mov	r2, r8
 80005dc:	002f      	movs	r7, r5
 80005de:	2320      	movs	r3, #32
 80005e0:	0026      	movs	r6, r4
 80005e2:	4097      	lsls	r7, r2
 80005e4:	1a9b      	subs	r3, r3, r2
 80005e6:	40de      	lsrs	r6, r3
 80005e8:	003b      	movs	r3, r7
 80005ea:	4333      	orrs	r3, r6
 80005ec:	e7cd      	b.n	800058a <__udivmoddi4+0x132>
 80005ee:	46c0      	nop			; (mov r8, r8)

080005f0 <__clzdi2>:
 80005f0:	b510      	push	{r4, lr}
 80005f2:	2900      	cmp	r1, #0
 80005f4:	d103      	bne.n	80005fe <__clzdi2+0xe>
 80005f6:	f000 f807 	bl	8000608 <__clzsi2>
 80005fa:	3020      	adds	r0, #32
 80005fc:	e002      	b.n	8000604 <__clzdi2+0x14>
 80005fe:	0008      	movs	r0, r1
 8000600:	f000 f802 	bl	8000608 <__clzsi2>
 8000604:	bd10      	pop	{r4, pc}
 8000606:	46c0      	nop			; (mov r8, r8)

08000608 <__clzsi2>:
 8000608:	211c      	movs	r1, #28
 800060a:	2301      	movs	r3, #1
 800060c:	041b      	lsls	r3, r3, #16
 800060e:	4298      	cmp	r0, r3
 8000610:	d301      	bcc.n	8000616 <__clzsi2+0xe>
 8000612:	0c00      	lsrs	r0, r0, #16
 8000614:	3910      	subs	r1, #16
 8000616:	0a1b      	lsrs	r3, r3, #8
 8000618:	4298      	cmp	r0, r3
 800061a:	d301      	bcc.n	8000620 <__clzsi2+0x18>
 800061c:	0a00      	lsrs	r0, r0, #8
 800061e:	3908      	subs	r1, #8
 8000620:	091b      	lsrs	r3, r3, #4
 8000622:	4298      	cmp	r0, r3
 8000624:	d301      	bcc.n	800062a <__clzsi2+0x22>
 8000626:	0900      	lsrs	r0, r0, #4
 8000628:	3904      	subs	r1, #4
 800062a:	a202      	add	r2, pc, #8	; (adr r2, 8000634 <__clzsi2+0x2c>)
 800062c:	5c10      	ldrb	r0, [r2, r0]
 800062e:	1840      	adds	r0, r0, r1
 8000630:	4770      	bx	lr
 8000632:	46c0      	nop			; (mov r8, r8)
 8000634:	02020304 	.word	0x02020304
 8000638:	01010101 	.word	0x01010101
	...

08000644 <ClearBuffers>:
 8000644:	b510      	push	{r4, lr}
 8000646:	2440      	movs	r4, #64	; 0x40
 8000648:	0022      	movs	r2, r4
 800064a:	2100      	movs	r1, #0
 800064c:	4804      	ldr	r0, [pc, #16]	; (8000660 <ClearBuffers+0x1c>)
 800064e:	f002 fbe5 	bl	8002e1c <memset>
 8000652:	0022      	movs	r2, r4
 8000654:	2100      	movs	r1, #0
 8000656:	4803      	ldr	r0, [pc, #12]	; (8000664 <ClearBuffers+0x20>)
 8000658:	f002 fbe0 	bl	8002e1c <memset>
 800065c:	bd10      	pop	{r4, pc}
 800065e:	46c0      	nop			; (mov r8, r8)
 8000660:	20000028 	.word	0x20000028
 8000664:	20000068 	.word	0x20000068

08000668 <SystemClock_Config>:
 8000668:	b500      	push	{lr}
 800066a:	b095      	sub	sp, #84	; 0x54
 800066c:	223c      	movs	r2, #60	; 0x3c
 800066e:	2100      	movs	r1, #0
 8000670:	a805      	add	r0, sp, #20
 8000672:	f002 fbd3 	bl	8002e1c <memset>
 8000676:	2100      	movs	r1, #0
 8000678:	2210      	movs	r2, #16
 800067a:	a801      	add	r0, sp, #4
 800067c:	f002 fbce 	bl	8002e1c <memset>
 8000680:	2080      	movs	r0, #128	; 0x80
 8000682:	0080      	lsls	r0, r0, #2
 8000684:	f001 fa24 	bl	8001ad0 <HAL_PWREx_ControlVoltageScaling>
 8000688:	2302      	movs	r3, #2
 800068a:	9305      	str	r3, [sp, #20]
 800068c:	33fe      	adds	r3, #254	; 0xfe
 800068e:	2240      	movs	r2, #64	; 0x40
 8000690:	9308      	str	r3, [sp, #32]
 8000692:	2300      	movs	r3, #0
 8000694:	a805      	add	r0, sp, #20
 8000696:	9309      	str	r3, [sp, #36]	; 0x24
 8000698:	920a      	str	r2, [sp, #40]	; 0x28
 800069a:	930d      	str	r3, [sp, #52]	; 0x34
 800069c:	f001 fa44 	bl	8001b28 <HAL_RCC_OscConfig>
 80006a0:	1e01      	subs	r1, r0, #0
 80006a2:	d001      	beq.n	80006a8 <SystemClock_Config+0x40>
 80006a4:	b672      	cpsid	i
 80006a6:	e7fe      	b.n	80006a6 <SystemClock_Config+0x3e>
 80006a8:	2307      	movs	r3, #7
 80006aa:	9002      	str	r0, [sp, #8]
 80006ac:	9003      	str	r0, [sp, #12]
 80006ae:	9004      	str	r0, [sp, #16]
 80006b0:	a801      	add	r0, sp, #4
 80006b2:	9301      	str	r3, [sp, #4]
 80006b4:	f001 fcd4 	bl	8002060 <HAL_RCC_ClockConfig>
 80006b8:	2800      	cmp	r0, #0
 80006ba:	d001      	beq.n	80006c0 <SystemClock_Config+0x58>
 80006bc:	b672      	cpsid	i
 80006be:	e7fe      	b.n	80006be <SystemClock_Config+0x56>
 80006c0:	b015      	add	sp, #84	; 0x54
 80006c2:	bd00      	pop	{pc}

080006c4 <MX_I2C1_Init>:
 80006c4:	b510      	push	{r4, lr}
 80006c6:	4b12      	ldr	r3, [pc, #72]	; (8000710 <MX_I2C1_Init+0x4c>)
 80006c8:	4c12      	ldr	r4, [pc, #72]	; (8000714 <MX_I2C1_Init+0x50>)
 80006ca:	2201      	movs	r2, #1
 80006cc:	6023      	str	r3, [r4, #0]
 80006ce:	4b12      	ldr	r3, [pc, #72]	; (8000718 <MX_I2C1_Init+0x54>)
 80006d0:	0020      	movs	r0, r4
 80006d2:	6063      	str	r3, [r4, #4]
 80006d4:	2300      	movs	r3, #0
 80006d6:	60e2      	str	r2, [r4, #12]
 80006d8:	60a3      	str	r3, [r4, #8]
 80006da:	6123      	str	r3, [r4, #16]
 80006dc:	6163      	str	r3, [r4, #20]
 80006de:	61a3      	str	r3, [r4, #24]
 80006e0:	61e3      	str	r3, [r4, #28]
 80006e2:	6223      	str	r3, [r4, #32]
 80006e4:	f000 ff7a 	bl	80015dc <HAL_I2C_Init>
 80006e8:	1e01      	subs	r1, r0, #0
 80006ea:	d001      	beq.n	80006f0 <MX_I2C1_Init+0x2c>
 80006ec:	b672      	cpsid	i
 80006ee:	e7fe      	b.n	80006ee <MX_I2C1_Init+0x2a>
 80006f0:	0020      	movs	r0, r4
 80006f2:	f001 f9a3 	bl	8001a3c <HAL_I2CEx_ConfigAnalogFilter>
 80006f6:	1e01      	subs	r1, r0, #0
 80006f8:	d001      	beq.n	80006fe <MX_I2C1_Init+0x3a>
 80006fa:	b672      	cpsid	i
 80006fc:	e7fe      	b.n	80006fc <MX_I2C1_Init+0x38>
 80006fe:	0020      	movs	r0, r4
 8000700:	f001 f9c2 	bl	8001a88 <HAL_I2CEx_ConfigDigitalFilter>
 8000704:	2800      	cmp	r0, #0
 8000706:	d001      	beq.n	800070c <MX_I2C1_Init+0x48>
 8000708:	b672      	cpsid	i
 800070a:	e7fe      	b.n	800070a <MX_I2C1_Init+0x46>
 800070c:	bd10      	pop	{r4, pc}
 800070e:	46c0      	nop			; (mov r8, r8)
 8000710:	40005400 	.word	0x40005400
 8000714:	200000b4 	.word	0x200000b4
 8000718:	00303d5b 	.word	0x00303d5b

0800071c <main>:
 800071c:	230e      	movs	r3, #14
 800071e:	b5f0      	push	{r4, r5, r6, r7, lr}
 8000720:	2500      	movs	r5, #0
 8000722:	b091      	sub	sp, #68	; 0x44
 8000724:	446b      	add	r3, sp
 8000726:	801d      	strh	r5, [r3, #0]
 8000728:	f000 fc7e 	bl	8001028 <HAL_Init>
 800072c:	f7ff ff9c 	bl	8000668 <SystemClock_Config>
 8000730:	2214      	movs	r2, #20
 8000732:	0029      	movs	r1, r5
 8000734:	a80b      	add	r0, sp, #44	; 0x2c
 8000736:	f002 fb71 	bl	8002e1c <memset>
 800073a:	2004      	movs	r0, #4
 800073c:	2420      	movs	r4, #32
 800073e:	2701      	movs	r7, #1
 8000740:	4bcc      	ldr	r3, [pc, #816]	; (8000a74 <main+0x358>)
 8000742:	2602      	movs	r6, #2
 8000744:	6b59      	ldr	r1, [r3, #52]	; 0x34
 8000746:	4301      	orrs	r1, r0
 8000748:	6359      	str	r1, [r3, #52]	; 0x34
 800074a:	6b5a      	ldr	r2, [r3, #52]	; 0x34
 800074c:	0021      	movs	r1, r4
 800074e:	4002      	ands	r2, r0
 8000750:	20a0      	movs	r0, #160	; 0xa0
 8000752:	9204      	str	r2, [sp, #16]
 8000754:	9a04      	ldr	r2, [sp, #16]
 8000756:	6b5a      	ldr	r2, [r3, #52]	; 0x34
 8000758:	05c0      	lsls	r0, r0, #23
 800075a:	4322      	orrs	r2, r4
 800075c:	635a      	str	r2, [r3, #52]	; 0x34
 800075e:	6b5a      	ldr	r2, [r3, #52]	; 0x34
 8000760:	4022      	ands	r2, r4
 8000762:	9205      	str	r2, [sp, #20]
 8000764:	9a05      	ldr	r2, [sp, #20]
 8000766:	6b5a      	ldr	r2, [r3, #52]	; 0x34
 8000768:	433a      	orrs	r2, r7
 800076a:	635a      	str	r2, [r3, #52]	; 0x34
 800076c:	6b5a      	ldr	r2, [r3, #52]	; 0x34
 800076e:	403a      	ands	r2, r7
 8000770:	9206      	str	r2, [sp, #24]
 8000772:	9a06      	ldr	r2, [sp, #24]
 8000774:	6b5a      	ldr	r2, [r3, #52]	; 0x34
 8000776:	4332      	orrs	r2, r6
 8000778:	635a      	str	r2, [r3, #52]	; 0x34
 800077a:	6b5b      	ldr	r3, [r3, #52]	; 0x34
 800077c:	002a      	movs	r2, r5
 800077e:	4033      	ands	r3, r6
 8000780:	9307      	str	r3, [sp, #28]
 8000782:	9b07      	ldr	r3, [sp, #28]
 8000784:	f000 fe02 	bl	800138c <HAL_GPIO_WritePin>
 8000788:	20a0      	movs	r0, #160	; 0xa0
 800078a:	a90b      	add	r1, sp, #44	; 0x2c
 800078c:	05c0      	lsls	r0, r0, #23
 800078e:	940b      	str	r4, [sp, #44]	; 0x2c
 8000790:	960e      	str	r6, [sp, #56]	; 0x38
 8000792:	970c      	str	r7, [sp, #48]	; 0x30
 8000794:	950d      	str	r5, [sp, #52]	; 0x34
 8000796:	f000 fcc3 	bl	8001120 <HAL_GPIO_Init>
 800079a:	4cb7      	ldr	r4, [pc, #732]	; (8000a78 <main+0x35c>)
 800079c:	4bb7      	ldr	r3, [pc, #732]	; (8000a7c <main+0x360>)
 800079e:	0020      	movs	r0, r4
 80007a0:	6023      	str	r3, [r4, #0]
 80007a2:	23e1      	movs	r3, #225	; 0xe1
 80007a4:	360a      	adds	r6, #10
 80007a6:	025b      	lsls	r3, r3, #9
 80007a8:	6063      	str	r3, [r4, #4]
 80007aa:	60a5      	str	r5, [r4, #8]
 80007ac:	60e5      	str	r5, [r4, #12]
 80007ae:	6125      	str	r5, [r4, #16]
 80007b0:	6166      	str	r6, [r4, #20]
 80007b2:	61a5      	str	r5, [r4, #24]
 80007b4:	61e5      	str	r5, [r4, #28]
 80007b6:	6225      	str	r5, [r4, #32]
 80007b8:	6265      	str	r5, [r4, #36]	; 0x24
 80007ba:	62a5      	str	r5, [r4, #40]	; 0x28
 80007bc:	f002 fa48 	bl	8002c50 <HAL_UART_Init>
 80007c0:	0001      	movs	r1, r0
 80007c2:	42a8      	cmp	r0, r5
 80007c4:	d001      	beq.n	80007ca <main+0xae>
 80007c6:	b672      	cpsid	i
 80007c8:	e7fe      	b.n	80007c8 <main+0xac>
 80007ca:	0020      	movs	r0, r4
 80007cc:	f002 fab8 	bl	8002d40 <HAL_UARTEx_SetTxFifoThreshold>
 80007d0:	1e01      	subs	r1, r0, #0
 80007d2:	d001      	beq.n	80007d8 <main+0xbc>
 80007d4:	b672      	cpsid	i
 80007d6:	e7fe      	b.n	80007d6 <main+0xba>
 80007d8:	0020      	movs	r0, r4
 80007da:	f002 fad5 	bl	8002d88 <HAL_UARTEx_SetRxFifoThreshold>
 80007de:	2800      	cmp	r0, #0
 80007e0:	d001      	beq.n	80007e6 <main+0xca>
 80007e2:	b672      	cpsid	i
 80007e4:	e7fe      	b.n	80007e4 <main+0xc8>
 80007e6:	0020      	movs	r0, r4
 80007e8:	f002 fa8c 	bl	8002d04 <HAL_UARTEx_DisableFifoMode>
 80007ec:	1e05      	subs	r5, r0, #0
 80007ee:	d001      	beq.n	80007f4 <main+0xd8>
 80007f0:	b672      	cpsid	i
 80007f2:	e7fe      	b.n	80007f2 <main+0xd6>
 80007f4:	f7ff ff66 	bl	80006c4 <MX_I2C1_Init>
 80007f8:	2210      	movs	r2, #16
 80007fa:	0029      	movs	r1, r5
 80007fc:	a80b      	add	r0, sp, #44	; 0x2c
 80007fe:	f002 fb0d 	bl	8002e1c <memset>
 8000802:	0032      	movs	r2, r6
 8000804:	0029      	movs	r1, r5
 8000806:	a808      	add	r0, sp, #32
 8000808:	f002 fb08 	bl	8002e1c <memset>
 800080c:	2380      	movs	r3, #128	; 0x80
 800080e:	4c9c      	ldr	r4, [pc, #624]	; (8000a80 <main+0x364>)
 8000810:	05db      	lsls	r3, r3, #23
 8000812:	6023      	str	r3, [r4, #0]
 8000814:	2301      	movs	r3, #1
 8000816:	0020      	movs	r0, r4
 8000818:	425b      	negs	r3, r3
 800081a:	6065      	str	r5, [r4, #4]
 800081c:	60a5      	str	r5, [r4, #8]
 800081e:	60e3      	str	r3, [r4, #12]
 8000820:	6125      	str	r5, [r4, #16]
 8000822:	61a5      	str	r5, [r4, #24]
 8000824:	f001 fe88 	bl	8002538 <HAL_TIM_Base_Init>
 8000828:	2800      	cmp	r0, #0
 800082a:	d001      	beq.n	8000830 <main+0x114>
 800082c:	b672      	cpsid	i
 800082e:	e7fe      	b.n	800082e <main+0x112>
 8000830:	2780      	movs	r7, #128	; 0x80
 8000832:	0020      	movs	r0, r4
 8000834:	017f      	lsls	r7, r7, #5
 8000836:	a90b      	add	r1, sp, #44	; 0x2c
 8000838:	970b      	str	r7, [sp, #44]	; 0x2c
 800083a:	f001 feb3 	bl	80025a4 <HAL_TIM_ConfigClockSource>
 800083e:	2800      	cmp	r0, #0
 8000840:	d001      	beq.n	8000846 <main+0x12a>
 8000842:	b672      	cpsid	i
 8000844:	e7fe      	b.n	8000844 <main+0x128>
 8000846:	9008      	str	r0, [sp, #32]
 8000848:	900a      	str	r0, [sp, #40]	; 0x28
 800084a:	a908      	add	r1, sp, #32
 800084c:	0020      	movs	r0, r4
 800084e:	f001 ff4d 	bl	80026ec <HAL_TIMEx_MasterConfigSynchronization>
 8000852:	1e05      	subs	r5, r0, #0
 8000854:	d001      	beq.n	800085a <main+0x13e>
 8000856:	b672      	cpsid	i
 8000858:	e7fe      	b.n	8000858 <main+0x13c>
 800085a:	0001      	movs	r1, r0
 800085c:	2210      	movs	r2, #16
 800085e:	a80b      	add	r0, sp, #44	; 0x2c
 8000860:	f002 fadc 	bl	8002e1c <memset>
 8000864:	0032      	movs	r2, r6
 8000866:	0029      	movs	r1, r5
 8000868:	a808      	add	r0, sp, #32
 800086a:	f002 fad7 	bl	8002e1c <memset>
 800086e:	4e85      	ldr	r6, [pc, #532]	; (8000a84 <main+0x368>)
 8000870:	4b85      	ldr	r3, [pc, #532]	; (8000a88 <main+0x36c>)
 8000872:	0030      	movs	r0, r6
 8000874:	6033      	str	r3, [r6, #0]
 8000876:	4b85      	ldr	r3, [pc, #532]	; (8000a8c <main+0x370>)
 8000878:	6075      	str	r5, [r6, #4]
 800087a:	60b5      	str	r5, [r6, #8]
 800087c:	60f3      	str	r3, [r6, #12]
 800087e:	6135      	str	r5, [r6, #16]
 8000880:	61b5      	str	r5, [r6, #24]
 8000882:	f001 fe59 	bl	8002538 <HAL_TIM_Base_Init>
 8000886:	2800      	cmp	r0, #0
 8000888:	d001      	beq.n	800088e <main+0x172>
 800088a:	b672      	cpsid	i
 800088c:	e7fe      	b.n	800088c <main+0x170>
 800088e:	0030      	movs	r0, r6
 8000890:	a90b      	add	r1, sp, #44	; 0x2c
 8000892:	970b      	str	r7, [sp, #44]	; 0x2c
 8000894:	f001 fe86 	bl	80025a4 <HAL_TIM_ConfigClockSource>
 8000898:	2800      	cmp	r0, #0
 800089a:	d001      	beq.n	80008a0 <main+0x184>
 800089c:	b672      	cpsid	i
 800089e:	e7fe      	b.n	800089e <main+0x182>
 80008a0:	9008      	str	r0, [sp, #32]
 80008a2:	900a      	str	r0, [sp, #40]	; 0x28
 80008a4:	a908      	add	r1, sp, #32
 80008a6:	0030      	movs	r0, r6
 80008a8:	f001 ff20 	bl	80026ec <HAL_TIMEx_MasterConfigSynchronization>
 80008ac:	2800      	cmp	r0, #0
 80008ae:	d001      	beq.n	80008b4 <main+0x198>
 80008b0:	b672      	cpsid	i
 80008b2:	e7fe      	b.n	80008b2 <main+0x196>
 80008b4:	2302      	movs	r3, #2
 80008b6:	6822      	ldr	r2, [r4, #0]
 80008b8:	2400      	movs	r4, #0
 80008ba:	425b      	negs	r3, r3
 80008bc:	6113      	str	r3, [r2, #16]
 80008be:	6832      	ldr	r2, [r6, #0]
 80008c0:	2064      	movs	r0, #100	; 0x64
 80008c2:	6113      	str	r3, [r2, #16]
 80008c4:	f000 fbd6 	bl	8001074 <HAL_Delay>
 80008c8:	4b71      	ldr	r3, [pc, #452]	; (8000a90 <main+0x374>)
 80008ca:	701c      	strb	r4, [r3, #0]
 80008cc:	f7ff feba 	bl	8000644 <ClearBuffers>
 80008d0:	f000 fac6 	bl	8000e60 <LED12A1_Init>
 80008d4:	4d6f      	ldr	r5, [pc, #444]	; (8000a94 <main+0x378>)
 80008d6:	4970      	ldr	r1, [pc, #448]	; (8000a98 <main+0x37c>)
 80008d8:	0028      	movs	r0, r5
 80008da:	f000 fb15 	bl	8000f08 <LED12A1_ScanAvailDevice>
 80008de:	4e6f      	ldr	r6, [pc, #444]	; (8000a9c <main+0x380>)
 80008e0:	7030      	strb	r0, [r6, #0]
 80008e2:	7833      	ldrb	r3, [r6, #0]
 80008e4:	42a3      	cmp	r3, r4
 80008e6:	d813      	bhi.n	8000910 <main+0x1f4>
 80008e8:	4d6a      	ldr	r5, [pc, #424]	; (8000a94 <main+0x378>)
 80008ea:	2304      	movs	r3, #4
 80008ec:	22ff      	movs	r2, #255	; 0xff
 80008ee:	2103      	movs	r1, #3
 80008f0:	0028      	movs	r0, r5
 80008f2:	f000 fb21 	bl	8000f38 <LED12A1_AnalogDimming>
 80008f6:	2400      	movs	r4, #0
 80008f8:	4b68      	ldr	r3, [pc, #416]	; (8000a9c <main+0x380>)
 80008fa:	781b      	ldrb	r3, [r3, #0]
 80008fc:	42a3      	cmp	r3, r4
 80008fe:	d813      	bhi.n	8000928 <main+0x20c>
 8000900:	2400      	movs	r4, #0
 8000902:	4b66      	ldr	r3, [pc, #408]	; (8000a9c <main+0x380>)
 8000904:	781b      	ldrb	r3, [r3, #0]
 8000906:	42a3      	cmp	r3, r4
 8000908:	d816      	bhi.n	8000938 <main+0x21c>
 800090a:	2404      	movs	r4, #4
 800090c:	2500      	movs	r5, #0
 800090e:	e046      	b.n	800099e <main+0x282>
 8000910:	0021      	movs	r1, r4
 8000912:	0028      	movs	r0, r5
 8000914:	f000 fad6 	bl	8000ec4 <LED12A1_DeviceEnable>
 8000918:	0022      	movs	r2, r4
 800091a:	0028      	movs	r0, r5
 800091c:	4960      	ldr	r1, [pc, #384]	; (8000aa0 <main+0x384>)
 800091e:	3401      	adds	r4, #1
 8000920:	f000 fb48 	bl	8000fb4 <LED12A1_ChannelDisable>
 8000924:	b2e4      	uxtb	r4, r4
 8000926:	e7dc      	b.n	80008e2 <main+0x1c6>
 8000928:	0022      	movs	r2, r4
 800092a:	0028      	movs	r0, r5
 800092c:	495c      	ldr	r1, [pc, #368]	; (8000aa0 <main+0x384>)
 800092e:	3401      	adds	r4, #1
 8000930:	f000 fb40 	bl	8000fb4 <LED12A1_ChannelDisable>
 8000934:	b2e4      	uxtb	r4, r4
 8000936:	e7df      	b.n	80008f8 <main+0x1dc>
 8000938:	2700      	movs	r7, #0
 800093a:	2601      	movs	r6, #1
 800093c:	40be      	lsls	r6, r7
 800093e:	466a      	mov	r2, sp
 8000940:	4d54      	ldr	r5, [pc, #336]	; (8000a94 <main+0x378>)
 8000942:	4b57      	ldr	r3, [pc, #348]	; (8000aa0 <main+0x384>)
 8000944:	b2b6      	uxth	r6, r6
 8000946:	81d3      	strh	r3, [r2, #14]
 8000948:	0031      	movs	r1, r6
 800094a:	0022      	movs	r2, r4
 800094c:	0028      	movs	r0, r5
 800094e:	f000 fb1f 	bl	8000f90 <LED12A1_ChannelEnable>
 8000952:	b2fa      	uxtb	r2, r7
 8000954:	0023      	movs	r3, r4
 8000956:	2114      	movs	r1, #20
 8000958:	0028      	movs	r0, r5
 800095a:	f000 faed 	bl	8000f38 <LED12A1_AnalogDimming>
 800095e:	210e      	movs	r1, #14
 8000960:	b2fa      	uxtb	r2, r7
 8000962:	2300      	movs	r3, #0
 8000964:	4469      	add	r1, sp
 8000966:	0028      	movs	r0, r5
 8000968:	9400      	str	r4, [sp, #0]
 800096a:	f000 faf8 	bl	8000f5e <LED12A1_DigitalDimming>
 800096e:	20c8      	movs	r0, #200	; 0xc8
 8000970:	f000 fb80 	bl	8001074 <HAL_Delay>
 8000974:	3701      	adds	r7, #1
 8000976:	0022      	movs	r2, r4
 8000978:	0031      	movs	r1, r6
 800097a:	0028      	movs	r0, r5
 800097c:	f000 fb1a 	bl	8000fb4 <LED12A1_ChannelDisable>
 8000980:	2f0c      	cmp	r7, #12
 8000982:	d1da      	bne.n	800093a <main+0x21e>
 8000984:	20c8      	movs	r0, #200	; 0xc8
 8000986:	3401      	adds	r4, #1
 8000988:	f000 fb74 	bl	8001074 <HAL_Delay>
 800098c:	b2e4      	uxtb	r4, r4
 800098e:	e7b8      	b.n	8000902 <main+0x1e6>
 8000990:	002a      	movs	r2, r5
 8000992:	4943      	ldr	r1, [pc, #268]	; (8000aa0 <main+0x384>)
 8000994:	483f      	ldr	r0, [pc, #252]	; (8000a94 <main+0x378>)
 8000996:	f000 fb0d 	bl	8000fb4 <LED12A1_ChannelDisable>
 800099a:	3501      	adds	r5, #1
 800099c:	b2ed      	uxtb	r5, r5
 800099e:	4b3f      	ldr	r3, [pc, #252]	; (8000a9c <main+0x380>)
 80009a0:	781b      	ldrb	r3, [r3, #0]
 80009a2:	42ab      	cmp	r3, r5
 80009a4:	d8f4      	bhi.n	8000990 <main+0x274>
 80009a6:	2096      	movs	r0, #150	; 0x96
 80009a8:	0040      	lsls	r0, r0, #1
 80009aa:	f000 fb63 	bl	8001074 <HAL_Delay>
 80009ae:	2500      	movs	r5, #0
 80009b0:	4b3a      	ldr	r3, [pc, #232]	; (8000a9c <main+0x380>)
 80009b2:	781b      	ldrb	r3, [r3, #0]
 80009b4:	42ab      	cmp	r3, r5
 80009b6:	d809      	bhi.n	80009cc <main+0x2b0>
 80009b8:	2096      	movs	r0, #150	; 0x96
 80009ba:	3c01      	subs	r4, #1
 80009bc:	0040      	lsls	r0, r0, #1
 80009be:	b2e4      	uxtb	r4, r4
 80009c0:	f000 fb58 	bl	8001074 <HAL_Delay>
 80009c4:	2c00      	cmp	r4, #0
 80009c6:	d1a1      	bne.n	800090c <main+0x1f0>
 80009c8:	0025      	movs	r5, r4
 80009ca:	e01b      	b.n	8000a04 <main+0x2e8>
 80009cc:	2600      	movs	r6, #0
 80009ce:	2101      	movs	r1, #1
 80009d0:	40b1      	lsls	r1, r6
 80009d2:	4f30      	ldr	r7, [pc, #192]	; (8000a94 <main+0x378>)
 80009d4:	002a      	movs	r2, r5
 80009d6:	b289      	uxth	r1, r1
 80009d8:	0038      	movs	r0, r7
 80009da:	f000 fad9 	bl	8000f90 <LED12A1_ChannelEnable>
 80009de:	b2f2      	uxtb	r2, r6
 80009e0:	002b      	movs	r3, r5
 80009e2:	2114      	movs	r1, #20
 80009e4:	0038      	movs	r0, r7
 80009e6:	3601      	adds	r6, #1
 80009e8:	f000 faa6 	bl	8000f38 <LED12A1_AnalogDimming>
 80009ec:	2e0c      	cmp	r6, #12
 80009ee:	d1ee      	bne.n	80009ce <main+0x2b2>
 80009f0:	3501      	adds	r5, #1
 80009f2:	b2ed      	uxtb	r5, r5
 80009f4:	e7dc      	b.n	80009b0 <main+0x294>
 80009f6:	002a      	movs	r2, r5
 80009f8:	4929      	ldr	r1, [pc, #164]	; (8000aa0 <main+0x384>)
 80009fa:	4826      	ldr	r0, [pc, #152]	; (8000a94 <main+0x378>)
 80009fc:	f000 fada 	bl	8000fb4 <LED12A1_ChannelDisable>
 8000a00:	3501      	adds	r5, #1
 8000a02:	b2ed      	uxtb	r5, r5
 8000a04:	4b25      	ldr	r3, [pc, #148]	; (8000a9c <main+0x380>)
 8000a06:	781b      	ldrb	r3, [r3, #0]
 8000a08:	42ab      	cmp	r3, r5
 8000a0a:	d8f4      	bhi.n	80009f6 <main+0x2da>
 8000a0c:	4b23      	ldr	r3, [pc, #140]	; (8000a9c <main+0x380>)
 8000a0e:	781b      	ldrb	r3, [r3, #0]
 8000a10:	42a3      	cmp	r3, r4
 8000a12:	d800      	bhi.n	8000a16 <main+0x2fa>
 8000a14:	e768      	b.n	80008e8 <main+0x1cc>
 8000a16:	2600      	movs	r6, #0
 8000a18:	2101      	movs	r1, #1
 8000a1a:	40b1      	lsls	r1, r6
 8000a1c:	4d1d      	ldr	r5, [pc, #116]	; (8000a94 <main+0x378>)
 8000a1e:	0022      	movs	r2, r4
 8000a20:	0028      	movs	r0, r5
 8000a22:	b289      	uxth	r1, r1
 8000a24:	b2f7      	uxtb	r7, r6
 8000a26:	f000 fab3 	bl	8000f90 <LED12A1_ChannelEnable>
 8000a2a:	0028      	movs	r0, r5
 8000a2c:	0023      	movs	r3, r4
 8000a2e:	003a      	movs	r2, r7
 8000a30:	2114      	movs	r1, #20
 8000a32:	f000 fa81 	bl	8000f38 <LED12A1_AnalogDimming>
 8000a36:	2500      	movs	r5, #0
 8000a38:	210e      	movs	r1, #14
 8000a3a:	4469      	add	r1, sp
 8000a3c:	800d      	strh	r5, [r1, #0]
 8000a3e:	2300      	movs	r3, #0
 8000a40:	003a      	movs	r2, r7
 8000a42:	4814      	ldr	r0, [pc, #80]	; (8000a94 <main+0x378>)
 8000a44:	9400      	str	r4, [sp, #0]
 8000a46:	f000 fa8a 	bl	8000f5e <LED12A1_DigitalDimming>
 8000a4a:	2064      	movs	r0, #100	; 0x64
 8000a4c:	f000 fb12 	bl	8001074 <HAL_Delay>
 8000a50:	23fa      	movs	r3, #250	; 0xfa
 8000a52:	3591      	adds	r5, #145	; 0x91
 8000a54:	35ff      	adds	r5, #255	; 0xff
 8000a56:	b2ad      	uxth	r5, r5
 8000a58:	011b      	lsls	r3, r3, #4
 8000a5a:	429d      	cmp	r5, r3
 8000a5c:	d1ec      	bne.n	8000a38 <main+0x31c>
 8000a5e:	3601      	adds	r6, #1
 8000a60:	2e0c      	cmp	r6, #12
 8000a62:	d1d9      	bne.n	8000a18 <main+0x2fc>
 8000a64:	2096      	movs	r0, #150	; 0x96
 8000a66:	3401      	adds	r4, #1
 8000a68:	0040      	lsls	r0, r0, #1
 8000a6a:	f000 fb03 	bl	8001074 <HAL_Delay>
 8000a6e:	b2e4      	uxtb	r4, r4
 8000a70:	e7cc      	b.n	8000a0c <main+0x2f0>
 8000a72:	46c0      	nop			; (mov r8, r8)
 8000a74:	40021000 	.word	0x40021000
 8000a78:	200001a0 	.word	0x200001a0
 8000a7c:	40004400 	.word	0x40004400
 8000a80:	20000108 	.word	0x20000108
 8000a84:	20000154 	.word	0x20000154
 8000a88:	40000400 	.word	0x40000400
 8000a8c:	0000ffff 	.word	0x0000ffff
 8000a90:	200000a8 	.word	0x200000a8
 8000a94:	20000238 	.word	0x20000238
 8000a98:	200000a9 	.word	0x200000a9
 8000a9c:	200000b3 	.word	0x200000b3
 8000aa0:	00000fff 	.word	0x00000fff

08000aa4 <Error_Handler>:
 8000aa4:	b672      	cpsid	i
 8000aa6:	e7fe      	b.n	8000aa6 <Error_Handler+0x2>

08000aa8 <HAL_MspInit>:
 8000aa8:	2001      	movs	r0, #1
 8000aaa:	4b0a      	ldr	r3, [pc, #40]	; (8000ad4 <HAL_MspInit+0x2c>)
 8000aac:	b082      	sub	sp, #8
 8000aae:	6c19      	ldr	r1, [r3, #64]	; 0x40
 8000ab0:	4301      	orrs	r1, r0
 8000ab2:	6419      	str	r1, [r3, #64]	; 0x40
 8000ab4:	2180      	movs	r1, #128	; 0x80
 8000ab6:	6c1a      	ldr	r2, [r3, #64]	; 0x40
 8000ab8:	0549      	lsls	r1, r1, #21
 8000aba:	4002      	ands	r2, r0
 8000abc:	9200      	str	r2, [sp, #0]
 8000abe:	9a00      	ldr	r2, [sp, #0]
 8000ac0:	6bda      	ldr	r2, [r3, #60]	; 0x3c
 8000ac2:	430a      	orrs	r2, r1
 8000ac4:	63da      	str	r2, [r3, #60]	; 0x3c
 8000ac6:	6bdb      	ldr	r3, [r3, #60]	; 0x3c
 8000ac8:	400b      	ands	r3, r1
 8000aca:	9301      	str	r3, [sp, #4]
 8000acc:	9b01      	ldr	r3, [sp, #4]
 8000ace:	b002      	add	sp, #8
 8000ad0:	4770      	bx	lr
 8000ad2:	46c0      	nop			; (mov r8, r8)
 8000ad4:	40021000 	.word	0x40021000

08000ad8 <HAL_I2C_MspInit>:
 8000ad8:	b510      	push	{r4, lr}
 8000ada:	0004      	movs	r4, r0
 8000adc:	b09a      	sub	sp, #104	; 0x68
 8000ade:	2214      	movs	r2, #20
 8000ae0:	2100      	movs	r1, #0
 8000ae2:	a802      	add	r0, sp, #8
 8000ae4:	f002 f99a 	bl	8002e1c <memset>
 8000ae8:	224c      	movs	r2, #76	; 0x4c
 8000aea:	2100      	movs	r1, #0
 8000aec:	a807      	add	r0, sp, #28
 8000aee:	f002 f995 	bl	8002e1c <memset>
 8000af2:	4b17      	ldr	r3, [pc, #92]	; (8000b50 <HAL_I2C_MspInit+0x78>)
 8000af4:	6822      	ldr	r2, [r4, #0]
 8000af6:	429a      	cmp	r2, r3
 8000af8:	d128      	bne.n	8000b4c <HAL_I2C_MspInit+0x74>
 8000afa:	2320      	movs	r3, #32
 8000afc:	a807      	add	r0, sp, #28
 8000afe:	9307      	str	r3, [sp, #28]
 8000b00:	f001 fb70 	bl	80021e4 <HAL_RCCEx_PeriphCLKConfig>
 8000b04:	2800      	cmp	r0, #0
 8000b06:	d001      	beq.n	8000b0c <HAL_I2C_MspInit+0x34>
 8000b08:	f7ff ffcc 	bl	8000aa4 <Error_Handler>
 8000b0c:	2102      	movs	r1, #2
 8000b0e:	4c11      	ldr	r4, [pc, #68]	; (8000b54 <HAL_I2C_MspInit+0x7c>)
 8000b10:	4811      	ldr	r0, [pc, #68]	; (8000b58 <HAL_I2C_MspInit+0x80>)
 8000b12:	6b62      	ldr	r2, [r4, #52]	; 0x34
 8000b14:	430a      	orrs	r2, r1
 8000b16:	6362      	str	r2, [r4, #52]	; 0x34
 8000b18:	6b63      	ldr	r3, [r4, #52]	; 0x34
 8000b1a:	400b      	ands	r3, r1
 8000b1c:	9300      	str	r3, [sp, #0]
 8000b1e:	9b00      	ldr	r3, [sp, #0]
 8000b20:	23c0      	movs	r3, #192	; 0xc0
 8000b22:	009b      	lsls	r3, r3, #2
 8000b24:	9302      	str	r3, [sp, #8]
 8000b26:	2312      	movs	r3, #18
 8000b28:	9303      	str	r3, [sp, #12]
 8000b2a:	2300      	movs	r3, #0
 8000b2c:	a902      	add	r1, sp, #8
 8000b2e:	9304      	str	r3, [sp, #16]
 8000b30:	9305      	str	r3, [sp, #20]
 8000b32:	3306      	adds	r3, #6
 8000b34:	9306      	str	r3, [sp, #24]
 8000b36:	f000 faf3 	bl	8001120 <HAL_GPIO_Init>
 8000b3a:	2180      	movs	r1, #128	; 0x80
 8000b3c:	6be2      	ldr	r2, [r4, #60]	; 0x3c
 8000b3e:	0389      	lsls	r1, r1, #14
 8000b40:	430a      	orrs	r2, r1
 8000b42:	63e2      	str	r2, [r4, #60]	; 0x3c
 8000b44:	6be3      	ldr	r3, [r4, #60]	; 0x3c
 8000b46:	400b      	ands	r3, r1
 8000b48:	9301      	str	r3, [sp, #4]
 8000b4a:	9b01      	ldr	r3, [sp, #4]
 8000b4c:	b01a      	add	sp, #104	; 0x68
 8000b4e:	bd10      	pop	{r4, pc}
 8000b50:	40005400 	.word	0x40005400
 8000b54:	40021000 	.word	0x40021000
 8000b58:	50000400 	.word	0x50000400

08000b5c <HAL_I2C_MspDeInit>:
 8000b5c:	4b0a      	ldr	r3, [pc, #40]	; (8000b88 <HAL_I2C_MspDeInit+0x2c>)
 8000b5e:	6802      	ldr	r2, [r0, #0]
 8000b60:	b510      	push	{r4, lr}
 8000b62:	429a      	cmp	r2, r3
 8000b64:	d10e      	bne.n	8000b84 <HAL_I2C_MspDeInit+0x28>
 8000b66:	4a09      	ldr	r2, [pc, #36]	; (8000b8c <HAL_I2C_MspDeInit+0x30>)
 8000b68:	4909      	ldr	r1, [pc, #36]	; (8000b90 <HAL_I2C_MspDeInit+0x34>)
 8000b6a:	6bd3      	ldr	r3, [r2, #60]	; 0x3c
 8000b6c:	4809      	ldr	r0, [pc, #36]	; (8000b94 <HAL_I2C_MspDeInit+0x38>)
 8000b6e:	400b      	ands	r3, r1
 8000b70:	2180      	movs	r1, #128	; 0x80
 8000b72:	63d3      	str	r3, [r2, #60]	; 0x3c
 8000b74:	0049      	lsls	r1, r1, #1
 8000b76:	f000 fb8b 	bl	8001290 <HAL_GPIO_DeInit>
 8000b7a:	2180      	movs	r1, #128	; 0x80
 8000b7c:	4805      	ldr	r0, [pc, #20]	; (8000b94 <HAL_I2C_MspDeInit+0x38>)
 8000b7e:	0089      	lsls	r1, r1, #2
 8000b80:	f000 fb86 	bl	8001290 <HAL_GPIO_DeInit>
 8000b84:	bd10      	pop	{r4, pc}
 8000b86:	46c0      	nop			; (mov r8, r8)
 8000b88:	40005400 	.word	0x40005400
 8000b8c:	40021000 	.word	0x40021000
 8000b90:	ffdfffff 	.word	0xffdfffff
 8000b94:	50000400 	.word	0x50000400

08000b98 <HAL_TIM_Base_MspInit>:
 8000b98:	2280      	movs	r2, #128	; 0x80
 8000b9a:	6803      	ldr	r3, [r0, #0]
 8000b9c:	b082      	sub	sp, #8
 8000b9e:	05d2      	lsls	r2, r2, #23
 8000ba0:	4293      	cmp	r3, r2
 8000ba2:	d10a      	bne.n	8000bba <HAL_TIM_Base_MspInit+0x22>
 8000ba4:	2001      	movs	r0, #1
 8000ba6:	4a0b      	ldr	r2, [pc, #44]	; (8000bd4 <HAL_TIM_Base_MspInit+0x3c>)
 8000ba8:	6bd1      	ldr	r1, [r2, #60]	; 0x3c
 8000baa:	4301      	orrs	r1, r0
 8000bac:	63d1      	str	r1, [r2, #60]	; 0x3c
 8000bae:	6bd3      	ldr	r3, [r2, #60]	; 0x3c
 8000bb0:	4003      	ands	r3, r0
 8000bb2:	9300      	str	r3, [sp, #0]
 8000bb4:	9b00      	ldr	r3, [sp, #0]
 8000bb6:	b002      	add	sp, #8
 8000bb8:	4770      	bx	lr
 8000bba:	4a07      	ldr	r2, [pc, #28]	; (8000bd8 <HAL_TIM_Base_MspInit+0x40>)
 8000bbc:	4293      	cmp	r3, r2
 8000bbe:	d1fa      	bne.n	8000bb6 <HAL_TIM_Base_MspInit+0x1e>
 8000bc0:	2002      	movs	r0, #2
 8000bc2:	4a04      	ldr	r2, [pc, #16]	; (8000bd4 <HAL_TIM_Base_MspInit+0x3c>)
 8000bc4:	6bd1      	ldr	r1, [r2, #60]	; 0x3c
 8000bc6:	4301      	orrs	r1, r0
 8000bc8:	63d1      	str	r1, [r2, #60]	; 0x3c
 8000bca:	6bd3      	ldr	r3, [r2, #60]	; 0x3c
 8000bcc:	4003      	ands	r3, r0
 8000bce:	9301      	str	r3, [sp, #4]
 8000bd0:	9b01      	ldr	r3, [sp, #4]
 8000bd2:	e7f0      	b.n	8000bb6 <HAL_TIM_Base_MspInit+0x1e>
 8000bd4:	40021000 	.word	0x40021000
 8000bd8:	40000400 	.word	0x40000400

08000bdc <HAL_UART_MspInit>:
 8000bdc:	b510      	push	{r4, lr}
 8000bde:	0004      	movs	r4, r0
 8000be0:	b09a      	sub	sp, #104	; 0x68
 8000be2:	2214      	movs	r2, #20
 8000be4:	2100      	movs	r1, #0
 8000be6:	a802      	add	r0, sp, #8
 8000be8:	f002 f918 	bl	8002e1c <memset>
 8000bec:	224c      	movs	r2, #76	; 0x4c
 8000bee:	2100      	movs	r1, #0
 8000bf0:	a807      	add	r0, sp, #28
 8000bf2:	f002 f913 	bl	8002e1c <memset>
 8000bf6:	4b17      	ldr	r3, [pc, #92]	; (8000c54 <HAL_UART_MspInit+0x78>)
 8000bf8:	6822      	ldr	r2, [r4, #0]
 8000bfa:	429a      	cmp	r2, r3
 8000bfc:	d127      	bne.n	8000c4e <HAL_UART_MspInit+0x72>
 8000bfe:	2302      	movs	r3, #2
 8000c00:	a807      	add	r0, sp, #28
 8000c02:	9307      	str	r3, [sp, #28]
 8000c04:	f001 faee 	bl	80021e4 <HAL_RCCEx_PeriphCLKConfig>
 8000c08:	2800      	cmp	r0, #0
 8000c0a:	d001      	beq.n	8000c10 <HAL_UART_MspInit+0x34>
 8000c0c:	f7ff ff4a 	bl	8000aa4 <Error_Handler>
 8000c10:	2080      	movs	r0, #128	; 0x80
 8000c12:	4b11      	ldr	r3, [pc, #68]	; (8000c58 <HAL_UART_MspInit+0x7c>)
 8000c14:	0280      	lsls	r0, r0, #10
 8000c16:	6bd9      	ldr	r1, [r3, #60]	; 0x3c
 8000c18:	4301      	orrs	r1, r0
 8000c1a:	63d9      	str	r1, [r3, #60]	; 0x3c
 8000c1c:	6bda      	ldr	r2, [r3, #60]	; 0x3c
 8000c1e:	4002      	ands	r2, r0
 8000c20:	9200      	str	r2, [sp, #0]
 8000c22:	9a00      	ldr	r2, [sp, #0]
 8000c24:	2201      	movs	r2, #1
 8000c26:	6b59      	ldr	r1, [r3, #52]	; 0x34
 8000c28:	20a0      	movs	r0, #160	; 0xa0
 8000c2a:	4311      	orrs	r1, r2
 8000c2c:	6359      	str	r1, [r3, #52]	; 0x34
 8000c2e:	6b5b      	ldr	r3, [r3, #52]	; 0x34
 8000c30:	a902      	add	r1, sp, #8
 8000c32:	4013      	ands	r3, r2
 8000c34:	9301      	str	r3, [sp, #4]
 8000c36:	9b01      	ldr	r3, [sp, #4]
 8000c38:	230c      	movs	r3, #12
 8000c3a:	9302      	str	r3, [sp, #8]
 8000c3c:	3b0a      	subs	r3, #10
 8000c3e:	9303      	str	r3, [sp, #12]
 8000c40:	2300      	movs	r3, #0
 8000c42:	05c0      	lsls	r0, r0, #23
 8000c44:	9304      	str	r3, [sp, #16]
 8000c46:	9305      	str	r3, [sp, #20]
 8000c48:	9206      	str	r2, [sp, #24]
 8000c4a:	f000 fa69 	bl	8001120 <HAL_GPIO_Init>
 8000c4e:	b01a      	add	sp, #104	; 0x68
 8000c50:	bd10      	pop	{r4, pc}
 8000c52:	46c0      	nop			; (mov r8, r8)
 8000c54:	40004400 	.word	0x40004400
 8000c58:	40021000 	.word	0x40021000

08000c5c <NMI_Handler>:
 8000c5c:	e7fe      	b.n	8000c5c <NMI_Handler>

08000c5e <HardFault_Handler>:
 8000c5e:	e7fe      	b.n	8000c5e <HardFault_Handler>

08000c60 <SVC_Handler>:
 8000c60:	4770      	bx	lr

08000c62 <PendSV_Handler>:
 8000c62:	4770      	bx	lr

08000c64 <SysTick_Handler>:
 8000c64:	b510      	push	{r4, lr}
 8000c66:	f000 f9f3 	bl	8001050 <HAL_IncTick>
 8000c6a:	bd10      	pop	{r4, pc}

08000c6c <SystemInit>:
 8000c6c:	4770      	bx	lr
	...

08000c70 <Reset_Handler>:
 8000c70:	480d      	ldr	r0, [pc, #52]	; (8000ca8 <LoopForever+0x2>)
 8000c72:	4685      	mov	sp, r0
 8000c74:	f7ff fffa 	bl	8000c6c <SystemInit>
 8000c78:	480c      	ldr	r0, [pc, #48]	; (8000cac <LoopForever+0x6>)
 8000c7a:	490d      	ldr	r1, [pc, #52]	; (8000cb0 <LoopForever+0xa>)
 8000c7c:	4a0d      	ldr	r2, [pc, #52]	; (8000cb4 <LoopForever+0xe>)
 8000c7e:	2300      	movs	r3, #0
 8000c80:	e002      	b.n	8000c88 <LoopCopyDataInit>

08000c82 <CopyDataInit>:
 8000c82:	58d4      	ldr	r4, [r2, r3]
 8000c84:	50c4      	str	r4, [r0, r3]
 8000c86:	3304      	adds	r3, #4

08000c88 <LoopCopyDataInit>:
 8000c88:	18c4      	adds	r4, r0, r3
 8000c8a:	428c      	cmp	r4, r1
 8000c8c:	d3f9      	bcc.n	8000c82 <CopyDataInit>
 8000c8e:	4a0a      	ldr	r2, [pc, #40]	; (8000cb8 <LoopForever+0x12>)
 8000c90:	4c0a      	ldr	r4, [pc, #40]	; (8000cbc <LoopForever+0x16>)
 8000c92:	2300      	movs	r3, #0
 8000c94:	e001      	b.n	8000c9a <LoopFillZerobss>

08000c96 <FillZerobss>:
 8000c96:	6013      	str	r3, [r2, #0]
 8000c98:	3204      	adds	r2, #4

08000c9a <LoopFillZerobss>:
 8000c9a:	42a2      	cmp	r2, r4
 8000c9c:	d3fb      	bcc.n	8000c96 <FillZerobss>
 8000c9e:	f002 f899 	bl	8002dd4 <__libc_init_array>
 8000ca2:	f7ff fd3b 	bl	800071c <main>

08000ca6 <LoopForever>:
 8000ca6:	e7fe      	b.n	8000ca6 <LoopForever>
 8000ca8:	20024000 	.word	0x20024000
 8000cac:	20000000 	.word	0x20000000
 8000cb0:	2000000c 	.word	0x2000000c
 8000cb4:	08002eec 	.word	0x08002eec
 8000cb8:	2000000c 	.word	0x2000000c
 8000cbc:	20000268 	.word	0x20000268

08000cc0 <ADC1_COMP_IRQHandler>:
 8000cc0:	e7fe      	b.n	8000cc0 <ADC1_COMP_IRQHandler>
	...

08000cc4 <LED1202_RegisterBusIO>:
 8000cc4:	b510      	push	{r4, lr}
 8000cc6:	2800      	cmp	r0, #0
 8000cc8:	d017      	beq.n	8000cfa <LED1202_RegisterBusIO+0x36>
 8000cca:	680b      	ldr	r3, [r1, #0]
 8000ccc:	6003      	str	r3, [r0, #0]
 8000cce:	790b      	ldrb	r3, [r1, #4]
 8000cd0:	7103      	strb	r3, [r0, #4]
 8000cd2:	68ca      	ldr	r2, [r1, #12]
 8000cd4:	688b      	ldr	r3, [r1, #8]
 8000cd6:	60c2      	str	r2, [r0, #12]
 8000cd8:	690a      	ldr	r2, [r1, #16]
 8000cda:	6083      	str	r3, [r0, #8]
 8000cdc:	6102      	str	r2, [r0, #16]
 8000cde:	694a      	ldr	r2, [r1, #20]
 8000ce0:	6142      	str	r2, [r0, #20]
 8000ce2:	698a      	ldr	r2, [r1, #24]
 8000ce4:	6240      	str	r0, [r0, #36]	; 0x24
 8000ce6:	6182      	str	r2, [r0, #24]
 8000ce8:	4a05      	ldr	r2, [pc, #20]	; (8000d00 <LED1202_RegisterBusIO+0x3c>)
 8000cea:	6202      	str	r2, [r0, #32]
 8000cec:	4a05      	ldr	r2, [pc, #20]	; (8000d04 <LED1202_RegisterBusIO+0x40>)
 8000cee:	61c2      	str	r2, [r0, #28]
 8000cf0:	2b00      	cmp	r3, #0
 8000cf2:	d002      	beq.n	8000cfa <LED1202_RegisterBusIO+0x36>
 8000cf4:	4798      	blx	r3
 8000cf6:	2800      	cmp	r0, #0
 8000cf8:	d000      	beq.n	8000cfc <LED1202_RegisterBusIO+0x38>
 8000cfa:	2003      	movs	r0, #3
 8000cfc:	bd10      	pop	{r4, pc}
 8000cfe:	46c0      	nop			; (mov r8, r8)
 8000d00:	08000ead 	.word	0x08000ead
 8000d04:	08000eb9 	.word	0x08000eb9

08000d08 <LED1202_ReadID>:
 8000d08:	0052      	lsls	r2, r2, #1
 8000d0a:	b510      	push	{r4, lr}
 8000d0c:	2301      	movs	r3, #1
 8000d0e:	7102      	strb	r2, [r0, #4]
 8000d10:	000c      	movs	r4, r1
 8000d12:	000a      	movs	r2, r1
 8000d14:	301c      	adds	r0, #28
 8000d16:	2100      	movs	r1, #0
 8000d18:	f000 f85e 	bl	8000dd8 <LED1202_ReadReg>
 8000d1c:	4b03      	ldr	r3, [pc, #12]	; (8000d2c <LED1202_ReadID+0x24>)
 8000d1e:	6018      	str	r0, [r3, #0]
 8000d20:	7823      	ldrb	r3, [r4, #0]
 8000d22:	2000      	movs	r0, #0
 8000d24:	2b12      	cmp	r3, #18
 8000d26:	d000      	beq.n	8000d2a <LED1202_ReadID+0x22>
 8000d28:	3003      	adds	r0, #3
 8000d2a:	bd10      	pop	{r4, pc}
 8000d2c:	20000234 	.word	0x20000234

08000d30 <LED1202_SetChannelState>:
 8000d30:	005b      	lsls	r3, r3, #1
 8000d32:	b573      	push	{r0, r1, r4, r5, r6, lr}
 8000d34:	7103      	strb	r3, [r0, #4]
 8000d36:	2302      	movs	r3, #2
 8000d38:	301c      	adds	r0, #28
 8000d3a:	000e      	movs	r6, r1
 8000d3c:	0015      	movs	r5, r2
 8000d3e:	0019      	movs	r1, r3
 8000d40:	466a      	mov	r2, sp
 8000d42:	0004      	movs	r4, r0
 8000d44:	f000 f848 	bl	8000dd8 <LED1202_ReadReg>
 8000d48:	466b      	mov	r3, sp
 8000d4a:	9001      	str	r0, [sp, #4]
 8000d4c:	8819      	ldrh	r1, [r3, #0]
 8000d4e:	2d00      	cmp	r5, #0
 8000d50:	d10b      	bne.n	8000d6a <LED1202_SetChannelState+0x3a>
 8000d52:	4331      	orrs	r1, r6
 8000d54:	8059      	strh	r1, [r3, #2]
 8000d56:	466a      	mov	r2, sp
 8000d58:	2302      	movs	r3, #2
 8000d5a:	0020      	movs	r0, r4
 8000d5c:	0019      	movs	r1, r3
 8000d5e:	18d2      	adds	r2, r2, r3
 8000d60:	f000 f840 	bl	8000de4 <LED1202_WriteReg>
 8000d64:	9001      	str	r0, [sp, #4]
 8000d66:	9801      	ldr	r0, [sp, #4]
 8000d68:	bd76      	pop	{r1, r2, r4, r5, r6, pc}
 8000d6a:	466b      	mov	r3, sp
 8000d6c:	43b1      	bics	r1, r6
 8000d6e:	e7f1      	b.n	8000d54 <LED1202_SetChannelState+0x24>

08000d70 <LED1202_WriteLEDCurrentReg>:
 8000d70:	005b      	lsls	r3, r3, #1
 8000d72:	b537      	push	{r0, r1, r2, r4, r5, lr}
 8000d74:	0005      	movs	r5, r0
 8000d76:	7103      	strb	r3, [r0, #4]
 8000d78:	0014      	movs	r4, r2
 8000d7a:	20ff      	movs	r0, #255	; 0xff
 8000d7c:	2913      	cmp	r1, #19
 8000d7e:	d804      	bhi.n	8000d8a <LED1202_WriteLEDCurrentReg+0x1a>
 8000d80:	4348      	muls	r0, r1
 8000d82:	2114      	movs	r1, #20
 8000d84:	f7ff fa5c 	bl	8000240 <__divsi3>
 8000d88:	b2c0      	uxtb	r0, r0
 8000d8a:	466b      	mov	r3, sp
 8000d8c:	71d8      	strb	r0, [r3, #7]
 8000d8e:	0028      	movs	r0, r5
 8000d90:	3409      	adds	r4, #9
 8000d92:	1dda      	adds	r2, r3, #7
 8000d94:	b2a1      	uxth	r1, r4
 8000d96:	2301      	movs	r3, #1
 8000d98:	301c      	adds	r0, #28
 8000d9a:	f000 f823 	bl	8000de4 <LED1202_WriteReg>
 8000d9e:	bd3e      	pop	{r1, r2, r3, r4, r5, pc}

08000da0 <LED1202_WritePatternPWMConfig>:
 8000da0:	b570      	push	{r4, r5, r6, lr}
 8000da2:	000d      	movs	r5, r1
 8000da4:	0019      	movs	r1, r3
 8000da6:	ab04      	add	r3, sp, #16
 8000da8:	781b      	ldrb	r3, [r3, #0]
 8000daa:	0004      	movs	r4, r0
 8000dac:	005b      	lsls	r3, r3, #1
 8000dae:	7103      	strb	r3, [r0, #4]
 8000db0:	2380      	movs	r3, #128	; 0x80
 8000db2:	882e      	ldrh	r6, [r5, #0]
 8000db4:	2000      	movs	r0, #0
 8000db6:	015b      	lsls	r3, r3, #5
 8000db8:	429e      	cmp	r6, r3
 8000dba:	d20c      	bcs.n	8000dd6 <LED1202_WritePatternPWMConfig+0x36>
 8000dbc:	230c      	movs	r3, #12
 8000dbe:	0020      	movs	r0, r4
 8000dc0:	434b      	muls	r3, r1
 8000dc2:	189b      	adds	r3, r3, r2
 8000dc4:	005b      	lsls	r3, r3, #1
 8000dc6:	331e      	adds	r3, #30
 8000dc8:	b2db      	uxtb	r3, r3
 8000dca:	b299      	uxth	r1, r3
 8000dcc:	002a      	movs	r2, r5
 8000dce:	2302      	movs	r3, #2
 8000dd0:	301c      	adds	r0, #28
 8000dd2:	f000 f807 	bl	8000de4 <LED1202_WriteReg>
 8000dd6:	bd70      	pop	{r4, r5, r6, pc}

08000dd8 <LED1202_ReadReg>:
 8000dd8:	b510      	push	{r4, lr}
 8000dda:	b2c9      	uxtb	r1, r1
 8000ddc:	6844      	ldr	r4, [r0, #4]
 8000dde:	6880      	ldr	r0, [r0, #8]
 8000de0:	47a0      	blx	r4
 8000de2:	bd10      	pop	{r4, pc}

08000de4 <LED1202_WriteReg>:
 8000de4:	b510      	push	{r4, lr}
 8000de6:	b2c9      	uxtb	r1, r1
 8000de8:	6804      	ldr	r4, [r0, #0]
 8000dea:	6880      	ldr	r0, [r0, #8]
 8000dec:	47a0      	blx	r4
 8000dee:	bd10      	pop	{r4, pc}

08000df0 <BSP_I2C_Init>:
 8000df0:	b510      	push	{r4, lr}
 8000df2:	f7ff fc67 	bl	80006c4 <MX_I2C1_Init>
 8000df6:	2000      	movs	r0, #0
 8000df8:	bd10      	pop	{r4, pc}
	...

08000dfc <BSP_I2C_DeInit>:
 8000dfc:	b510      	push	{r4, lr}
 8000dfe:	4802      	ldr	r0, [pc, #8]	; (8000e08 <BSP_I2C_DeInit+0xc>)
 8000e00:	f000 fc42 	bl	8001688 <HAL_I2C_DeInit>
 8000e04:	bd10      	pop	{r4, pc}
 8000e06:	46c0      	nop			; (mov r8, r8)
 8000e08:	200000b4 	.word	0x200000b4

08000e0c <BSP_I2C_Write>:
 8000e0c:	b51f      	push	{r0, r1, r2, r3, r4, lr}
 8000e0e:	000c      	movs	r4, r1
 8000e10:	b2c1      	uxtb	r1, r0
 8000e12:	20fa      	movs	r0, #250	; 0xfa
 8000e14:	0080      	lsls	r0, r0, #2
 8000e16:	9002      	str	r0, [sp, #8]
 8000e18:	9301      	str	r3, [sp, #4]
 8000e1a:	9200      	str	r2, [sp, #0]
 8000e1c:	2301      	movs	r3, #1
 8000e1e:	0022      	movs	r2, r4
 8000e20:	4804      	ldr	r0, [pc, #16]	; (8000e34 <BSP_I2C_Write+0x28>)
 8000e22:	f000 fc4b 	bl	80016bc <HAL_I2C_Mem_Write>
 8000e26:	2800      	cmp	r0, #0
 8000e28:	d001      	beq.n	8000e2e <BSP_I2C_Write+0x22>
 8000e2a:	2008      	movs	r0, #8
 8000e2c:	4240      	negs	r0, r0
 8000e2e:	b004      	add	sp, #16
 8000e30:	bd10      	pop	{r4, pc}
 8000e32:	46c0      	nop			; (mov r8, r8)
 8000e34:	200000b4 	.word	0x200000b4

08000e38 <BSP_I2C_Read>:
 8000e38:	b51f      	push	{r0, r1, r2, r3, r4, lr}
 8000e3a:	24fa      	movs	r4, #250	; 0xfa
 8000e3c:	00a4      	lsls	r4, r4, #2
 8000e3e:	9301      	str	r3, [sp, #4]
 8000e40:	9200      	str	r2, [sp, #0]
 8000e42:	2301      	movs	r3, #1
 8000e44:	000a      	movs	r2, r1
 8000e46:	9402      	str	r4, [sp, #8]
 8000e48:	0001      	movs	r1, r0
 8000e4a:	4804      	ldr	r0, [pc, #16]	; (8000e5c <BSP_I2C_Read+0x24>)
 8000e4c:	f000 fd14 	bl	8001878 <HAL_I2C_Mem_Read>
 8000e50:	2800      	cmp	r0, #0
 8000e52:	d001      	beq.n	8000e58 <BSP_I2C_Read+0x20>
 8000e54:	2008      	movs	r0, #8
 8000e56:	4240      	negs	r0, r0
 8000e58:	b004      	add	sp, #16
 8000e5a:	bd10      	pop	{r4, pc}
 8000e5c:	200000b4 	.word	0x200000b4

08000e60 <LED12A1_Init>:
 8000e60:	2300      	movs	r3, #0
 8000e62:	b500      	push	{lr}
 8000e64:	b089      	sub	sp, #36	; 0x24
 8000e66:	a901      	add	r1, sp, #4
 8000e68:	9300      	str	r3, [sp, #0]
 8000e6a:	9301      	str	r3, [sp, #4]
 8000e6c:	335c      	adds	r3, #92	; 0x5c
 8000e6e:	710b      	strb	r3, [r1, #4]
 8000e70:	4b08      	ldr	r3, [pc, #32]	; (8000e94 <LED12A1_Init+0x34>)
 8000e72:	4809      	ldr	r0, [pc, #36]	; (8000e98 <LED12A1_Init+0x38>)
 8000e74:	608b      	str	r3, [r1, #8]
 8000e76:	4b09      	ldr	r3, [pc, #36]	; (8000e9c <LED12A1_Init+0x3c>)
 8000e78:	60cb      	str	r3, [r1, #12]
 8000e7a:	4b09      	ldr	r3, [pc, #36]	; (8000ea0 <LED12A1_Init+0x40>)
 8000e7c:	610b      	str	r3, [r1, #16]
 8000e7e:	4b09      	ldr	r3, [pc, #36]	; (8000ea4 <LED12A1_Init+0x44>)
 8000e80:	614b      	str	r3, [r1, #20]
 8000e82:	4b09      	ldr	r3, [pc, #36]	; (8000ea8 <LED12A1_Init+0x48>)
 8000e84:	618b      	str	r3, [r1, #24]
 8000e86:	f7ff ff1d 	bl	8000cc4 <LED1202_RegisterBusIO>
 8000e8a:	9000      	str	r0, [sp, #0]
 8000e8c:	9800      	ldr	r0, [sp, #0]
 8000e8e:	b009      	add	sp, #36	; 0x24
 8000e90:	bd00      	pop	{pc}
 8000e92:	46c0      	nop			; (mov r8, r8)
 8000e94:	08000df1 	.word	0x08000df1
 8000e98:	20000238 	.word	0x20000238
 8000e9c:	08000dfd 	.word	0x08000dfd
 8000ea0:	08000e0d 	.word	0x08000e0d
 8000ea4:	08000e39 	.word	0x08000e39
 8000ea8:	08001075 	.word	0x08001075

08000eac <ReadRegWrap>:
 8000eac:	b510      	push	{r4, lr}
 8000eae:	0004      	movs	r4, r0
 8000eb0:	6964      	ldr	r4, [r4, #20]
 8000eb2:	7900      	ldrb	r0, [r0, #4]
 8000eb4:	47a0      	blx	r4
 8000eb6:	bd10      	pop	{r4, pc}

08000eb8 <WriteRegWrap>:
 8000eb8:	b510      	push	{r4, lr}
 8000eba:	0004      	movs	r4, r0
 8000ebc:	6924      	ldr	r4, [r4, #16]
 8000ebe:	7900      	ldrb	r0, [r0, #4]
 8000ec0:	47a0      	blx	r4
 8000ec2:	bd10      	pop	{r4, pc}

08000ec4 <LED12A1_DeviceEnable>:
 8000ec4:	2300      	movs	r3, #0
 8000ec6:	b507      	push	{r0, r1, r2, lr}
 8000ec8:	9301      	str	r3, [sp, #4]
 8000eca:	466b      	mov	r3, sp
 8000ecc:	1cda      	adds	r2, r3, #3
 8000ece:	2301      	movs	r3, #1
 8000ed0:	7013      	strb	r3, [r2, #0]
 8000ed2:	335b      	adds	r3, #91	; 0x5b
 8000ed4:	2904      	cmp	r1, #4
 8000ed6:	d801      	bhi.n	8000edc <LED12A1_DeviceEnable+0x18>
 8000ed8:	3158      	adds	r1, #88	; 0x58
 8000eda:	b2cb      	uxtb	r3, r1
 8000edc:	005b      	lsls	r3, r3, #1
 8000ede:	7103      	strb	r3, [r0, #4]
 8000ee0:	2301      	movs	r3, #1
 8000ee2:	0019      	movs	r1, r3
 8000ee4:	301c      	adds	r0, #28
 8000ee6:	f7ff ff7d 	bl	8000de4 <LED1202_WriteReg>
 8000eea:	9001      	str	r0, [sp, #4]
 8000eec:	9801      	ldr	r0, [sp, #4]
 8000eee:	bd0e      	pop	{r1, r2, r3, pc}

08000ef0 <LED12A1_SetDeviceAddr>:
 8000ef0:	2300      	movs	r3, #0
 8000ef2:	b082      	sub	sp, #8
 8000ef4:	9301      	str	r3, [sp, #4]
 8000ef6:	335c      	adds	r3, #92	; 0x5c
 8000ef8:	2904      	cmp	r1, #4
 8000efa:	d801      	bhi.n	8000f00 <LED12A1_SetDeviceAddr+0x10>
 8000efc:	3158      	adds	r1, #88	; 0x58
 8000efe:	b2cb      	uxtb	r3, r1
 8000f00:	7103      	strb	r3, [r0, #4]
 8000f02:	9801      	ldr	r0, [sp, #4]
 8000f04:	b002      	add	sp, #8
 8000f06:	4770      	bx	lr

08000f08 <LED12A1_ScanAvailDevice>:
 8000f08:	b5f7      	push	{r0, r1, r2, r4, r5, r6, r7, lr}
 8000f0a:	0007      	movs	r7, r0
 8000f0c:	000d      	movs	r5, r1
 8000f0e:	2600      	movs	r6, #0
 8000f10:	2458      	movs	r4, #88	; 0x58
 8000f12:	466b      	mov	r3, sp
 8000f14:	1dd9      	adds	r1, r3, #7
 8000f16:	2300      	movs	r3, #0
 8000f18:	0022      	movs	r2, r4
 8000f1a:	0038      	movs	r0, r7
 8000f1c:	700b      	strb	r3, [r1, #0]
 8000f1e:	f7ff fef3 	bl	8000d08 <LED1202_ReadID>
 8000f22:	2800      	cmp	r0, #0
 8000f24:	d102      	bne.n	8000f2c <LED12A1_ScanAvailDevice+0x24>
 8000f26:	702c      	strb	r4, [r5, #0]
 8000f28:	3601      	adds	r6, #1
 8000f2a:	3501      	adds	r5, #1
 8000f2c:	3401      	adds	r4, #1
 8000f2e:	b2e4      	uxtb	r4, r4
 8000f30:	2c61      	cmp	r4, #97	; 0x61
 8000f32:	d1ee      	bne.n	8000f12 <LED12A1_ScanAvailDevice+0xa>
 8000f34:	0030      	movs	r0, r6
 8000f36:	bdfe      	pop	{r1, r2, r3, r4, r5, r6, r7, pc}

08000f38 <LED12A1_AnalogDimming>:
 8000f38:	b573      	push	{r0, r1, r4, r5, r6, lr}
 8000f3a:	000e      	movs	r6, r1
 8000f3c:	0019      	movs	r1, r3
 8000f3e:	2300      	movs	r3, #0
 8000f40:	0004      	movs	r4, r0
 8000f42:	0015      	movs	r5, r2
 8000f44:	9301      	str	r3, [sp, #4]
 8000f46:	f7ff ffd3 	bl	8000ef0 <LED12A1_SetDeviceAddr>
 8000f4a:	0031      	movs	r1, r6
 8000f4c:	9001      	str	r0, [sp, #4]
 8000f4e:	b2aa      	uxth	r2, r5
 8000f50:	0020      	movs	r0, r4
 8000f52:	7923      	ldrb	r3, [r4, #4]
 8000f54:	f7ff ff0c 	bl	8000d70 <LED1202_WriteLEDCurrentReg>
 8000f58:	9001      	str	r0, [sp, #4]
 8000f5a:	9801      	ldr	r0, [sp, #4]
 8000f5c:	bd76      	pop	{r1, r2, r4, r5, r6, pc}

08000f5e <LED12A1_DigitalDimming>:
 8000f5e:	b5f0      	push	{r4, r5, r6, r7, lr}
 8000f60:	b085      	sub	sp, #20
 8000f62:	001f      	movs	r7, r3
 8000f64:	ab0a      	add	r3, sp, #40	; 0x28
 8000f66:	000d      	movs	r5, r1
 8000f68:	7819      	ldrb	r1, [r3, #0]
 8000f6a:	2300      	movs	r3, #0
 8000f6c:	0004      	movs	r4, r0
 8000f6e:	0016      	movs	r6, r2
 8000f70:	9303      	str	r3, [sp, #12]
 8000f72:	f7ff ffbd 	bl	8000ef0 <LED12A1_SetDeviceAddr>
 8000f76:	7923      	ldrb	r3, [r4, #4]
 8000f78:	9003      	str	r0, [sp, #12]
 8000f7a:	9300      	str	r3, [sp, #0]
 8000f7c:	0032      	movs	r2, r6
 8000f7e:	003b      	movs	r3, r7
 8000f80:	0029      	movs	r1, r5
 8000f82:	0020      	movs	r0, r4
 8000f84:	f7ff ff0c 	bl	8000da0 <LED1202_WritePatternPWMConfig>
 8000f88:	9003      	str	r0, [sp, #12]
 8000f8a:	9803      	ldr	r0, [sp, #12]
 8000f8c:	b005      	add	sp, #20
 8000f8e:	bdf0      	pop	{r4, r5, r6, r7, pc}

08000f90 <LED12A1_ChannelEnable>:
 8000f90:	b573      	push	{r0, r1, r4, r5, r6, lr}
 8000f92:	2600      	movs	r6, #0
 8000f94:	000d      	movs	r5, r1
 8000f96:	0011      	movs	r1, r2
 8000f98:	0004      	movs	r4, r0
 8000f9a:	9601      	str	r6, [sp, #4]
 8000f9c:	f7ff ffa8 	bl	8000ef0 <LED12A1_SetDeviceAddr>
 8000fa0:	0032      	movs	r2, r6
 8000fa2:	0029      	movs	r1, r5
 8000fa4:	9001      	str	r0, [sp, #4]
 8000fa6:	7923      	ldrb	r3, [r4, #4]
 8000fa8:	0020      	movs	r0, r4
 8000faa:	f7ff fec1 	bl	8000d30 <LED1202_SetChannelState>
 8000fae:	9001      	str	r0, [sp, #4]
 8000fb0:	9801      	ldr	r0, [sp, #4]
 8000fb2:	bd76      	pop	{r1, r2, r4, r5, r6, pc}

08000fb4 <LED12A1_ChannelDisable>:
 8000fb4:	2300      	movs	r3, #0
 8000fb6:	b537      	push	{r0, r1, r2, r4, r5, lr}
 8000fb8:	000d      	movs	r5, r1
 8000fba:	0011      	movs	r1, r2
 8000fbc:	0004      	movs	r4, r0
 8000fbe:	9301      	str	r3, [sp, #4]
 8000fc0:	f7ff ff96 	bl	8000ef0 <LED12A1_SetDeviceAddr>
 8000fc4:	0029      	movs	r1, r5
 8000fc6:	9001      	str	r0, [sp, #4]
 8000fc8:	2201      	movs	r2, #1
 8000fca:	0020      	movs	r0, r4
 8000fcc:	7923      	ldrb	r3, [r4, #4]
 8000fce:	f7ff feaf 	bl	8000d30 <LED1202_SetChannelState>
 8000fd2:	9001      	str	r0, [sp, #4]
 8000fd4:	9801      	ldr	r0, [sp, #4]
 8000fd6:	bd3e      	pop	{r1, r2, r3, r4, r5, pc}

08000fd8 <HAL_InitTick>:
 8000fd8:	b570      	push	{r4, r5, r6, lr}
 8000fda:	4b10      	ldr	r3, [pc, #64]	; (800101c <HAL_InitTick+0x44>)
 8000fdc:	0005      	movs	r5, r0
 8000fde:	7819      	ldrb	r1, [r3, #0]
 8000fe0:	2900      	cmp	r1, #0
 8000fe2:	d101      	bne.n	8000fe8 <HAL_InitTick+0x10>
 8000fe4:	2001      	movs	r0, #1
 8000fe6:	bd70      	pop	{r4, r5, r6, pc}
 8000fe8:	20fa      	movs	r0, #250	; 0xfa
 8000fea:	0080      	lsls	r0, r0, #2
 8000fec:	f7ff f89e 	bl	800012c <__udivsi3>
 8000ff0:	4b0b      	ldr	r3, [pc, #44]	; (8001020 <HAL_InitTick+0x48>)
 8000ff2:	0001      	movs	r1, r0
 8000ff4:	6818      	ldr	r0, [r3, #0]
 8000ff6:	f7ff f899 	bl	800012c <__udivsi3>
 8000ffa:	f000 f877 	bl	80010ec <HAL_SYSTICK_Config>
 8000ffe:	1e04      	subs	r4, r0, #0
 8001000:	d1f0      	bne.n	8000fe4 <HAL_InitTick+0xc>
 8001002:	2d03      	cmp	r5, #3
 8001004:	d8ee      	bhi.n	8000fe4 <HAL_InitTick+0xc>
 8001006:	0002      	movs	r2, r0
 8001008:	2001      	movs	r0, #1
 800100a:	0029      	movs	r1, r5
 800100c:	4240      	negs	r0, r0
 800100e:	f000 f843 	bl	8001098 <HAL_NVIC_SetPriority>
 8001012:	4b04      	ldr	r3, [pc, #16]	; (8001024 <HAL_InitTick+0x4c>)
 8001014:	0020      	movs	r0, r4
 8001016:	601d      	str	r5, [r3, #0]
 8001018:	e7e5      	b.n	8000fe6 <HAL_InitTick+0xe>
 800101a:	46c0      	nop			; (mov r8, r8)
 800101c:	20000004 	.word	0x20000004
 8001020:	20000000 	.word	0x20000000
 8001024:	20000008 	.word	0x20000008

08001028 <HAL_Init>:
 8001028:	2380      	movs	r3, #128	; 0x80
 800102a:	4a08      	ldr	r2, [pc, #32]	; (800104c <HAL_Init+0x24>)
 800102c:	005b      	lsls	r3, r3, #1
 800102e:	6811      	ldr	r1, [r2, #0]
 8001030:	b510      	push	{r4, lr}
 8001032:	430b      	orrs	r3, r1
 8001034:	2000      	movs	r0, #0
 8001036:	6013      	str	r3, [r2, #0]
 8001038:	f7ff ffce 	bl	8000fd8 <HAL_InitTick>
 800103c:	1e04      	subs	r4, r0, #0
 800103e:	d103      	bne.n	8001048 <HAL_Init+0x20>
 8001040:	f7ff fd32 	bl	8000aa8 <HAL_MspInit>
 8001044:	0020      	movs	r0, r4
 8001046:	bd10      	pop	{r4, pc}
 8001048:	2401      	movs	r4, #1
 800104a:	e7fb      	b.n	8001044 <HAL_Init+0x1c>
 800104c:	40022000 	.word	0x40022000

08001050 <HAL_IncTick>:
 8001050:	4a03      	ldr	r2, [pc, #12]	; (8001060 <HAL_IncTick+0x10>)
 8001052:	4b04      	ldr	r3, [pc, #16]	; (8001064 <HAL_IncTick+0x14>)
 8001054:	6811      	ldr	r1, [r2, #0]
 8001056:	781b      	ldrb	r3, [r3, #0]
 8001058:	185b      	adds	r3, r3, r1
 800105a:	6013      	str	r3, [r2, #0]
 800105c:	4770      	bx	lr
 800105e:	46c0      	nop			; (mov r8, r8)
 8001060:	20000264 	.word	0x20000264
 8001064:	20000004 	.word	0x20000004

08001068 <HAL_GetTick>:
 8001068:	4b01      	ldr	r3, [pc, #4]	; (8001070 <HAL_GetTick+0x8>)
 800106a:	6818      	ldr	r0, [r3, #0]
 800106c:	4770      	bx	lr
 800106e:	46c0      	nop			; (mov r8, r8)
 8001070:	20000264 	.word	0x20000264

08001074 <HAL_Delay>:
 8001074:	b570      	push	{r4, r5, r6, lr}
 8001076:	0004      	movs	r4, r0
 8001078:	f7ff fff6 	bl	8001068 <HAL_GetTick>
 800107c:	0005      	movs	r5, r0
 800107e:	1c63      	adds	r3, r4, #1
 8001080:	d002      	beq.n	8001088 <HAL_Delay+0x14>
 8001082:	4b04      	ldr	r3, [pc, #16]	; (8001094 <HAL_Delay+0x20>)
 8001084:	781b      	ldrb	r3, [r3, #0]
 8001086:	18e4      	adds	r4, r4, r3
 8001088:	f7ff ffee 	bl	8001068 <HAL_GetTick>
 800108c:	1b40      	subs	r0, r0, r5
 800108e:	42a0      	cmp	r0, r4
 8001090:	d3fa      	bcc.n	8001088 <HAL_Delay+0x14>
 8001092:	bd70      	pop	{r4, r5, r6, pc}
 8001094:	20000004 	.word	0x20000004

08001098 <HAL_NVIC_SetPriority>:
 8001098:	b530      	push	{r4, r5, lr}
 800109a:	25ff      	movs	r5, #255	; 0xff
 800109c:	2403      	movs	r4, #3
 800109e:	002a      	movs	r2, r5
 80010a0:	4004      	ands	r4, r0
 80010a2:	00e4      	lsls	r4, r4, #3
 80010a4:	40a2      	lsls	r2, r4
 80010a6:	0189      	lsls	r1, r1, #6
 80010a8:	4029      	ands	r1, r5
 80010aa:	43d2      	mvns	r2, r2
 80010ac:	40a1      	lsls	r1, r4
 80010ae:	b2c3      	uxtb	r3, r0
 80010b0:	2800      	cmp	r0, #0
 80010b2:	db0a      	blt.n	80010ca <HAL_NVIC_SetPriority+0x32>
 80010b4:	24c0      	movs	r4, #192	; 0xc0
 80010b6:	4b0b      	ldr	r3, [pc, #44]	; (80010e4 <HAL_NVIC_SetPriority+0x4c>)
 80010b8:	0880      	lsrs	r0, r0, #2
 80010ba:	0080      	lsls	r0, r0, #2
 80010bc:	18c0      	adds	r0, r0, r3
 80010be:	00a4      	lsls	r4, r4, #2
 80010c0:	5903      	ldr	r3, [r0, r4]
 80010c2:	401a      	ands	r2, r3
 80010c4:	4311      	orrs	r1, r2
 80010c6:	5101      	str	r1, [r0, r4]
 80010c8:	bd30      	pop	{r4, r5, pc}
 80010ca:	200f      	movs	r0, #15
 80010cc:	4003      	ands	r3, r0
 80010ce:	3b08      	subs	r3, #8
 80010d0:	4805      	ldr	r0, [pc, #20]	; (80010e8 <HAL_NVIC_SetPriority+0x50>)
 80010d2:	089b      	lsrs	r3, r3, #2
 80010d4:	009b      	lsls	r3, r3, #2
 80010d6:	181b      	adds	r3, r3, r0
 80010d8:	69d8      	ldr	r0, [r3, #28]
 80010da:	4002      	ands	r2, r0
 80010dc:	4311      	orrs	r1, r2
 80010de:	61d9      	str	r1, [r3, #28]
 80010e0:	e7f2      	b.n	80010c8 <HAL_NVIC_SetPriority+0x30>
 80010e2:	46c0      	nop			; (mov r8, r8)
 80010e4:	e000e100 	.word	0xe000e100
 80010e8:	e000ed00 	.word	0xe000ed00

080010ec <HAL_SYSTICK_Config>:
 80010ec:	2280      	movs	r2, #128	; 0x80
 80010ee:	1e43      	subs	r3, r0, #1
 80010f0:	0452      	lsls	r2, r2, #17
 80010f2:	2001      	movs	r0, #1
 80010f4:	4293      	cmp	r3, r2
 80010f6:	d20d      	bcs.n	8001114 <HAL_SYSTICK_Config+0x28>
 80010f8:	21c0      	movs	r1, #192	; 0xc0
 80010fa:	4a07      	ldr	r2, [pc, #28]	; (8001118 <HAL_SYSTICK_Config+0x2c>)
 80010fc:	4807      	ldr	r0, [pc, #28]	; (800111c <HAL_SYSTICK_Config+0x30>)
 80010fe:	6053      	str	r3, [r2, #4]
 8001100:	6a03      	ldr	r3, [r0, #32]
 8001102:	0609      	lsls	r1, r1, #24
 8001104:	021b      	lsls	r3, r3, #8
 8001106:	0a1b      	lsrs	r3, r3, #8
 8001108:	430b      	orrs	r3, r1
 800110a:	6203      	str	r3, [r0, #32]
 800110c:	2000      	movs	r0, #0
 800110e:	2307      	movs	r3, #7
 8001110:	6090      	str	r0, [r2, #8]
 8001112:	6013      	str	r3, [r2, #0]
 8001114:	4770      	bx	lr
 8001116:	46c0      	nop			; (mov r8, r8)
 8001118:	e000e010 	.word	0xe000e010
 800111c:	e000ed00 	.word	0xe000ed00

08001120 <HAL_GPIO_Init>:
 8001120:	4a54      	ldr	r2, [pc, #336]	; (8001274 <HAL_GPIO_Init+0x154>)
 8001122:	b5f0      	push	{r4, r5, r6, r7, lr}
 8001124:	1882      	adds	r2, r0, r2
 8001126:	1e54      	subs	r4, r2, #1
 8001128:	41a2      	sbcs	r2, r4
 800112a:	2300      	movs	r3, #0
 800112c:	b087      	sub	sp, #28
 800112e:	3204      	adds	r2, #4
 8001130:	9205      	str	r2, [sp, #20]
 8001132:	680a      	ldr	r2, [r1, #0]
 8001134:	0014      	movs	r4, r2
 8001136:	40dc      	lsrs	r4, r3
 8001138:	d101      	bne.n	800113e <HAL_GPIO_Init+0x1e>
 800113a:	b007      	add	sp, #28
 800113c:	bdf0      	pop	{r4, r5, r6, r7, pc}
 800113e:	2401      	movs	r4, #1
 8001140:	0025      	movs	r5, r4
 8001142:	46a4      	mov	ip, r4
 8001144:	409d      	lsls	r5, r3
 8001146:	0014      	movs	r4, r2
 8001148:	402c      	ands	r4, r5
 800114a:	9402      	str	r4, [sp, #8]
 800114c:	422a      	tst	r2, r5
 800114e:	d100      	bne.n	8001152 <HAL_GPIO_Init+0x32>
 8001150:	e08e      	b.n	8001270 <HAL_GPIO_Init+0x150>
 8001152:	2403      	movs	r4, #3
 8001154:	684a      	ldr	r2, [r1, #4]
 8001156:	005e      	lsls	r6, r3, #1
 8001158:	9201      	str	r2, [sp, #4]
 800115a:	4022      	ands	r2, r4
 800115c:	40b4      	lsls	r4, r6
 800115e:	43e4      	mvns	r4, r4
 8001160:	9403      	str	r4, [sp, #12]
 8001162:	1e54      	subs	r4, r2, #1
 8001164:	4564      	cmp	r4, ip
 8001166:	d82a      	bhi.n	80011be <HAL_GPIO_Init+0x9e>
 8001168:	6887      	ldr	r7, [r0, #8]
 800116a:	9c03      	ldr	r4, [sp, #12]
 800116c:	4027      	ands	r7, r4
 800116e:	68cc      	ldr	r4, [r1, #12]
 8001170:	40b4      	lsls	r4, r6
 8001172:	433c      	orrs	r4, r7
 8001174:	4667      	mov	r7, ip
 8001176:	6084      	str	r4, [r0, #8]
 8001178:	6844      	ldr	r4, [r0, #4]
 800117a:	43ac      	bics	r4, r5
 800117c:	0025      	movs	r5, r4
 800117e:	9c01      	ldr	r4, [sp, #4]
 8001180:	0924      	lsrs	r4, r4, #4
 8001182:	403c      	ands	r4, r7
 8001184:	409c      	lsls	r4, r3
 8001186:	432c      	orrs	r4, r5
 8001188:	6044      	str	r4, [r0, #4]
 800118a:	68c5      	ldr	r5, [r0, #12]
 800118c:	9c03      	ldr	r4, [sp, #12]
 800118e:	4025      	ands	r5, r4
 8001190:	688c      	ldr	r4, [r1, #8]
 8001192:	40b4      	lsls	r4, r6
 8001194:	432c      	orrs	r4, r5
 8001196:	60c4      	str	r4, [r0, #12]
 8001198:	2a02      	cmp	r2, #2
 800119a:	d112      	bne.n	80011c2 <HAL_GPIO_Init+0xa2>
 800119c:	08dc      	lsrs	r4, r3, #3
 800119e:	2507      	movs	r5, #7
 80011a0:	00a4      	lsls	r4, r4, #2
 80011a2:	1904      	adds	r4, r0, r4
 80011a4:	6a27      	ldr	r7, [r4, #32]
 80011a6:	9404      	str	r4, [sp, #16]
 80011a8:	240f      	movs	r4, #15
 80011aa:	401d      	ands	r5, r3
 80011ac:	00ad      	lsls	r5, r5, #2
 80011ae:	40ac      	lsls	r4, r5
 80011b0:	43a7      	bics	r7, r4
 80011b2:	690c      	ldr	r4, [r1, #16]
 80011b4:	40ac      	lsls	r4, r5
 80011b6:	4327      	orrs	r7, r4
 80011b8:	9c04      	ldr	r4, [sp, #16]
 80011ba:	6227      	str	r7, [r4, #32]
 80011bc:	e001      	b.n	80011c2 <HAL_GPIO_Init+0xa2>
 80011be:	2a03      	cmp	r2, #3
 80011c0:	d1e3      	bne.n	800118a <HAL_GPIO_Init+0x6a>
 80011c2:	40b2      	lsls	r2, r6
 80011c4:	6804      	ldr	r4, [r0, #0]
 80011c6:	9d03      	ldr	r5, [sp, #12]
 80011c8:	4025      	ands	r5, r4
 80011ca:	432a      	orrs	r2, r5
 80011cc:	6002      	str	r2, [r0, #0]
 80011ce:	22c0      	movs	r2, #192	; 0xc0
 80011d0:	9c01      	ldr	r4, [sp, #4]
 80011d2:	0292      	lsls	r2, r2, #10
 80011d4:	4214      	tst	r4, r2
 80011d6:	d04b      	beq.n	8001270 <HAL_GPIO_Init+0x150>
 80011d8:	2603      	movs	r6, #3
 80011da:	001d      	movs	r5, r3
 80011dc:	4a26      	ldr	r2, [pc, #152]	; (8001278 <HAL_GPIO_Init+0x158>)
 80011de:	089c      	lsrs	r4, r3, #2
 80011e0:	00a4      	lsls	r4, r4, #2
 80011e2:	4035      	ands	r5, r6
 80011e4:	18a4      	adds	r4, r4, r2
 80011e6:	40b5      	lsls	r5, r6
 80011e8:	220f      	movs	r2, #15
 80011ea:	40aa      	lsls	r2, r5
 80011ec:	6e27      	ldr	r7, [r4, #96]	; 0x60
 80011ee:	4397      	bics	r7, r2
 80011f0:	46bc      	mov	ip, r7
 80011f2:	27a0      	movs	r7, #160	; 0xa0
 80011f4:	2200      	movs	r2, #0
 80011f6:	05ff      	lsls	r7, r7, #23
 80011f8:	42b8      	cmp	r0, r7
 80011fa:	d00c      	beq.n	8001216 <HAL_GPIO_Init+0xf6>
 80011fc:	4f1f      	ldr	r7, [pc, #124]	; (800127c <HAL_GPIO_Init+0x15c>)
 80011fe:	3201      	adds	r2, #1
 8001200:	42b8      	cmp	r0, r7
 8001202:	d008      	beq.n	8001216 <HAL_GPIO_Init+0xf6>
 8001204:	4f1e      	ldr	r7, [pc, #120]	; (8001280 <HAL_GPIO_Init+0x160>)
 8001206:	3201      	adds	r2, #1
 8001208:	42b8      	cmp	r0, r7
 800120a:	d004      	beq.n	8001216 <HAL_GPIO_Init+0xf6>
 800120c:	4f1d      	ldr	r7, [pc, #116]	; (8001284 <HAL_GPIO_Init+0x164>)
 800120e:	0032      	movs	r2, r6
 8001210:	42b8      	cmp	r0, r7
 8001212:	d000      	beq.n	8001216 <HAL_GPIO_Init+0xf6>
 8001214:	9a05      	ldr	r2, [sp, #20]
 8001216:	40aa      	lsls	r2, r5
 8001218:	4665      	mov	r5, ip
 800121a:	432a      	orrs	r2, r5
 800121c:	6622      	str	r2, [r4, #96]	; 0x60
 800121e:	4c16      	ldr	r4, [pc, #88]	; (8001278 <HAL_GPIO_Init+0x158>)
 8001220:	9a02      	ldr	r2, [sp, #8]
 8001222:	6826      	ldr	r6, [r4, #0]
 8001224:	9d02      	ldr	r5, [sp, #8]
 8001226:	9f01      	ldr	r7, [sp, #4]
 8001228:	43d2      	mvns	r2, r2
 800122a:	4335      	orrs	r5, r6
 800122c:	02ff      	lsls	r7, r7, #11
 800122e:	d401      	bmi.n	8001234 <HAL_GPIO_Init+0x114>
 8001230:	0035      	movs	r5, r6
 8001232:	4015      	ands	r5, r2
 8001234:	6025      	str	r5, [r4, #0]
 8001236:	6866      	ldr	r6, [r4, #4]
 8001238:	9d02      	ldr	r5, [sp, #8]
 800123a:	9f01      	ldr	r7, [sp, #4]
 800123c:	4335      	orrs	r5, r6
 800123e:	02bf      	lsls	r7, r7, #10
 8001240:	d401      	bmi.n	8001246 <HAL_GPIO_Init+0x126>
 8001242:	0035      	movs	r5, r6
 8001244:	4015      	ands	r5, r2
 8001246:	6065      	str	r5, [r4, #4]
 8001248:	4c0f      	ldr	r4, [pc, #60]	; (8001288 <HAL_GPIO_Init+0x168>)
 800124a:	9d02      	ldr	r5, [sp, #8]
 800124c:	6fe6      	ldr	r6, [r4, #124]	; 0x7c
 800124e:	9f01      	ldr	r7, [sp, #4]
 8001250:	4335      	orrs	r5, r6
 8001252:	03bf      	lsls	r7, r7, #14
 8001254:	d401      	bmi.n	800125a <HAL_GPIO_Init+0x13a>
 8001256:	0035      	movs	r5, r6
 8001258:	4015      	ands	r5, r2
 800125a:	67e5      	str	r5, [r4, #124]	; 0x7c
 800125c:	4c0b      	ldr	r4, [pc, #44]	; (800128c <HAL_GPIO_Init+0x16c>)
 800125e:	9e02      	ldr	r6, [sp, #8]
 8001260:	6fe5      	ldr	r5, [r4, #124]	; 0x7c
 8001262:	9f01      	ldr	r7, [sp, #4]
 8001264:	432e      	orrs	r6, r5
 8001266:	03ff      	lsls	r7, r7, #15
 8001268:	d401      	bmi.n	800126e <HAL_GPIO_Init+0x14e>
 800126a:	4015      	ands	r5, r2
 800126c:	002e      	movs	r6, r5
 800126e:	67e6      	str	r6, [r4, #124]	; 0x7c
 8001270:	3301      	adds	r3, #1
 8001272:	e75e      	b.n	8001132 <HAL_GPIO_Init+0x12>
 8001274:	affff000 	.word	0xaffff000
 8001278:	40021800 	.word	0x40021800
 800127c:	50000400 	.word	0x50000400
 8001280:	50000800 	.word	0x50000800
 8001284:	50000c00 	.word	0x50000c00
 8001288:	40021808 	.word	0x40021808
 800128c:	40021804 	.word	0x40021804

08001290 <HAL_GPIO_DeInit>:
 8001290:	b5f0      	push	{r4, r5, r6, r7, lr}
 8001292:	4a37      	ldr	r2, [pc, #220]	; (8001370 <HAL_GPIO_DeInit+0xe0>)
 8001294:	b085      	sub	sp, #20
 8001296:	1882      	adds	r2, r0, r2
 8001298:	9101      	str	r1, [sp, #4]
 800129a:	1e51      	subs	r1, r2, #1
 800129c:	418a      	sbcs	r2, r1
 800129e:	2300      	movs	r3, #0
 80012a0:	3204      	adds	r2, #4
 80012a2:	9203      	str	r2, [sp, #12]
 80012a4:	9a01      	ldr	r2, [sp, #4]
 80012a6:	40da      	lsrs	r2, r3
 80012a8:	d101      	bne.n	80012ae <HAL_GPIO_DeInit+0x1e>
 80012aa:	b005      	add	sp, #20
 80012ac:	bdf0      	pop	{r4, r5, r6, r7, pc}
 80012ae:	2701      	movs	r7, #1
 80012b0:	003a      	movs	r2, r7
 80012b2:	409a      	lsls	r2, r3
 80012b4:	9c01      	ldr	r4, [sp, #4]
 80012b6:	9200      	str	r2, [sp, #0]
 80012b8:	4014      	ands	r4, r2
 80012ba:	9900      	ldr	r1, [sp, #0]
 80012bc:	9a01      	ldr	r2, [sp, #4]
 80012be:	420a      	tst	r2, r1
 80012c0:	d053      	beq.n	800136a <HAL_GPIO_DeInit+0xda>
 80012c2:	492c      	ldr	r1, [pc, #176]	; (8001374 <HAL_GPIO_DeInit+0xe4>)
 80012c4:	089a      	lsrs	r2, r3, #2
 80012c6:	0092      	lsls	r2, r2, #2
 80012c8:	1852      	adds	r2, r2, r1
 80012ca:	6e11      	ldr	r1, [r2, #96]	; 0x60
 80012cc:	001d      	movs	r5, r3
 80012ce:	000e      	movs	r6, r1
 80012d0:	2103      	movs	r1, #3
 80012d2:	400d      	ands	r5, r1
 80012d4:	408d      	lsls	r5, r1
 80012d6:	310c      	adds	r1, #12
 80012d8:	40a9      	lsls	r1, r5
 80012da:	9102      	str	r1, [sp, #8]
 80012dc:	4031      	ands	r1, r6
 80012de:	000e      	movs	r6, r1
 80012e0:	21a0      	movs	r1, #160	; 0xa0
 80012e2:	05c9      	lsls	r1, r1, #23
 80012e4:	468c      	mov	ip, r1
 80012e6:	2100      	movs	r1, #0
 80012e8:	4560      	cmp	r0, ip
 80012ea:	d00d      	beq.n	8001308 <HAL_GPIO_DeInit+0x78>
 80012ec:	4922      	ldr	r1, [pc, #136]	; (8001378 <HAL_GPIO_DeInit+0xe8>)
 80012ee:	468c      	mov	ip, r1
 80012f0:	0039      	movs	r1, r7
 80012f2:	4560      	cmp	r0, ip
 80012f4:	d008      	beq.n	8001308 <HAL_GPIO_DeInit+0x78>
 80012f6:	4f21      	ldr	r7, [pc, #132]	; (800137c <HAL_GPIO_DeInit+0xec>)
 80012f8:	1849      	adds	r1, r1, r1
 80012fa:	42b8      	cmp	r0, r7
 80012fc:	d004      	beq.n	8001308 <HAL_GPIO_DeInit+0x78>
 80012fe:	4f20      	ldr	r7, [pc, #128]	; (8001380 <HAL_GPIO_DeInit+0xf0>)
 8001300:	3101      	adds	r1, #1
 8001302:	42b8      	cmp	r0, r7
 8001304:	d000      	beq.n	8001308 <HAL_GPIO_DeInit+0x78>
 8001306:	9903      	ldr	r1, [sp, #12]
 8001308:	40a9      	lsls	r1, r5
 800130a:	42b1      	cmp	r1, r6
 800130c:	d112      	bne.n	8001334 <HAL_GPIO_DeInit+0xa4>
 800130e:	4e1d      	ldr	r6, [pc, #116]	; (8001384 <HAL_GPIO_DeInit+0xf4>)
 8001310:	4918      	ldr	r1, [pc, #96]	; (8001374 <HAL_GPIO_DeInit+0xe4>)
 8001312:	6ff5      	ldr	r5, [r6, #124]	; 0x7c
 8001314:	43a5      	bics	r5, r4
 8001316:	67f5      	str	r5, [r6, #124]	; 0x7c
 8001318:	4e1b      	ldr	r6, [pc, #108]	; (8001388 <HAL_GPIO_DeInit+0xf8>)
 800131a:	6ff5      	ldr	r5, [r6, #124]	; 0x7c
 800131c:	43a5      	bics	r5, r4
 800131e:	67f5      	str	r5, [r6, #124]	; 0x7c
 8001320:	684d      	ldr	r5, [r1, #4]
 8001322:	43a5      	bics	r5, r4
 8001324:	604d      	str	r5, [r1, #4]
 8001326:	680d      	ldr	r5, [r1, #0]
 8001328:	43a5      	bics	r5, r4
 800132a:	600d      	str	r5, [r1, #0]
 800132c:	6e11      	ldr	r1, [r2, #96]	; 0x60
 800132e:	9c02      	ldr	r4, [sp, #8]
 8001330:	43a1      	bics	r1, r4
 8001332:	6611      	str	r1, [r2, #96]	; 0x60
 8001334:	2103      	movs	r1, #3
 8001336:	005c      	lsls	r4, r3, #1
 8001338:	40a1      	lsls	r1, r4
 800133a:	2407      	movs	r4, #7
 800133c:	260f      	movs	r6, #15
 800133e:	401c      	ands	r4, r3
 8001340:	00a4      	lsls	r4, r4, #2
 8001342:	40a6      	lsls	r6, r4
 8001344:	6802      	ldr	r2, [r0, #0]
 8001346:	9c00      	ldr	r4, [sp, #0]
 8001348:	430a      	orrs	r2, r1
 800134a:	6002      	str	r2, [r0, #0]
 800134c:	08da      	lsrs	r2, r3, #3
 800134e:	0092      	lsls	r2, r2, #2
 8001350:	1882      	adds	r2, r0, r2
 8001352:	6a15      	ldr	r5, [r2, #32]
 8001354:	43b5      	bics	r5, r6
 8001356:	6215      	str	r5, [r2, #32]
 8001358:	6882      	ldr	r2, [r0, #8]
 800135a:	438a      	bics	r2, r1
 800135c:	6082      	str	r2, [r0, #8]
 800135e:	6842      	ldr	r2, [r0, #4]
 8001360:	43a2      	bics	r2, r4
 8001362:	6042      	str	r2, [r0, #4]
 8001364:	68c2      	ldr	r2, [r0, #12]
 8001366:	438a      	bics	r2, r1
 8001368:	60c2      	str	r2, [r0, #12]
 800136a:	3301      	adds	r3, #1
 800136c:	e79a      	b.n	80012a4 <HAL_GPIO_DeInit+0x14>
 800136e:	46c0      	nop			; (mov r8, r8)
 8001370:	affff000 	.word	0xaffff000
 8001374:	40021800 	.word	0x40021800
 8001378:	50000400 	.word	0x50000400
 800137c:	50000800 	.word	0x50000800
 8001380:	50000c00 	.word	0x50000c00
 8001384:	40021804 	.word	0x40021804
 8001388:	40021808 	.word	0x40021808

0800138c <HAL_GPIO_WritePin>:
 800138c:	2a00      	cmp	r2, #0
 800138e:	d001      	beq.n	8001394 <HAL_GPIO_WritePin+0x8>
 8001390:	6181      	str	r1, [r0, #24]
 8001392:	4770      	bx	lr
 8001394:	6281      	str	r1, [r0, #40]	; 0x28
 8001396:	e7fc      	b.n	8001392 <HAL_GPIO_WritePin+0x6>

08001398 <I2C_Flush_TXDR>:
 8001398:	6803      	ldr	r3, [r0, #0]
 800139a:	699a      	ldr	r2, [r3, #24]
 800139c:	0792      	lsls	r2, r2, #30
 800139e:	d501      	bpl.n	80013a4 <I2C_Flush_TXDR+0xc>
 80013a0:	2200      	movs	r2, #0
 80013a2:	629a      	str	r2, [r3, #40]	; 0x28
 80013a4:	2201      	movs	r2, #1
 80013a6:	6999      	ldr	r1, [r3, #24]
 80013a8:	4211      	tst	r1, r2
 80013aa:	d102      	bne.n	80013b2 <I2C_Flush_TXDR+0x1a>
 80013ac:	6999      	ldr	r1, [r3, #24]
 80013ae:	430a      	orrs	r2, r1
 80013b0:	619a      	str	r2, [r3, #24]
 80013b2:	4770      	bx	lr

080013b4 <I2C_TransferConfig>:
 80013b4:	b530      	push	{r4, r5, lr}
 80013b6:	9c03      	ldr	r4, [sp, #12]
 80013b8:	6800      	ldr	r0, [r0, #0]
 80013ba:	4323      	orrs	r3, r4
 80013bc:	0412      	lsls	r2, r2, #16
 80013be:	0589      	lsls	r1, r1, #22
 80013c0:	431a      	orrs	r2, r3
 80013c2:	0d89      	lsrs	r1, r1, #22
 80013c4:	4b05      	ldr	r3, [pc, #20]	; (80013dc <I2C_TransferConfig+0x28>)
 80013c6:	6845      	ldr	r5, [r0, #4]
 80013c8:	430a      	orrs	r2, r1
 80013ca:	0d64      	lsrs	r4, r4, #21
 80013cc:	431c      	orrs	r4, r3
 80013ce:	0052      	lsls	r2, r2, #1
 80013d0:	43a5      	bics	r5, r4
 80013d2:	0852      	lsrs	r2, r2, #1
 80013d4:	432a      	orrs	r2, r5
 80013d6:	6042      	str	r2, [r0, #4]
 80013d8:	bd30      	pop	{r4, r5, pc}
 80013da:	46c0      	nop			; (mov r8, r8)
 80013dc:	03ff63ff 	.word	0x03ff63ff

080013e0 <I2C_IsErrorOccurred>:
 80013e0:	b5f7      	push	{r0, r1, r2, r4, r5, r6, r7, lr}
 80013e2:	0015      	movs	r5, r2
 80013e4:	6802      	ldr	r2, [r0, #0]
 80013e6:	000e      	movs	r6, r1
 80013e8:	6991      	ldr	r1, [r2, #24]
 80013ea:	2310      	movs	r3, #16
 80013ec:	000f      	movs	r7, r1
 80013ee:	0004      	movs	r4, r0
 80013f0:	401f      	ands	r7, r3
 80013f2:	2000      	movs	r0, #0
 80013f4:	4219      	tst	r1, r3
 80013f6:	d00e      	beq.n	8001416 <I2C_IsErrorOccurred+0x36>
 80013f8:	2720      	movs	r7, #32
 80013fa:	61d3      	str	r3, [r2, #28]
 80013fc:	9000      	str	r0, [sp, #0]
 80013fe:	9001      	str	r0, [sp, #4]
 8001400:	6823      	ldr	r3, [r4, #0]
 8001402:	699a      	ldr	r2, [r3, #24]
 8001404:	423a      	tst	r2, r7
 8001406:	d164      	bne.n	80014d2 <I2C_IsErrorOccurred+0xf2>
 8001408:	9a01      	ldr	r2, [sp, #4]
 800140a:	2a00      	cmp	r2, #0
 800140c:	d032      	beq.n	8001474 <I2C_IsErrorOccurred+0x94>
 800140e:	2704      	movs	r7, #4
 8001410:	2001      	movs	r0, #1
 8001412:	9b00      	ldr	r3, [sp, #0]
 8001414:	431f      	orrs	r7, r3
 8001416:	2180      	movs	r1, #128	; 0x80
 8001418:	6823      	ldr	r3, [r4, #0]
 800141a:	0049      	lsls	r1, r1, #1
 800141c:	699a      	ldr	r2, [r3, #24]
 800141e:	420a      	tst	r2, r1
 8001420:	d002      	beq.n	8001428 <I2C_IsErrorOccurred+0x48>
 8001422:	2001      	movs	r0, #1
 8001424:	61d9      	str	r1, [r3, #28]
 8001426:	4307      	orrs	r7, r0
 8001428:	2180      	movs	r1, #128	; 0x80
 800142a:	00c9      	lsls	r1, r1, #3
 800142c:	420a      	tst	r2, r1
 800142e:	d003      	beq.n	8001438 <I2C_IsErrorOccurred+0x58>
 8001430:	2008      	movs	r0, #8
 8001432:	61d9      	str	r1, [r3, #28]
 8001434:	4307      	orrs	r7, r0
 8001436:	3807      	subs	r0, #7
 8001438:	2180      	movs	r1, #128	; 0x80
 800143a:	0089      	lsls	r1, r1, #2
 800143c:	420a      	tst	r2, r1
 800143e:	d04d      	beq.n	80014dc <I2C_IsErrorOccurred+0xfc>
 8001440:	2202      	movs	r2, #2
 8001442:	61d9      	str	r1, [r3, #28]
 8001444:	4317      	orrs	r7, r2
 8001446:	0020      	movs	r0, r4
 8001448:	f7ff ffa6 	bl	8001398 <I2C_Flush_TXDR>
 800144c:	6822      	ldr	r2, [r4, #0]
 800144e:	4925      	ldr	r1, [pc, #148]	; (80014e4 <I2C_IsErrorOccurred+0x104>)
 8001450:	6853      	ldr	r3, [r2, #4]
 8001452:	400b      	ands	r3, r1
 8001454:	6053      	str	r3, [r2, #4]
 8001456:	0023      	movs	r3, r4
 8001458:	2220      	movs	r2, #32
 800145a:	6c60      	ldr	r0, [r4, #68]	; 0x44
 800145c:	3341      	adds	r3, #65	; 0x41
 800145e:	4307      	orrs	r7, r0
 8001460:	6467      	str	r7, [r4, #68]	; 0x44
 8001462:	701a      	strb	r2, [r3, #0]
 8001464:	0022      	movs	r2, r4
 8001466:	2300      	movs	r3, #0
 8001468:	3242      	adds	r2, #66	; 0x42
 800146a:	3440      	adds	r4, #64	; 0x40
 800146c:	7013      	strb	r3, [r2, #0]
 800146e:	2001      	movs	r0, #1
 8001470:	7023      	strb	r3, [r4, #0]
 8001472:	e035      	b.n	80014e0 <I2C_IsErrorOccurred+0x100>
 8001474:	1c72      	adds	r2, r6, #1
 8001476:	d0c4      	beq.n	8001402 <I2C_IsErrorOccurred+0x22>
 8001478:	f7ff fdf6 	bl	8001068 <HAL_GetTick>
 800147c:	1b40      	subs	r0, r0, r5
 800147e:	42b0      	cmp	r0, r6
 8001480:	d801      	bhi.n	8001486 <I2C_IsErrorOccurred+0xa6>
 8001482:	2e00      	cmp	r6, #0
 8001484:	d1bc      	bne.n	8001400 <I2C_IsErrorOccurred+0x20>
 8001486:	0022      	movs	r2, r4
 8001488:	6823      	ldr	r3, [r4, #0]
 800148a:	3242      	adds	r2, #66	; 0x42
 800148c:	6858      	ldr	r0, [r3, #4]
 800148e:	7811      	ldrb	r1, [r2, #0]
 8001490:	b2ca      	uxtb	r2, r1
 8001492:	2180      	movs	r1, #128	; 0x80
 8001494:	4694      	mov	ip, r2
 8001496:	699a      	ldr	r2, [r3, #24]
 8001498:	0209      	lsls	r1, r1, #8
 800149a:	420a      	tst	r2, r1
 800149c:	d00c      	beq.n	80014b8 <I2C_IsErrorOccurred+0xd8>
 800149e:	2280      	movs	r2, #128	; 0x80
 80014a0:	01d2      	lsls	r2, r2, #7
 80014a2:	4210      	tst	r0, r2
 80014a4:	d108      	bne.n	80014b8 <I2C_IsErrorOccurred+0xd8>
 80014a6:	4661      	mov	r1, ip
 80014a8:	2920      	cmp	r1, #32
 80014aa:	d005      	beq.n	80014b8 <I2C_IsErrorOccurred+0xd8>
 80014ac:	6859      	ldr	r1, [r3, #4]
 80014ae:	430a      	orrs	r2, r1
 80014b0:	605a      	str	r2, [r3, #4]
 80014b2:	f7ff fdd9 	bl	8001068 <HAL_GetTick>
 80014b6:	0005      	movs	r5, r0
 80014b8:	6823      	ldr	r3, [r4, #0]
 80014ba:	699b      	ldr	r3, [r3, #24]
 80014bc:	423b      	tst	r3, r7
 80014be:	d19f      	bne.n	8001400 <I2C_IsErrorOccurred+0x20>
 80014c0:	f7ff fdd2 	bl	8001068 <HAL_GetTick>
 80014c4:	1b40      	subs	r0, r0, r5
 80014c6:	2819      	cmp	r0, #25
 80014c8:	d9f6      	bls.n	80014b8 <I2C_IsErrorOccurred+0xd8>
 80014ca:	2301      	movs	r3, #1
 80014cc:	9700      	str	r7, [sp, #0]
 80014ce:	9301      	str	r3, [sp, #4]
 80014d0:	e796      	b.n	8001400 <I2C_IsErrorOccurred+0x20>
 80014d2:	9a01      	ldr	r2, [sp, #4]
 80014d4:	2a00      	cmp	r2, #0
 80014d6:	d19a      	bne.n	800140e <I2C_IsErrorOccurred+0x2e>
 80014d8:	61df      	str	r7, [r3, #28]
 80014da:	e798      	b.n	800140e <I2C_IsErrorOccurred+0x2e>
 80014dc:	2800      	cmp	r0, #0
 80014de:	d1b2      	bne.n	8001446 <I2C_IsErrorOccurred+0x66>
 80014e0:	bdfe      	pop	{r1, r2, r3, r4, r5, r6, r7, pc}
 80014e2:	46c0      	nop			; (mov r8, r8)
 80014e4:	fe00e800 	.word	0xfe00e800

080014e8 <I2C_WaitOnTXISFlagUntilTimeout>:
 80014e8:	b5f8      	push	{r3, r4, r5, r6, r7, lr}
 80014ea:	0004      	movs	r4, r0
 80014ec:	000d      	movs	r5, r1
 80014ee:	0016      	movs	r6, r2
 80014f0:	2702      	movs	r7, #2
 80014f2:	6823      	ldr	r3, [r4, #0]
 80014f4:	699b      	ldr	r3, [r3, #24]
 80014f6:	423b      	tst	r3, r7
 80014f8:	d001      	beq.n	80014fe <I2C_WaitOnTXISFlagUntilTimeout+0x16>
 80014fa:	2000      	movs	r0, #0
 80014fc:	bdf8      	pop	{r3, r4, r5, r6, r7, pc}
 80014fe:	0032      	movs	r2, r6
 8001500:	0029      	movs	r1, r5
 8001502:	0020      	movs	r0, r4
 8001504:	f7ff ff6c 	bl	80013e0 <I2C_IsErrorOccurred>
 8001508:	2800      	cmp	r0, #0
 800150a:	d115      	bne.n	8001538 <I2C_WaitOnTXISFlagUntilTimeout+0x50>
 800150c:	1c6b      	adds	r3, r5, #1
 800150e:	d0f0      	beq.n	80014f2 <I2C_WaitOnTXISFlagUntilTimeout+0xa>
 8001510:	f7ff fdaa 	bl	8001068 <HAL_GetTick>
 8001514:	1b80      	subs	r0, r0, r6
 8001516:	42a8      	cmp	r0, r5
 8001518:	d801      	bhi.n	800151e <I2C_WaitOnTXISFlagUntilTimeout+0x36>
 800151a:	2d00      	cmp	r5, #0
 800151c:	d1e9      	bne.n	80014f2 <I2C_WaitOnTXISFlagUntilTimeout+0xa>
 800151e:	2220      	movs	r2, #32
 8001520:	6c63      	ldr	r3, [r4, #68]	; 0x44
 8001522:	4313      	orrs	r3, r2
 8001524:	6463      	str	r3, [r4, #68]	; 0x44
 8001526:	0023      	movs	r3, r4
 8001528:	3341      	adds	r3, #65	; 0x41
 800152a:	701a      	strb	r2, [r3, #0]
 800152c:	0022      	movs	r2, r4
 800152e:	2300      	movs	r3, #0
 8001530:	3242      	adds	r2, #66	; 0x42
 8001532:	3440      	adds	r4, #64	; 0x40
 8001534:	7013      	strb	r3, [r2, #0]
 8001536:	7023      	strb	r3, [r4, #0]
 8001538:	2001      	movs	r0, #1
 800153a:	e7df      	b.n	80014fc <I2C_WaitOnTXISFlagUntilTimeout+0x14>

0800153c <I2C_WaitOnFlagUntilTimeout>:
 800153c:	b5f8      	push	{r3, r4, r5, r6, r7, lr}
 800153e:	0004      	movs	r4, r0
 8001540:	000e      	movs	r6, r1
 8001542:	0017      	movs	r7, r2
 8001544:	001d      	movs	r5, r3
 8001546:	6822      	ldr	r2, [r4, #0]
 8001548:	6993      	ldr	r3, [r2, #24]
 800154a:	4033      	ands	r3, r6
 800154c:	1b9b      	subs	r3, r3, r6
 800154e:	4259      	negs	r1, r3
 8001550:	414b      	adcs	r3, r1
 8001552:	42bb      	cmp	r3, r7
 8001554:	d001      	beq.n	800155a <I2C_WaitOnFlagUntilTimeout+0x1e>
 8001556:	2000      	movs	r0, #0
 8001558:	e017      	b.n	800158a <I2C_WaitOnFlagUntilTimeout+0x4e>
 800155a:	1c6b      	adds	r3, r5, #1
 800155c:	d0f4      	beq.n	8001548 <I2C_WaitOnFlagUntilTimeout+0xc>
 800155e:	f7ff fd83 	bl	8001068 <HAL_GetTick>
 8001562:	9b06      	ldr	r3, [sp, #24]
 8001564:	1ac0      	subs	r0, r0, r3
 8001566:	42a8      	cmp	r0, r5
 8001568:	d801      	bhi.n	800156e <I2C_WaitOnFlagUntilTimeout+0x32>
 800156a:	2d00      	cmp	r5, #0
 800156c:	d1eb      	bne.n	8001546 <I2C_WaitOnFlagUntilTimeout+0xa>
 800156e:	2220      	movs	r2, #32
 8001570:	6c63      	ldr	r3, [r4, #68]	; 0x44
 8001572:	2001      	movs	r0, #1
 8001574:	4313      	orrs	r3, r2
 8001576:	6463      	str	r3, [r4, #68]	; 0x44
 8001578:	0023      	movs	r3, r4
 800157a:	3341      	adds	r3, #65	; 0x41
 800157c:	701a      	strb	r2, [r3, #0]
 800157e:	0022      	movs	r2, r4
 8001580:	2300      	movs	r3, #0
 8001582:	3242      	adds	r2, #66	; 0x42
 8001584:	3440      	adds	r4, #64	; 0x40
 8001586:	7013      	strb	r3, [r2, #0]
 8001588:	7023      	strb	r3, [r4, #0]
 800158a:	bdf8      	pop	{r3, r4, r5, r6, r7, pc}

0800158c <I2C_WaitOnSTOPFlagUntilTimeout>:
 800158c:	b5f8      	push	{r3, r4, r5, r6, r7, lr}
 800158e:	0004      	movs	r4, r0
 8001590:	000d      	movs	r5, r1
 8001592:	0016      	movs	r6, r2
 8001594:	2720      	movs	r7, #32
 8001596:	6823      	ldr	r3, [r4, #0]
 8001598:	699b      	ldr	r3, [r3, #24]
 800159a:	423b      	tst	r3, r7
 800159c:	d001      	beq.n	80015a2 <I2C_WaitOnSTOPFlagUntilTimeout+0x16>
 800159e:	2000      	movs	r0, #0
 80015a0:	bdf8      	pop	{r3, r4, r5, r6, r7, pc}
 80015a2:	0032      	movs	r2, r6
 80015a4:	0029      	movs	r1, r5
 80015a6:	0020      	movs	r0, r4
 80015a8:	f7ff ff1a 	bl	80013e0 <I2C_IsErrorOccurred>
 80015ac:	2800      	cmp	r0, #0
 80015ae:	d113      	bne.n	80015d8 <I2C_WaitOnSTOPFlagUntilTimeout+0x4c>
 80015b0:	f7ff fd5a 	bl	8001068 <HAL_GetTick>
 80015b4:	1b80      	subs	r0, r0, r6
 80015b6:	42a8      	cmp	r0, r5
 80015b8:	d801      	bhi.n	80015be <I2C_WaitOnSTOPFlagUntilTimeout+0x32>
 80015ba:	2d00      	cmp	r5, #0
 80015bc:	d1eb      	bne.n	8001596 <I2C_WaitOnSTOPFlagUntilTimeout+0xa>
 80015be:	2220      	movs	r2, #32
 80015c0:	6c63      	ldr	r3, [r4, #68]	; 0x44
 80015c2:	4313      	orrs	r3, r2
 80015c4:	6463      	str	r3, [r4, #68]	; 0x44
 80015c6:	0023      	movs	r3, r4
 80015c8:	3341      	adds	r3, #65	; 0x41
 80015ca:	701a      	strb	r2, [r3, #0]
 80015cc:	0022      	movs	r2, r4
 80015ce:	2300      	movs	r3, #0
 80015d0:	3242      	adds	r2, #66	; 0x42
 80015d2:	3440      	adds	r4, #64	; 0x40
 80015d4:	7013      	strb	r3, [r2, #0]
 80015d6:	7023      	strb	r3, [r4, #0]
 80015d8:	2001      	movs	r0, #1
 80015da:	e7e1      	b.n	80015a0 <I2C_WaitOnSTOPFlagUntilTimeout+0x14>

080015dc <HAL_I2C_Init>:
 80015dc:	b570      	push	{r4, r5, r6, lr}
 80015de:	0004      	movs	r4, r0
 80015e0:	2001      	movs	r0, #1
 80015e2:	2c00      	cmp	r4, #0
 80015e4:	d03f      	beq.n	8001666 <HAL_I2C_Init+0x8a>
 80015e6:	0025      	movs	r5, r4
 80015e8:	3541      	adds	r5, #65	; 0x41
 80015ea:	782b      	ldrb	r3, [r5, #0]
 80015ec:	b2da      	uxtb	r2, r3
 80015ee:	2b00      	cmp	r3, #0
 80015f0:	d105      	bne.n	80015fe <HAL_I2C_Init+0x22>
 80015f2:	0023      	movs	r3, r4
 80015f4:	3340      	adds	r3, #64	; 0x40
 80015f6:	0020      	movs	r0, r4
 80015f8:	701a      	strb	r2, [r3, #0]
 80015fa:	f7ff fa6d 	bl	8000ad8 <HAL_I2C_MspInit>
 80015fe:	2324      	movs	r3, #36	; 0x24
 8001600:	2101      	movs	r1, #1
 8001602:	702b      	strb	r3, [r5, #0]
 8001604:	6823      	ldr	r3, [r4, #0]
 8001606:	481d      	ldr	r0, [pc, #116]	; (800167c <HAL_I2C_Init+0xa0>)
 8001608:	681a      	ldr	r2, [r3, #0]
 800160a:	68a6      	ldr	r6, [r4, #8]
 800160c:	438a      	bics	r2, r1
 800160e:	601a      	str	r2, [r3, #0]
 8001610:	6861      	ldr	r1, [r4, #4]
 8001612:	4a1b      	ldr	r2, [pc, #108]	; (8001680 <HAL_I2C_Init+0xa4>)
 8001614:	400a      	ands	r2, r1
 8001616:	611a      	str	r2, [r3, #16]
 8001618:	689a      	ldr	r2, [r3, #8]
 800161a:	4002      	ands	r2, r0
 800161c:	609a      	str	r2, [r3, #8]
 800161e:	68e2      	ldr	r2, [r4, #12]
 8001620:	2a01      	cmp	r2, #1
 8001622:	d121      	bne.n	8001668 <HAL_I2C_Init+0x8c>
 8001624:	2180      	movs	r1, #128	; 0x80
 8001626:	0209      	lsls	r1, r1, #8
 8001628:	4331      	orrs	r1, r6
 800162a:	6099      	str	r1, [r3, #8]
 800162c:	685a      	ldr	r2, [r3, #4]
 800162e:	4915      	ldr	r1, [pc, #84]	; (8001684 <HAL_I2C_Init+0xa8>)
 8001630:	4311      	orrs	r1, r2
 8001632:	6059      	str	r1, [r3, #4]
 8001634:	68da      	ldr	r2, [r3, #12]
 8001636:	6961      	ldr	r1, [r4, #20]
 8001638:	4002      	ands	r2, r0
 800163a:	60da      	str	r2, [r3, #12]
 800163c:	6922      	ldr	r2, [r4, #16]
 800163e:	2000      	movs	r0, #0
 8001640:	430a      	orrs	r2, r1
 8001642:	69a1      	ldr	r1, [r4, #24]
 8001644:	0209      	lsls	r1, r1, #8
 8001646:	430a      	orrs	r2, r1
 8001648:	60da      	str	r2, [r3, #12]
 800164a:	6a21      	ldr	r1, [r4, #32]
 800164c:	69e2      	ldr	r2, [r4, #28]
 800164e:	430a      	orrs	r2, r1
 8001650:	601a      	str	r2, [r3, #0]
 8001652:	2201      	movs	r2, #1
 8001654:	6819      	ldr	r1, [r3, #0]
 8001656:	430a      	orrs	r2, r1
 8001658:	601a      	str	r2, [r3, #0]
 800165a:	2320      	movs	r3, #32
 800165c:	6460      	str	r0, [r4, #68]	; 0x44
 800165e:	702b      	strb	r3, [r5, #0]
 8001660:	6320      	str	r0, [r4, #48]	; 0x30
 8001662:	3442      	adds	r4, #66	; 0x42
 8001664:	7020      	strb	r0, [r4, #0]
 8001666:	bd70      	pop	{r4, r5, r6, pc}
 8001668:	2184      	movs	r1, #132	; 0x84
 800166a:	0209      	lsls	r1, r1, #8
 800166c:	4331      	orrs	r1, r6
 800166e:	6099      	str	r1, [r3, #8]
 8001670:	2a02      	cmp	r2, #2
 8001672:	d1db      	bne.n	800162c <HAL_I2C_Init+0x50>
 8001674:	2280      	movs	r2, #128	; 0x80
 8001676:	0112      	lsls	r2, r2, #4
 8001678:	605a      	str	r2, [r3, #4]
 800167a:	e7d7      	b.n	800162c <HAL_I2C_Init+0x50>
 800167c:	ffff7fff 	.word	0xffff7fff
 8001680:	f0ffffff 	.word	0xf0ffffff
 8001684:	02008000 	.word	0x02008000

08001688 <HAL_I2C_DeInit>:
 8001688:	b570      	push	{r4, r5, r6, lr}
 800168a:	0004      	movs	r4, r0
 800168c:	2001      	movs	r0, #1
 800168e:	2c00      	cmp	r4, #0
 8001690:	d013      	beq.n	80016ba <HAL_I2C_DeInit+0x32>
 8001692:	0025      	movs	r5, r4
 8001694:	2324      	movs	r3, #36	; 0x24
 8001696:	3541      	adds	r5, #65	; 0x41
 8001698:	702b      	strb	r3, [r5, #0]
 800169a:	6822      	ldr	r2, [r4, #0]
 800169c:	6813      	ldr	r3, [r2, #0]
 800169e:	4383      	bics	r3, r0
 80016a0:	6013      	str	r3, [r2, #0]
 80016a2:	0020      	movs	r0, r4
 80016a4:	f7ff fa5a 	bl	8000b5c <HAL_I2C_MspDeInit>
 80016a8:	2000      	movs	r0, #0
 80016aa:	0023      	movs	r3, r4
 80016ac:	6460      	str	r0, [r4, #68]	; 0x44
 80016ae:	3342      	adds	r3, #66	; 0x42
 80016b0:	7028      	strb	r0, [r5, #0]
 80016b2:	6320      	str	r0, [r4, #48]	; 0x30
 80016b4:	3440      	adds	r4, #64	; 0x40
 80016b6:	7018      	strb	r0, [r3, #0]
 80016b8:	7020      	strb	r0, [r4, #0]
 80016ba:	bd70      	pop	{r4, r5, r6, pc}

080016bc <HAL_I2C_Mem_Write>:
 80016bc:	b5f0      	push	{r4, r5, r6, r7, lr}
 80016be:	b089      	sub	sp, #36	; 0x24
 80016c0:	9304      	str	r3, [sp, #16]
 80016c2:	ab0e      	add	r3, sp, #56	; 0x38
 80016c4:	9203      	str	r2, [sp, #12]
 80016c6:	cb04      	ldmia	r3!, {r2}
 80016c8:	0004      	movs	r4, r0
 80016ca:	881b      	ldrh	r3, [r3, #0]
 80016cc:	9205      	str	r2, [sp, #20]
 80016ce:	9306      	str	r3, [sp, #24]
 80016d0:	0003      	movs	r3, r0
 80016d2:	3341      	adds	r3, #65	; 0x41
 80016d4:	9307      	str	r3, [sp, #28]
 80016d6:	781b      	ldrb	r3, [r3, #0]
 80016d8:	000f      	movs	r7, r1
 80016da:	2002      	movs	r0, #2
 80016dc:	9e10      	ldr	r6, [sp, #64]	; 0x40
 80016de:	2b20      	cmp	r3, #32
 80016e0:	d108      	bne.n	80016f4 <HAL_I2C_Mem_Write+0x38>
 80016e2:	2a00      	cmp	r2, #0
 80016e4:	d002      	beq.n	80016ec <HAL_I2C_Mem_Write+0x30>
 80016e6:	9b06      	ldr	r3, [sp, #24]
 80016e8:	2b00      	cmp	r3, #0
 80016ea:	d105      	bne.n	80016f8 <HAL_I2C_Mem_Write+0x3c>
 80016ec:	2380      	movs	r3, #128	; 0x80
 80016ee:	009b      	lsls	r3, r3, #2
 80016f0:	6463      	str	r3, [r4, #68]	; 0x44
 80016f2:	2001      	movs	r0, #1
 80016f4:	b009      	add	sp, #36	; 0x24
 80016f6:	bdf0      	pop	{r4, r5, r6, r7, pc}
 80016f8:	0023      	movs	r3, r4
 80016fa:	3340      	adds	r3, #64	; 0x40
 80016fc:	781a      	ldrb	r2, [r3, #0]
 80016fe:	2002      	movs	r0, #2
 8001700:	2a01      	cmp	r2, #1
 8001702:	d0f7      	beq.n	80016f4 <HAL_I2C_Mem_Write+0x38>
 8001704:	2201      	movs	r2, #1
 8001706:	701a      	strb	r2, [r3, #0]
 8001708:	f7ff fcae 	bl	8001068 <HAL_GetTick>
 800170c:	2180      	movs	r1, #128	; 0x80
 800170e:	0005      	movs	r5, r0
 8001710:	9000      	str	r0, [sp, #0]
 8001712:	2319      	movs	r3, #25
 8001714:	2201      	movs	r2, #1
 8001716:	0020      	movs	r0, r4
 8001718:	0209      	lsls	r1, r1, #8
 800171a:	f7ff ff0f 	bl	800153c <I2C_WaitOnFlagUntilTimeout>
 800171e:	2800      	cmp	r0, #0
 8001720:	d1e7      	bne.n	80016f2 <HAL_I2C_Mem_Write+0x36>
 8001722:	2321      	movs	r3, #33	; 0x21
 8001724:	9a07      	ldr	r2, [sp, #28]
 8001726:	0039      	movs	r1, r7
 8001728:	7013      	strb	r3, [r2, #0]
 800172a:	0023      	movs	r3, r4
 800172c:	3342      	adds	r3, #66	; 0x42
 800172e:	9307      	str	r3, [sp, #28]
 8001730:	2340      	movs	r3, #64	; 0x40
 8001732:	9a07      	ldr	r2, [sp, #28]
 8001734:	7013      	strb	r3, [r2, #0]
 8001736:	9b05      	ldr	r3, [sp, #20]
 8001738:	6460      	str	r0, [r4, #68]	; 0x44
 800173a:	6263      	str	r3, [r4, #36]	; 0x24
 800173c:	9b06      	ldr	r3, [sp, #24]
 800173e:	6360      	str	r0, [r4, #52]	; 0x34
 8001740:	8563      	strh	r3, [r4, #42]	; 0x2a
 8001742:	466b      	mov	r3, sp
 8001744:	7c1a      	ldrb	r2, [r3, #16]
 8001746:	4b4a      	ldr	r3, [pc, #296]	; (8001870 <HAL_I2C_Mem_Write+0x1b4>)
 8001748:	0020      	movs	r0, r4
 800174a:	9300      	str	r3, [sp, #0]
 800174c:	2380      	movs	r3, #128	; 0x80
 800174e:	045b      	lsls	r3, r3, #17
 8001750:	f7ff fe30 	bl	80013b4 <I2C_TransferConfig>
 8001754:	002a      	movs	r2, r5
 8001756:	0031      	movs	r1, r6
 8001758:	0020      	movs	r0, r4
 800175a:	f7ff fec5 	bl	80014e8 <I2C_WaitOnTXISFlagUntilTimeout>
 800175e:	2800      	cmp	r0, #0
 8001760:	d126      	bne.n	80017b0 <HAL_I2C_Mem_Write+0xf4>
 8001762:	9a04      	ldr	r2, [sp, #16]
 8001764:	6823      	ldr	r3, [r4, #0]
 8001766:	2a01      	cmp	r2, #1
 8001768:	d116      	bne.n	8001798 <HAL_I2C_Mem_Write+0xdc>
 800176a:	466a      	mov	r2, sp
 800176c:	7b12      	ldrb	r2, [r2, #12]
 800176e:	2180      	movs	r1, #128	; 0x80
 8001770:	629a      	str	r2, [r3, #40]	; 0x28
 8001772:	0020      	movs	r0, r4
 8001774:	0033      	movs	r3, r6
 8001776:	2200      	movs	r2, #0
 8001778:	9500      	str	r5, [sp, #0]
 800177a:	f7ff fedf 	bl	800153c <I2C_WaitOnFlagUntilTimeout>
 800177e:	2800      	cmp	r0, #0
 8001780:	d116      	bne.n	80017b0 <HAL_I2C_Mem_Write+0xf4>
 8001782:	8d63      	ldrh	r3, [r4, #42]	; 0x2a
 8001784:	2bff      	cmp	r3, #255	; 0xff
 8001786:	d817      	bhi.n	80017b8 <HAL_I2C_Mem_Write+0xfc>
 8001788:	2380      	movs	r3, #128	; 0x80
 800178a:	8d62      	ldrh	r2, [r4, #42]	; 0x2a
 800178c:	049b      	lsls	r3, r3, #18
 800178e:	b292      	uxth	r2, r2
 8001790:	8522      	strh	r2, [r4, #40]	; 0x28
 8001792:	b2d2      	uxtb	r2, r2
 8001794:	9000      	str	r0, [sp, #0]
 8001796:	e014      	b.n	80017c2 <HAL_I2C_Mem_Write+0x106>
 8001798:	9a03      	ldr	r2, [sp, #12]
 800179a:	0031      	movs	r1, r6
 800179c:	0a12      	lsrs	r2, r2, #8
 800179e:	629a      	str	r2, [r3, #40]	; 0x28
 80017a0:	0020      	movs	r0, r4
 80017a2:	002a      	movs	r2, r5
 80017a4:	f7ff fea0 	bl	80014e8 <I2C_WaitOnTXISFlagUntilTimeout>
 80017a8:	2800      	cmp	r0, #0
 80017aa:	d101      	bne.n	80017b0 <HAL_I2C_Mem_Write+0xf4>
 80017ac:	6823      	ldr	r3, [r4, #0]
 80017ae:	e7dc      	b.n	800176a <HAL_I2C_Mem_Write+0xae>
 80017b0:	2300      	movs	r3, #0
 80017b2:	3440      	adds	r4, #64	; 0x40
 80017b4:	7023      	strb	r3, [r4, #0]
 80017b6:	e79c      	b.n	80016f2 <HAL_I2C_Mem_Write+0x36>
 80017b8:	22ff      	movs	r2, #255	; 0xff
 80017ba:	2380      	movs	r3, #128	; 0x80
 80017bc:	8522      	strh	r2, [r4, #40]	; 0x28
 80017be:	045b      	lsls	r3, r3, #17
 80017c0:	9000      	str	r0, [sp, #0]
 80017c2:	0039      	movs	r1, r7
 80017c4:	0020      	movs	r0, r4
 80017c6:	f7ff fdf5 	bl	80013b4 <I2C_TransferConfig>
 80017ca:	002a      	movs	r2, r5
 80017cc:	0031      	movs	r1, r6
 80017ce:	0020      	movs	r0, r4
 80017d0:	f7ff fe8a 	bl	80014e8 <I2C_WaitOnTXISFlagUntilTimeout>
 80017d4:	2800      	cmp	r0, #0
 80017d6:	d000      	beq.n	80017da <HAL_I2C_Mem_Write+0x11e>
 80017d8:	e78b      	b.n	80016f2 <HAL_I2C_Mem_Write+0x36>
 80017da:	6a63      	ldr	r3, [r4, #36]	; 0x24
 80017dc:	6822      	ldr	r2, [r4, #0]
 80017de:	7819      	ldrb	r1, [r3, #0]
 80017e0:	3301      	adds	r3, #1
 80017e2:	6291      	str	r1, [r2, #40]	; 0x28
 80017e4:	6263      	str	r3, [r4, #36]	; 0x24
 80017e6:	8d63      	ldrh	r3, [r4, #42]	; 0x2a
 80017e8:	8d22      	ldrh	r2, [r4, #40]	; 0x28
 80017ea:	3b01      	subs	r3, #1
 80017ec:	b29b      	uxth	r3, r3
 80017ee:	8563      	strh	r3, [r4, #42]	; 0x2a
 80017f0:	3a01      	subs	r2, #1
 80017f2:	8d63      	ldrh	r3, [r4, #42]	; 0x2a
 80017f4:	b292      	uxth	r2, r2
 80017f6:	8522      	strh	r2, [r4, #40]	; 0x28
 80017f8:	2b00      	cmp	r3, #0
 80017fa:	d017      	beq.n	800182c <HAL_I2C_Mem_Write+0x170>
 80017fc:	2a00      	cmp	r2, #0
 80017fe:	d115      	bne.n	800182c <HAL_I2C_Mem_Write+0x170>
 8001800:	0033      	movs	r3, r6
 8001802:	2180      	movs	r1, #128	; 0x80
 8001804:	0020      	movs	r0, r4
 8001806:	9500      	str	r5, [sp, #0]
 8001808:	f7ff fe98 	bl	800153c <I2C_WaitOnFlagUntilTimeout>
 800180c:	2800      	cmp	r0, #0
 800180e:	d000      	beq.n	8001812 <HAL_I2C_Mem_Write+0x156>
 8001810:	e76f      	b.n	80016f2 <HAL_I2C_Mem_Write+0x36>
 8001812:	8d63      	ldrh	r3, [r4, #42]	; 0x2a
 8001814:	2bff      	cmp	r3, #255	; 0xff
 8001816:	d923      	bls.n	8001860 <HAL_I2C_Mem_Write+0x1a4>
 8001818:	23ff      	movs	r3, #255	; 0xff
 800181a:	8523      	strh	r3, [r4, #40]	; 0x28
 800181c:	2380      	movs	r3, #128	; 0x80
 800181e:	22ff      	movs	r2, #255	; 0xff
 8001820:	9000      	str	r0, [sp, #0]
 8001822:	045b      	lsls	r3, r3, #17
 8001824:	0039      	movs	r1, r7
 8001826:	0020      	movs	r0, r4
 8001828:	f7ff fdc4 	bl	80013b4 <I2C_TransferConfig>
 800182c:	8d63      	ldrh	r3, [r4, #42]	; 0x2a
 800182e:	2b00      	cmp	r3, #0
 8001830:	d1cb      	bne.n	80017ca <HAL_I2C_Mem_Write+0x10e>
 8001832:	002a      	movs	r2, r5
 8001834:	0031      	movs	r1, r6
 8001836:	0020      	movs	r0, r4
 8001838:	f7ff fea8 	bl	800158c <I2C_WaitOnSTOPFlagUntilTimeout>
 800183c:	2800      	cmp	r0, #0
 800183e:	d000      	beq.n	8001842 <HAL_I2C_Mem_Write+0x186>
 8001840:	e757      	b.n	80016f2 <HAL_I2C_Mem_Write+0x36>
 8001842:	2120      	movs	r1, #32
 8001844:	6823      	ldr	r3, [r4, #0]
 8001846:	4d0b      	ldr	r5, [pc, #44]	; (8001874 <HAL_I2C_Mem_Write+0x1b8>)
 8001848:	61d9      	str	r1, [r3, #28]
 800184a:	685a      	ldr	r2, [r3, #4]
 800184c:	402a      	ands	r2, r5
 800184e:	605a      	str	r2, [r3, #4]
 8001850:	0023      	movs	r3, r4
 8001852:	3341      	adds	r3, #65	; 0x41
 8001854:	7019      	strb	r1, [r3, #0]
 8001856:	9b07      	ldr	r3, [sp, #28]
 8001858:	3440      	adds	r4, #64	; 0x40
 800185a:	7018      	strb	r0, [r3, #0]
 800185c:	7020      	strb	r0, [r4, #0]
 800185e:	e749      	b.n	80016f4 <HAL_I2C_Mem_Write+0x38>
 8001860:	2380      	movs	r3, #128	; 0x80
 8001862:	8d62      	ldrh	r2, [r4, #42]	; 0x2a
 8001864:	049b      	lsls	r3, r3, #18
 8001866:	b292      	uxth	r2, r2
 8001868:	8522      	strh	r2, [r4, #40]	; 0x28
 800186a:	b2d2      	uxtb	r2, r2
 800186c:	9000      	str	r0, [sp, #0]
 800186e:	e7d9      	b.n	8001824 <HAL_I2C_Mem_Write+0x168>
 8001870:	80002000 	.word	0x80002000
 8001874:	fe00e800 	.word	0xfe00e800

08001878 <HAL_I2C_Mem_Read>:
 8001878:	b5f0      	push	{r4, r5, r6, r7, lr}
 800187a:	b089      	sub	sp, #36	; 0x24
 800187c:	9304      	str	r3, [sp, #16]
 800187e:	ab0e      	add	r3, sp, #56	; 0x38
 8001880:	9203      	str	r2, [sp, #12]
 8001882:	cb04      	ldmia	r3!, {r2}
 8001884:	0004      	movs	r4, r0
 8001886:	881b      	ldrh	r3, [r3, #0]
 8001888:	9205      	str	r2, [sp, #20]
 800188a:	9306      	str	r3, [sp, #24]
 800188c:	0003      	movs	r3, r0
 800188e:	3341      	adds	r3, #65	; 0x41
 8001890:	9307      	str	r3, [sp, #28]
 8001892:	781b      	ldrb	r3, [r3, #0]
 8001894:	000f      	movs	r7, r1
 8001896:	2002      	movs	r0, #2
 8001898:	9e10      	ldr	r6, [sp, #64]	; 0x40
 800189a:	2b20      	cmp	r3, #32
 800189c:	d108      	bne.n	80018b0 <HAL_I2C_Mem_Read+0x38>
 800189e:	2a00      	cmp	r2, #0
 80018a0:	d002      	beq.n	80018a8 <HAL_I2C_Mem_Read+0x30>
 80018a2:	9b06      	ldr	r3, [sp, #24]
 80018a4:	2b00      	cmp	r3, #0
 80018a6:	d105      	bne.n	80018b4 <HAL_I2C_Mem_Read+0x3c>
 80018a8:	2380      	movs	r3, #128	; 0x80
 80018aa:	009b      	lsls	r3, r3, #2
 80018ac:	6463      	str	r3, [r4, #68]	; 0x44
 80018ae:	2001      	movs	r0, #1
 80018b0:	b009      	add	sp, #36	; 0x24
 80018b2:	bdf0      	pop	{r4, r5, r6, r7, pc}
 80018b4:	0023      	movs	r3, r4
 80018b6:	3340      	adds	r3, #64	; 0x40
 80018b8:	781a      	ldrb	r2, [r3, #0]
 80018ba:	2002      	movs	r0, #2
 80018bc:	2a01      	cmp	r2, #1
 80018be:	d0f7      	beq.n	80018b0 <HAL_I2C_Mem_Read+0x38>
 80018c0:	2201      	movs	r2, #1
 80018c2:	701a      	strb	r2, [r3, #0]
 80018c4:	f7ff fbd0 	bl	8001068 <HAL_GetTick>
 80018c8:	2180      	movs	r1, #128	; 0x80
 80018ca:	2319      	movs	r3, #25
 80018cc:	9000      	str	r0, [sp, #0]
 80018ce:	0005      	movs	r5, r0
 80018d0:	2201      	movs	r2, #1
 80018d2:	0020      	movs	r0, r4
 80018d4:	0209      	lsls	r1, r1, #8
 80018d6:	f7ff fe31 	bl	800153c <I2C_WaitOnFlagUntilTimeout>
 80018da:	1e03      	subs	r3, r0, #0
 80018dc:	d1e7      	bne.n	80018ae <HAL_I2C_Mem_Read+0x36>
 80018de:	2222      	movs	r2, #34	; 0x22
 80018e0:	9907      	ldr	r1, [sp, #28]
 80018e2:	700a      	strb	r2, [r1, #0]
 80018e4:	0022      	movs	r2, r4
 80018e6:	3242      	adds	r2, #66	; 0x42
 80018e8:	9207      	str	r2, [sp, #28]
 80018ea:	2240      	movs	r2, #64	; 0x40
 80018ec:	9907      	ldr	r1, [sp, #28]
 80018ee:	700a      	strb	r2, [r1, #0]
 80018f0:	9a05      	ldr	r2, [sp, #20]
 80018f2:	6460      	str	r0, [r4, #68]	; 0x44
 80018f4:	6262      	str	r2, [r4, #36]	; 0x24
 80018f6:	9a06      	ldr	r2, [sp, #24]
 80018f8:	494d      	ldr	r1, [pc, #308]	; (8001a30 <HAL_I2C_Mem_Read+0x1b8>)
 80018fa:	8562      	strh	r2, [r4, #42]	; 0x2a
 80018fc:	466a      	mov	r2, sp
 80018fe:	6360      	str	r0, [r4, #52]	; 0x34
 8001900:	7c12      	ldrb	r2, [r2, #16]
 8001902:	0020      	movs	r0, r4
 8001904:	9100      	str	r1, [sp, #0]
 8001906:	0039      	movs	r1, r7
 8001908:	f7ff fd54 	bl	80013b4 <I2C_TransferConfig>
 800190c:	002a      	movs	r2, r5
 800190e:	0031      	movs	r1, r6
 8001910:	0020      	movs	r0, r4
 8001912:	f7ff fde9 	bl	80014e8 <I2C_WaitOnTXISFlagUntilTimeout>
 8001916:	2800      	cmp	r0, #0
 8001918:	d127      	bne.n	800196a <HAL_I2C_Mem_Read+0xf2>
 800191a:	9a04      	ldr	r2, [sp, #16]
 800191c:	6823      	ldr	r3, [r4, #0]
 800191e:	2a01      	cmp	r2, #1
 8001920:	d117      	bne.n	8001952 <HAL_I2C_Mem_Read+0xda>
 8001922:	466a      	mov	r2, sp
 8001924:	7b12      	ldrb	r2, [r2, #12]
 8001926:	2140      	movs	r1, #64	; 0x40
 8001928:	629a      	str	r2, [r3, #40]	; 0x28
 800192a:	0020      	movs	r0, r4
 800192c:	0033      	movs	r3, r6
 800192e:	2200      	movs	r2, #0
 8001930:	9500      	str	r5, [sp, #0]
 8001932:	f7ff fe03 	bl	800153c <I2C_WaitOnFlagUntilTimeout>
 8001936:	2800      	cmp	r0, #0
 8001938:	d117      	bne.n	800196a <HAL_I2C_Mem_Read+0xf2>
 800193a:	8d62      	ldrh	r2, [r4, #42]	; 0x2a
 800193c:	4b3d      	ldr	r3, [pc, #244]	; (8001a34 <HAL_I2C_Mem_Read+0x1bc>)
 800193e:	2aff      	cmp	r2, #255	; 0xff
 8001940:	d817      	bhi.n	8001972 <HAL_I2C_Mem_Read+0xfa>
 8001942:	8d62      	ldrh	r2, [r4, #42]	; 0x2a
 8001944:	b292      	uxth	r2, r2
 8001946:	8522      	strh	r2, [r4, #40]	; 0x28
 8001948:	9300      	str	r3, [sp, #0]
 800194a:	2380      	movs	r3, #128	; 0x80
 800194c:	b2d2      	uxtb	r2, r2
 800194e:	049b      	lsls	r3, r3, #18
 8001950:	e014      	b.n	800197c <HAL_I2C_Mem_Read+0x104>
 8001952:	9a03      	ldr	r2, [sp, #12]
 8001954:	0031      	movs	r1, r6
 8001956:	0a12      	lsrs	r2, r2, #8
 8001958:	629a      	str	r2, [r3, #40]	; 0x28
 800195a:	0020      	movs	r0, r4
 800195c:	002a      	movs	r2, r5
 800195e:	f7ff fdc3 	bl	80014e8 <I2C_WaitOnTXISFlagUntilTimeout>
 8001962:	2800      	cmp	r0, #0
 8001964:	d101      	bne.n	800196a <HAL_I2C_Mem_Read+0xf2>
 8001966:	6823      	ldr	r3, [r4, #0]
 8001968:	e7db      	b.n	8001922 <HAL_I2C_Mem_Read+0xaa>
 800196a:	2300      	movs	r3, #0
 800196c:	3440      	adds	r4, #64	; 0x40
 800196e:	7023      	strb	r3, [r4, #0]
 8001970:	e79d      	b.n	80018ae <HAL_I2C_Mem_Read+0x36>
 8001972:	22ff      	movs	r2, #255	; 0xff
 8001974:	8522      	strh	r2, [r4, #40]	; 0x28
 8001976:	9300      	str	r3, [sp, #0]
 8001978:	2380      	movs	r3, #128	; 0x80
 800197a:	045b      	lsls	r3, r3, #17
 800197c:	0039      	movs	r1, r7
 800197e:	0020      	movs	r0, r4
 8001980:	f7ff fd18 	bl	80013b4 <I2C_TransferConfig>
 8001984:	0033      	movs	r3, r6
 8001986:	2200      	movs	r2, #0
 8001988:	2104      	movs	r1, #4
 800198a:	0020      	movs	r0, r4
 800198c:	9500      	str	r5, [sp, #0]
 800198e:	f7ff fdd5 	bl	800153c <I2C_WaitOnFlagUntilTimeout>
 8001992:	2800      	cmp	r0, #0
 8001994:	d000      	beq.n	8001998 <HAL_I2C_Mem_Read+0x120>
 8001996:	e78a      	b.n	80018ae <HAL_I2C_Mem_Read+0x36>
 8001998:	6823      	ldr	r3, [r4, #0]
 800199a:	6a62      	ldr	r2, [r4, #36]	; 0x24
 800199c:	6a5b      	ldr	r3, [r3, #36]	; 0x24
 800199e:	7013      	strb	r3, [r2, #0]
 80019a0:	6a63      	ldr	r3, [r4, #36]	; 0x24
 80019a2:	8d22      	ldrh	r2, [r4, #40]	; 0x28
 80019a4:	3301      	adds	r3, #1
 80019a6:	6263      	str	r3, [r4, #36]	; 0x24
 80019a8:	8d63      	ldrh	r3, [r4, #42]	; 0x2a
 80019aa:	3a01      	subs	r2, #1
 80019ac:	3b01      	subs	r3, #1
 80019ae:	b29b      	uxth	r3, r3
 80019b0:	8563      	strh	r3, [r4, #42]	; 0x2a
 80019b2:	8d63      	ldrh	r3, [r4, #42]	; 0x2a
 80019b4:	b292      	uxth	r2, r2
 80019b6:	8522      	strh	r2, [r4, #40]	; 0x28
 80019b8:	2b00      	cmp	r3, #0
 80019ba:	d017      	beq.n	80019ec <HAL_I2C_Mem_Read+0x174>
 80019bc:	2a00      	cmp	r2, #0
 80019be:	d115      	bne.n	80019ec <HAL_I2C_Mem_Read+0x174>
 80019c0:	0033      	movs	r3, r6
 80019c2:	2180      	movs	r1, #128	; 0x80
 80019c4:	0020      	movs	r0, r4
 80019c6:	9500      	str	r5, [sp, #0]
 80019c8:	f7ff fdb8 	bl	800153c <I2C_WaitOnFlagUntilTimeout>
 80019cc:	2800      	cmp	r0, #0
 80019ce:	d000      	beq.n	80019d2 <HAL_I2C_Mem_Read+0x15a>
 80019d0:	e76d      	b.n	80018ae <HAL_I2C_Mem_Read+0x36>
 80019d2:	8d63      	ldrh	r3, [r4, #42]	; 0x2a
 80019d4:	2bff      	cmp	r3, #255	; 0xff
 80019d6:	d923      	bls.n	8001a20 <HAL_I2C_Mem_Read+0x1a8>
 80019d8:	23ff      	movs	r3, #255	; 0xff
 80019da:	8523      	strh	r3, [r4, #40]	; 0x28
 80019dc:	2380      	movs	r3, #128	; 0x80
 80019de:	22ff      	movs	r2, #255	; 0xff
 80019e0:	9000      	str	r0, [sp, #0]
 80019e2:	045b      	lsls	r3, r3, #17
 80019e4:	0039      	movs	r1, r7
 80019e6:	0020      	movs	r0, r4
 80019e8:	f7ff fce4 	bl	80013b4 <I2C_TransferConfig>
 80019ec:	8d63      	ldrh	r3, [r4, #42]	; 0x2a
 80019ee:	2b00      	cmp	r3, #0
 80019f0:	d1c8      	bne.n	8001984 <HAL_I2C_Mem_Read+0x10c>
 80019f2:	002a      	movs	r2, r5
 80019f4:	0031      	movs	r1, r6
 80019f6:	0020      	movs	r0, r4
 80019f8:	f7ff fdc8 	bl	800158c <I2C_WaitOnSTOPFlagUntilTimeout>
 80019fc:	2800      	cmp	r0, #0
 80019fe:	d000      	beq.n	8001a02 <HAL_I2C_Mem_Read+0x18a>
 8001a00:	e755      	b.n	80018ae <HAL_I2C_Mem_Read+0x36>
 8001a02:	2120      	movs	r1, #32
 8001a04:	6823      	ldr	r3, [r4, #0]
 8001a06:	4d0c      	ldr	r5, [pc, #48]	; (8001a38 <HAL_I2C_Mem_Read+0x1c0>)
 8001a08:	61d9      	str	r1, [r3, #28]
 8001a0a:	685a      	ldr	r2, [r3, #4]
 8001a0c:	402a      	ands	r2, r5
 8001a0e:	605a      	str	r2, [r3, #4]
 8001a10:	0023      	movs	r3, r4
 8001a12:	3341      	adds	r3, #65	; 0x41
 8001a14:	7019      	strb	r1, [r3, #0]
 8001a16:	9b07      	ldr	r3, [sp, #28]
 8001a18:	3440      	adds	r4, #64	; 0x40
 8001a1a:	7018      	strb	r0, [r3, #0]
 8001a1c:	7020      	strb	r0, [r4, #0]
 8001a1e:	e747      	b.n	80018b0 <HAL_I2C_Mem_Read+0x38>
 8001a20:	2380      	movs	r3, #128	; 0x80
 8001a22:	8d62      	ldrh	r2, [r4, #42]	; 0x2a
 8001a24:	049b      	lsls	r3, r3, #18
 8001a26:	b292      	uxth	r2, r2
 8001a28:	8522      	strh	r2, [r4, #40]	; 0x28
 8001a2a:	b2d2      	uxtb	r2, r2
 8001a2c:	9000      	str	r0, [sp, #0]
 8001a2e:	e7d9      	b.n	80019e4 <HAL_I2C_Mem_Read+0x16c>
 8001a30:	80002000 	.word	0x80002000
 8001a34:	80002400 	.word	0x80002400
 8001a38:	fe00e800 	.word	0xfe00e800

08001a3c <HAL_I2CEx_ConfigAnalogFilter>:
 8001a3c:	b5f0      	push	{r4, r5, r6, r7, lr}
 8001a3e:	0004      	movs	r4, r0
 8001a40:	3441      	adds	r4, #65	; 0x41
 8001a42:	7822      	ldrb	r2, [r4, #0]
 8001a44:	0003      	movs	r3, r0
 8001a46:	000f      	movs	r7, r1
 8001a48:	2002      	movs	r0, #2
 8001a4a:	b2d6      	uxtb	r6, r2
 8001a4c:	2a20      	cmp	r2, #32
 8001a4e:	d118      	bne.n	8001a82 <HAL_I2CEx_ConfigAnalogFilter+0x46>
 8001a50:	001d      	movs	r5, r3
 8001a52:	3540      	adds	r5, #64	; 0x40
 8001a54:	782a      	ldrb	r2, [r5, #0]
 8001a56:	2a01      	cmp	r2, #1
 8001a58:	d013      	beq.n	8001a82 <HAL_I2CEx_ConfigAnalogFilter+0x46>
 8001a5a:	2224      	movs	r2, #36	; 0x24
 8001a5c:	7022      	strb	r2, [r4, #0]
 8001a5e:	681b      	ldr	r3, [r3, #0]
 8001a60:	3a23      	subs	r2, #35	; 0x23
 8001a62:	6819      	ldr	r1, [r3, #0]
 8001a64:	4807      	ldr	r0, [pc, #28]	; (8001a84 <HAL_I2CEx_ConfigAnalogFilter+0x48>)
 8001a66:	4391      	bics	r1, r2
 8001a68:	6019      	str	r1, [r3, #0]
 8001a6a:	6819      	ldr	r1, [r3, #0]
 8001a6c:	4001      	ands	r1, r0
 8001a6e:	2000      	movs	r0, #0
 8001a70:	6019      	str	r1, [r3, #0]
 8001a72:	6819      	ldr	r1, [r3, #0]
 8001a74:	4339      	orrs	r1, r7
 8001a76:	6019      	str	r1, [r3, #0]
 8001a78:	6819      	ldr	r1, [r3, #0]
 8001a7a:	430a      	orrs	r2, r1
 8001a7c:	601a      	str	r2, [r3, #0]
 8001a7e:	7026      	strb	r6, [r4, #0]
 8001a80:	7028      	strb	r0, [r5, #0]
 8001a82:	bdf0      	pop	{r4, r5, r6, r7, pc}
 8001a84:	ffffefff 	.word	0xffffefff

08001a88 <HAL_I2CEx_ConfigDigitalFilter>:
 8001a88:	0002      	movs	r2, r0
 8001a8a:	b5f0      	push	{r4, r5, r6, r7, lr}
 8001a8c:	3241      	adds	r2, #65	; 0x41
 8001a8e:	7814      	ldrb	r4, [r2, #0]
 8001a90:	0003      	movs	r3, r0
 8001a92:	b2e5      	uxtb	r5, r4
 8001a94:	2002      	movs	r0, #2
 8001a96:	2c20      	cmp	r4, #32
 8001a98:	d117      	bne.n	8001aca <HAL_I2CEx_ConfigDigitalFilter+0x42>
 8001a9a:	001c      	movs	r4, r3
 8001a9c:	3440      	adds	r4, #64	; 0x40
 8001a9e:	7826      	ldrb	r6, [r4, #0]
 8001aa0:	2e01      	cmp	r6, #1
 8001aa2:	d012      	beq.n	8001aca <HAL_I2CEx_ConfigDigitalFilter+0x42>
 8001aa4:	3022      	adds	r0, #34	; 0x22
 8001aa6:	7010      	strb	r0, [r2, #0]
 8001aa8:	681b      	ldr	r3, [r3, #0]
 8001aaa:	3823      	subs	r0, #35	; 0x23
 8001aac:	681e      	ldr	r6, [r3, #0]
 8001aae:	4f07      	ldr	r7, [pc, #28]	; (8001acc <HAL_I2CEx_ConfigDigitalFilter+0x44>)
 8001ab0:	4386      	bics	r6, r0
 8001ab2:	601e      	str	r6, [r3, #0]
 8001ab4:	681e      	ldr	r6, [r3, #0]
 8001ab6:	0209      	lsls	r1, r1, #8
 8001ab8:	403e      	ands	r6, r7
 8001aba:	4331      	orrs	r1, r6
 8001abc:	6019      	str	r1, [r3, #0]
 8001abe:	6819      	ldr	r1, [r3, #0]
 8001ac0:	4308      	orrs	r0, r1
 8001ac2:	6018      	str	r0, [r3, #0]
 8001ac4:	2000      	movs	r0, #0
 8001ac6:	7015      	strb	r5, [r2, #0]
 8001ac8:	7020      	strb	r0, [r4, #0]
 8001aca:	bdf0      	pop	{r4, r5, r6, r7, pc}
 8001acc:	fffff0ff 	.word	0xfffff0ff

08001ad0 <HAL_PWREx_ControlVoltageScaling>:
 8001ad0:	b510      	push	{r4, lr}
 8001ad2:	4c11      	ldr	r4, [pc, #68]	; (8001b18 <HAL_PWREx_ControlVoltageScaling+0x48>)
 8001ad4:	4911      	ldr	r1, [pc, #68]	; (8001b1c <HAL_PWREx_ControlVoltageScaling+0x4c>)
 8001ad6:	6823      	ldr	r3, [r4, #0]
 8001ad8:	0002      	movs	r2, r0
 8001ada:	400b      	ands	r3, r1
 8001adc:	4303      	orrs	r3, r0
 8001ade:	6023      	str	r3, [r4, #0]
 8001ae0:	2380      	movs	r3, #128	; 0x80
 8001ae2:	2000      	movs	r0, #0
 8001ae4:	009b      	lsls	r3, r3, #2
 8001ae6:	429a      	cmp	r2, r3
 8001ae8:	d10e      	bne.n	8001b08 <HAL_PWREx_ControlVoltageScaling+0x38>
 8001aea:	4b0d      	ldr	r3, [pc, #52]	; (8001b20 <HAL_PWREx_ControlVoltageScaling+0x50>)
 8001aec:	490d      	ldr	r1, [pc, #52]	; (8001b24 <HAL_PWREx_ControlVoltageScaling+0x54>)
 8001aee:	6818      	ldr	r0, [r3, #0]
 8001af0:	2306      	movs	r3, #6
 8001af2:	4358      	muls	r0, r3
 8001af4:	f7fe fb1a 	bl	800012c <__udivsi3>
 8001af8:	2280      	movs	r2, #128	; 0x80
 8001afa:	1c43      	adds	r3, r0, #1
 8001afc:	00d2      	lsls	r2, r2, #3
 8001afe:	6961      	ldr	r1, [r4, #20]
 8001b00:	0008      	movs	r0, r1
 8001b02:	4010      	ands	r0, r2
 8001b04:	4211      	tst	r1, r2
 8001b06:	d100      	bne.n	8001b0a <HAL_PWREx_ControlVoltageScaling+0x3a>
 8001b08:	bd10      	pop	{r4, pc}
 8001b0a:	2b00      	cmp	r3, #0
 8001b0c:	d001      	beq.n	8001b12 <HAL_PWREx_ControlVoltageScaling+0x42>
 8001b0e:	3b01      	subs	r3, #1
 8001b10:	e7f5      	b.n	8001afe <HAL_PWREx_ControlVoltageScaling+0x2e>
 8001b12:	2003      	movs	r0, #3
 8001b14:	e7f8      	b.n	8001b08 <HAL_PWREx_ControlVoltageScaling+0x38>
 8001b16:	46c0      	nop			; (mov r8, r8)
 8001b18:	40007000 	.word	0x40007000
 8001b1c:	fffff9ff 	.word	0xfffff9ff
 8001b20:	20000000 	.word	0x20000000
 8001b24:	000f4240 	.word	0x000f4240

08001b28 <HAL_RCC_OscConfig>:
 8001b28:	b5f0      	push	{r4, r5, r6, r7, lr}
 8001b2a:	0004      	movs	r4, r0
 8001b2c:	b085      	sub	sp, #20
 8001b2e:	2800      	cmp	r0, #0
 8001b30:	d027      	beq.n	8001b82 <HAL_RCC_OscConfig+0x5a>
 8001b32:	6803      	ldr	r3, [r0, #0]
 8001b34:	07db      	lsls	r3, r3, #31
 8001b36:	d414      	bmi.n	8001b62 <HAL_RCC_OscConfig+0x3a>
 8001b38:	6823      	ldr	r3, [r4, #0]
 8001b3a:	079b      	lsls	r3, r3, #30
 8001b3c:	d462      	bmi.n	8001c04 <HAL_RCC_OscConfig+0xdc>
 8001b3e:	6823      	ldr	r3, [r4, #0]
 8001b40:	071b      	lsls	r3, r3, #28
 8001b42:	d500      	bpl.n	8001b46 <HAL_RCC_OscConfig+0x1e>
 8001b44:	e0c7      	b.n	8001cd6 <HAL_RCC_OscConfig+0x1ae>
 8001b46:	6823      	ldr	r3, [r4, #0]
 8001b48:	075b      	lsls	r3, r3, #29
 8001b4a:	d500      	bpl.n	8001b4e <HAL_RCC_OscConfig+0x26>
 8001b4c:	e0f8      	b.n	8001d40 <HAL_RCC_OscConfig+0x218>
 8001b4e:	6823      	ldr	r3, [r4, #0]
 8001b50:	069b      	lsls	r3, r3, #26
 8001b52:	d500      	bpl.n	8001b56 <HAL_RCC_OscConfig+0x2e>
 8001b54:	e166      	b.n	8001e24 <HAL_RCC_OscConfig+0x2fc>
 8001b56:	6a23      	ldr	r3, [r4, #32]
 8001b58:	2b00      	cmp	r3, #0
 8001b5a:	d000      	beq.n	8001b5e <HAL_RCC_OscConfig+0x36>
 8001b5c:	e1a5      	b.n	8001eaa <HAL_RCC_OscConfig+0x382>
 8001b5e:	2000      	movs	r0, #0
 8001b60:	e029      	b.n	8001bb6 <HAL_RCC_OscConfig+0x8e>
 8001b62:	2238      	movs	r2, #56	; 0x38
 8001b64:	4dbb      	ldr	r5, [pc, #748]	; (8001e54 <HAL_RCC_OscConfig+0x32c>)
 8001b66:	68ab      	ldr	r3, [r5, #8]
 8001b68:	4013      	ands	r3, r2
 8001b6a:	68ea      	ldr	r2, [r5, #12]
 8001b6c:	2b10      	cmp	r3, #16
 8001b6e:	d10a      	bne.n	8001b86 <HAL_RCC_OscConfig+0x5e>
 8001b70:	43d2      	mvns	r2, r2
 8001b72:	0793      	lsls	r3, r2, #30
 8001b74:	d109      	bne.n	8001b8a <HAL_RCC_OscConfig+0x62>
 8001b76:	682b      	ldr	r3, [r5, #0]
 8001b78:	039b      	lsls	r3, r3, #14
 8001b7a:	d5dd      	bpl.n	8001b38 <HAL_RCC_OscConfig+0x10>
 8001b7c:	6863      	ldr	r3, [r4, #4]
 8001b7e:	2b00      	cmp	r3, #0
 8001b80:	d1da      	bne.n	8001b38 <HAL_RCC_OscConfig+0x10>
 8001b82:	2001      	movs	r0, #1
 8001b84:	e017      	b.n	8001bb6 <HAL_RCC_OscConfig+0x8e>
 8001b86:	2b08      	cmp	r3, #8
 8001b88:	d0f5      	beq.n	8001b76 <HAL_RCC_OscConfig+0x4e>
 8001b8a:	2280      	movs	r2, #128	; 0x80
 8001b8c:	6863      	ldr	r3, [r4, #4]
 8001b8e:	0252      	lsls	r2, r2, #9
 8001b90:	4293      	cmp	r3, r2
 8001b92:	d112      	bne.n	8001bba <HAL_RCC_OscConfig+0x92>
 8001b94:	682a      	ldr	r2, [r5, #0]
 8001b96:	4313      	orrs	r3, r2
 8001b98:	602b      	str	r3, [r5, #0]
 8001b9a:	f7ff fa65 	bl	8001068 <HAL_GetTick>
 8001b9e:	2780      	movs	r7, #128	; 0x80
 8001ba0:	0006      	movs	r6, r0
 8001ba2:	02bf      	lsls	r7, r7, #10
 8001ba4:	682b      	ldr	r3, [r5, #0]
 8001ba6:	423b      	tst	r3, r7
 8001ba8:	d1c6      	bne.n	8001b38 <HAL_RCC_OscConfig+0x10>
 8001baa:	f7ff fa5d 	bl	8001068 <HAL_GetTick>
 8001bae:	1b80      	subs	r0, r0, r6
 8001bb0:	2864      	cmp	r0, #100	; 0x64
 8001bb2:	d9f7      	bls.n	8001ba4 <HAL_RCC_OscConfig+0x7c>
 8001bb4:	2003      	movs	r0, #3
 8001bb6:	b005      	add	sp, #20
 8001bb8:	bdf0      	pop	{r4, r5, r6, r7, pc}
 8001bba:	21a0      	movs	r1, #160	; 0xa0
 8001bbc:	02c9      	lsls	r1, r1, #11
 8001bbe:	428b      	cmp	r3, r1
 8001bc0:	d108      	bne.n	8001bd4 <HAL_RCC_OscConfig+0xac>
 8001bc2:	2380      	movs	r3, #128	; 0x80
 8001bc4:	6829      	ldr	r1, [r5, #0]
 8001bc6:	02db      	lsls	r3, r3, #11
 8001bc8:	430b      	orrs	r3, r1
 8001bca:	602b      	str	r3, [r5, #0]
 8001bcc:	682b      	ldr	r3, [r5, #0]
 8001bce:	431a      	orrs	r2, r3
 8001bd0:	602a      	str	r2, [r5, #0]
 8001bd2:	e7e2      	b.n	8001b9a <HAL_RCC_OscConfig+0x72>
 8001bd4:	682a      	ldr	r2, [r5, #0]
 8001bd6:	49a0      	ldr	r1, [pc, #640]	; (8001e58 <HAL_RCC_OscConfig+0x330>)
 8001bd8:	400a      	ands	r2, r1
 8001bda:	602a      	str	r2, [r5, #0]
 8001bdc:	682a      	ldr	r2, [r5, #0]
 8001bde:	499f      	ldr	r1, [pc, #636]	; (8001e5c <HAL_RCC_OscConfig+0x334>)
 8001be0:	400a      	ands	r2, r1
 8001be2:	602a      	str	r2, [r5, #0]
 8001be4:	2b00      	cmp	r3, #0
 8001be6:	d1d8      	bne.n	8001b9a <HAL_RCC_OscConfig+0x72>
 8001be8:	f7ff fa3e 	bl	8001068 <HAL_GetTick>
 8001bec:	2780      	movs	r7, #128	; 0x80
 8001bee:	0006      	movs	r6, r0
 8001bf0:	02bf      	lsls	r7, r7, #10
 8001bf2:	682b      	ldr	r3, [r5, #0]
 8001bf4:	423b      	tst	r3, r7
 8001bf6:	d09f      	beq.n	8001b38 <HAL_RCC_OscConfig+0x10>
 8001bf8:	f7ff fa36 	bl	8001068 <HAL_GetTick>
 8001bfc:	1b80      	subs	r0, r0, r6
 8001bfe:	2864      	cmp	r0, #100	; 0x64
 8001c00:	d9f7      	bls.n	8001bf2 <HAL_RCC_OscConfig+0xca>
 8001c02:	e7d7      	b.n	8001bb4 <HAL_RCC_OscConfig+0x8c>
 8001c04:	2338      	movs	r3, #56	; 0x38
 8001c06:	4d93      	ldr	r5, [pc, #588]	; (8001e54 <HAL_RCC_OscConfig+0x32c>)
 8001c08:	68aa      	ldr	r2, [r5, #8]
 8001c0a:	4013      	ands	r3, r2
 8001c0c:	68ea      	ldr	r2, [r5, #12]
 8001c0e:	2b10      	cmp	r3, #16
 8001c10:	d128      	bne.n	8001c64 <HAL_RCC_OscConfig+0x13c>
 8001c12:	2103      	movs	r1, #3
 8001c14:	400a      	ands	r2, r1
 8001c16:	2a02      	cmp	r2, #2
 8001c18:	d126      	bne.n	8001c68 <HAL_RCC_OscConfig+0x140>
 8001c1a:	682a      	ldr	r2, [r5, #0]
 8001c1c:	0552      	lsls	r2, r2, #21
 8001c1e:	d502      	bpl.n	8001c26 <HAL_RCC_OscConfig+0xfe>
 8001c20:	68e2      	ldr	r2, [r4, #12]
 8001c22:	2a00      	cmp	r2, #0
 8001c24:	d0ad      	beq.n	8001b82 <HAL_RCC_OscConfig+0x5a>
 8001c26:	6869      	ldr	r1, [r5, #4]
 8001c28:	6962      	ldr	r2, [r4, #20]
 8001c2a:	488d      	ldr	r0, [pc, #564]	; (8001e60 <HAL_RCC_OscConfig+0x338>)
 8001c2c:	0212      	lsls	r2, r2, #8
 8001c2e:	4001      	ands	r1, r0
 8001c30:	430a      	orrs	r2, r1
 8001c32:	606a      	str	r2, [r5, #4]
 8001c34:	2b00      	cmp	r3, #0
 8001c36:	d10d      	bne.n	8001c54 <HAL_RCC_OscConfig+0x12c>
 8001c38:	682b      	ldr	r3, [r5, #0]
 8001c3a:	4a8a      	ldr	r2, [pc, #552]	; (8001e64 <HAL_RCC_OscConfig+0x33c>)
 8001c3c:	4013      	ands	r3, r2
 8001c3e:	6922      	ldr	r2, [r4, #16]
 8001c40:	4313      	orrs	r3, r2
 8001c42:	602b      	str	r3, [r5, #0]
 8001c44:	682b      	ldr	r3, [r5, #0]
 8001c46:	4a88      	ldr	r2, [pc, #544]	; (8001e68 <HAL_RCC_OscConfig+0x340>)
 8001c48:	049b      	lsls	r3, r3, #18
 8001c4a:	0f5b      	lsrs	r3, r3, #29
 8001c4c:	40da      	lsrs	r2, r3
 8001c4e:	0013      	movs	r3, r2
 8001c50:	4a86      	ldr	r2, [pc, #536]	; (8001e6c <HAL_RCC_OscConfig+0x344>)
 8001c52:	6013      	str	r3, [r2, #0]
 8001c54:	4b86      	ldr	r3, [pc, #536]	; (8001e70 <HAL_RCC_OscConfig+0x348>)
 8001c56:	6818      	ldr	r0, [r3, #0]
 8001c58:	f7ff f9be 	bl	8000fd8 <HAL_InitTick>
 8001c5c:	2800      	cmp	r0, #0
 8001c5e:	d100      	bne.n	8001c62 <HAL_RCC_OscConfig+0x13a>
 8001c60:	e76d      	b.n	8001b3e <HAL_RCC_OscConfig+0x16>
 8001c62:	e78e      	b.n	8001b82 <HAL_RCC_OscConfig+0x5a>
 8001c64:	2b00      	cmp	r3, #0
 8001c66:	d0d8      	beq.n	8001c1a <HAL_RCC_OscConfig+0xf2>
 8001c68:	68e3      	ldr	r3, [r4, #12]
 8001c6a:	2b00      	cmp	r3, #0
 8001c6c:	d020      	beq.n	8001cb0 <HAL_RCC_OscConfig+0x188>
 8001c6e:	682b      	ldr	r3, [r5, #0]
 8001c70:	4a7c      	ldr	r2, [pc, #496]	; (8001e64 <HAL_RCC_OscConfig+0x33c>)
 8001c72:	2780      	movs	r7, #128	; 0x80
 8001c74:	4013      	ands	r3, r2
 8001c76:	6922      	ldr	r2, [r4, #16]
 8001c78:	00ff      	lsls	r7, r7, #3
 8001c7a:	4313      	orrs	r3, r2
 8001c7c:	602b      	str	r3, [r5, #0]
 8001c7e:	2380      	movs	r3, #128	; 0x80
 8001c80:	682a      	ldr	r2, [r5, #0]
 8001c82:	005b      	lsls	r3, r3, #1
 8001c84:	4313      	orrs	r3, r2
 8001c86:	602b      	str	r3, [r5, #0]
 8001c88:	f7ff f9ee 	bl	8001068 <HAL_GetTick>
 8001c8c:	0006      	movs	r6, r0
 8001c8e:	682b      	ldr	r3, [r5, #0]
 8001c90:	423b      	tst	r3, r7
 8001c92:	d007      	beq.n	8001ca4 <HAL_RCC_OscConfig+0x17c>
 8001c94:	686a      	ldr	r2, [r5, #4]
 8001c96:	6963      	ldr	r3, [r4, #20]
 8001c98:	4971      	ldr	r1, [pc, #452]	; (8001e60 <HAL_RCC_OscConfig+0x338>)
 8001c9a:	021b      	lsls	r3, r3, #8
 8001c9c:	400a      	ands	r2, r1
 8001c9e:	4313      	orrs	r3, r2
 8001ca0:	606b      	str	r3, [r5, #4]
 8001ca2:	e74c      	b.n	8001b3e <HAL_RCC_OscConfig+0x16>
 8001ca4:	f7ff f9e0 	bl	8001068 <HAL_GetTick>
 8001ca8:	1b80      	subs	r0, r0, r6
 8001caa:	2802      	cmp	r0, #2
 8001cac:	d9ef      	bls.n	8001c8e <HAL_RCC_OscConfig+0x166>
 8001cae:	e781      	b.n	8001bb4 <HAL_RCC_OscConfig+0x8c>
 8001cb0:	682b      	ldr	r3, [r5, #0]
 8001cb2:	4a70      	ldr	r2, [pc, #448]	; (8001e74 <HAL_RCC_OscConfig+0x34c>)
 8001cb4:	2780      	movs	r7, #128	; 0x80
 8001cb6:	4013      	ands	r3, r2
 8001cb8:	602b      	str	r3, [r5, #0]
 8001cba:	f7ff f9d5 	bl	8001068 <HAL_GetTick>
 8001cbe:	0006      	movs	r6, r0
 8001cc0:	00ff      	lsls	r7, r7, #3
 8001cc2:	682b      	ldr	r3, [r5, #0]
 8001cc4:	423b      	tst	r3, r7
 8001cc6:	d100      	bne.n	8001cca <HAL_RCC_OscConfig+0x1a2>
 8001cc8:	e739      	b.n	8001b3e <HAL_RCC_OscConfig+0x16>
 8001cca:	f7ff f9cd 	bl	8001068 <HAL_GetTick>
 8001cce:	1b80      	subs	r0, r0, r6
 8001cd0:	2802      	cmp	r0, #2
 8001cd2:	d9f6      	bls.n	8001cc2 <HAL_RCC_OscConfig+0x19a>
 8001cd4:	e76e      	b.n	8001bb4 <HAL_RCC_OscConfig+0x8c>
 8001cd6:	2238      	movs	r2, #56	; 0x38
 8001cd8:	4d5e      	ldr	r5, [pc, #376]	; (8001e54 <HAL_RCC_OscConfig+0x32c>)
 8001cda:	68ab      	ldr	r3, [r5, #8]
 8001cdc:	4013      	ands	r3, r2
 8001cde:	2b18      	cmp	r3, #24
 8001ce0:	d108      	bne.n	8001cf4 <HAL_RCC_OscConfig+0x1cc>
 8001ce2:	6e2b      	ldr	r3, [r5, #96]	; 0x60
 8001ce4:	079b      	lsls	r3, r3, #30
 8001ce6:	d400      	bmi.n	8001cea <HAL_RCC_OscConfig+0x1c2>
 8001ce8:	e72d      	b.n	8001b46 <HAL_RCC_OscConfig+0x1e>
 8001cea:	69a3      	ldr	r3, [r4, #24]
 8001cec:	2b00      	cmp	r3, #0
 8001cee:	d000      	beq.n	8001cf2 <HAL_RCC_OscConfig+0x1ca>
 8001cf0:	e729      	b.n	8001b46 <HAL_RCC_OscConfig+0x1e>
 8001cf2:	e746      	b.n	8001b82 <HAL_RCC_OscConfig+0x5a>
 8001cf4:	69a2      	ldr	r2, [r4, #24]
 8001cf6:	2301      	movs	r3, #1
 8001cf8:	2a00      	cmp	r2, #0
 8001cfa:	d010      	beq.n	8001d1e <HAL_RCC_OscConfig+0x1f6>
 8001cfc:	6e2a      	ldr	r2, [r5, #96]	; 0x60
 8001cfe:	2702      	movs	r7, #2
 8001d00:	4313      	orrs	r3, r2
 8001d02:	662b      	str	r3, [r5, #96]	; 0x60
 8001d04:	f7ff f9b0 	bl	8001068 <HAL_GetTick>
 8001d08:	0006      	movs	r6, r0
 8001d0a:	6e2b      	ldr	r3, [r5, #96]	; 0x60
 8001d0c:	423b      	tst	r3, r7
 8001d0e:	d000      	beq.n	8001d12 <HAL_RCC_OscConfig+0x1ea>
 8001d10:	e719      	b.n	8001b46 <HAL_RCC_OscConfig+0x1e>
 8001d12:	f7ff f9a9 	bl	8001068 <HAL_GetTick>
 8001d16:	1b80      	subs	r0, r0, r6
 8001d18:	2802      	cmp	r0, #2
 8001d1a:	d9f6      	bls.n	8001d0a <HAL_RCC_OscConfig+0x1e2>
 8001d1c:	e74a      	b.n	8001bb4 <HAL_RCC_OscConfig+0x8c>
 8001d1e:	6e2a      	ldr	r2, [r5, #96]	; 0x60
 8001d20:	2702      	movs	r7, #2
 8001d22:	439a      	bics	r2, r3
 8001d24:	662a      	str	r2, [r5, #96]	; 0x60
 8001d26:	f7ff f99f 	bl	8001068 <HAL_GetTick>
 8001d2a:	0006      	movs	r6, r0
 8001d2c:	6e2b      	ldr	r3, [r5, #96]	; 0x60
 8001d2e:	423b      	tst	r3, r7
 8001d30:	d100      	bne.n	8001d34 <HAL_RCC_OscConfig+0x20c>
 8001d32:	e708      	b.n	8001b46 <HAL_RCC_OscConfig+0x1e>
 8001d34:	f7ff f998 	bl	8001068 <HAL_GetTick>
 8001d38:	1b80      	subs	r0, r0, r6
 8001d3a:	2802      	cmp	r0, #2
 8001d3c:	d9f6      	bls.n	8001d2c <HAL_RCC_OscConfig+0x204>
 8001d3e:	e739      	b.n	8001bb4 <HAL_RCC_OscConfig+0x8c>
 8001d40:	2238      	movs	r2, #56	; 0x38
 8001d42:	4d44      	ldr	r5, [pc, #272]	; (8001e54 <HAL_RCC_OscConfig+0x32c>)
 8001d44:	68ab      	ldr	r3, [r5, #8]
 8001d46:	4013      	ands	r3, r2
 8001d48:	2b20      	cmp	r3, #32
 8001d4a:	d108      	bne.n	8001d5e <HAL_RCC_OscConfig+0x236>
 8001d4c:	6deb      	ldr	r3, [r5, #92]	; 0x5c
 8001d4e:	079b      	lsls	r3, r3, #30
 8001d50:	d400      	bmi.n	8001d54 <HAL_RCC_OscConfig+0x22c>
 8001d52:	e6fc      	b.n	8001b4e <HAL_RCC_OscConfig+0x26>
 8001d54:	68a3      	ldr	r3, [r4, #8]
 8001d56:	2b00      	cmp	r3, #0
 8001d58:	d000      	beq.n	8001d5c <HAL_RCC_OscConfig+0x234>
 8001d5a:	e6f8      	b.n	8001b4e <HAL_RCC_OscConfig+0x26>
 8001d5c:	e711      	b.n	8001b82 <HAL_RCC_OscConfig+0x5a>
 8001d5e:	2280      	movs	r2, #128	; 0x80
 8001d60:	2100      	movs	r1, #0
 8001d62:	6beb      	ldr	r3, [r5, #60]	; 0x3c
 8001d64:	0552      	lsls	r2, r2, #21
 8001d66:	9100      	str	r1, [sp, #0]
 8001d68:	4213      	tst	r3, r2
 8001d6a:	d108      	bne.n	8001d7e <HAL_RCC_OscConfig+0x256>
 8001d6c:	6beb      	ldr	r3, [r5, #60]	; 0x3c
 8001d6e:	4313      	orrs	r3, r2
 8001d70:	63eb      	str	r3, [r5, #60]	; 0x3c
 8001d72:	6beb      	ldr	r3, [r5, #60]	; 0x3c
 8001d74:	4013      	ands	r3, r2
 8001d76:	9303      	str	r3, [sp, #12]
 8001d78:	9b03      	ldr	r3, [sp, #12]
 8001d7a:	2301      	movs	r3, #1
 8001d7c:	9300      	str	r3, [sp, #0]
 8001d7e:	2780      	movs	r7, #128	; 0x80
 8001d80:	4e3d      	ldr	r6, [pc, #244]	; (8001e78 <HAL_RCC_OscConfig+0x350>)
 8001d82:	007f      	lsls	r7, r7, #1
 8001d84:	6833      	ldr	r3, [r6, #0]
 8001d86:	423b      	tst	r3, r7
 8001d88:	d015      	beq.n	8001db6 <HAL_RCC_OscConfig+0x28e>
 8001d8a:	68a3      	ldr	r3, [r4, #8]
 8001d8c:	2b01      	cmp	r3, #1
 8001d8e:	d122      	bne.n	8001dd6 <HAL_RCC_OscConfig+0x2ae>
 8001d90:	6dea      	ldr	r2, [r5, #92]	; 0x5c
 8001d92:	4313      	orrs	r3, r2
 8001d94:	65eb      	str	r3, [r5, #92]	; 0x5c
 8001d96:	f7ff f967 	bl	8001068 <HAL_GetTick>
 8001d9a:	2702      	movs	r7, #2
 8001d9c:	0006      	movs	r6, r0
 8001d9e:	6deb      	ldr	r3, [r5, #92]	; 0x5c
 8001da0:	423b      	tst	r3, r7
 8001da2:	d038      	beq.n	8001e16 <HAL_RCC_OscConfig+0x2ee>
 8001da4:	9b00      	ldr	r3, [sp, #0]
 8001da6:	2b01      	cmp	r3, #1
 8001da8:	d000      	beq.n	8001dac <HAL_RCC_OscConfig+0x284>
 8001daa:	e6d0      	b.n	8001b4e <HAL_RCC_OscConfig+0x26>
 8001dac:	6beb      	ldr	r3, [r5, #60]	; 0x3c
 8001dae:	4a33      	ldr	r2, [pc, #204]	; (8001e7c <HAL_RCC_OscConfig+0x354>)
 8001db0:	4013      	ands	r3, r2
 8001db2:	63eb      	str	r3, [r5, #60]	; 0x3c
 8001db4:	e6cb      	b.n	8001b4e <HAL_RCC_OscConfig+0x26>
 8001db6:	6833      	ldr	r3, [r6, #0]
 8001db8:	433b      	orrs	r3, r7
 8001dba:	6033      	str	r3, [r6, #0]
 8001dbc:	f7ff f954 	bl	8001068 <HAL_GetTick>
 8001dc0:	9001      	str	r0, [sp, #4]
 8001dc2:	6833      	ldr	r3, [r6, #0]
 8001dc4:	423b      	tst	r3, r7
 8001dc6:	d1e0      	bne.n	8001d8a <HAL_RCC_OscConfig+0x262>
 8001dc8:	f7ff f94e 	bl	8001068 <HAL_GetTick>
 8001dcc:	9b01      	ldr	r3, [sp, #4]
 8001dce:	1ac0      	subs	r0, r0, r3
 8001dd0:	2802      	cmp	r0, #2
 8001dd2:	d9f6      	bls.n	8001dc2 <HAL_RCC_OscConfig+0x29a>
 8001dd4:	e6ee      	b.n	8001bb4 <HAL_RCC_OscConfig+0x8c>
 8001dd6:	6dea      	ldr	r2, [r5, #92]	; 0x5c
 8001dd8:	2b05      	cmp	r3, #5
 8001dda:	d105      	bne.n	8001de8 <HAL_RCC_OscConfig+0x2c0>
 8001ddc:	3b01      	subs	r3, #1
 8001dde:	4313      	orrs	r3, r2
 8001de0:	65eb      	str	r3, [r5, #92]	; 0x5c
 8001de2:	6dea      	ldr	r2, [r5, #92]	; 0x5c
 8001de4:	2301      	movs	r3, #1
 8001de6:	e7d4      	b.n	8001d92 <HAL_RCC_OscConfig+0x26a>
 8001de8:	2101      	movs	r1, #1
 8001dea:	438a      	bics	r2, r1
 8001dec:	65ea      	str	r2, [r5, #92]	; 0x5c
 8001dee:	6dea      	ldr	r2, [r5, #92]	; 0x5c
 8001df0:	3103      	adds	r1, #3
 8001df2:	438a      	bics	r2, r1
 8001df4:	65ea      	str	r2, [r5, #92]	; 0x5c
 8001df6:	2b00      	cmp	r3, #0
 8001df8:	d1cd      	bne.n	8001d96 <HAL_RCC_OscConfig+0x26e>
 8001dfa:	f7ff f935 	bl	8001068 <HAL_GetTick>
 8001dfe:	2702      	movs	r7, #2
 8001e00:	0006      	movs	r6, r0
 8001e02:	6deb      	ldr	r3, [r5, #92]	; 0x5c
 8001e04:	423b      	tst	r3, r7
 8001e06:	d0cd      	beq.n	8001da4 <HAL_RCC_OscConfig+0x27c>
 8001e08:	f7ff f92e 	bl	8001068 <HAL_GetTick>
 8001e0c:	4b1c      	ldr	r3, [pc, #112]	; (8001e80 <HAL_RCC_OscConfig+0x358>)
 8001e0e:	1b80      	subs	r0, r0, r6
 8001e10:	4298      	cmp	r0, r3
 8001e12:	d9f6      	bls.n	8001e02 <HAL_RCC_OscConfig+0x2da>
 8001e14:	e6ce      	b.n	8001bb4 <HAL_RCC_OscConfig+0x8c>
 8001e16:	f7ff f927 	bl	8001068 <HAL_GetTick>
 8001e1a:	4b19      	ldr	r3, [pc, #100]	; (8001e80 <HAL_RCC_OscConfig+0x358>)
 8001e1c:	1b80      	subs	r0, r0, r6
 8001e1e:	4298      	cmp	r0, r3
 8001e20:	d9bd      	bls.n	8001d9e <HAL_RCC_OscConfig+0x276>
 8001e22:	e6c7      	b.n	8001bb4 <HAL_RCC_OscConfig+0x8c>
 8001e24:	69e3      	ldr	r3, [r4, #28]
 8001e26:	4d0b      	ldr	r5, [pc, #44]	; (8001e54 <HAL_RCC_OscConfig+0x32c>)
 8001e28:	2b00      	cmp	r3, #0
 8001e2a:	d02b      	beq.n	8001e84 <HAL_RCC_OscConfig+0x35c>
 8001e2c:	2380      	movs	r3, #128	; 0x80
 8001e2e:	682a      	ldr	r2, [r5, #0]
 8001e30:	03db      	lsls	r3, r3, #15
 8001e32:	4313      	orrs	r3, r2
 8001e34:	602b      	str	r3, [r5, #0]
 8001e36:	f7ff f917 	bl	8001068 <HAL_GetTick>
 8001e3a:	2780      	movs	r7, #128	; 0x80
 8001e3c:	0006      	movs	r6, r0
 8001e3e:	043f      	lsls	r7, r7, #16
 8001e40:	682b      	ldr	r3, [r5, #0]
 8001e42:	423b      	tst	r3, r7
 8001e44:	d000      	beq.n	8001e48 <HAL_RCC_OscConfig+0x320>
 8001e46:	e686      	b.n	8001b56 <HAL_RCC_OscConfig+0x2e>
 8001e48:	f7ff f90e 	bl	8001068 <HAL_GetTick>
 8001e4c:	1b80      	subs	r0, r0, r6
 8001e4e:	2802      	cmp	r0, #2
 8001e50:	d9f6      	bls.n	8001e40 <HAL_RCC_OscConfig+0x318>
 8001e52:	e6af      	b.n	8001bb4 <HAL_RCC_OscConfig+0x8c>
 8001e54:	40021000 	.word	0x40021000
 8001e58:	fffeffff 	.word	0xfffeffff
 8001e5c:	fffbffff 	.word	0xfffbffff
 8001e60:	ffff80ff 	.word	0xffff80ff
 8001e64:	ffffc7ff 	.word	0xffffc7ff
 8001e68:	00f42400 	.word	0x00f42400
 8001e6c:	20000000 	.word	0x20000000
 8001e70:	20000008 	.word	0x20000008
 8001e74:	fffffeff 	.word	0xfffffeff
 8001e78:	40007000 	.word	0x40007000
 8001e7c:	efffffff 	.word	0xefffffff
 8001e80:	00001388 	.word	0x00001388
 8001e84:	682b      	ldr	r3, [r5, #0]
 8001e86:	4a4e      	ldr	r2, [pc, #312]	; (8001fc0 <HAL_RCC_OscConfig+0x498>)
 8001e88:	2780      	movs	r7, #128	; 0x80
 8001e8a:	4013      	ands	r3, r2
 8001e8c:	602b      	str	r3, [r5, #0]
 8001e8e:	f7ff f8eb 	bl	8001068 <HAL_GetTick>
 8001e92:	0006      	movs	r6, r0
 8001e94:	043f      	lsls	r7, r7, #16
 8001e96:	682b      	ldr	r3, [r5, #0]
 8001e98:	423b      	tst	r3, r7
 8001e9a:	d100      	bne.n	8001e9e <HAL_RCC_OscConfig+0x376>
 8001e9c:	e65b      	b.n	8001b56 <HAL_RCC_OscConfig+0x2e>
 8001e9e:	f7ff f8e3 	bl	8001068 <HAL_GetTick>
 8001ea2:	1b80      	subs	r0, r0, r6
 8001ea4:	2802      	cmp	r0, #2
 8001ea6:	d9f6      	bls.n	8001e96 <HAL_RCC_OscConfig+0x36e>
 8001ea8:	e684      	b.n	8001bb4 <HAL_RCC_OscConfig+0x8c>
 8001eaa:	2138      	movs	r1, #56	; 0x38
 8001eac:	4d45      	ldr	r5, [pc, #276]	; (8001fc4 <HAL_RCC_OscConfig+0x49c>)
 8001eae:	68aa      	ldr	r2, [r5, #8]
 8001eb0:	400a      	ands	r2, r1
 8001eb2:	2a10      	cmp	r2, #16
 8001eb4:	d055      	beq.n	8001f62 <HAL_RCC_OscConfig+0x43a>
 8001eb6:	4a44      	ldr	r2, [pc, #272]	; (8001fc8 <HAL_RCC_OscConfig+0x4a0>)
 8001eb8:	2b02      	cmp	r3, #2
 8001eba:	d13a      	bne.n	8001f32 <HAL_RCC_OscConfig+0x40a>
 8001ebc:	682b      	ldr	r3, [r5, #0]
 8001ebe:	2780      	movs	r7, #128	; 0x80
 8001ec0:	4013      	ands	r3, r2
 8001ec2:	602b      	str	r3, [r5, #0]
 8001ec4:	f7ff f8d0 	bl	8001068 <HAL_GetTick>
 8001ec8:	0006      	movs	r6, r0
 8001eca:	04bf      	lsls	r7, r7, #18
 8001ecc:	682b      	ldr	r3, [r5, #0]
 8001ece:	423b      	tst	r3, r7
 8001ed0:	d129      	bne.n	8001f26 <HAL_RCC_OscConfig+0x3fe>
 8001ed2:	6aa1      	ldr	r1, [r4, #40]	; 0x28
 8001ed4:	6a63      	ldr	r3, [r4, #36]	; 0x24
 8001ed6:	68ea      	ldr	r2, [r5, #12]
 8001ed8:	430b      	orrs	r3, r1
 8001eda:	493c      	ldr	r1, [pc, #240]	; (8001fcc <HAL_RCC_OscConfig+0x4a4>)
 8001edc:	2680      	movs	r6, #128	; 0x80
 8001ede:	400a      	ands	r2, r1
 8001ee0:	4313      	orrs	r3, r2
 8001ee2:	6b22      	ldr	r2, [r4, #48]	; 0x30
 8001ee4:	04b6      	lsls	r6, r6, #18
 8001ee6:	4313      	orrs	r3, r2
 8001ee8:	6b62      	ldr	r2, [r4, #52]	; 0x34
 8001eea:	4313      	orrs	r3, r2
 8001eec:	6ba2      	ldr	r2, [r4, #56]	; 0x38
 8001eee:	4313      	orrs	r3, r2
 8001ef0:	6ae2      	ldr	r2, [r4, #44]	; 0x2c
 8001ef2:	0212      	lsls	r2, r2, #8
 8001ef4:	4313      	orrs	r3, r2
 8001ef6:	60eb      	str	r3, [r5, #12]
 8001ef8:	2380      	movs	r3, #128	; 0x80
 8001efa:	682a      	ldr	r2, [r5, #0]
 8001efc:	045b      	lsls	r3, r3, #17
 8001efe:	4313      	orrs	r3, r2
 8001f00:	602b      	str	r3, [r5, #0]
 8001f02:	2380      	movs	r3, #128	; 0x80
 8001f04:	68ea      	ldr	r2, [r5, #12]
 8001f06:	055b      	lsls	r3, r3, #21
 8001f08:	4313      	orrs	r3, r2
 8001f0a:	60eb      	str	r3, [r5, #12]
 8001f0c:	f7ff f8ac 	bl	8001068 <HAL_GetTick>
 8001f10:	0004      	movs	r4, r0
 8001f12:	682b      	ldr	r3, [r5, #0]
 8001f14:	4233      	tst	r3, r6
 8001f16:	d000      	beq.n	8001f1a <HAL_RCC_OscConfig+0x3f2>
 8001f18:	e621      	b.n	8001b5e <HAL_RCC_OscConfig+0x36>
 8001f1a:	f7ff f8a5 	bl	8001068 <HAL_GetTick>
 8001f1e:	1b00      	subs	r0, r0, r4
 8001f20:	2802      	cmp	r0, #2
 8001f22:	d9f6      	bls.n	8001f12 <HAL_RCC_OscConfig+0x3ea>
 8001f24:	e646      	b.n	8001bb4 <HAL_RCC_OscConfig+0x8c>
 8001f26:	f7ff f89f 	bl	8001068 <HAL_GetTick>
 8001f2a:	1b80      	subs	r0, r0, r6
 8001f2c:	2802      	cmp	r0, #2
 8001f2e:	d9cd      	bls.n	8001ecc <HAL_RCC_OscConfig+0x3a4>
 8001f30:	e640      	b.n	8001bb4 <HAL_RCC_OscConfig+0x8c>
 8001f32:	682b      	ldr	r3, [r5, #0]
 8001f34:	2680      	movs	r6, #128	; 0x80
 8001f36:	4013      	ands	r3, r2
 8001f38:	602b      	str	r3, [r5, #0]
 8001f3a:	f7ff f895 	bl	8001068 <HAL_GetTick>
 8001f3e:	0004      	movs	r4, r0
 8001f40:	04b6      	lsls	r6, r6, #18
 8001f42:	682b      	ldr	r3, [r5, #0]
 8001f44:	0018      	movs	r0, r3
 8001f46:	4030      	ands	r0, r6
 8001f48:	4233      	tst	r3, r6
 8001f4a:	d104      	bne.n	8001f56 <HAL_RCC_OscConfig+0x42e>
 8001f4c:	68eb      	ldr	r3, [r5, #12]
 8001f4e:	4a20      	ldr	r2, [pc, #128]	; (8001fd0 <HAL_RCC_OscConfig+0x4a8>)
 8001f50:	4013      	ands	r3, r2
 8001f52:	60eb      	str	r3, [r5, #12]
 8001f54:	e62f      	b.n	8001bb6 <HAL_RCC_OscConfig+0x8e>
 8001f56:	f7ff f887 	bl	8001068 <HAL_GetTick>
 8001f5a:	1b00      	subs	r0, r0, r4
 8001f5c:	2802      	cmp	r0, #2
 8001f5e:	d9f0      	bls.n	8001f42 <HAL_RCC_OscConfig+0x41a>
 8001f60:	e628      	b.n	8001bb4 <HAL_RCC_OscConfig+0x8c>
 8001f62:	0018      	movs	r0, r3
 8001f64:	2b01      	cmp	r3, #1
 8001f66:	d100      	bne.n	8001f6a <HAL_RCC_OscConfig+0x442>
 8001f68:	e625      	b.n	8001bb6 <HAL_RCC_OscConfig+0x8e>
 8001f6a:	2203      	movs	r2, #3
 8001f6c:	68eb      	ldr	r3, [r5, #12]
 8001f6e:	6a61      	ldr	r1, [r4, #36]	; 0x24
 8001f70:	401a      	ands	r2, r3
 8001f72:	428a      	cmp	r2, r1
 8001f74:	d000      	beq.n	8001f78 <HAL_RCC_OscConfig+0x450>
 8001f76:	e604      	b.n	8001b82 <HAL_RCC_OscConfig+0x5a>
 8001f78:	2270      	movs	r2, #112	; 0x70
 8001f7a:	6aa1      	ldr	r1, [r4, #40]	; 0x28
 8001f7c:	401a      	ands	r2, r3
 8001f7e:	428a      	cmp	r2, r1
 8001f80:	d000      	beq.n	8001f84 <HAL_RCC_OscConfig+0x45c>
 8001f82:	e5fe      	b.n	8001b82 <HAL_RCC_OscConfig+0x5a>
 8001f84:	21fe      	movs	r1, #254	; 0xfe
 8001f86:	6ae2      	ldr	r2, [r4, #44]	; 0x2c
 8001f88:	01c9      	lsls	r1, r1, #7
 8001f8a:	4019      	ands	r1, r3
 8001f8c:	0212      	lsls	r2, r2, #8
 8001f8e:	4291      	cmp	r1, r2
 8001f90:	d000      	beq.n	8001f94 <HAL_RCC_OscConfig+0x46c>
 8001f92:	e5f6      	b.n	8001b82 <HAL_RCC_OscConfig+0x5a>
 8001f94:	22f8      	movs	r2, #248	; 0xf8
 8001f96:	6b21      	ldr	r1, [r4, #48]	; 0x30
 8001f98:	0392      	lsls	r2, r2, #14
 8001f9a:	401a      	ands	r2, r3
 8001f9c:	428a      	cmp	r2, r1
 8001f9e:	d000      	beq.n	8001fa2 <HAL_RCC_OscConfig+0x47a>
 8001fa0:	e5ef      	b.n	8001b82 <HAL_RCC_OscConfig+0x5a>
 8001fa2:	22e0      	movs	r2, #224	; 0xe0
 8001fa4:	6b61      	ldr	r1, [r4, #52]	; 0x34
 8001fa6:	0512      	lsls	r2, r2, #20
 8001fa8:	401a      	ands	r2, r3
 8001faa:	428a      	cmp	r2, r1
 8001fac:	d000      	beq.n	8001fb0 <HAL_RCC_OscConfig+0x488>
 8001fae:	e5e8      	b.n	8001b82 <HAL_RCC_OscConfig+0x5a>
 8001fb0:	6ba2      	ldr	r2, [r4, #56]	; 0x38
 8001fb2:	0f5b      	lsrs	r3, r3, #29
 8001fb4:	075b      	lsls	r3, r3, #29
 8001fb6:	4293      	cmp	r3, r2
 8001fb8:	d100      	bne.n	8001fbc <HAL_RCC_OscConfig+0x494>
 8001fba:	e5d0      	b.n	8001b5e <HAL_RCC_OscConfig+0x36>
 8001fbc:	e5e1      	b.n	8001b82 <HAL_RCC_OscConfig+0x5a>
 8001fbe:	46c0      	nop			; (mov r8, r8)
 8001fc0:	ffbfffff 	.word	0xffbfffff
 8001fc4:	40021000 	.word	0x40021000
 8001fc8:	feffffff 	.word	0xfeffffff
 8001fcc:	11c1808c 	.word	0x11c1808c
 8001fd0:	eefefffc 	.word	0xeefefffc

08001fd4 <HAL_RCC_GetSysClockFreq>:
 8001fd4:	2338      	movs	r3, #56	; 0x38
 8001fd6:	b570      	push	{r4, r5, r6, lr}
 8001fd8:	4c1e      	ldr	r4, [pc, #120]	; (8002054 <HAL_RCC_GetSysClockFreq+0x80>)
 8001fda:	68a2      	ldr	r2, [r4, #8]
 8001fdc:	421a      	tst	r2, r3
 8001fde:	d105      	bne.n	8001fec <HAL_RCC_GetSysClockFreq+0x18>
 8001fe0:	6823      	ldr	r3, [r4, #0]
 8001fe2:	481d      	ldr	r0, [pc, #116]	; (8002058 <HAL_RCC_GetSysClockFreq+0x84>)
 8001fe4:	049b      	lsls	r3, r3, #18
 8001fe6:	0f5b      	lsrs	r3, r3, #29
 8001fe8:	40d8      	lsrs	r0, r3
 8001fea:	bd70      	pop	{r4, r5, r6, pc}
 8001fec:	68a2      	ldr	r2, [r4, #8]
 8001fee:	401a      	ands	r2, r3
 8001ff0:	2a08      	cmp	r2, #8
 8001ff2:	d02a      	beq.n	800204a <HAL_RCC_GetSysClockFreq+0x76>
 8001ff4:	68a2      	ldr	r2, [r4, #8]
 8001ff6:	401a      	ands	r2, r3
 8001ff8:	2a10      	cmp	r2, #16
 8001ffa:	d11a      	bne.n	8002032 <HAL_RCC_GetSysClockFreq+0x5e>
 8001ffc:	68e3      	ldr	r3, [r4, #12]
 8001ffe:	68e1      	ldr	r1, [r4, #12]
 8002000:	43db      	mvns	r3, r3
 8002002:	0649      	lsls	r1, r1, #25
 8002004:	0f49      	lsrs	r1, r1, #29
 8002006:	257f      	movs	r5, #127	; 0x7f
 8002008:	3101      	adds	r1, #1
 800200a:	079b      	lsls	r3, r3, #30
 800200c:	d10c      	bne.n	8002028 <HAL_RCC_GetSysClockFreq+0x54>
 800200e:	68e3      	ldr	r3, [r4, #12]
 8002010:	4812      	ldr	r0, [pc, #72]	; (800205c <HAL_RCC_GetSysClockFreq+0x88>)
 8002012:	0a1b      	lsrs	r3, r3, #8
 8002014:	401d      	ands	r5, r3
 8002016:	f7fe f889 	bl	800012c <__udivsi3>
 800201a:	68e1      	ldr	r1, [r4, #12]
 800201c:	4368      	muls	r0, r5
 800201e:	0f49      	lsrs	r1, r1, #29
 8002020:	3101      	adds	r1, #1
 8002022:	f7fe f883 	bl	800012c <__udivsi3>
 8002026:	e7e0      	b.n	8001fea <HAL_RCC_GetSysClockFreq+0x16>
 8002028:	68e3      	ldr	r3, [r4, #12]
 800202a:	480b      	ldr	r0, [pc, #44]	; (8002058 <HAL_RCC_GetSysClockFreq+0x84>)
 800202c:	0a1b      	lsrs	r3, r3, #8
 800202e:	401d      	ands	r5, r3
 8002030:	e7f1      	b.n	8002016 <HAL_RCC_GetSysClockFreq+0x42>
 8002032:	68a2      	ldr	r2, [r4, #8]
 8002034:	401a      	ands	r2, r3
 8002036:	2a20      	cmp	r2, #32
 8002038:	d009      	beq.n	800204e <HAL_RCC_GetSysClockFreq+0x7a>
 800203a:	68a2      	ldr	r2, [r4, #8]
 800203c:	2000      	movs	r0, #0
 800203e:	4013      	ands	r3, r2
 8002040:	2b18      	cmp	r3, #24
 8002042:	d1d2      	bne.n	8001fea <HAL_RCC_GetSysClockFreq+0x16>
 8002044:	20fa      	movs	r0, #250	; 0xfa
 8002046:	01c0      	lsls	r0, r0, #7
 8002048:	e7cf      	b.n	8001fea <HAL_RCC_GetSysClockFreq+0x16>
 800204a:	4804      	ldr	r0, [pc, #16]	; (800205c <HAL_RCC_GetSysClockFreq+0x88>)
 800204c:	e7cd      	b.n	8001fea <HAL_RCC_GetSysClockFreq+0x16>
 800204e:	2080      	movs	r0, #128	; 0x80
 8002050:	0200      	lsls	r0, r0, #8
 8002052:	e7ca      	b.n	8001fea <HAL_RCC_GetSysClockFreq+0x16>
 8002054:	40021000 	.word	0x40021000
 8002058:	00f42400 	.word	0x00f42400
 800205c:	007a1200 	.word	0x007a1200

08002060 <HAL_RCC_ClockConfig>:
 8002060:	b5f7      	push	{r0, r1, r2, r4, r5, r6, r7, lr}
 8002062:	0004      	movs	r4, r0
 8002064:	000d      	movs	r5, r1
 8002066:	2800      	cmp	r0, #0
 8002068:	d101      	bne.n	800206e <HAL_RCC_ClockConfig+0xe>
 800206a:	2001      	movs	r0, #1
 800206c:	bdfe      	pop	{r1, r2, r3, r4, r5, r6, r7, pc}
 800206e:	2707      	movs	r7, #7
 8002070:	4e4a      	ldr	r6, [pc, #296]	; (800219c <HAL_RCC_ClockConfig+0x13c>)
 8002072:	6833      	ldr	r3, [r6, #0]
 8002074:	403b      	ands	r3, r7
 8002076:	428b      	cmp	r3, r1
 8002078:	d32a      	bcc.n	80020d0 <HAL_RCC_ClockConfig+0x70>
 800207a:	6821      	ldr	r1, [r4, #0]
 800207c:	078b      	lsls	r3, r1, #30
 800207e:	d43b      	bmi.n	80020f8 <HAL_RCC_ClockConfig+0x98>
 8002080:	07cb      	lsls	r3, r1, #31
 8002082:	d448      	bmi.n	8002116 <HAL_RCC_ClockConfig+0xb6>
 8002084:	2707      	movs	r7, #7
 8002086:	6833      	ldr	r3, [r6, #0]
 8002088:	403b      	ands	r3, r7
 800208a:	42ab      	cmp	r3, r5
 800208c:	d90a      	bls.n	80020a4 <HAL_RCC_ClockConfig+0x44>
 800208e:	6833      	ldr	r3, [r6, #0]
 8002090:	43bb      	bics	r3, r7
 8002092:	432b      	orrs	r3, r5
 8002094:	6033      	str	r3, [r6, #0]
 8002096:	f7fe ffe7 	bl	8001068 <HAL_GetTick>
 800209a:	9001      	str	r0, [sp, #4]
 800209c:	6833      	ldr	r3, [r6, #0]
 800209e:	403b      	ands	r3, r7
 80020a0:	42ab      	cmp	r3, r5
 80020a2:	d16b      	bne.n	800217c <HAL_RCC_ClockConfig+0x11c>
 80020a4:	6823      	ldr	r3, [r4, #0]
 80020a6:	4d3e      	ldr	r5, [pc, #248]	; (80021a0 <HAL_RCC_ClockConfig+0x140>)
 80020a8:	075b      	lsls	r3, r3, #29
 80020aa:	d46f      	bmi.n	800218c <HAL_RCC_ClockConfig+0x12c>
 80020ac:	f7ff ff92 	bl	8001fd4 <HAL_RCC_GetSysClockFreq>
 80020b0:	68ab      	ldr	r3, [r5, #8]
 80020b2:	4a3c      	ldr	r2, [pc, #240]	; (80021a4 <HAL_RCC_ClockConfig+0x144>)
 80020b4:	051b      	lsls	r3, r3, #20
 80020b6:	0f1b      	lsrs	r3, r3, #28
 80020b8:	009b      	lsls	r3, r3, #2
 80020ba:	589b      	ldr	r3, [r3, r2]
 80020bc:	221f      	movs	r2, #31
 80020be:	4013      	ands	r3, r2
 80020c0:	40d8      	lsrs	r0, r3
 80020c2:	4b39      	ldr	r3, [pc, #228]	; (80021a8 <HAL_RCC_ClockConfig+0x148>)
 80020c4:	6018      	str	r0, [r3, #0]
 80020c6:	4b39      	ldr	r3, [pc, #228]	; (80021ac <HAL_RCC_ClockConfig+0x14c>)
 80020c8:	6818      	ldr	r0, [r3, #0]
 80020ca:	f7fe ff85 	bl	8000fd8 <HAL_InitTick>
 80020ce:	e7cd      	b.n	800206c <HAL_RCC_ClockConfig+0xc>
 80020d0:	6833      	ldr	r3, [r6, #0]
 80020d2:	43bb      	bics	r3, r7
 80020d4:	430b      	orrs	r3, r1
 80020d6:	6033      	str	r3, [r6, #0]
 80020d8:	f7fe ffc6 	bl	8001068 <HAL_GetTick>
 80020dc:	9001      	str	r0, [sp, #4]
 80020de:	6833      	ldr	r3, [r6, #0]
 80020e0:	403b      	ands	r3, r7
 80020e2:	42ab      	cmp	r3, r5
 80020e4:	d0c9      	beq.n	800207a <HAL_RCC_ClockConfig+0x1a>
 80020e6:	f7fe ffbf 	bl	8001068 <HAL_GetTick>
 80020ea:	9b01      	ldr	r3, [sp, #4]
 80020ec:	1ac0      	subs	r0, r0, r3
 80020ee:	4b30      	ldr	r3, [pc, #192]	; (80021b0 <HAL_RCC_ClockConfig+0x150>)
 80020f0:	4298      	cmp	r0, r3
 80020f2:	d9f4      	bls.n	80020de <HAL_RCC_ClockConfig+0x7e>
 80020f4:	2003      	movs	r0, #3
 80020f6:	e7b9      	b.n	800206c <HAL_RCC_ClockConfig+0xc>
 80020f8:	4a29      	ldr	r2, [pc, #164]	; (80021a0 <HAL_RCC_ClockConfig+0x140>)
 80020fa:	074b      	lsls	r3, r1, #29
 80020fc:	d504      	bpl.n	8002108 <HAL_RCC_ClockConfig+0xa8>
 80020fe:	23e0      	movs	r3, #224	; 0xe0
 8002100:	6890      	ldr	r0, [r2, #8]
 8002102:	01db      	lsls	r3, r3, #7
 8002104:	4303      	orrs	r3, r0
 8002106:	6093      	str	r3, [r2, #8]
 8002108:	6893      	ldr	r3, [r2, #8]
 800210a:	482a      	ldr	r0, [pc, #168]	; (80021b4 <HAL_RCC_ClockConfig+0x154>)
 800210c:	4003      	ands	r3, r0
 800210e:	68a0      	ldr	r0, [r4, #8]
 8002110:	4303      	orrs	r3, r0
 8002112:	6093      	str	r3, [r2, #8]
 8002114:	e7b4      	b.n	8002080 <HAL_RCC_ClockConfig+0x20>
 8002116:	6862      	ldr	r2, [r4, #4]
 8002118:	4f21      	ldr	r7, [pc, #132]	; (80021a0 <HAL_RCC_ClockConfig+0x140>)
 800211a:	2a01      	cmp	r2, #1
 800211c:	d119      	bne.n	8002152 <HAL_RCC_ClockConfig+0xf2>
 800211e:	683b      	ldr	r3, [r7, #0]
 8002120:	039b      	lsls	r3, r3, #14
 8002122:	d5a2      	bpl.n	800206a <HAL_RCC_ClockConfig+0xa>
 8002124:	2107      	movs	r1, #7
 8002126:	68bb      	ldr	r3, [r7, #8]
 8002128:	438b      	bics	r3, r1
 800212a:	4313      	orrs	r3, r2
 800212c:	60bb      	str	r3, [r7, #8]
 800212e:	f7fe ff9b 	bl	8001068 <HAL_GetTick>
 8002132:	9001      	str	r0, [sp, #4]
 8002134:	2338      	movs	r3, #56	; 0x38
 8002136:	68ba      	ldr	r2, [r7, #8]
 8002138:	401a      	ands	r2, r3
 800213a:	6863      	ldr	r3, [r4, #4]
 800213c:	00db      	lsls	r3, r3, #3
 800213e:	429a      	cmp	r2, r3
 8002140:	d0a0      	beq.n	8002084 <HAL_RCC_ClockConfig+0x24>
 8002142:	f7fe ff91 	bl	8001068 <HAL_GetTick>
 8002146:	9b01      	ldr	r3, [sp, #4]
 8002148:	1ac0      	subs	r0, r0, r3
 800214a:	4b19      	ldr	r3, [pc, #100]	; (80021b0 <HAL_RCC_ClockConfig+0x150>)
 800214c:	4298      	cmp	r0, r3
 800214e:	d9f1      	bls.n	8002134 <HAL_RCC_ClockConfig+0xd4>
 8002150:	e7d0      	b.n	80020f4 <HAL_RCC_ClockConfig+0x94>
 8002152:	2a02      	cmp	r2, #2
 8002154:	d103      	bne.n	800215e <HAL_RCC_ClockConfig+0xfe>
 8002156:	683b      	ldr	r3, [r7, #0]
 8002158:	019b      	lsls	r3, r3, #6
 800215a:	d4e3      	bmi.n	8002124 <HAL_RCC_ClockConfig+0xc4>
 800215c:	e785      	b.n	800206a <HAL_RCC_ClockConfig+0xa>
 800215e:	2a00      	cmp	r2, #0
 8002160:	d103      	bne.n	800216a <HAL_RCC_ClockConfig+0x10a>
 8002162:	683b      	ldr	r3, [r7, #0]
 8002164:	055b      	lsls	r3, r3, #21
 8002166:	d4dd      	bmi.n	8002124 <HAL_RCC_ClockConfig+0xc4>
 8002168:	e77f      	b.n	800206a <HAL_RCC_ClockConfig+0xa>
 800216a:	2302      	movs	r3, #2
 800216c:	2a03      	cmp	r2, #3
 800216e:	d103      	bne.n	8002178 <HAL_RCC_ClockConfig+0x118>
 8002170:	6e39      	ldr	r1, [r7, #96]	; 0x60
 8002172:	4219      	tst	r1, r3
 8002174:	d1d6      	bne.n	8002124 <HAL_RCC_ClockConfig+0xc4>
 8002176:	e778      	b.n	800206a <HAL_RCC_ClockConfig+0xa>
 8002178:	6df9      	ldr	r1, [r7, #92]	; 0x5c
 800217a:	e7fa      	b.n	8002172 <HAL_RCC_ClockConfig+0x112>
 800217c:	f7fe ff74 	bl	8001068 <HAL_GetTick>
 8002180:	9b01      	ldr	r3, [sp, #4]
 8002182:	1ac0      	subs	r0, r0, r3
 8002184:	4b0a      	ldr	r3, [pc, #40]	; (80021b0 <HAL_RCC_ClockConfig+0x150>)
 8002186:	4298      	cmp	r0, r3
 8002188:	d988      	bls.n	800209c <HAL_RCC_ClockConfig+0x3c>
 800218a:	e7b3      	b.n	80020f4 <HAL_RCC_ClockConfig+0x94>
 800218c:	68ab      	ldr	r3, [r5, #8]
 800218e:	4a0a      	ldr	r2, [pc, #40]	; (80021b8 <HAL_RCC_ClockConfig+0x158>)
 8002190:	4013      	ands	r3, r2
 8002192:	68e2      	ldr	r2, [r4, #12]
 8002194:	4313      	orrs	r3, r2
 8002196:	60ab      	str	r3, [r5, #8]
 8002198:	e788      	b.n	80020ac <HAL_RCC_ClockConfig+0x4c>
 800219a:	46c0      	nop			; (mov r8, r8)
 800219c:	40022000 	.word	0x40022000
 80021a0:	40021000 	.word	0x40021000
 80021a4:	08002e44 	.word	0x08002e44
 80021a8:	20000000 	.word	0x20000000
 80021ac:	20000008 	.word	0x20000008
 80021b0:	00001388 	.word	0x00001388
 80021b4:	fffff0ff 	.word	0xfffff0ff
 80021b8:	ffff8fff 	.word	0xffff8fff

080021bc <HAL_RCC_GetPCLK1Freq>:
 80021bc:	4b06      	ldr	r3, [pc, #24]	; (80021d8 <HAL_RCC_GetPCLK1Freq+0x1c>)
 80021be:	4a07      	ldr	r2, [pc, #28]	; (80021dc <HAL_RCC_GetPCLK1Freq+0x20>)
 80021c0:	689b      	ldr	r3, [r3, #8]
 80021c2:	045b      	lsls	r3, r3, #17
 80021c4:	0f5b      	lsrs	r3, r3, #29
 80021c6:	009b      	lsls	r3, r3, #2
 80021c8:	589b      	ldr	r3, [r3, r2]
 80021ca:	221f      	movs	r2, #31
 80021cc:	4013      	ands	r3, r2
 80021ce:	4a04      	ldr	r2, [pc, #16]	; (80021e0 <HAL_RCC_GetPCLK1Freq+0x24>)
 80021d0:	6810      	ldr	r0, [r2, #0]
 80021d2:	40d8      	lsrs	r0, r3
 80021d4:	4770      	bx	lr
 80021d6:	46c0      	nop			; (mov r8, r8)
 80021d8:	40021000 	.word	0x40021000
 80021dc:	08002e84 	.word	0x08002e84
 80021e0:	20000000 	.word	0x20000000

080021e4 <HAL_RCCEx_PeriphCLKConfig>:
 80021e4:	b5f0      	push	{r4, r5, r6, r7, lr}
 80021e6:	0004      	movs	r4, r0
 80021e8:	6823      	ldr	r3, [r4, #0]
 80021ea:	2000      	movs	r0, #0
 80021ec:	b085      	sub	sp, #20
 80021ee:	039b      	lsls	r3, r3, #14
 80021f0:	d53c      	bpl.n	800226c <HAL_RCCEx_PeriphCLKConfig+0x88>
 80021f2:	2280      	movs	r2, #128	; 0x80
 80021f4:	4d97      	ldr	r5, [pc, #604]	; (8002454 <HAL_RCCEx_PeriphCLKConfig+0x270>)
 80021f6:	0552      	lsls	r2, r2, #21
 80021f8:	6beb      	ldr	r3, [r5, #60]	; 0x3c
 80021fa:	9000      	str	r0, [sp, #0]
 80021fc:	4213      	tst	r3, r2
 80021fe:	d108      	bne.n	8002212 <HAL_RCCEx_PeriphCLKConfig+0x2e>
 8002200:	6beb      	ldr	r3, [r5, #60]	; 0x3c
 8002202:	4313      	orrs	r3, r2
 8002204:	63eb      	str	r3, [r5, #60]	; 0x3c
 8002206:	6beb      	ldr	r3, [r5, #60]	; 0x3c
 8002208:	4013      	ands	r3, r2
 800220a:	9303      	str	r3, [sp, #12]
 800220c:	9b03      	ldr	r3, [sp, #12]
 800220e:	2301      	movs	r3, #1
 8002210:	9300      	str	r3, [sp, #0]
 8002212:	2780      	movs	r7, #128	; 0x80
 8002214:	4e90      	ldr	r6, [pc, #576]	; (8002458 <HAL_RCCEx_PeriphCLKConfig+0x274>)
 8002216:	007f      	lsls	r7, r7, #1
 8002218:	6833      	ldr	r3, [r6, #0]
 800221a:	433b      	orrs	r3, r7
 800221c:	6033      	str	r3, [r6, #0]
 800221e:	f7fe ff23 	bl	8001068 <HAL_GetTick>
 8002222:	9001      	str	r0, [sp, #4]
 8002224:	6833      	ldr	r3, [r6, #0]
 8002226:	423b      	tst	r3, r7
 8002228:	d012      	beq.n	8002250 <HAL_RCCEx_PeriphCLKConfig+0x6c>
 800222a:	6dea      	ldr	r2, [r5, #92]	; 0x5c
 800222c:	23c0      	movs	r3, #192	; 0xc0
 800222e:	0011      	movs	r1, r2
 8002230:	009b      	lsls	r3, r3, #2
 8002232:	4e8a      	ldr	r6, [pc, #552]	; (800245c <HAL_RCCEx_PeriphCLKConfig+0x278>)
 8002234:	4019      	ands	r1, r3
 8002236:	421a      	tst	r2, r3
 8002238:	d003      	beq.n	8002242 <HAL_RCCEx_PeriphCLKConfig+0x5e>
 800223a:	6c23      	ldr	r3, [r4, #64]	; 0x40
 800223c:	4299      	cmp	r1, r3
 800223e:	d000      	beq.n	8002242 <HAL_RCCEx_PeriphCLKConfig+0x5e>
 8002240:	e0e9      	b.n	8002416 <HAL_RCCEx_PeriphCLKConfig+0x232>
 8002242:	6deb      	ldr	r3, [r5, #92]	; 0x5c
 8002244:	2000      	movs	r0, #0
 8002246:	401e      	ands	r6, r3
 8002248:	6c23      	ldr	r3, [r4, #64]	; 0x40
 800224a:	431e      	orrs	r6, r3
 800224c:	65ee      	str	r6, [r5, #92]	; 0x5c
 800224e:	e006      	b.n	800225e <HAL_RCCEx_PeriphCLKConfig+0x7a>
 8002250:	f7fe ff0a 	bl	8001068 <HAL_GetTick>
 8002254:	9b01      	ldr	r3, [sp, #4]
 8002256:	1ac0      	subs	r0, r0, r3
 8002258:	2802      	cmp	r0, #2
 800225a:	d9e3      	bls.n	8002224 <HAL_RCCEx_PeriphCLKConfig+0x40>
 800225c:	2003      	movs	r0, #3
 800225e:	9b00      	ldr	r3, [sp, #0]
 8002260:	2b01      	cmp	r3, #1
 8002262:	d103      	bne.n	800226c <HAL_RCCEx_PeriphCLKConfig+0x88>
 8002264:	6beb      	ldr	r3, [r5, #60]	; 0x3c
 8002266:	4a7e      	ldr	r2, [pc, #504]	; (8002460 <HAL_RCCEx_PeriphCLKConfig+0x27c>)
 8002268:	4013      	ands	r3, r2
 800226a:	63eb      	str	r3, [r5, #60]	; 0x3c
 800226c:	6823      	ldr	r3, [r4, #0]
 800226e:	07da      	lsls	r2, r3, #31
 8002270:	d506      	bpl.n	8002280 <HAL_RCCEx_PeriphCLKConfig+0x9c>
 8002272:	2503      	movs	r5, #3
 8002274:	4977      	ldr	r1, [pc, #476]	; (8002454 <HAL_RCCEx_PeriphCLKConfig+0x270>)
 8002276:	6d4a      	ldr	r2, [r1, #84]	; 0x54
 8002278:	43aa      	bics	r2, r5
 800227a:	6865      	ldr	r5, [r4, #4]
 800227c:	432a      	orrs	r2, r5
 800227e:	654a      	str	r2, [r1, #84]	; 0x54
 8002280:	079a      	lsls	r2, r3, #30
 8002282:	d506      	bpl.n	8002292 <HAL_RCCEx_PeriphCLKConfig+0xae>
 8002284:	250c      	movs	r5, #12
 8002286:	4973      	ldr	r1, [pc, #460]	; (8002454 <HAL_RCCEx_PeriphCLKConfig+0x270>)
 8002288:	6d4a      	ldr	r2, [r1, #84]	; 0x54
 800228a:	43aa      	bics	r2, r5
 800228c:	68a5      	ldr	r5, [r4, #8]
 800228e:	432a      	orrs	r2, r5
 8002290:	654a      	str	r2, [r1, #84]	; 0x54
 8002292:	075a      	lsls	r2, r3, #29
 8002294:	d506      	bpl.n	80022a4 <HAL_RCCEx_PeriphCLKConfig+0xc0>
 8002296:	2530      	movs	r5, #48	; 0x30
 8002298:	496e      	ldr	r1, [pc, #440]	; (8002454 <HAL_RCCEx_PeriphCLKConfig+0x270>)
 800229a:	6d4a      	ldr	r2, [r1, #84]	; 0x54
 800229c:	43aa      	bics	r2, r5
 800229e:	68e5      	ldr	r5, [r4, #12]
 80022a0:	432a      	orrs	r2, r5
 80022a2:	654a      	str	r2, [r1, #84]	; 0x54
 80022a4:	06da      	lsls	r2, r3, #27
 80022a6:	d506      	bpl.n	80022b6 <HAL_RCCEx_PeriphCLKConfig+0xd2>
 80022a8:	496a      	ldr	r1, [pc, #424]	; (8002454 <HAL_RCCEx_PeriphCLKConfig+0x270>)
 80022aa:	4d6e      	ldr	r5, [pc, #440]	; (8002464 <HAL_RCCEx_PeriphCLKConfig+0x280>)
 80022ac:	6d4a      	ldr	r2, [r1, #84]	; 0x54
 80022ae:	402a      	ands	r2, r5
 80022b0:	6925      	ldr	r5, [r4, #16]
 80022b2:	432a      	orrs	r2, r5
 80022b4:	654a      	str	r2, [r1, #84]	; 0x54
 80022b6:	04da      	lsls	r2, r3, #19
 80022b8:	d506      	bpl.n	80022c8 <HAL_RCCEx_PeriphCLKConfig+0xe4>
 80022ba:	4966      	ldr	r1, [pc, #408]	; (8002454 <HAL_RCCEx_PeriphCLKConfig+0x270>)
 80022bc:	4d67      	ldr	r5, [pc, #412]	; (800245c <HAL_RCCEx_PeriphCLKConfig+0x278>)
 80022be:	6d4a      	ldr	r2, [r1, #84]	; 0x54
 80022c0:	402a      	ands	r2, r5
 80022c2:	6965      	ldr	r5, [r4, #20]
 80022c4:	432a      	orrs	r2, r5
 80022c6:	654a      	str	r2, [r1, #84]	; 0x54
 80022c8:	059a      	lsls	r2, r3, #22
 80022ca:	d506      	bpl.n	80022da <HAL_RCCEx_PeriphCLKConfig+0xf6>
 80022cc:	4961      	ldr	r1, [pc, #388]	; (8002454 <HAL_RCCEx_PeriphCLKConfig+0x270>)
 80022ce:	4d66      	ldr	r5, [pc, #408]	; (8002468 <HAL_RCCEx_PeriphCLKConfig+0x284>)
 80022d0:	6d4a      	ldr	r2, [r1, #84]	; 0x54
 80022d2:	402a      	ands	r2, r5
 80022d4:	6aa5      	ldr	r5, [r4, #40]	; 0x28
 80022d6:	432a      	orrs	r2, r5
 80022d8:	654a      	str	r2, [r1, #84]	; 0x54
 80022da:	055a      	lsls	r2, r3, #21
 80022dc:	d506      	bpl.n	80022ec <HAL_RCCEx_PeriphCLKConfig+0x108>
 80022de:	495d      	ldr	r1, [pc, #372]	; (8002454 <HAL_RCCEx_PeriphCLKConfig+0x270>)
 80022e0:	4d62      	ldr	r5, [pc, #392]	; (800246c <HAL_RCCEx_PeriphCLKConfig+0x288>)
 80022e2:	6d4a      	ldr	r2, [r1, #84]	; 0x54
 80022e4:	402a      	ands	r2, r5
 80022e6:	6ae5      	ldr	r5, [r4, #44]	; 0x2c
 80022e8:	432a      	orrs	r2, r5
 80022ea:	654a      	str	r2, [r1, #84]	; 0x54
 80022ec:	069a      	lsls	r2, r3, #26
 80022ee:	d506      	bpl.n	80022fe <HAL_RCCEx_PeriphCLKConfig+0x11a>
 80022f0:	4958      	ldr	r1, [pc, #352]	; (8002454 <HAL_RCCEx_PeriphCLKConfig+0x270>)
 80022f2:	4d5f      	ldr	r5, [pc, #380]	; (8002470 <HAL_RCCEx_PeriphCLKConfig+0x28c>)
 80022f4:	6d4a      	ldr	r2, [r1, #84]	; 0x54
 80022f6:	402a      	ands	r2, r5
 80022f8:	69a5      	ldr	r5, [r4, #24]
 80022fa:	432a      	orrs	r2, r5
 80022fc:	654a      	str	r2, [r1, #84]	; 0x54
 80022fe:	065a      	lsls	r2, r3, #25
 8002300:	d506      	bpl.n	8002310 <HAL_RCCEx_PeriphCLKConfig+0x12c>
 8002302:	4954      	ldr	r1, [pc, #336]	; (8002454 <HAL_RCCEx_PeriphCLKConfig+0x270>)
 8002304:	4d5b      	ldr	r5, [pc, #364]	; (8002474 <HAL_RCCEx_PeriphCLKConfig+0x290>)
 8002306:	6d4a      	ldr	r2, [r1, #84]	; 0x54
 8002308:	402a      	ands	r2, r5
 800230a:	69e5      	ldr	r5, [r4, #28]
 800230c:	432a      	orrs	r2, r5
 800230e:	654a      	str	r2, [r1, #84]	; 0x54
 8002310:	045a      	lsls	r2, r3, #17
 8002312:	d50f      	bpl.n	8002334 <HAL_RCCEx_PeriphCLKConfig+0x150>
 8002314:	494f      	ldr	r1, [pc, #316]	; (8002454 <HAL_RCCEx_PeriphCLKConfig+0x270>)
 8002316:	6b25      	ldr	r5, [r4, #48]	; 0x30
 8002318:	6d4a      	ldr	r2, [r1, #84]	; 0x54
 800231a:	0092      	lsls	r2, r2, #2
 800231c:	0892      	lsrs	r2, r2, #2
 800231e:	432a      	orrs	r2, r5
 8002320:	654a      	str	r2, [r1, #84]	; 0x54
 8002322:	2280      	movs	r2, #128	; 0x80
 8002324:	05d2      	lsls	r2, r2, #23
 8002326:	4295      	cmp	r5, r2
 8002328:	d104      	bne.n	8002334 <HAL_RCCEx_PeriphCLKConfig+0x150>
 800232a:	2280      	movs	r2, #128	; 0x80
 800232c:	68cd      	ldr	r5, [r1, #12]
 800232e:	0252      	lsls	r2, r2, #9
 8002330:	432a      	orrs	r2, r5
 8002332:	60ca      	str	r2, [r1, #12]
 8002334:	031a      	lsls	r2, r3, #12
 8002336:	d506      	bpl.n	8002346 <HAL_RCCEx_PeriphCLKConfig+0x162>
 8002338:	2540      	movs	r5, #64	; 0x40
 800233a:	4946      	ldr	r1, [pc, #280]	; (8002454 <HAL_RCCEx_PeriphCLKConfig+0x270>)
 800233c:	6d4a      	ldr	r2, [r1, #84]	; 0x54
 800233e:	43aa      	bics	r2, r5
 8002340:	6b65      	ldr	r5, [r4, #52]	; 0x34
 8002342:	432a      	orrs	r2, r5
 8002344:	654a      	str	r2, [r1, #84]	; 0x54
 8002346:	029a      	lsls	r2, r3, #10
 8002348:	d50f      	bpl.n	800236a <HAL_RCCEx_PeriphCLKConfig+0x186>
 800234a:	4942      	ldr	r1, [pc, #264]	; (8002454 <HAL_RCCEx_PeriphCLKConfig+0x270>)
 800234c:	4e4a      	ldr	r6, [pc, #296]	; (8002478 <HAL_RCCEx_PeriphCLKConfig+0x294>)
 800234e:	6d4a      	ldr	r2, [r1, #84]	; 0x54
 8002350:	6ba5      	ldr	r5, [r4, #56]	; 0x38
 8002352:	4032      	ands	r2, r6
 8002354:	432a      	orrs	r2, r5
 8002356:	654a      	str	r2, [r1, #84]	; 0x54
 8002358:	2280      	movs	r2, #128	; 0x80
 800235a:	03d2      	lsls	r2, r2, #15
 800235c:	4295      	cmp	r5, r2
 800235e:	d104      	bne.n	800236a <HAL_RCCEx_PeriphCLKConfig+0x186>
 8002360:	2280      	movs	r2, #128	; 0x80
 8002362:	68cd      	ldr	r5, [r1, #12]
 8002364:	0452      	lsls	r2, r2, #17
 8002366:	432a      	orrs	r2, r5
 8002368:	60ca      	str	r2, [r1, #12]
 800236a:	025a      	lsls	r2, r3, #9
 800236c:	d50d      	bpl.n	800238a <HAL_RCCEx_PeriphCLKConfig+0x1a6>
 800236e:	4d39      	ldr	r5, [pc, #228]	; (8002454 <HAL_RCCEx_PeriphCLKConfig+0x270>)
 8002370:	4e42      	ldr	r6, [pc, #264]	; (800247c <HAL_RCCEx_PeriphCLKConfig+0x298>)
 8002372:	6d69      	ldr	r1, [r5, #84]	; 0x54
 8002374:	6be2      	ldr	r2, [r4, #60]	; 0x3c
 8002376:	4031      	ands	r1, r6
 8002378:	4311      	orrs	r1, r2
 800237a:	6569      	str	r1, [r5, #84]	; 0x54
 800237c:	2180      	movs	r1, #128	; 0x80
 800237e:	0449      	lsls	r1, r1, #17
 8002380:	428a      	cmp	r2, r1
 8002382:	d102      	bne.n	800238a <HAL_RCCEx_PeriphCLKConfig+0x1a6>
 8002384:	68e9      	ldr	r1, [r5, #12]
 8002386:	430a      	orrs	r2, r1
 8002388:	60ea      	str	r2, [r5, #12]
 800238a:	051a      	lsls	r2, r3, #20
 800238c:	d50d      	bpl.n	80023aa <HAL_RCCEx_PeriphCLKConfig+0x1c6>
 800238e:	2603      	movs	r6, #3
 8002390:	4930      	ldr	r1, [pc, #192]	; (8002454 <HAL_RCCEx_PeriphCLKConfig+0x270>)
 8002392:	6a25      	ldr	r5, [r4, #32]
 8002394:	6d8a      	ldr	r2, [r1, #88]	; 0x58
 8002396:	43b2      	bics	r2, r6
 8002398:	432a      	orrs	r2, r5
 800239a:	658a      	str	r2, [r1, #88]	; 0x58
 800239c:	2d01      	cmp	r5, #1
 800239e:	d104      	bne.n	80023aa <HAL_RCCEx_PeriphCLKConfig+0x1c6>
 80023a0:	2280      	movs	r2, #128	; 0x80
 80023a2:	68cd      	ldr	r5, [r1, #12]
 80023a4:	0252      	lsls	r2, r2, #9
 80023a6:	432a      	orrs	r2, r5
 80023a8:	60ca      	str	r2, [r1, #12]
 80023aa:	049a      	lsls	r2, r3, #18
 80023ac:	d50d      	bpl.n	80023ca <HAL_RCCEx_PeriphCLKConfig+0x1e6>
 80023ae:	260c      	movs	r6, #12
 80023b0:	4928      	ldr	r1, [pc, #160]	; (8002454 <HAL_RCCEx_PeriphCLKConfig+0x270>)
 80023b2:	6a65      	ldr	r5, [r4, #36]	; 0x24
 80023b4:	6d8a      	ldr	r2, [r1, #88]	; 0x58
 80023b6:	43b2      	bics	r2, r6
 80023b8:	432a      	orrs	r2, r5
 80023ba:	658a      	str	r2, [r1, #88]	; 0x58
 80023bc:	2d04      	cmp	r5, #4
 80023be:	d104      	bne.n	80023ca <HAL_RCCEx_PeriphCLKConfig+0x1e6>
 80023c0:	2280      	movs	r2, #128	; 0x80
 80023c2:	68cd      	ldr	r5, [r1, #12]
 80023c4:	0252      	lsls	r2, r2, #9
 80023c6:	432a      	orrs	r2, r5
 80023c8:	60ca      	str	r2, [r1, #12]
 80023ca:	2580      	movs	r5, #128	; 0x80
 80023cc:	046d      	lsls	r5, r5, #17
 80023ce:	422b      	tst	r3, r5
 80023d0:	d00d      	beq.n	80023ee <HAL_RCCEx_PeriphCLKConfig+0x20a>
 80023d2:	4920      	ldr	r1, [pc, #128]	; (8002454 <HAL_RCCEx_PeriphCLKConfig+0x270>)
 80023d4:	4f26      	ldr	r7, [pc, #152]	; (8002470 <HAL_RCCEx_PeriphCLKConfig+0x28c>)
 80023d6:	6d8a      	ldr	r2, [r1, #88]	; 0x58
 80023d8:	6c66      	ldr	r6, [r4, #68]	; 0x44
 80023da:	403a      	ands	r2, r7
 80023dc:	4332      	orrs	r2, r6
 80023de:	658a      	str	r2, [r1, #88]	; 0x58
 80023e0:	2280      	movs	r2, #128	; 0x80
 80023e2:	0192      	lsls	r2, r2, #6
 80023e4:	4296      	cmp	r6, r2
 80023e6:	d102      	bne.n	80023ee <HAL_RCCEx_PeriphCLKConfig+0x20a>
 80023e8:	68ca      	ldr	r2, [r1, #12]
 80023ea:	4315      	orrs	r5, r2
 80023ec:	60cd      	str	r5, [r1, #12]
 80023ee:	019b      	lsls	r3, r3, #6
 80023f0:	d50f      	bpl.n	8002412 <HAL_RCCEx_PeriphCLKConfig+0x22e>
 80023f2:	4a18      	ldr	r2, [pc, #96]	; (8002454 <HAL_RCCEx_PeriphCLKConfig+0x270>)
 80023f4:	6ca1      	ldr	r1, [r4, #72]	; 0x48
 80023f6:	6d93      	ldr	r3, [r2, #88]	; 0x58
 80023f8:	4c18      	ldr	r4, [pc, #96]	; (800245c <HAL_RCCEx_PeriphCLKConfig+0x278>)
 80023fa:	4023      	ands	r3, r4
 80023fc:	430b      	orrs	r3, r1
 80023fe:	6593      	str	r3, [r2, #88]	; 0x58
 8002400:	2380      	movs	r3, #128	; 0x80
 8002402:	005b      	lsls	r3, r3, #1
 8002404:	4299      	cmp	r1, r3
 8002406:	d104      	bne.n	8002412 <HAL_RCCEx_PeriphCLKConfig+0x22e>
 8002408:	2380      	movs	r3, #128	; 0x80
 800240a:	68d1      	ldr	r1, [r2, #12]
 800240c:	045b      	lsls	r3, r3, #17
 800240e:	430b      	orrs	r3, r1
 8002410:	60d3      	str	r3, [r2, #12]
 8002412:	b005      	add	sp, #20
 8002414:	bdf0      	pop	{r4, r5, r6, r7, pc}
 8002416:	2380      	movs	r3, #128	; 0x80
 8002418:	6dea      	ldr	r2, [r5, #92]	; 0x5c
 800241a:	6de8      	ldr	r0, [r5, #92]	; 0x5c
 800241c:	0011      	movs	r1, r2
 800241e:	025b      	lsls	r3, r3, #9
 8002420:	4303      	orrs	r3, r0
 8002422:	65eb      	str	r3, [r5, #92]	; 0x5c
 8002424:	6deb      	ldr	r3, [r5, #92]	; 0x5c
 8002426:	4816      	ldr	r0, [pc, #88]	; (8002480 <HAL_RCCEx_PeriphCLKConfig+0x29c>)
 8002428:	4031      	ands	r1, r6
 800242a:	4003      	ands	r3, r0
 800242c:	65eb      	str	r3, [r5, #92]	; 0x5c
 800242e:	65e9      	str	r1, [r5, #92]	; 0x5c
 8002430:	07d3      	lsls	r3, r2, #31
 8002432:	d400      	bmi.n	8002436 <HAL_RCCEx_PeriphCLKConfig+0x252>
 8002434:	e705      	b.n	8002242 <HAL_RCCEx_PeriphCLKConfig+0x5e>
 8002436:	f7fe fe17 	bl	8001068 <HAL_GetTick>
 800243a:	0007      	movs	r7, r0
 800243c:	2202      	movs	r2, #2
 800243e:	6deb      	ldr	r3, [r5, #92]	; 0x5c
 8002440:	4213      	tst	r3, r2
 8002442:	d000      	beq.n	8002446 <HAL_RCCEx_PeriphCLKConfig+0x262>
 8002444:	e6fd      	b.n	8002242 <HAL_RCCEx_PeriphCLKConfig+0x5e>
 8002446:	f7fe fe0f 	bl	8001068 <HAL_GetTick>
 800244a:	4b0e      	ldr	r3, [pc, #56]	; (8002484 <HAL_RCCEx_PeriphCLKConfig+0x2a0>)
 800244c:	1bc0      	subs	r0, r0, r7
 800244e:	4298      	cmp	r0, r3
 8002450:	d9f4      	bls.n	800243c <HAL_RCCEx_PeriphCLKConfig+0x258>
 8002452:	e703      	b.n	800225c <HAL_RCCEx_PeriphCLKConfig+0x78>
 8002454:	40021000 	.word	0x40021000
 8002458:	40007000 	.word	0x40007000
 800245c:	fffffcff 	.word	0xfffffcff
 8002460:	efffffff 	.word	0xefffffff
 8002464:	fffff3ff 	.word	0xfffff3ff
 8002468:	fff3ffff 	.word	0xfff3ffff
 800246c:	ffcfffff 	.word	0xffcfffff
 8002470:	ffffcfff 	.word	0xffffcfff
 8002474:	ffff3fff 	.word	0xffff3fff
 8002478:	ffbfffff 	.word	0xffbfffff
 800247c:	feffffff 	.word	0xfeffffff
 8002480:	fffeffff 	.word	0xfffeffff
 8002484:	00001388 	.word	0x00001388

08002488 <TIM_Base_SetConfig>:
 8002488:	4a23      	ldr	r2, [pc, #140]	; (8002518 <TIM_Base_SetConfig+0x90>)
 800248a:	b510      	push	{r4, lr}
 800248c:	6803      	ldr	r3, [r0, #0]
 800248e:	4290      	cmp	r0, r2
 8002490:	d009      	beq.n	80024a6 <TIM_Base_SetConfig+0x1e>
 8002492:	2480      	movs	r4, #128	; 0x80
 8002494:	05e4      	lsls	r4, r4, #23
 8002496:	42a0      	cmp	r0, r4
 8002498:	d005      	beq.n	80024a6 <TIM_Base_SetConfig+0x1e>
 800249a:	4c20      	ldr	r4, [pc, #128]	; (800251c <TIM_Base_SetConfig+0x94>)
 800249c:	42a0      	cmp	r0, r4
 800249e:	d002      	beq.n	80024a6 <TIM_Base_SetConfig+0x1e>
 80024a0:	4c1f      	ldr	r4, [pc, #124]	; (8002520 <TIM_Base_SetConfig+0x98>)
 80024a2:	42a0      	cmp	r0, r4
 80024a4:	d10f      	bne.n	80024c6 <TIM_Base_SetConfig+0x3e>
 80024a6:	2470      	movs	r4, #112	; 0x70
 80024a8:	43a3      	bics	r3, r4
 80024aa:	684c      	ldr	r4, [r1, #4]
 80024ac:	4323      	orrs	r3, r4
 80024ae:	4290      	cmp	r0, r2
 80024b0:	d015      	beq.n	80024de <TIM_Base_SetConfig+0x56>
 80024b2:	2480      	movs	r4, #128	; 0x80
 80024b4:	05e4      	lsls	r4, r4, #23
 80024b6:	42a0      	cmp	r0, r4
 80024b8:	d011      	beq.n	80024de <TIM_Base_SetConfig+0x56>
 80024ba:	4c18      	ldr	r4, [pc, #96]	; (800251c <TIM_Base_SetConfig+0x94>)
 80024bc:	42a0      	cmp	r0, r4
 80024be:	d00e      	beq.n	80024de <TIM_Base_SetConfig+0x56>
 80024c0:	4c17      	ldr	r4, [pc, #92]	; (8002520 <TIM_Base_SetConfig+0x98>)
 80024c2:	42a0      	cmp	r0, r4
 80024c4:	d00b      	beq.n	80024de <TIM_Base_SetConfig+0x56>
 80024c6:	4c17      	ldr	r4, [pc, #92]	; (8002524 <TIM_Base_SetConfig+0x9c>)
 80024c8:	42a0      	cmp	r0, r4
 80024ca:	d008      	beq.n	80024de <TIM_Base_SetConfig+0x56>
 80024cc:	4c16      	ldr	r4, [pc, #88]	; (8002528 <TIM_Base_SetConfig+0xa0>)
 80024ce:	42a0      	cmp	r0, r4
 80024d0:	d005      	beq.n	80024de <TIM_Base_SetConfig+0x56>
 80024d2:	4c16      	ldr	r4, [pc, #88]	; (800252c <TIM_Base_SetConfig+0xa4>)
 80024d4:	42a0      	cmp	r0, r4
 80024d6:	d002      	beq.n	80024de <TIM_Base_SetConfig+0x56>
 80024d8:	4c15      	ldr	r4, [pc, #84]	; (8002530 <TIM_Base_SetConfig+0xa8>)
 80024da:	42a0      	cmp	r0, r4
 80024dc:	d103      	bne.n	80024e6 <TIM_Base_SetConfig+0x5e>
 80024de:	4c15      	ldr	r4, [pc, #84]	; (8002534 <TIM_Base_SetConfig+0xac>)
 80024e0:	4023      	ands	r3, r4
 80024e2:	68cc      	ldr	r4, [r1, #12]
 80024e4:	4323      	orrs	r3, r4
 80024e6:	2480      	movs	r4, #128	; 0x80
 80024e8:	43a3      	bics	r3, r4
 80024ea:	694c      	ldr	r4, [r1, #20]
 80024ec:	4323      	orrs	r3, r4
 80024ee:	6003      	str	r3, [r0, #0]
 80024f0:	688b      	ldr	r3, [r1, #8]
 80024f2:	62c3      	str	r3, [r0, #44]	; 0x2c
 80024f4:	680b      	ldr	r3, [r1, #0]
 80024f6:	6283      	str	r3, [r0, #40]	; 0x28
 80024f8:	4290      	cmp	r0, r2
 80024fa:	d008      	beq.n	800250e <TIM_Base_SetConfig+0x86>
 80024fc:	4b0a      	ldr	r3, [pc, #40]	; (8002528 <TIM_Base_SetConfig+0xa0>)
 80024fe:	4298      	cmp	r0, r3
 8002500:	d005      	beq.n	800250e <TIM_Base_SetConfig+0x86>
 8002502:	4b0a      	ldr	r3, [pc, #40]	; (800252c <TIM_Base_SetConfig+0xa4>)
 8002504:	4298      	cmp	r0, r3
 8002506:	d002      	beq.n	800250e <TIM_Base_SetConfig+0x86>
 8002508:	4b09      	ldr	r3, [pc, #36]	; (8002530 <TIM_Base_SetConfig+0xa8>)
 800250a:	4298      	cmp	r0, r3
 800250c:	d101      	bne.n	8002512 <TIM_Base_SetConfig+0x8a>
 800250e:	690b      	ldr	r3, [r1, #16]
 8002510:	6303      	str	r3, [r0, #48]	; 0x30
 8002512:	2301      	movs	r3, #1
 8002514:	6143      	str	r3, [r0, #20]
 8002516:	bd10      	pop	{r4, pc}
 8002518:	40012c00 	.word	0x40012c00
 800251c:	40000400 	.word	0x40000400
 8002520:	40000800 	.word	0x40000800
 8002524:	40002000 	.word	0x40002000
 8002528:	40014000 	.word	0x40014000
 800252c:	40014400 	.word	0x40014400
 8002530:	40014800 	.word	0x40014800
 8002534:	fffffcff 	.word	0xfffffcff

08002538 <HAL_TIM_Base_Init>:
 8002538:	b570      	push	{r4, r5, r6, lr}
 800253a:	0004      	movs	r4, r0
 800253c:	2001      	movs	r0, #1
 800253e:	2c00      	cmp	r4, #0
 8002540:	d023      	beq.n	800258a <HAL_TIM_Base_Init+0x52>
 8002542:	0025      	movs	r5, r4
 8002544:	353d      	adds	r5, #61	; 0x3d
 8002546:	782b      	ldrb	r3, [r5, #0]
 8002548:	b2da      	uxtb	r2, r3
 800254a:	2b00      	cmp	r3, #0
 800254c:	d105      	bne.n	800255a <HAL_TIM_Base_Init+0x22>
 800254e:	0023      	movs	r3, r4
 8002550:	333c      	adds	r3, #60	; 0x3c
 8002552:	0020      	movs	r0, r4
 8002554:	701a      	strb	r2, [r3, #0]
 8002556:	f7fe fb1f 	bl	8000b98 <HAL_TIM_Base_MspInit>
 800255a:	2302      	movs	r3, #2
 800255c:	702b      	strb	r3, [r5, #0]
 800255e:	6820      	ldr	r0, [r4, #0]
 8002560:	1d21      	adds	r1, r4, #4
 8002562:	f7ff ff91 	bl	8002488 <TIM_Base_SetConfig>
 8002566:	0022      	movs	r2, r4
 8002568:	2301      	movs	r3, #1
 800256a:	2000      	movs	r0, #0
 800256c:	3248      	adds	r2, #72	; 0x48
 800256e:	7013      	strb	r3, [r2, #0]
 8002570:	3447      	adds	r4, #71	; 0x47
 8002572:	3a0a      	subs	r2, #10
 8002574:	7013      	strb	r3, [r2, #0]
 8002576:	7053      	strb	r3, [r2, #1]
 8002578:	7093      	strb	r3, [r2, #2]
 800257a:	70d3      	strb	r3, [r2, #3]
 800257c:	7113      	strb	r3, [r2, #4]
 800257e:	7153      	strb	r3, [r2, #5]
 8002580:	7193      	strb	r3, [r2, #6]
 8002582:	71d3      	strb	r3, [r2, #7]
 8002584:	7213      	strb	r3, [r2, #8]
 8002586:	7023      	strb	r3, [r4, #0]
 8002588:	702b      	strb	r3, [r5, #0]
 800258a:	bd70      	pop	{r4, r5, r6, pc}

0800258c <TIM_ETR_SetConfig>:
 800258c:	b530      	push	{r4, r5, lr}
 800258e:	6884      	ldr	r4, [r0, #8]
 8002590:	4d03      	ldr	r5, [pc, #12]	; (80025a0 <TIM_ETR_SetConfig+0x14>)
 8002592:	430a      	orrs	r2, r1
 8002594:	021b      	lsls	r3, r3, #8
 8002596:	402c      	ands	r4, r5
 8002598:	4313      	orrs	r3, r2
 800259a:	4323      	orrs	r3, r4
 800259c:	6083      	str	r3, [r0, #8]
 800259e:	bd30      	pop	{r4, r5, pc}
 80025a0:	ffff00ff 	.word	0xffff00ff

080025a4 <HAL_TIM_ConfigClockSource>:
 80025a4:	b5f8      	push	{r3, r4, r5, r6, r7, lr}
 80025a6:	0005      	movs	r5, r0
 80025a8:	2302      	movs	r3, #2
 80025aa:	353c      	adds	r5, #60	; 0x3c
 80025ac:	0004      	movs	r4, r0
 80025ae:	7828      	ldrb	r0, [r5, #0]
 80025b0:	001a      	movs	r2, r3
 80025b2:	2801      	cmp	r0, #1
 80025b4:	d01d      	beq.n	80025f2 <HAL_TIM_ConfigClockSource+0x4e>
 80025b6:	0026      	movs	r6, r4
 80025b8:	2701      	movs	r7, #1
 80025ba:	363d      	adds	r6, #61	; 0x3d
 80025bc:	702f      	strb	r7, [r5, #0]
 80025be:	7033      	strb	r3, [r6, #0]
 80025c0:	6820      	ldr	r0, [r4, #0]
 80025c2:	4a47      	ldr	r2, [pc, #284]	; (80026e0 <HAL_TIM_ConfigClockSource+0x13c>)
 80025c4:	6883      	ldr	r3, [r0, #8]
 80025c6:	4013      	ands	r3, r2
 80025c8:	6083      	str	r3, [r0, #8]
 80025ca:	680b      	ldr	r3, [r1, #0]
 80025cc:	2b60      	cmp	r3, #96	; 0x60
 80025ce:	d058      	beq.n	8002682 <HAL_TIM_ConfigClockSource+0xde>
 80025d0:	d834      	bhi.n	800263c <HAL_TIM_ConfigClockSource+0x98>
 80025d2:	2b40      	cmp	r3, #64	; 0x40
 80025d4:	d100      	bne.n	80025d8 <HAL_TIM_ConfigClockSource+0x34>
 80025d6:	e06c      	b.n	80026b2 <HAL_TIM_ConfigClockSource+0x10e>
 80025d8:	d815      	bhi.n	8002606 <HAL_TIM_ConfigClockSource+0x62>
 80025da:	2b20      	cmp	r3, #32
 80025dc:	d00d      	beq.n	80025fa <HAL_TIM_ConfigClockSource+0x56>
 80025de:	d80a      	bhi.n	80025f6 <HAL_TIM_ConfigClockSource+0x52>
 80025e0:	2210      	movs	r2, #16
 80025e2:	0019      	movs	r1, r3
 80025e4:	4391      	bics	r1, r2
 80025e6:	d008      	beq.n	80025fa <HAL_TIM_ConfigClockSource+0x56>
 80025e8:	003a      	movs	r2, r7
 80025ea:	2301      	movs	r3, #1
 80025ec:	7033      	strb	r3, [r6, #0]
 80025ee:	2300      	movs	r3, #0
 80025f0:	702b      	strb	r3, [r5, #0]
 80025f2:	0010      	movs	r0, r2
 80025f4:	bdf8      	pop	{r3, r4, r5, r6, r7, pc}
 80025f6:	2b30      	cmp	r3, #48	; 0x30
 80025f8:	d1f6      	bne.n	80025e8 <HAL_TIM_ConfigClockSource+0x44>
 80025fa:	6882      	ldr	r2, [r0, #8]
 80025fc:	4939      	ldr	r1, [pc, #228]	; (80026e4 <HAL_TIM_ConfigClockSource+0x140>)
 80025fe:	400a      	ands	r2, r1
 8002600:	4313      	orrs	r3, r2
 8002602:	2207      	movs	r2, #7
 8002604:	e017      	b.n	8002636 <HAL_TIM_ConfigClockSource+0x92>
 8002606:	2b50      	cmp	r3, #80	; 0x50
 8002608:	d1ee      	bne.n	80025e8 <HAL_TIM_ConfigClockSource+0x44>
 800260a:	68ca      	ldr	r2, [r1, #12]
 800260c:	684c      	ldr	r4, [r1, #4]
 800260e:	6a01      	ldr	r1, [r0, #32]
 8002610:	6a03      	ldr	r3, [r0, #32]
 8002612:	43bb      	bics	r3, r7
 8002614:	27f0      	movs	r7, #240	; 0xf0
 8002616:	6203      	str	r3, [r0, #32]
 8002618:	6983      	ldr	r3, [r0, #24]
 800261a:	43bb      	bics	r3, r7
 800261c:	001f      	movs	r7, r3
 800261e:	0113      	lsls	r3, r2, #4
 8002620:	220a      	movs	r2, #10
 8002622:	4391      	bics	r1, r2
 8002624:	000a      	movs	r2, r1
 8002626:	433b      	orrs	r3, r7
 8002628:	4322      	orrs	r2, r4
 800262a:	6183      	str	r3, [r0, #24]
 800262c:	6202      	str	r2, [r0, #32]
 800262e:	6883      	ldr	r3, [r0, #8]
 8002630:	4a2c      	ldr	r2, [pc, #176]	; (80026e4 <HAL_TIM_ConfigClockSource+0x140>)
 8002632:	401a      	ands	r2, r3
 8002634:	2357      	movs	r3, #87	; 0x57
 8002636:	4313      	orrs	r3, r2
 8002638:	6083      	str	r3, [r0, #8]
 800263a:	e016      	b.n	800266a <HAL_TIM_ConfigClockSource+0xc6>
 800263c:	2280      	movs	r2, #128	; 0x80
 800263e:	0152      	lsls	r2, r2, #5
 8002640:	4694      	mov	ip, r2
 8002642:	2200      	movs	r2, #0
 8002644:	4563      	cmp	r3, ip
 8002646:	d0d0      	beq.n	80025ea <HAL_TIM_ConfigClockSource+0x46>
 8002648:	2280      	movs	r2, #128	; 0x80
 800264a:	0192      	lsls	r2, r2, #6
 800264c:	4293      	cmp	r3, r2
 800264e:	d00e      	beq.n	800266e <HAL_TIM_ConfigClockSource+0xca>
 8002650:	003a      	movs	r2, r7
 8002652:	2b70      	cmp	r3, #112	; 0x70
 8002654:	d1c9      	bne.n	80025ea <HAL_TIM_ConfigClockSource+0x46>
 8002656:	68cb      	ldr	r3, [r1, #12]
 8002658:	684a      	ldr	r2, [r1, #4]
 800265a:	6889      	ldr	r1, [r1, #8]
 800265c:	f7ff ff96 	bl	800258c <TIM_ETR_SetConfig>
 8002660:	2377      	movs	r3, #119	; 0x77
 8002662:	6822      	ldr	r2, [r4, #0]
 8002664:	6891      	ldr	r1, [r2, #8]
 8002666:	430b      	orrs	r3, r1
 8002668:	6093      	str	r3, [r2, #8]
 800266a:	2200      	movs	r2, #0
 800266c:	e7bd      	b.n	80025ea <HAL_TIM_ConfigClockSource+0x46>
 800266e:	68cb      	ldr	r3, [r1, #12]
 8002670:	684a      	ldr	r2, [r1, #4]
 8002672:	6889      	ldr	r1, [r1, #8]
 8002674:	f7ff ff8a 	bl	800258c <TIM_ETR_SetConfig>
 8002678:	2380      	movs	r3, #128	; 0x80
 800267a:	6822      	ldr	r2, [r4, #0]
 800267c:	01db      	lsls	r3, r3, #7
 800267e:	6891      	ldr	r1, [r2, #8]
 8002680:	e7f1      	b.n	8002666 <HAL_TIM_ConfigClockSource+0xc2>
 8002682:	684a      	ldr	r2, [r1, #4]
 8002684:	68cf      	ldr	r7, [r1, #12]
 8002686:	2110      	movs	r1, #16
 8002688:	6a03      	ldr	r3, [r0, #32]
 800268a:	4c17      	ldr	r4, [pc, #92]	; (80026e8 <HAL_TIM_ConfigClockSource+0x144>)
 800268c:	438b      	bics	r3, r1
 800268e:	6203      	str	r3, [r0, #32]
 8002690:	6981      	ldr	r1, [r0, #24]
 8002692:	6a03      	ldr	r3, [r0, #32]
 8002694:	4021      	ands	r1, r4
 8002696:	24a0      	movs	r4, #160	; 0xa0
 8002698:	43a3      	bics	r3, r4
 800269a:	001c      	movs	r4, r3
 800269c:	033f      	lsls	r7, r7, #12
 800269e:	0113      	lsls	r3, r2, #4
 80026a0:	4323      	orrs	r3, r4
 80026a2:	4339      	orrs	r1, r7
 80026a4:	6181      	str	r1, [r0, #24]
 80026a6:	6203      	str	r3, [r0, #32]
 80026a8:	6883      	ldr	r3, [r0, #8]
 80026aa:	4a0e      	ldr	r2, [pc, #56]	; (80026e4 <HAL_TIM_ConfigClockSource+0x140>)
 80026ac:	401a      	ands	r2, r3
 80026ae:	2367      	movs	r3, #103	; 0x67
 80026b0:	e7c1      	b.n	8002636 <HAL_TIM_ConfigClockSource+0x92>
 80026b2:	68ca      	ldr	r2, [r1, #12]
 80026b4:	684c      	ldr	r4, [r1, #4]
 80026b6:	6a01      	ldr	r1, [r0, #32]
 80026b8:	6a03      	ldr	r3, [r0, #32]
 80026ba:	43bb      	bics	r3, r7
 80026bc:	27f0      	movs	r7, #240	; 0xf0
 80026be:	6203      	str	r3, [r0, #32]
 80026c0:	6983      	ldr	r3, [r0, #24]
 80026c2:	43bb      	bics	r3, r7
 80026c4:	001f      	movs	r7, r3
 80026c6:	0113      	lsls	r3, r2, #4
 80026c8:	220a      	movs	r2, #10
 80026ca:	4391      	bics	r1, r2
 80026cc:	000a      	movs	r2, r1
 80026ce:	433b      	orrs	r3, r7
 80026d0:	4322      	orrs	r2, r4
 80026d2:	6183      	str	r3, [r0, #24]
 80026d4:	6202      	str	r2, [r0, #32]
 80026d6:	6883      	ldr	r3, [r0, #8]
 80026d8:	4a02      	ldr	r2, [pc, #8]	; (80026e4 <HAL_TIM_ConfigClockSource+0x140>)
 80026da:	401a      	ands	r2, r3
 80026dc:	2347      	movs	r3, #71	; 0x47
 80026de:	e7aa      	b.n	8002636 <HAL_TIM_ConfigClockSource+0x92>
 80026e0:	ffce0088 	.word	0xffce0088
 80026e4:	ffcfff8f 	.word	0xffcfff8f
 80026e8:	ffff0fff 	.word	0xffff0fff

080026ec <HAL_TIMEx_MasterConfigSynchronization>:
 80026ec:	b5f0      	push	{r4, r5, r6, r7, lr}
 80026ee:	0004      	movs	r4, r0
 80026f0:	2202      	movs	r2, #2
 80026f2:	343c      	adds	r4, #60	; 0x3c
 80026f4:	7825      	ldrb	r5, [r4, #0]
 80026f6:	0003      	movs	r3, r0
 80026f8:	0010      	movs	r0, r2
 80026fa:	2d01      	cmp	r5, #1
 80026fc:	d029      	beq.n	8002752 <HAL_TIMEx_MasterConfigSynchronization+0x66>
 80026fe:	001d      	movs	r5, r3
 8002700:	353d      	adds	r5, #61	; 0x3d
 8002702:	702a      	strb	r2, [r5, #0]
 8002704:	681b      	ldr	r3, [r3, #0]
 8002706:	4e13      	ldr	r6, [pc, #76]	; (8002754 <HAL_TIMEx_MasterConfigSynchronization+0x68>)
 8002708:	685a      	ldr	r2, [r3, #4]
 800270a:	6898      	ldr	r0, [r3, #8]
 800270c:	42b3      	cmp	r3, r6
 800270e:	d103      	bne.n	8002718 <HAL_TIMEx_MasterConfigSynchronization+0x2c>
 8002710:	4f11      	ldr	r7, [pc, #68]	; (8002758 <HAL_TIMEx_MasterConfigSynchronization+0x6c>)
 8002712:	403a      	ands	r2, r7
 8002714:	684f      	ldr	r7, [r1, #4]
 8002716:	433a      	orrs	r2, r7
 8002718:	2770      	movs	r7, #112	; 0x70
 800271a:	43ba      	bics	r2, r7
 800271c:	680f      	ldr	r7, [r1, #0]
 800271e:	433a      	orrs	r2, r7
 8002720:	605a      	str	r2, [r3, #4]
 8002722:	42b3      	cmp	r3, r6
 8002724:	d00c      	beq.n	8002740 <HAL_TIMEx_MasterConfigSynchronization+0x54>
 8002726:	2280      	movs	r2, #128	; 0x80
 8002728:	05d2      	lsls	r2, r2, #23
 800272a:	4293      	cmp	r3, r2
 800272c:	d008      	beq.n	8002740 <HAL_TIMEx_MasterConfigSynchronization+0x54>
 800272e:	4a0b      	ldr	r2, [pc, #44]	; (800275c <HAL_TIMEx_MasterConfigSynchronization+0x70>)
 8002730:	4293      	cmp	r3, r2
 8002732:	d005      	beq.n	8002740 <HAL_TIMEx_MasterConfigSynchronization+0x54>
 8002734:	4a0a      	ldr	r2, [pc, #40]	; (8002760 <HAL_TIMEx_MasterConfigSynchronization+0x74>)
 8002736:	4293      	cmp	r3, r2
 8002738:	d002      	beq.n	8002740 <HAL_TIMEx_MasterConfigSynchronization+0x54>
 800273a:	4a0a      	ldr	r2, [pc, #40]	; (8002764 <HAL_TIMEx_MasterConfigSynchronization+0x78>)
 800273c:	4293      	cmp	r3, r2
 800273e:	d104      	bne.n	800274a <HAL_TIMEx_MasterConfigSynchronization+0x5e>
 8002740:	2280      	movs	r2, #128	; 0x80
 8002742:	4390      	bics	r0, r2
 8002744:	688a      	ldr	r2, [r1, #8]
 8002746:	4310      	orrs	r0, r2
 8002748:	6098      	str	r0, [r3, #8]
 800274a:	2301      	movs	r3, #1
 800274c:	2000      	movs	r0, #0
 800274e:	702b      	strb	r3, [r5, #0]
 8002750:	7020      	strb	r0, [r4, #0]
 8002752:	bdf0      	pop	{r4, r5, r6, r7, pc}
 8002754:	40012c00 	.word	0x40012c00
 8002758:	ff0fffff 	.word	0xff0fffff
 800275c:	40000400 	.word	0x40000400
 8002760:	40000800 	.word	0x40000800
 8002764:	40014000 	.word	0x40014000

08002768 <UART_SetConfig>:
 8002768:	b5f8      	push	{r3, r4, r5, r6, r7, lr}
 800276a:	0004      	movs	r4, r0
 800276c:	6925      	ldr	r5, [r4, #16]
 800276e:	68a1      	ldr	r1, [r4, #8]
 8002770:	6803      	ldr	r3, [r0, #0]
 8002772:	4329      	orrs	r1, r5
 8002774:	6965      	ldr	r5, [r4, #20]
 8002776:	69c2      	ldr	r2, [r0, #28]
 8002778:	4329      	orrs	r1, r5
 800277a:	6818      	ldr	r0, [r3, #0]
 800277c:	4d9e      	ldr	r5, [pc, #632]	; (80029f8 <UART_SetConfig+0x290>)
 800277e:	4311      	orrs	r1, r2
 8002780:	4028      	ands	r0, r5
 8002782:	4301      	orrs	r1, r0
 8002784:	6019      	str	r1, [r3, #0]
 8002786:	6859      	ldr	r1, [r3, #4]
 8002788:	489c      	ldr	r0, [pc, #624]	; (80029fc <UART_SetConfig+0x294>)
 800278a:	69a5      	ldr	r5, [r4, #24]
 800278c:	4001      	ands	r1, r0
 800278e:	68e0      	ldr	r0, [r4, #12]
 8002790:	4301      	orrs	r1, r0
 8002792:	489b      	ldr	r0, [pc, #620]	; (8002a00 <UART_SetConfig+0x298>)
 8002794:	6059      	str	r1, [r3, #4]
 8002796:	4283      	cmp	r3, r0
 8002798:	d004      	beq.n	80027a4 <UART_SetConfig+0x3c>
 800279a:	499a      	ldr	r1, [pc, #616]	; (8002a04 <UART_SetConfig+0x29c>)
 800279c:	428b      	cmp	r3, r1
 800279e:	d001      	beq.n	80027a4 <UART_SetConfig+0x3c>
 80027a0:	6a21      	ldr	r1, [r4, #32]
 80027a2:	430d      	orrs	r5, r1
 80027a4:	6899      	ldr	r1, [r3, #8]
 80027a6:	4e98      	ldr	r6, [pc, #608]	; (8002a08 <UART_SetConfig+0x2a0>)
 80027a8:	4031      	ands	r1, r6
 80027aa:	4329      	orrs	r1, r5
 80027ac:	250f      	movs	r5, #15
 80027ae:	6099      	str	r1, [r3, #8]
 80027b0:	6ad9      	ldr	r1, [r3, #44]	; 0x2c
 80027b2:	43a9      	bics	r1, r5
 80027b4:	6a65      	ldr	r5, [r4, #36]	; 0x24
 80027b6:	4329      	orrs	r1, r5
 80027b8:	62d9      	str	r1, [r3, #44]	; 0x2c
 80027ba:	4994      	ldr	r1, [pc, #592]	; (8002a0c <UART_SetConfig+0x2a4>)
 80027bc:	428b      	cmp	r3, r1
 80027be:	d116      	bne.n	80027ee <UART_SetConfig+0x86>
 80027c0:	2103      	movs	r1, #3
 80027c2:	4b93      	ldr	r3, [pc, #588]	; (8002a10 <UART_SetConfig+0x2a8>)
 80027c4:	2000      	movs	r0, #0
 80027c6:	6d5b      	ldr	r3, [r3, #84]	; 0x54
 80027c8:	400b      	ands	r3, r1
 80027ca:	3b01      	subs	r3, #1
 80027cc:	4991      	ldr	r1, [pc, #580]	; (8002a14 <UART_SetConfig+0x2ac>)
 80027ce:	2b02      	cmp	r3, #2
 80027d0:	d915      	bls.n	80027fe <UART_SetConfig+0x96>
 80027d2:	2380      	movs	r3, #128	; 0x80
 80027d4:	021b      	lsls	r3, r3, #8
 80027d6:	429a      	cmp	r2, r3
 80027d8:	d000      	beq.n	80027dc <UART_SetConfig+0x74>
 80027da:	e0a7      	b.n	800292c <UART_SetConfig+0x1c4>
 80027dc:	2808      	cmp	r0, #8
 80027de:	d821      	bhi.n	8002824 <UART_SetConfig+0xbc>
 80027e0:	f7fd fc90 	bl	8000104 <__gnu_thumb1_case_uqi>
 80027e4:	20a220dd 	.word	0x20a220dd
 80027e8:	202020d0 	.word	0x202020d0
 80027ec:	e2          	.byte	0xe2
 80027ed:	00          	.byte	0x00
 80027ee:	498a      	ldr	r1, [pc, #552]	; (8002a18 <UART_SetConfig+0x2b0>)
 80027f0:	428b      	cmp	r3, r1
 80027f2:	d106      	bne.n	8002802 <UART_SetConfig+0x9a>
 80027f4:	210c      	movs	r1, #12
 80027f6:	4b86      	ldr	r3, [pc, #536]	; (8002a10 <UART_SetConfig+0x2a8>)
 80027f8:	6d5b      	ldr	r3, [r3, #84]	; 0x54
 80027fa:	400b      	ands	r3, r1
 80027fc:	4987      	ldr	r1, [pc, #540]	; (8002a1c <UART_SetConfig+0x2b4>)
 80027fe:	5cc8      	ldrb	r0, [r1, r3]
 8002800:	e7e7      	b.n	80027d2 <UART_SetConfig+0x6a>
 8002802:	4987      	ldr	r1, [pc, #540]	; (8002a20 <UART_SetConfig+0x2b8>)
 8002804:	428b      	cmp	r3, r1
 8002806:	d117      	bne.n	8002838 <UART_SetConfig+0xd0>
 8002808:	2030      	movs	r0, #48	; 0x30
 800280a:	4981      	ldr	r1, [pc, #516]	; (8002a10 <UART_SetConfig+0x2a8>)
 800280c:	6d49      	ldr	r1, [r1, #84]	; 0x54
 800280e:	4001      	ands	r1, r0
 8002810:	2920      	cmp	r1, #32
 8002812:	d100      	bne.n	8002816 <UART_SetConfig+0xae>
 8002814:	e0b9      	b.n	800298a <UART_SetConfig+0x222>
 8002816:	d807      	bhi.n	8002828 <UART_SetConfig+0xc0>
 8002818:	2900      	cmp	r1, #0
 800281a:	d100      	bne.n	800281e <UART_SetConfig+0xb6>
 800281c:	e0e2      	b.n	80029e4 <UART_SetConfig+0x27c>
 800281e:	2910      	cmp	r1, #16
 8002820:	d100      	bne.n	8002824 <UART_SetConfig+0xbc>
 8002822:	e0ab      	b.n	800297c <UART_SetConfig+0x214>
 8002824:	2001      	movs	r0, #1
 8002826:	e04b      	b.n	80028c0 <UART_SetConfig+0x158>
 8002828:	2930      	cmp	r1, #48	; 0x30
 800282a:	d1fb      	bne.n	8002824 <UART_SetConfig+0xbc>
 800282c:	2080      	movs	r0, #128	; 0x80
 800282e:	0200      	lsls	r0, r0, #8
 8002830:	4282      	cmp	r2, r0
 8002832:	d000      	beq.n	8002836 <UART_SetConfig+0xce>
 8002834:	e08a      	b.n	800294c <UART_SetConfig+0x1e4>
 8002836:	e0b7      	b.n	80029a8 <UART_SetConfig+0x240>
 8002838:	497a      	ldr	r1, [pc, #488]	; (8002a24 <UART_SetConfig+0x2bc>)
 800283a:	428b      	cmp	r3, r1
 800283c:	d100      	bne.n	8002840 <UART_SetConfig+0xd8>
 800283e:	e0aa      	b.n	8002996 <UART_SetConfig+0x22e>
 8002840:	4979      	ldr	r1, [pc, #484]	; (8002a28 <UART_SetConfig+0x2c0>)
 8002842:	428b      	cmp	r3, r1
 8002844:	d100      	bne.n	8002848 <UART_SetConfig+0xe0>
 8002846:	e0a6      	b.n	8002996 <UART_SetConfig+0x22e>
 8002848:	4978      	ldr	r1, [pc, #480]	; (8002a2c <UART_SetConfig+0x2c4>)
 800284a:	428b      	cmp	r3, r1
 800284c:	d100      	bne.n	8002850 <UART_SetConfig+0xe8>
 800284e:	e0a2      	b.n	8002996 <UART_SetConfig+0x22e>
 8002850:	4283      	cmp	r3, r0
 8002852:	d117      	bne.n	8002884 <UART_SetConfig+0x11c>
 8002854:	22c0      	movs	r2, #192	; 0xc0
 8002856:	2180      	movs	r1, #128	; 0x80
 8002858:	4b6d      	ldr	r3, [pc, #436]	; (8002a10 <UART_SetConfig+0x2a8>)
 800285a:	0112      	lsls	r2, r2, #4
 800285c:	6d5b      	ldr	r3, [r3, #84]	; 0x54
 800285e:	0109      	lsls	r1, r1, #4
 8002860:	4013      	ands	r3, r2
 8002862:	428b      	cmp	r3, r1
 8002864:	d032      	beq.n	80028cc <UART_SetConfig+0x164>
 8002866:	d808      	bhi.n	800287a <UART_SetConfig+0x112>
 8002868:	2b00      	cmp	r3, #0
 800286a:	d024      	beq.n	80028b6 <UART_SetConfig+0x14e>
 800286c:	2280      	movs	r2, #128	; 0x80
 800286e:	00d2      	lsls	r2, r2, #3
 8002870:	4293      	cmp	r3, r2
 8002872:	d1d7      	bne.n	8002824 <UART_SetConfig+0xbc>
 8002874:	f7ff fbae 	bl	8001fd4 <HAL_RCC_GetSysClockFreq>
 8002878:	e01f      	b.n	80028ba <UART_SetConfig+0x152>
 800287a:	4293      	cmp	r3, r2
 800287c:	d1d2      	bne.n	8002824 <UART_SetConfig+0xbc>
 800287e:	2680      	movs	r6, #128	; 0x80
 8002880:	0236      	lsls	r6, r6, #8
 8002882:	e024      	b.n	80028ce <UART_SetConfig+0x166>
 8002884:	495f      	ldr	r1, [pc, #380]	; (8002a04 <UART_SetConfig+0x29c>)
 8002886:	2001      	movs	r0, #1
 8002888:	428b      	cmp	r3, r1
 800288a:	d119      	bne.n	80028c0 <UART_SetConfig+0x158>
 800288c:	20c0      	movs	r0, #192	; 0xc0
 800288e:	2580      	movs	r5, #128	; 0x80
 8002890:	495f      	ldr	r1, [pc, #380]	; (8002a10 <UART_SetConfig+0x2a8>)
 8002892:	0080      	lsls	r0, r0, #2
 8002894:	6d49      	ldr	r1, [r1, #84]	; 0x54
 8002896:	00ad      	lsls	r5, r5, #2
 8002898:	4001      	ands	r1, r0
 800289a:	42a9      	cmp	r1, r5
 800289c:	d016      	beq.n	80028cc <UART_SetConfig+0x164>
 800289e:	d807      	bhi.n	80028b0 <UART_SetConfig+0x148>
 80028a0:	2900      	cmp	r1, #0
 80028a2:	d100      	bne.n	80028a6 <UART_SetConfig+0x13e>
 80028a4:	e09e      	b.n	80029e4 <UART_SetConfig+0x27c>
 80028a6:	2380      	movs	r3, #128	; 0x80
 80028a8:	005b      	lsls	r3, r3, #1
 80028aa:	4299      	cmp	r1, r3
 80028ac:	d0e2      	beq.n	8002874 <UART_SetConfig+0x10c>
 80028ae:	e7b9      	b.n	8002824 <UART_SetConfig+0xbc>
 80028b0:	4281      	cmp	r1, r0
 80028b2:	d0e4      	beq.n	800287e <UART_SetConfig+0x116>
 80028b4:	e7b6      	b.n	8002824 <UART_SetConfig+0xbc>
 80028b6:	f7ff fc81 	bl	80021bc <HAL_RCC_GetPCLK1Freq>
 80028ba:	1e06      	subs	r6, r0, #0
 80028bc:	d107      	bne.n	80028ce <UART_SetConfig+0x166>
 80028be:	2000      	movs	r0, #0
 80028c0:	4b5b      	ldr	r3, [pc, #364]	; (8002a30 <UART_SetConfig+0x2c8>)
 80028c2:	66a3      	str	r3, [r4, #104]	; 0x68
 80028c4:	2300      	movs	r3, #0
 80028c6:	6763      	str	r3, [r4, #116]	; 0x74
 80028c8:	67a3      	str	r3, [r4, #120]	; 0x78
 80028ca:	bdf8      	pop	{r3, r4, r5, r6, r7, pc}
 80028cc:	4e59      	ldr	r6, [pc, #356]	; (8002a34 <UART_SetConfig+0x2cc>)
 80028ce:	6a63      	ldr	r3, [r4, #36]	; 0x24
 80028d0:	4a59      	ldr	r2, [pc, #356]	; (8002a38 <UART_SetConfig+0x2d0>)
 80028d2:	005b      	lsls	r3, r3, #1
 80028d4:	5a9f      	ldrh	r7, [r3, r2]
 80028d6:	0030      	movs	r0, r6
 80028d8:	0039      	movs	r1, r7
 80028da:	f7fd fc27 	bl	800012c <__udivsi3>
 80028de:	2303      	movs	r3, #3
 80028e0:	6865      	ldr	r5, [r4, #4]
 80028e2:	436b      	muls	r3, r5
 80028e4:	4283      	cmp	r3, r0
 80028e6:	d89d      	bhi.n	8002824 <UART_SetConfig+0xbc>
 80028e8:	032b      	lsls	r3, r5, #12
 80028ea:	4283      	cmp	r3, r0
 80028ec:	d39a      	bcc.n	8002824 <UART_SetConfig+0xbc>
 80028ee:	2300      	movs	r3, #0
 80028f0:	003a      	movs	r2, r7
 80028f2:	0030      	movs	r0, r6
 80028f4:	0019      	movs	r1, r3
 80028f6:	f7fd fd8f 	bl	8000418 <__aeabi_uldivmod>
 80028fa:	2700      	movs	r7, #0
 80028fc:	0e06      	lsrs	r6, r0, #24
 80028fe:	020b      	lsls	r3, r1, #8
 8002900:	4333      	orrs	r3, r6
 8002902:	0202      	lsls	r2, r0, #8
 8002904:	086e      	lsrs	r6, r5, #1
 8002906:	1992      	adds	r2, r2, r6
 8002908:	417b      	adcs	r3, r7
 800290a:	0010      	movs	r0, r2
 800290c:	0019      	movs	r1, r3
 800290e:	002a      	movs	r2, r5
 8002910:	003b      	movs	r3, r7
 8002912:	f7fd fd81 	bl	8000418 <__aeabi_uldivmod>
 8002916:	4b49      	ldr	r3, [pc, #292]	; (8002a3c <UART_SetConfig+0x2d4>)
 8002918:	18c2      	adds	r2, r0, r3
 800291a:	4b49      	ldr	r3, [pc, #292]	; (8002a40 <UART_SetConfig+0x2d8>)
 800291c:	429a      	cmp	r2, r3
 800291e:	d900      	bls.n	8002922 <UART_SetConfig+0x1ba>
 8002920:	e780      	b.n	8002824 <UART_SetConfig+0xbc>
 8002922:	6823      	ldr	r3, [r4, #0]
 8002924:	60d8      	str	r0, [r3, #12]
 8002926:	e7ca      	b.n	80028be <UART_SetConfig+0x156>
 8002928:	4a42      	ldr	r2, [pc, #264]	; (8002a34 <UART_SetConfig+0x2cc>)
 800292a:	e03d      	b.n	80029a8 <UART_SetConfig+0x240>
 800292c:	2808      	cmp	r0, #8
 800292e:	d900      	bls.n	8002932 <UART_SetConfig+0x1ca>
 8002930:	e778      	b.n	8002824 <UART_SetConfig+0xbc>
 8002932:	f7fd fbf1 	bl	8000118 <__gnu_thumb1_case_shi>
 8002936:	001b      	.short	0x001b
 8002938:	002eff77 	.word	0x002eff77
 800293c:	0020ff77 	.word	0x0020ff77
 8002940:	ff77ff77 	.word	0xff77ff77
 8002944:	0009ff77 	.word	0x0009ff77
 8002948:	2080      	movs	r0, #128	; 0x80
 800294a:	0200      	lsls	r0, r0, #8
 800294c:	6a63      	ldr	r3, [r4, #36]	; 0x24
 800294e:	4a3a      	ldr	r2, [pc, #232]	; (8002a38 <UART_SetConfig+0x2d0>)
 8002950:	005b      	lsls	r3, r3, #1
 8002952:	5a99      	ldrh	r1, [r3, r2]
 8002954:	f7fd fbea 	bl	800012c <__udivsi3>
 8002958:	6865      	ldr	r5, [r4, #4]
 800295a:	086b      	lsrs	r3, r5, #1
 800295c:	18c0      	adds	r0, r0, r3
 800295e:	0029      	movs	r1, r5
 8002960:	f7fd fbe4 	bl	800012c <__udivsi3>
 8002964:	0002      	movs	r2, r0
 8002966:	4b37      	ldr	r3, [pc, #220]	; (8002a44 <UART_SetConfig+0x2dc>)
 8002968:	3a10      	subs	r2, #16
 800296a:	e7d7      	b.n	800291c <UART_SetConfig+0x1b4>
 800296c:	f7ff fc26 	bl	80021bc <HAL_RCC_GetPCLK1Freq>
 8002970:	2800      	cmp	r0, #0
 8002972:	d0a4      	beq.n	80028be <UART_SetConfig+0x156>
 8002974:	e7ea      	b.n	800294c <UART_SetConfig+0x1e4>
 8002976:	f7ff fb2d 	bl	8001fd4 <HAL_RCC_GetSysClockFreq>
 800297a:	e7f9      	b.n	8002970 <UART_SetConfig+0x208>
 800297c:	2380      	movs	r3, #128	; 0x80
 800297e:	021b      	lsls	r3, r3, #8
 8002980:	429a      	cmp	r2, r3
 8002982:	d1f8      	bne.n	8002976 <UART_SetConfig+0x20e>
 8002984:	f7ff fb26 	bl	8001fd4 <HAL_RCC_GetSysClockFreq>
 8002988:	e00b      	b.n	80029a2 <UART_SetConfig+0x23a>
 800298a:	2380      	movs	r3, #128	; 0x80
 800298c:	021b      	lsls	r3, r3, #8
 800298e:	429a      	cmp	r2, r3
 8002990:	d0ca      	beq.n	8002928 <UART_SetConfig+0x1c0>
 8002992:	4828      	ldr	r0, [pc, #160]	; (8002a34 <UART_SetConfig+0x2cc>)
 8002994:	e7da      	b.n	800294c <UART_SetConfig+0x1e4>
 8002996:	2380      	movs	r3, #128	; 0x80
 8002998:	021b      	lsls	r3, r3, #8
 800299a:	429a      	cmp	r2, r3
 800299c:	d1e6      	bne.n	800296c <UART_SetConfig+0x204>
 800299e:	f7ff fc0d 	bl	80021bc <HAL_RCC_GetPCLK1Freq>
 80029a2:	1e02      	subs	r2, r0, #0
 80029a4:	d100      	bne.n	80029a8 <UART_SetConfig+0x240>
 80029a6:	e78a      	b.n	80028be <UART_SetConfig+0x156>
 80029a8:	6a63      	ldr	r3, [r4, #36]	; 0x24
 80029aa:	4923      	ldr	r1, [pc, #140]	; (8002a38 <UART_SetConfig+0x2d0>)
 80029ac:	005b      	lsls	r3, r3, #1
 80029ae:	0010      	movs	r0, r2
 80029b0:	5a59      	ldrh	r1, [r3, r1]
 80029b2:	f7fd fbbb 	bl	800012c <__udivsi3>
 80029b6:	6865      	ldr	r5, [r4, #4]
 80029b8:	0040      	lsls	r0, r0, #1
 80029ba:	086b      	lsrs	r3, r5, #1
 80029bc:	18c0      	adds	r0, r0, r3
 80029be:	0029      	movs	r1, r5
 80029c0:	f7fd fbb4 	bl	800012c <__udivsi3>
 80029c4:	0002      	movs	r2, r0
 80029c6:	4b1f      	ldr	r3, [pc, #124]	; (8002a44 <UART_SetConfig+0x2dc>)
 80029c8:	3a10      	subs	r2, #16
 80029ca:	429a      	cmp	r2, r3
 80029cc:	d900      	bls.n	80029d0 <UART_SetConfig+0x268>
 80029ce:	e729      	b.n	8002824 <UART_SetConfig+0xbc>
 80029d0:	230f      	movs	r3, #15
 80029d2:	0002      	movs	r2, r0
 80029d4:	0700      	lsls	r0, r0, #28
 80029d6:	439a      	bics	r2, r3
 80029d8:	b293      	uxth	r3, r2
 80029da:	0f40      	lsrs	r0, r0, #29
 80029dc:	6822      	ldr	r2, [r4, #0]
 80029de:	4318      	orrs	r0, r3
 80029e0:	60d0      	str	r0, [r2, #12]
 80029e2:	e76c      	b.n	80028be <UART_SetConfig+0x156>
 80029e4:	4907      	ldr	r1, [pc, #28]	; (8002a04 <UART_SetConfig+0x29c>)
 80029e6:	428b      	cmp	r3, r1
 80029e8:	d100      	bne.n	80029ec <UART_SetConfig+0x284>
 80029ea:	e764      	b.n	80028b6 <UART_SetConfig+0x14e>
 80029ec:	2380      	movs	r3, #128	; 0x80
 80029ee:	2000      	movs	r0, #0
 80029f0:	021b      	lsls	r3, r3, #8
 80029f2:	429a      	cmp	r2, r3
 80029f4:	d19d      	bne.n	8002932 <UART_SetConfig+0x1ca>
 80029f6:	e7d2      	b.n	800299e <UART_SetConfig+0x236>
 80029f8:	cfff69f3 	.word	0xcfff69f3
 80029fc:	ffffcfff 	.word	0xffffcfff
 8002a00:	40008000 	.word	0x40008000
 8002a04:	40008400 	.word	0x40008400
 8002a08:	11fff4ff 	.word	0x11fff4ff
 8002a0c:	40013800 	.word	0x40013800
 8002a10:	40021000 	.word	0x40021000
 8002a14:	08002ea4 	.word	0x08002ea4
 8002a18:	40004400 	.word	0x40004400
 8002a1c:	08002ea7 	.word	0x08002ea7
 8002a20:	40004800 	.word	0x40004800
 8002a24:	40004c00 	.word	0x40004c00
 8002a28:	40005000 	.word	0x40005000
 8002a2c:	40013c00 	.word	0x40013c00
 8002a30:	00010001 	.word	0x00010001
 8002a34:	00f42400 	.word	0x00f42400
 8002a38:	08002eb4 	.word	0x08002eb4
 8002a3c:	fffffd00 	.word	0xfffffd00
 8002a40:	000ffcff 	.word	0x000ffcff
 8002a44:	0000ffef 	.word	0x0000ffef

08002a48 <UART_AdvFeatureConfig>:
 8002a48:	6a83      	ldr	r3, [r0, #40]	; 0x28
 8002a4a:	b530      	push	{r4, r5, lr}
 8002a4c:	07da      	lsls	r2, r3, #31
 8002a4e:	d506      	bpl.n	8002a5e <UART_AdvFeatureConfig+0x16>
 8002a50:	6801      	ldr	r1, [r0, #0]
 8002a52:	4c28      	ldr	r4, [pc, #160]	; (8002af4 <UART_AdvFeatureConfig+0xac>)
 8002a54:	684a      	ldr	r2, [r1, #4]
 8002a56:	4022      	ands	r2, r4
 8002a58:	6ac4      	ldr	r4, [r0, #44]	; 0x2c
 8002a5a:	4322      	orrs	r2, r4
 8002a5c:	604a      	str	r2, [r1, #4]
 8002a5e:	079a      	lsls	r2, r3, #30
 8002a60:	d506      	bpl.n	8002a70 <UART_AdvFeatureConfig+0x28>
 8002a62:	6801      	ldr	r1, [r0, #0]
 8002a64:	4c24      	ldr	r4, [pc, #144]	; (8002af8 <UART_AdvFeatureConfig+0xb0>)
 8002a66:	684a      	ldr	r2, [r1, #4]
 8002a68:	4022      	ands	r2, r4
 8002a6a:	6b04      	ldr	r4, [r0, #48]	; 0x30
 8002a6c:	4322      	orrs	r2, r4
 8002a6e:	604a      	str	r2, [r1, #4]
 8002a70:	075a      	lsls	r2, r3, #29
 8002a72:	d506      	bpl.n	8002a82 <UART_AdvFeatureConfig+0x3a>
 8002a74:	6801      	ldr	r1, [r0, #0]
 8002a76:	4c21      	ldr	r4, [pc, #132]	; (8002afc <UART_AdvFeatureConfig+0xb4>)
 8002a78:	684a      	ldr	r2, [r1, #4]
 8002a7a:	4022      	ands	r2, r4
 8002a7c:	6b44      	ldr	r4, [r0, #52]	; 0x34
 8002a7e:	4322      	orrs	r2, r4
 8002a80:	604a      	str	r2, [r1, #4]
 8002a82:	071a      	lsls	r2, r3, #28
 8002a84:	d506      	bpl.n	8002a94 <UART_AdvFeatureConfig+0x4c>
 8002a86:	6801      	ldr	r1, [r0, #0]
 8002a88:	4c1d      	ldr	r4, [pc, #116]	; (8002b00 <UART_AdvFeatureConfig+0xb8>)
 8002a8a:	684a      	ldr	r2, [r1, #4]
 8002a8c:	4022      	ands	r2, r4
 8002a8e:	6b84      	ldr	r4, [r0, #56]	; 0x38
 8002a90:	4322      	orrs	r2, r4
 8002a92:	604a      	str	r2, [r1, #4]
 8002a94:	06da      	lsls	r2, r3, #27
 8002a96:	d506      	bpl.n	8002aa6 <UART_AdvFeatureConfig+0x5e>
 8002a98:	6801      	ldr	r1, [r0, #0]
 8002a9a:	4c1a      	ldr	r4, [pc, #104]	; (8002b04 <UART_AdvFeatureConfig+0xbc>)
 8002a9c:	688a      	ldr	r2, [r1, #8]
 8002a9e:	4022      	ands	r2, r4
 8002aa0:	6bc4      	ldr	r4, [r0, #60]	; 0x3c
 8002aa2:	4322      	orrs	r2, r4
 8002aa4:	608a      	str	r2, [r1, #8]
 8002aa6:	069a      	lsls	r2, r3, #26
 8002aa8:	d506      	bpl.n	8002ab8 <UART_AdvFeatureConfig+0x70>
 8002aaa:	6801      	ldr	r1, [r0, #0]
 8002aac:	4c16      	ldr	r4, [pc, #88]	; (8002b08 <UART_AdvFeatureConfig+0xc0>)
 8002aae:	688a      	ldr	r2, [r1, #8]
 8002ab0:	4022      	ands	r2, r4
 8002ab2:	6c04      	ldr	r4, [r0, #64]	; 0x40
 8002ab4:	4322      	orrs	r2, r4
 8002ab6:	608a      	str	r2, [r1, #8]
 8002ab8:	065a      	lsls	r2, r3, #25
 8002aba:	d510      	bpl.n	8002ade <UART_AdvFeatureConfig+0x96>
 8002abc:	6801      	ldr	r1, [r0, #0]
 8002abe:	4d13      	ldr	r5, [pc, #76]	; (8002b0c <UART_AdvFeatureConfig+0xc4>)
 8002ac0:	684a      	ldr	r2, [r1, #4]
 8002ac2:	6c44      	ldr	r4, [r0, #68]	; 0x44
 8002ac4:	402a      	ands	r2, r5
 8002ac6:	4322      	orrs	r2, r4
 8002ac8:	604a      	str	r2, [r1, #4]
 8002aca:	2280      	movs	r2, #128	; 0x80
 8002acc:	0352      	lsls	r2, r2, #13
 8002ace:	4294      	cmp	r4, r2
 8002ad0:	d105      	bne.n	8002ade <UART_AdvFeatureConfig+0x96>
 8002ad2:	684a      	ldr	r2, [r1, #4]
 8002ad4:	4c0e      	ldr	r4, [pc, #56]	; (8002b10 <UART_AdvFeatureConfig+0xc8>)
 8002ad6:	4022      	ands	r2, r4
 8002ad8:	6c84      	ldr	r4, [r0, #72]	; 0x48
 8002ada:	4322      	orrs	r2, r4
 8002adc:	604a      	str	r2, [r1, #4]
 8002ade:	061b      	lsls	r3, r3, #24
 8002ae0:	d506      	bpl.n	8002af0 <UART_AdvFeatureConfig+0xa8>
 8002ae2:	6802      	ldr	r2, [r0, #0]
 8002ae4:	490b      	ldr	r1, [pc, #44]	; (8002b14 <UART_AdvFeatureConfig+0xcc>)
 8002ae6:	6853      	ldr	r3, [r2, #4]
 8002ae8:	400b      	ands	r3, r1
 8002aea:	6cc1      	ldr	r1, [r0, #76]	; 0x4c
 8002aec:	430b      	orrs	r3, r1
 8002aee:	6053      	str	r3, [r2, #4]
 8002af0:	bd30      	pop	{r4, r5, pc}
 8002af2:	46c0      	nop			; (mov r8, r8)
 8002af4:	fffdffff 	.word	0xfffdffff
 8002af8:	fffeffff 	.word	0xfffeffff
 8002afc:	fffbffff 	.word	0xfffbffff
 8002b00:	ffff7fff 	.word	0xffff7fff
 8002b04:	ffffefff 	.word	0xffffefff
 8002b08:	ffffdfff 	.word	0xffffdfff
 8002b0c:	ffefffff 	.word	0xffefffff
 8002b10:	ff9fffff 	.word	0xff9fffff
 8002b14:	fff7ffff 	.word	0xfff7ffff

08002b18 <UART_WaitOnFlagUntilTimeout>:
 8002b18:	b5f7      	push	{r0, r1, r2, r4, r5, r6, r7, lr}
 8002b1a:	2780      	movs	r7, #128	; 0x80
 8002b1c:	0004      	movs	r4, r0
 8002b1e:	000d      	movs	r5, r1
 8002b20:	0016      	movs	r6, r2
 8002b22:	9301      	str	r3, [sp, #4]
 8002b24:	013f      	lsls	r7, r7, #4
 8002b26:	6822      	ldr	r2, [r4, #0]
 8002b28:	69d3      	ldr	r3, [r2, #28]
 8002b2a:	402b      	ands	r3, r5
 8002b2c:	1b5b      	subs	r3, r3, r5
 8002b2e:	4259      	negs	r1, r3
 8002b30:	414b      	adcs	r3, r1
 8002b32:	42b3      	cmp	r3, r6
 8002b34:	d001      	beq.n	8002b3a <UART_WaitOnFlagUntilTimeout+0x22>
 8002b36:	2000      	movs	r0, #0
 8002b38:	e02a      	b.n	8002b90 <UART_WaitOnFlagUntilTimeout+0x78>
 8002b3a:	9b08      	ldr	r3, [sp, #32]
 8002b3c:	3301      	adds	r3, #1
 8002b3e:	d0f3      	beq.n	8002b28 <UART_WaitOnFlagUntilTimeout+0x10>
 8002b40:	f7fe fa92 	bl	8001068 <HAL_GetTick>
 8002b44:	9b01      	ldr	r3, [sp, #4]
 8002b46:	1ac0      	subs	r0, r0, r3
 8002b48:	9b08      	ldr	r3, [sp, #32]
 8002b4a:	4298      	cmp	r0, r3
 8002b4c:	d801      	bhi.n	8002b52 <UART_WaitOnFlagUntilTimeout+0x3a>
 8002b4e:	2b00      	cmp	r3, #0
 8002b50:	d11f      	bne.n	8002b92 <UART_WaitOnFlagUntilTimeout+0x7a>
 8002b52:	f3ef 8010 	mrs	r0, PRIMASK
 8002b56:	2201      	movs	r2, #1
 8002b58:	f382 8810 	msr	PRIMASK, r2
 8002b5c:	6821      	ldr	r1, [r4, #0]
 8002b5e:	4d20      	ldr	r5, [pc, #128]	; (8002be0 <UART_WaitOnFlagUntilTimeout+0xc8>)
 8002b60:	680b      	ldr	r3, [r1, #0]
 8002b62:	402b      	ands	r3, r5
 8002b64:	600b      	str	r3, [r1, #0]
 8002b66:	f380 8810 	msr	PRIMASK, r0
 8002b6a:	f3ef 8010 	mrs	r0, PRIMASK
 8002b6e:	f382 8810 	msr	PRIMASK, r2
 8002b72:	6821      	ldr	r1, [r4, #0]
 8002b74:	688b      	ldr	r3, [r1, #8]
 8002b76:	4393      	bics	r3, r2
 8002b78:	608b      	str	r3, [r1, #8]
 8002b7a:	f380 8810 	msr	PRIMASK, r0
 8002b7e:	0022      	movs	r2, r4
 8002b80:	2320      	movs	r3, #32
 8002b82:	3288      	adds	r2, #136	; 0x88
 8002b84:	6013      	str	r3, [r2, #0]
 8002b86:	6053      	str	r3, [r2, #4]
 8002b88:	2300      	movs	r3, #0
 8002b8a:	2003      	movs	r0, #3
 8002b8c:	3484      	adds	r4, #132	; 0x84
 8002b8e:	7023      	strb	r3, [r4, #0]
 8002b90:	bdfe      	pop	{r1, r2, r3, r4, r5, r6, r7, pc}
 8002b92:	2104      	movs	r1, #4
 8002b94:	6823      	ldr	r3, [r4, #0]
 8002b96:	681a      	ldr	r2, [r3, #0]
 8002b98:	420a      	tst	r2, r1
 8002b9a:	d0c4      	beq.n	8002b26 <UART_WaitOnFlagUntilTimeout+0xe>
 8002b9c:	69da      	ldr	r2, [r3, #28]
 8002b9e:	423a      	tst	r2, r7
 8002ba0:	d0c1      	beq.n	8002b26 <UART_WaitOnFlagUntilTimeout+0xe>
 8002ba2:	621f      	str	r7, [r3, #32]
 8002ba4:	f3ef 8010 	mrs	r0, PRIMASK
 8002ba8:	2201      	movs	r2, #1
 8002baa:	f382 8810 	msr	PRIMASK, r2
 8002bae:	6821      	ldr	r1, [r4, #0]
 8002bb0:	4d0b      	ldr	r5, [pc, #44]	; (8002be0 <UART_WaitOnFlagUntilTimeout+0xc8>)
 8002bb2:	680b      	ldr	r3, [r1, #0]
 8002bb4:	402b      	ands	r3, r5
 8002bb6:	600b      	str	r3, [r1, #0]
 8002bb8:	f380 8810 	msr	PRIMASK, r0
 8002bbc:	f3ef 8010 	mrs	r0, PRIMASK
 8002bc0:	f382 8810 	msr	PRIMASK, r2
 8002bc4:	6821      	ldr	r1, [r4, #0]
 8002bc6:	688b      	ldr	r3, [r1, #8]
 8002bc8:	4393      	bics	r3, r2
 8002bca:	608b      	str	r3, [r1, #8]
 8002bcc:	f380 8810 	msr	PRIMASK, r0
 8002bd0:	0022      	movs	r2, r4
 8002bd2:	2320      	movs	r3, #32
 8002bd4:	3288      	adds	r2, #136	; 0x88
 8002bd6:	6013      	str	r3, [r2, #0]
 8002bd8:	6053      	str	r3, [r2, #4]
 8002bda:	6093      	str	r3, [r2, #8]
 8002bdc:	e7d4      	b.n	8002b88 <UART_WaitOnFlagUntilTimeout+0x70>
 8002bde:	46c0      	nop			; (mov r8, r8)
 8002be0:	fffffe5f 	.word	0xfffffe5f

08002be4 <UART_CheckIdleState>:
 8002be4:	0003      	movs	r3, r0
 8002be6:	b573      	push	{r0, r1, r4, r5, r6, lr}
 8002be8:	2600      	movs	r6, #0
 8002bea:	0004      	movs	r4, r0
 8002bec:	3390      	adds	r3, #144	; 0x90
 8002bee:	601e      	str	r6, [r3, #0]
 8002bf0:	f7fe fa3a 	bl	8001068 <HAL_GetTick>
 8002bf4:	6823      	ldr	r3, [r4, #0]
 8002bf6:	0005      	movs	r5, r0
 8002bf8:	681b      	ldr	r3, [r3, #0]
 8002bfa:	071b      	lsls	r3, r3, #28
 8002bfc:	d419      	bmi.n	8002c32 <UART_CheckIdleState+0x4e>
 8002bfe:	6823      	ldr	r3, [r4, #0]
 8002c00:	681b      	ldr	r3, [r3, #0]
 8002c02:	075b      	lsls	r3, r3, #29
 8002c04:	d50a      	bpl.n	8002c1c <UART_CheckIdleState+0x38>
 8002c06:	2180      	movs	r1, #128	; 0x80
 8002c08:	4b10      	ldr	r3, [pc, #64]	; (8002c4c <UART_CheckIdleState+0x68>)
 8002c0a:	2200      	movs	r2, #0
 8002c0c:	9300      	str	r3, [sp, #0]
 8002c0e:	0020      	movs	r0, r4
 8002c10:	002b      	movs	r3, r5
 8002c12:	03c9      	lsls	r1, r1, #15
 8002c14:	f7ff ff80 	bl	8002b18 <UART_WaitOnFlagUntilTimeout>
 8002c18:	2800      	cmp	r0, #0
 8002c1a:	d115      	bne.n	8002c48 <UART_CheckIdleState+0x64>
 8002c1c:	0022      	movs	r2, r4
 8002c1e:	2000      	movs	r0, #0
 8002c20:	2320      	movs	r3, #32
 8002c22:	3288      	adds	r2, #136	; 0x88
 8002c24:	6013      	str	r3, [r2, #0]
 8002c26:	6053      	str	r3, [r2, #4]
 8002c28:	66e0      	str	r0, [r4, #108]	; 0x6c
 8002c2a:	6720      	str	r0, [r4, #112]	; 0x70
 8002c2c:	3484      	adds	r4, #132	; 0x84
 8002c2e:	7020      	strb	r0, [r4, #0]
 8002c30:	e00b      	b.n	8002c4a <UART_CheckIdleState+0x66>
 8002c32:	2180      	movs	r1, #128	; 0x80
 8002c34:	4b05      	ldr	r3, [pc, #20]	; (8002c4c <UART_CheckIdleState+0x68>)
 8002c36:	0032      	movs	r2, r6
 8002c38:	9300      	str	r3, [sp, #0]
 8002c3a:	0389      	lsls	r1, r1, #14
 8002c3c:	0003      	movs	r3, r0
 8002c3e:	0020      	movs	r0, r4
 8002c40:	f7ff ff6a 	bl	8002b18 <UART_WaitOnFlagUntilTimeout>
 8002c44:	2800      	cmp	r0, #0
 8002c46:	d0da      	beq.n	8002bfe <UART_CheckIdleState+0x1a>
 8002c48:	2003      	movs	r0, #3
 8002c4a:	bd76      	pop	{r1, r2, r4, r5, r6, pc}
 8002c4c:	01ffffff 	.word	0x01ffffff

08002c50 <HAL_UART_Init>:
 8002c50:	b570      	push	{r4, r5, r6, lr}
 8002c52:	1e04      	subs	r4, r0, #0
 8002c54:	d101      	bne.n	8002c5a <HAL_UART_Init+0xa>
 8002c56:	2001      	movs	r0, #1
 8002c58:	bd70      	pop	{r4, r5, r6, pc}
 8002c5a:	0005      	movs	r5, r0
 8002c5c:	3588      	adds	r5, #136	; 0x88
 8002c5e:	682b      	ldr	r3, [r5, #0]
 8002c60:	2b00      	cmp	r3, #0
 8002c62:	d104      	bne.n	8002c6e <HAL_UART_Init+0x1e>
 8002c64:	0002      	movs	r2, r0
 8002c66:	3284      	adds	r2, #132	; 0x84
 8002c68:	7013      	strb	r3, [r2, #0]
 8002c6a:	f7fd ffb7 	bl	8000bdc <HAL_UART_MspInit>
 8002c6e:	2324      	movs	r3, #36	; 0x24
 8002c70:	2101      	movs	r1, #1
 8002c72:	6822      	ldr	r2, [r4, #0]
 8002c74:	602b      	str	r3, [r5, #0]
 8002c76:	6813      	ldr	r3, [r2, #0]
 8002c78:	0020      	movs	r0, r4
 8002c7a:	438b      	bics	r3, r1
 8002c7c:	6013      	str	r3, [r2, #0]
 8002c7e:	f7ff fd73 	bl	8002768 <UART_SetConfig>
 8002c82:	2801      	cmp	r0, #1
 8002c84:	d0e7      	beq.n	8002c56 <HAL_UART_Init+0x6>
 8002c86:	6aa3      	ldr	r3, [r4, #40]	; 0x28
 8002c88:	2b00      	cmp	r3, #0
 8002c8a:	d002      	beq.n	8002c92 <HAL_UART_Init+0x42>
 8002c8c:	0020      	movs	r0, r4
 8002c8e:	f7ff fedb 	bl	8002a48 <UART_AdvFeatureConfig>
 8002c92:	6823      	ldr	r3, [r4, #0]
 8002c94:	4907      	ldr	r1, [pc, #28]	; (8002cb4 <HAL_UART_Init+0x64>)
 8002c96:	685a      	ldr	r2, [r3, #4]
 8002c98:	0020      	movs	r0, r4
 8002c9a:	400a      	ands	r2, r1
 8002c9c:	212a      	movs	r1, #42	; 0x2a
 8002c9e:	605a      	str	r2, [r3, #4]
 8002ca0:	689a      	ldr	r2, [r3, #8]
 8002ca2:	438a      	bics	r2, r1
 8002ca4:	609a      	str	r2, [r3, #8]
 8002ca6:	2201      	movs	r2, #1
 8002ca8:	6819      	ldr	r1, [r3, #0]
 8002caa:	430a      	orrs	r2, r1
 8002cac:	601a      	str	r2, [r3, #0]
 8002cae:	f7ff ff99 	bl	8002be4 <UART_CheckIdleState>
 8002cb2:	e7d1      	b.n	8002c58 <HAL_UART_Init+0x8>
 8002cb4:	ffffb7ff 	.word	0xffffb7ff

08002cb8 <UARTEx_SetNbDataToProcess>:
 8002cb8:	b5f8      	push	{r3, r4, r5, r6, r7, lr}
 8002cba:	6e43      	ldr	r3, [r0, #100]	; 0x64
 8002cbc:	0004      	movs	r4, r0
 8002cbe:	2b00      	cmp	r3, #0
 8002cc0:	d102      	bne.n	8002cc8 <UARTEx_SetNbDataToProcess+0x10>
 8002cc2:	4b0d      	ldr	r3, [pc, #52]	; (8002cf8 <UARTEx_SetNbDataToProcess+0x40>)
 8002cc4:	6683      	str	r3, [r0, #104]	; 0x68
 8002cc6:	bdf8      	pop	{r3, r4, r5, r6, r7, pc}
 8002cc8:	6803      	ldr	r3, [r0, #0]
 8002cca:	4e0c      	ldr	r6, [pc, #48]	; (8002cfc <UARTEx_SetNbDataToProcess+0x44>)
 8002ccc:	689f      	ldr	r7, [r3, #8]
 8002cce:	689b      	ldr	r3, [r3, #8]
 8002cd0:	4d0b      	ldr	r5, [pc, #44]	; (8002d00 <UARTEx_SetNbDataToProcess+0x48>)
 8002cd2:	0f5b      	lsrs	r3, r3, #29
 8002cd4:	5cf0      	ldrb	r0, [r6, r3]
 8002cd6:	5ce9      	ldrb	r1, [r5, r3]
 8002cd8:	00c0      	lsls	r0, r0, #3
 8002cda:	f7fd fab1 	bl	8000240 <__divsi3>
 8002cde:	0023      	movs	r3, r4
 8002ce0:	336a      	adds	r3, #106	; 0x6a
 8002ce2:	8018      	strh	r0, [r3, #0]
 8002ce4:	013b      	lsls	r3, r7, #4
 8002ce6:	0f5b      	lsrs	r3, r3, #29
 8002ce8:	5cf0      	ldrb	r0, [r6, r3]
 8002cea:	5ce9      	ldrb	r1, [r5, r3]
 8002cec:	00c0      	lsls	r0, r0, #3
 8002cee:	f7fd faa7 	bl	8000240 <__divsi3>
 8002cf2:	3468      	adds	r4, #104	; 0x68
 8002cf4:	8020      	strh	r0, [r4, #0]
 8002cf6:	e7e6      	b.n	8002cc6 <UARTEx_SetNbDataToProcess+0xe>
 8002cf8:	00010001 	.word	0x00010001
 8002cfc:	08002ed4 	.word	0x08002ed4
 8002d00:	08002ecc 	.word	0x08002ecc

08002d04 <HAL_UARTEx_DisableFifoMode>:
 8002d04:	b570      	push	{r4, r5, r6, lr}
 8002d06:	0004      	movs	r4, r0
 8002d08:	3484      	adds	r4, #132	; 0x84
 8002d0a:	7822      	ldrb	r2, [r4, #0]
 8002d0c:	0003      	movs	r3, r0
 8002d0e:	2002      	movs	r0, #2
 8002d10:	2a01      	cmp	r2, #1
 8002d12:	d011      	beq.n	8002d38 <HAL_UARTEx_DisableFifoMode+0x34>
 8002d14:	001d      	movs	r5, r3
 8002d16:	2224      	movs	r2, #36	; 0x24
 8002d18:	2601      	movs	r6, #1
 8002d1a:	3588      	adds	r5, #136	; 0x88
 8002d1c:	602a      	str	r2, [r5, #0]
 8002d1e:	681a      	ldr	r2, [r3, #0]
 8002d20:	6811      	ldr	r1, [r2, #0]
 8002d22:	6810      	ldr	r0, [r2, #0]
 8002d24:	43b0      	bics	r0, r6
 8002d26:	6010      	str	r0, [r2, #0]
 8002d28:	4804      	ldr	r0, [pc, #16]	; (8002d3c <HAL_UARTEx_DisableFifoMode+0x38>)
 8002d2a:	4001      	ands	r1, r0
 8002d2c:	2000      	movs	r0, #0
 8002d2e:	6658      	str	r0, [r3, #100]	; 0x64
 8002d30:	2320      	movs	r3, #32
 8002d32:	6011      	str	r1, [r2, #0]
 8002d34:	602b      	str	r3, [r5, #0]
 8002d36:	7020      	strb	r0, [r4, #0]
 8002d38:	bd70      	pop	{r4, r5, r6, pc}
 8002d3a:	46c0      	nop			; (mov r8, r8)
 8002d3c:	dfffffff 	.word	0xdfffffff

08002d40 <HAL_UARTEx_SetTxFifoThreshold>:
 8002d40:	b5f8      	push	{r3, r4, r5, r6, r7, lr}
 8002d42:	0004      	movs	r4, r0
 8002d44:	0025      	movs	r5, r4
 8002d46:	3584      	adds	r5, #132	; 0x84
 8002d48:	782a      	ldrb	r2, [r5, #0]
 8002d4a:	0008      	movs	r0, r1
 8002d4c:	2302      	movs	r3, #2
 8002d4e:	2a01      	cmp	r2, #1
 8002d50:	d018      	beq.n	8002d84 <HAL_UARTEx_SetTxFifoThreshold+0x44>
 8002d52:	2101      	movs	r1, #1
 8002d54:	0026      	movs	r6, r4
 8002d56:	7029      	strb	r1, [r5, #0]
 8002d58:	6822      	ldr	r2, [r4, #0]
 8002d5a:	3688      	adds	r6, #136	; 0x88
 8002d5c:	3322      	adds	r3, #34	; 0x22
 8002d5e:	6033      	str	r3, [r6, #0]
 8002d60:	6817      	ldr	r7, [r2, #0]
 8002d62:	6813      	ldr	r3, [r2, #0]
 8002d64:	438b      	bics	r3, r1
 8002d66:	6013      	str	r3, [r2, #0]
 8002d68:	6893      	ldr	r3, [r2, #8]
 8002d6a:	00db      	lsls	r3, r3, #3
 8002d6c:	08d9      	lsrs	r1, r3, #3
 8002d6e:	4301      	orrs	r1, r0
 8002d70:	6091      	str	r1, [r2, #8]
 8002d72:	0020      	movs	r0, r4
 8002d74:	f7ff ffa0 	bl	8002cb8 <UARTEx_SetNbDataToProcess>
 8002d78:	6823      	ldr	r3, [r4, #0]
 8002d7a:	601f      	str	r7, [r3, #0]
 8002d7c:	2320      	movs	r3, #32
 8002d7e:	6033      	str	r3, [r6, #0]
 8002d80:	2300      	movs	r3, #0
 8002d82:	702b      	strb	r3, [r5, #0]
 8002d84:	0018      	movs	r0, r3
 8002d86:	bdf8      	pop	{r3, r4, r5, r6, r7, pc}

08002d88 <HAL_UARTEx_SetRxFifoThreshold>:
 8002d88:	b5f8      	push	{r3, r4, r5, r6, r7, lr}
 8002d8a:	0005      	movs	r5, r0
 8002d8c:	3584      	adds	r5, #132	; 0x84
 8002d8e:	782b      	ldrb	r3, [r5, #0]
 8002d90:	0004      	movs	r4, r0
 8002d92:	000a      	movs	r2, r1
 8002d94:	2002      	movs	r0, #2
 8002d96:	2b01      	cmp	r3, #1
 8002d98:	d018      	beq.n	8002dcc <HAL_UARTEx_SetRxFifoThreshold+0x44>
 8002d9a:	0026      	movs	r6, r4
 8002d9c:	2324      	movs	r3, #36	; 0x24
 8002d9e:	3801      	subs	r0, #1
 8002da0:	7028      	strb	r0, [r5, #0]
 8002da2:	3688      	adds	r6, #136	; 0x88
 8002da4:	6033      	str	r3, [r6, #0]
 8002da6:	6823      	ldr	r3, [r4, #0]
 8002da8:	681f      	ldr	r7, [r3, #0]
 8002daa:	6819      	ldr	r1, [r3, #0]
 8002dac:	4381      	bics	r1, r0
 8002dae:	6019      	str	r1, [r3, #0]
 8002db0:	6899      	ldr	r1, [r3, #8]
 8002db2:	4807      	ldr	r0, [pc, #28]	; (8002dd0 <HAL_UARTEx_SetRxFifoThreshold+0x48>)
 8002db4:	4001      	ands	r1, r0
 8002db6:	4311      	orrs	r1, r2
 8002db8:	0020      	movs	r0, r4
 8002dba:	6099      	str	r1, [r3, #8]
 8002dbc:	f7ff ff7c 	bl	8002cb8 <UARTEx_SetNbDataToProcess>
 8002dc0:	6823      	ldr	r3, [r4, #0]
 8002dc2:	2000      	movs	r0, #0
 8002dc4:	601f      	str	r7, [r3, #0]
 8002dc6:	2320      	movs	r3, #32
 8002dc8:	6033      	str	r3, [r6, #0]
 8002dca:	7028      	strb	r0, [r5, #0]
 8002dcc:	bdf8      	pop	{r3, r4, r5, r6, r7, pc}
 8002dce:	46c0      	nop			; (mov r8, r8)
 8002dd0:	f1ffffff 	.word	0xf1ffffff

08002dd4 <__libc_init_array>:
 8002dd4:	b570      	push	{r4, r5, r6, lr}
 8002dd6:	2600      	movs	r6, #0
 8002dd8:	4d0c      	ldr	r5, [pc, #48]	; (8002e0c <__libc_init_array+0x38>)
 8002dda:	4c0d      	ldr	r4, [pc, #52]	; (8002e10 <__libc_init_array+0x3c>)
 8002ddc:	1b64      	subs	r4, r4, r5
 8002dde:	10a4      	asrs	r4, r4, #2
 8002de0:	42a6      	cmp	r6, r4
 8002de2:	d109      	bne.n	8002df8 <__libc_init_array+0x24>
 8002de4:	2600      	movs	r6, #0
 8002de6:	f000 f821 	bl	8002e2c <_init>
 8002dea:	4d0a      	ldr	r5, [pc, #40]	; (8002e14 <__libc_init_array+0x40>)
 8002dec:	4c0a      	ldr	r4, [pc, #40]	; (8002e18 <__libc_init_array+0x44>)
 8002dee:	1b64      	subs	r4, r4, r5
 8002df0:	10a4      	asrs	r4, r4, #2
 8002df2:	42a6      	cmp	r6, r4
 8002df4:	d105      	bne.n	8002e02 <__libc_init_array+0x2e>
 8002df6:	bd70      	pop	{r4, r5, r6, pc}
 8002df8:	00b3      	lsls	r3, r6, #2
 8002dfa:	58eb      	ldr	r3, [r5, r3]
 8002dfc:	4798      	blx	r3
 8002dfe:	3601      	adds	r6, #1
 8002e00:	e7ee      	b.n	8002de0 <__libc_init_array+0xc>
 8002e02:	00b3      	lsls	r3, r6, #2
 8002e04:	58eb      	ldr	r3, [r5, r3]
 8002e06:	4798      	blx	r3
 8002e08:	3601      	adds	r6, #1
 8002e0a:	e7f2      	b.n	8002df2 <__libc_init_array+0x1e>
 8002e0c:	08002ee4 	.word	0x08002ee4
 8002e10:	08002ee4 	.word	0x08002ee4
 8002e14:	08002ee4 	.word	0x08002ee4
 8002e18:	08002ee8 	.word	0x08002ee8

08002e1c <memset>:
 8002e1c:	0003      	movs	r3, r0
 8002e1e:	1882      	adds	r2, r0, r2
 8002e20:	4293      	cmp	r3, r2
 8002e22:	d100      	bne.n	8002e26 <memset+0xa>
 8002e24:	4770      	bx	lr
 8002e26:	7019      	strb	r1, [r3, #0]
 8002e28:	3301      	adds	r3, #1
 8002e2a:	e7f9      	b.n	8002e20 <memset+0x4>

08002e2c <_init>:
 8002e2c:	b5f8      	push	{r3, r4, r5, r6, r7, lr}
 8002e2e:	46c0      	nop			; (mov r8, r8)
 8002e30:	bcf8      	pop	{r3, r4, r5, r6, r7}
 8002e32:	bc08      	pop	{r3}
 8002e34:	469e      	mov	lr, r3
 8002e36:	4770      	bx	lr

08002e38 <_fini>:
 8002e38:	b5f8      	push	{r3, r4, r5, r6, r7, lr}
 8002e3a:	46c0      	nop			; (mov r8, r8)
 8002e3c:	bcf8      	pop	{r3, r4, r5, r6, r7}
 8002e3e:	bc08      	pop	{r3}
 8002e40:	469e      	mov	lr, r3
 8002e42:	4770      	bx	lr
